
../lpc_firmware/freertos_i2c_sensor/output/freertos_i2c_sensor.elf:     file format elf32-littlearm


Disassembly of section .text:

00000200 <__do_global_dtors_aux>:
     200:	b510      	push	{r4, lr}
     202:	4c05      	ldr	r4, [pc, #20]	; (218 <__do_global_dtors_aux+0x18>)
     204:	7823      	ldrb	r3, [r4, #0]
     206:	b933      	cbnz	r3, 216 <__do_global_dtors_aux+0x16>
     208:	4b04      	ldr	r3, [pc, #16]	; (21c <__do_global_dtors_aux+0x1c>)
     20a:	b113      	cbz	r3, 212 <__do_global_dtors_aux+0x12>
     20c:	4804      	ldr	r0, [pc, #16]	; (220 <__do_global_dtors_aux+0x20>)
     20e:	f3af 8000 	nop.w
     212:	2301      	movs	r3, #1
     214:	7023      	strb	r3, [r4, #0]
     216:	bd10      	pop	{r4, pc}
     218:	2000043c 	.word	0x2000043c
     21c:	00000000 	.word	0x00000000
     220:	00009330 	.word	0x00009330

00000224 <frame_dummy>:
     224:	b508      	push	{r3, lr}
     226:	4b03      	ldr	r3, [pc, #12]	; (234 <frame_dummy+0x10>)
     228:	b11b      	cbz	r3, 232 <frame_dummy+0xe>
     22a:	4903      	ldr	r1, [pc, #12]	; (238 <frame_dummy+0x14>)
     22c:	4803      	ldr	r0, [pc, #12]	; (23c <frame_dummy+0x18>)
     22e:	f3af 8000 	nop.w
     232:	bd08      	pop	{r3, pc}
     234:	00000000 	.word	0x00000000
     238:	20000440 	.word	0x20000440
     23c:	00009330 	.word	0x00009330

00000240 <_stack_init>:
     240:	f5a3 3a80 	sub.w	sl, r3, #65536	; 0x10000
     244:	4770      	bx	lr
     246:	bf00      	nop

00000248 <_mainCRTStartup>:
     248:	4b17      	ldr	r3, [pc, #92]	; (2a8 <_mainCRTStartup+0x60>)
     24a:	2b00      	cmp	r3, #0
     24c:	bf08      	it	eq
     24e:	4b13      	ldreq	r3, [pc, #76]	; (29c <_mainCRTStartup+0x54>)
     250:	469d      	mov	sp, r3
     252:	f7ff fff5 	bl	240 <_stack_init>
     256:	2100      	movs	r1, #0
     258:	468b      	mov	fp, r1
     25a:	460f      	mov	r7, r1
     25c:	4813      	ldr	r0, [pc, #76]	; (2ac <_mainCRTStartup+0x64>)
     25e:	4a14      	ldr	r2, [pc, #80]	; (2b0 <_mainCRTStartup+0x68>)
     260:	1a12      	subs	r2, r2, r0
     262:	f008 f93b 	bl	84dc <memset>
     266:	4b0e      	ldr	r3, [pc, #56]	; (2a0 <_mainCRTStartup+0x58>)
     268:	2b00      	cmp	r3, #0
     26a:	d000      	beq.n	26e <_mainCRTStartup+0x26>
     26c:	4798      	blx	r3
     26e:	4b0d      	ldr	r3, [pc, #52]	; (2a4 <_mainCRTStartup+0x5c>)
     270:	2b00      	cmp	r3, #0
     272:	d000      	beq.n	276 <_mainCRTStartup+0x2e>
     274:	4798      	blx	r3
     276:	2000      	movs	r0, #0
     278:	2100      	movs	r1, #0
     27a:	0004      	movs	r4, r0
     27c:	000d      	movs	r5, r1
     27e:	480d      	ldr	r0, [pc, #52]	; (2b4 <_mainCRTStartup+0x6c>)
     280:	2800      	cmp	r0, #0
     282:	d002      	beq.n	28a <_mainCRTStartup+0x42>
     284:	480c      	ldr	r0, [pc, #48]	; (2b8 <_mainCRTStartup+0x70>)
     286:	f008 fa11 	bl	86ac <atexit>
     28a:	f008 f903 	bl	8494 <__libc_init_array>
     28e:	0020      	movs	r0, r4
     290:	0029      	movs	r1, r5
     292:	f007 f887 	bl	73a4 <main>
     296:	f008 f8ed 	bl	8474 <exit>
     29a:	bf00      	nop
     29c:	00080000 	.word	0x00080000
	...
     2a8:	20033000 	.word	0x20033000
     2ac:	2000043c 	.word	0x2000043c
     2b0:	20002e7c 	.word	0x20002e7c
     2b4:	000086ad 	.word	0x000086ad
     2b8:	000086b9 	.word	0x000086b9

000002bc <Reset_Handler>:
     2bc:	b672      	cpsid	i
     2be:	4817      	ldr	r0, [pc, #92]	; (31c <Reset_Handler+0x60>)
     2c0:	4917      	ldr	r1, [pc, #92]	; (320 <Reset_Handler+0x64>)
     2c2:	6001      	str	r1, [r0, #0]
     2c4:	680a      	ldr	r2, [r1, #0]
     2c6:	f382 8808 	msr	MSP, r2
     2ca:	4816      	ldr	r0, [pc, #88]	; (324 <Reset_Handler+0x68>)
     2cc:	f380 880a 	msr	MSPLIM, r0
     2d0:	4815      	ldr	r0, [pc, #84]	; (328 <Reset_Handler+0x6c>)
     2d2:	4780      	blx	r0
     2d4:	4915      	ldr	r1, [pc, #84]	; (32c <Reset_Handler+0x70>)
     2d6:	4a16      	ldr	r2, [pc, #88]	; (330 <Reset_Handler+0x74>)
     2d8:	4b16      	ldr	r3, [pc, #88]	; (334 <Reset_Handler+0x78>)
     2da:	429a      	cmp	r2, r3
     2dc:	bfbe      	ittt	lt
     2de:	f851 0b04 	ldrlt.w	r0, [r1], #4
     2e2:	f842 0b04 	strlt.w	r0, [r2], #4
     2e6:	e7f8      	blt.n	2da <Reset_Handler+0x1e>
     2e8:	4913      	ldr	r1, [pc, #76]	; (338 <Reset_Handler+0x7c>)
     2ea:	4a14      	ldr	r2, [pc, #80]	; (33c <Reset_Handler+0x80>)
     2ec:	2000      	movs	r0, #0
     2ee:	4291      	cmp	r1, r2
     2f0:	bfbc      	itt	lt
     2f2:	f841 0b04 	strlt.w	r0, [r1], #4
     2f6:	e7fa      	blt.n	2ee <Reset_Handler+0x32>
     2f8:	2000      	movs	r0, #0
     2fa:	4911      	ldr	r1, [pc, #68]	; (340 <Reset_Handler+0x84>)
     2fc:	4a11      	ldr	r2, [pc, #68]	; (344 <Reset_Handler+0x88>)
     2fe:	4291      	cmp	r1, r2
     300:	bfbc      	itt	lt
     302:	f841 0b04 	strlt.w	r0, [r1], #4
     306:	e7fa      	blt.n	2fe <Reset_Handler+0x42>
     308:	490f      	ldr	r1, [pc, #60]	; (348 <Reset_Handler+0x8c>)
     30a:	4a10      	ldr	r2, [pc, #64]	; (34c <Reset_Handler+0x90>)
     30c:	4291      	cmp	r1, r2
     30e:	bfbc      	itt	lt
     310:	f841 0b04 	strlt.w	r0, [r1], #4
     314:	e7fa      	blt.n	30c <Reset_Handler+0x50>
     316:	b662      	cpsie	i
     318:	480d      	ldr	r0, [pc, #52]	; (350 <Reset_Handler+0x94>)
     31a:	4780      	blx	r0
     31c:	e000ed08 	.word	0xe000ed08
     320:	00000000 	.word	0x00000000
     324:	20032800 	.word	0x20032800
     328:	0000147d 	.word	0x0000147d
     32c:	0000935c 	.word	0x0000935c
     330:	20000000 	.word	0x20000000
     334:	2000043c 	.word	0x2000043c
     338:	2000043c 	.word	0x2000043c
     33c:	20002e7c 	.word	0x20002e7c
     340:	20002e80 	.word	0x20002e80
     344:	20003280 	.word	0x20003280
     348:	20032800 	.word	0x20032800
     34c:	20033000 	.word	0x20033000
     350:	00000249 	.word	0x00000249

00000354 <ACMP_DriverIRQHandler>:
     354:	f7ff bffe 	b.w	354 <ACMP_DriverIRQHandler>

00000358 <NMI_Handler>:
     358:	4840      	ldr	r0, [pc, #256]	; (45c <FLEXCOMM8_IRQHandler+0x4>)
     35a:	4700      	bx	r0

0000035c <HardFault_Handler>:
     35c:	4840      	ldr	r0, [pc, #256]	; (460 <FLEXCOMM8_IRQHandler+0x8>)
     35e:	4700      	bx	r0
     360:	4840      	ldr	r0, [pc, #256]	; (464 <FLEXCOMM8_IRQHandler+0xc>)
     362:	4700      	bx	r0
     364:	4840      	ldr	r0, [pc, #256]	; (468 <FLEXCOMM8_IRQHandler+0x10>)
     366:	4700      	bx	r0
     368:	4840      	ldr	r0, [pc, #256]	; (46c <FLEXCOMM8_IRQHandler+0x14>)
     36a:	4700      	bx	r0

0000036c <WDT_BOD_IRQHandler>:
     36c:	4840      	ldr	r0, [pc, #256]	; (470 <FLEXCOMM8_IRQHandler+0x18>)
     36e:	4700      	bx	r0

00000370 <DMA0_IRQHandler>:
     370:	4840      	ldr	r0, [pc, #256]	; (474 <FLEXCOMM8_IRQHandler+0x1c>)
     372:	4700      	bx	r0

00000374 <GINT0_IRQHandler>:
     374:	4840      	ldr	r0, [pc, #256]	; (478 <FLEXCOMM8_IRQHandler+0x20>)
     376:	4700      	bx	r0

00000378 <GINT1_IRQHandler>:
     378:	4840      	ldr	r0, [pc, #256]	; (47c <FLEXCOMM8_IRQHandler+0x24>)
     37a:	4700      	bx	r0

0000037c <PIN_INT0_IRQHandler>:
     37c:	4840      	ldr	r0, [pc, #256]	; (480 <FLEXCOMM8_IRQHandler+0x28>)
     37e:	4700      	bx	r0

00000380 <PIN_INT1_IRQHandler>:
     380:	4840      	ldr	r0, [pc, #256]	; (484 <FLEXCOMM8_IRQHandler+0x2c>)
     382:	4700      	bx	r0

00000384 <PIN_INT2_IRQHandler>:
     384:	4840      	ldr	r0, [pc, #256]	; (488 <FLEXCOMM8_IRQHandler+0x30>)
     386:	4700      	bx	r0

00000388 <PIN_INT3_IRQHandler>:
     388:	4840      	ldr	r0, [pc, #256]	; (48c <FLEXCOMM8_IRQHandler+0x34>)
     38a:	4700      	bx	r0

0000038c <UTICK0_IRQHandler>:
     38c:	4840      	ldr	r0, [pc, #256]	; (490 <FLEXCOMM8_IRQHandler+0x38>)
     38e:	4700      	bx	r0

00000390 <MRT0_IRQHandler>:
     390:	4840      	ldr	r0, [pc, #256]	; (494 <FLEXCOMM8_IRQHandler+0x3c>)
     392:	4700      	bx	r0

00000394 <CTIMER0_IRQHandler>:
     394:	4840      	ldr	r0, [pc, #256]	; (498 <FLEXCOMM8_IRQHandler+0x40>)
     396:	4700      	bx	r0

00000398 <CTIMER1_IRQHandler>:
     398:	4840      	ldr	r0, [pc, #256]	; (49c <FLEXCOMM8_IRQHandler+0x44>)
     39a:	4700      	bx	r0

0000039c <SCT0_IRQHandler>:
     39c:	4840      	ldr	r0, [pc, #256]	; (4a0 <FLEXCOMM8_IRQHandler+0x48>)
     39e:	4700      	bx	r0

000003a0 <CTIMER3_IRQHandler>:
     3a0:	4840      	ldr	r0, [pc, #256]	; (4a4 <FLEXCOMM8_IRQHandler+0x4c>)
     3a2:	4700      	bx	r0

000003a4 <FLEXCOMM0_IRQHandler>:
     3a4:	4840      	ldr	r0, [pc, #256]	; (4a8 <FLEXCOMM8_IRQHandler+0x50>)
     3a6:	4700      	bx	r0

000003a8 <FLEXCOMM1_IRQHandler>:
     3a8:	4840      	ldr	r0, [pc, #256]	; (4ac <FLEXCOMM8_IRQHandler+0x54>)
     3aa:	4700      	bx	r0

000003ac <FLEXCOMM2_IRQHandler>:
     3ac:	4840      	ldr	r0, [pc, #256]	; (4b0 <FLEXCOMM8_IRQHandler+0x58>)
     3ae:	4700      	bx	r0

000003b0 <FLEXCOMM3_IRQHandler>:
     3b0:	4840      	ldr	r0, [pc, #256]	; (4b4 <FLEXCOMM8_IRQHandler+0x5c>)
     3b2:	4700      	bx	r0

000003b4 <FLEXCOMM4_IRQHandler>:
     3b4:	4840      	ldr	r0, [pc, #256]	; (4b8 <FLEXCOMM8_IRQHandler+0x60>)
     3b6:	4700      	bx	r0

000003b8 <FLEXCOMM5_IRQHandler>:
     3b8:	4840      	ldr	r0, [pc, #256]	; (4bc <FLEXCOMM8_IRQHandler+0x64>)
     3ba:	4700      	bx	r0

000003bc <FLEXCOMM6_IRQHandler>:
     3bc:	4840      	ldr	r0, [pc, #256]	; (4c0 <FLEXCOMM8_IRQHandler+0x68>)
     3be:	4700      	bx	r0

000003c0 <FLEXCOMM7_IRQHandler>:
     3c0:	4840      	ldr	r0, [pc, #256]	; (4c4 <FLEXCOMM8_IRQHandler+0x6c>)
     3c2:	4700      	bx	r0

000003c4 <ADC0_IRQHandler>:
     3c4:	4840      	ldr	r0, [pc, #256]	; (4c8 <FLEXCOMM8_IRQHandler+0x70>)
     3c6:	4700      	bx	r0

000003c8 <Reserved39_IRQHandler>:
     3c8:	4840      	ldr	r0, [pc, #256]	; (4cc <FLEXCOMM8_IRQHandler+0x74>)
     3ca:	4700      	bx	r0

000003cc <ACMP_IRQHandler>:
     3cc:	4840      	ldr	r0, [pc, #256]	; (4d0 <FLEXCOMM8_IRQHandler+0x78>)
     3ce:	4700      	bx	r0

000003d0 <Reserved41_IRQHandler>:
     3d0:	4840      	ldr	r0, [pc, #256]	; (4d4 <FLEXCOMM8_IRQHandler+0x7c>)
     3d2:	4700      	bx	r0

000003d4 <Reserved42_IRQHandler>:
     3d4:	4840      	ldr	r0, [pc, #256]	; (4d8 <FLEXCOMM8_IRQHandler+0x80>)
     3d6:	4700      	bx	r0

000003d8 <USB0_NEEDCLK_IRQHandler>:
     3d8:	4840      	ldr	r0, [pc, #256]	; (4dc <FLEXCOMM8_IRQHandler+0x84>)
     3da:	4700      	bx	r0

000003dc <USB0_IRQHandler>:
     3dc:	4840      	ldr	r0, [pc, #256]	; (4e0 <FLEXCOMM8_IRQHandler+0x88>)
     3de:	4700      	bx	r0

000003e0 <RTC_IRQHandler>:
     3e0:	4840      	ldr	r0, [pc, #256]	; (4e4 <FLEXCOMM8_IRQHandler+0x8c>)
     3e2:	4700      	bx	r0

000003e4 <Reserved46_IRQHandler>:
     3e4:	4840      	ldr	r0, [pc, #256]	; (4e8 <FLEXCOMM8_IRQHandler+0x90>)
     3e6:	4700      	bx	r0

000003e8 <MAILBOX_IRQHandler>:
     3e8:	4840      	ldr	r0, [pc, #256]	; (4ec <FLEXCOMM8_IRQHandler+0x94>)
     3ea:	4700      	bx	r0

000003ec <PIN_INT4_IRQHandler>:
     3ec:	4840      	ldr	r0, [pc, #256]	; (4f0 <FLEXCOMM8_IRQHandler+0x98>)
     3ee:	4700      	bx	r0

000003f0 <PIN_INT5_IRQHandler>:
     3f0:	4840      	ldr	r0, [pc, #256]	; (4f4 <FLEXCOMM8_IRQHandler+0x9c>)
     3f2:	4700      	bx	r0

000003f4 <PIN_INT6_IRQHandler>:
     3f4:	4840      	ldr	r0, [pc, #256]	; (4f8 <FLEXCOMM8_IRQHandler+0xa0>)
     3f6:	4700      	bx	r0

000003f8 <PIN_INT7_IRQHandler>:
     3f8:	4840      	ldr	r0, [pc, #256]	; (4fc <FLEXCOMM8_IRQHandler+0xa4>)
     3fa:	4700      	bx	r0

000003fc <CTIMER2_IRQHandler>:
     3fc:	4840      	ldr	r0, [pc, #256]	; (500 <FLEXCOMM8_IRQHandler+0xa8>)
     3fe:	4700      	bx	r0

00000400 <CTIMER4_IRQHandler>:
     400:	4840      	ldr	r0, [pc, #256]	; (504 <FLEXCOMM8_IRQHandler+0xac>)
     402:	4700      	bx	r0

00000404 <OS_EVENT_IRQHandler>:
     404:	4840      	ldr	r0, [pc, #256]	; (508 <FLEXCOMM8_IRQHandler+0xb0>)
     406:	4700      	bx	r0

00000408 <Reserved55_IRQHandler>:
     408:	4840      	ldr	r0, [pc, #256]	; (50c <FLEXCOMM8_IRQHandler+0xb4>)
     40a:	4700      	bx	r0

0000040c <Reserved56_IRQHandler>:
     40c:	4840      	ldr	r0, [pc, #256]	; (510 <FLEXCOMM8_IRQHandler+0xb8>)
     40e:	4700      	bx	r0

00000410 <Reserved57_IRQHandler>:
     410:	4840      	ldr	r0, [pc, #256]	; (514 <FLEXCOMM8_IRQHandler+0xbc>)
     412:	4700      	bx	r0

00000414 <SDIO_IRQHandler>:
     414:	4840      	ldr	r0, [pc, #256]	; (518 <FLEXCOMM8_IRQHandler+0xc0>)
     416:	4700      	bx	r0

00000418 <Reserved59_IRQHandler>:
     418:	4840      	ldr	r0, [pc, #256]	; (51c <FLEXCOMM8_IRQHandler+0xc4>)
     41a:	4700      	bx	r0

0000041c <Reserved60_IRQHandler>:
     41c:	4840      	ldr	r0, [pc, #256]	; (520 <FLEXCOMM8_IRQHandler+0xc8>)
     41e:	4700      	bx	r0

00000420 <Reserved61_IRQHandler>:
     420:	4840      	ldr	r0, [pc, #256]	; (524 <FLEXCOMM8_IRQHandler+0xcc>)
     422:	4700      	bx	r0

00000424 <USB1_PHY_IRQHandler>:
     424:	4840      	ldr	r0, [pc, #256]	; (528 <FLEXCOMM8_IRQHandler+0xd0>)
     426:	4700      	bx	r0

00000428 <USB1_IRQHandler>:
     428:	4840      	ldr	r0, [pc, #256]	; (52c <FLEXCOMM8_IRQHandler+0xd4>)
     42a:	4700      	bx	r0

0000042c <USB1_NEEDCLK_IRQHandler>:
     42c:	4840      	ldr	r0, [pc, #256]	; (530 <FLEXCOMM8_IRQHandler+0xd8>)
     42e:	4700      	bx	r0

00000430 <SEC_HYPERVISOR_CALL_IRQHandler>:
     430:	4840      	ldr	r0, [pc, #256]	; (534 <FLEXCOMM8_IRQHandler+0xdc>)
     432:	4700      	bx	r0

00000434 <SEC_GPIO_INT0_IRQ0_IRQHandler>:
     434:	4840      	ldr	r0, [pc, #256]	; (538 <FLEXCOMM8_IRQHandler+0xe0>)
     436:	4700      	bx	r0

00000438 <SEC_GPIO_INT0_IRQ1_IRQHandler>:
     438:	4840      	ldr	r0, [pc, #256]	; (53c <FLEXCOMM8_IRQHandler+0xe4>)
     43a:	4700      	bx	r0

0000043c <PLU_IRQHandler>:
     43c:	4840      	ldr	r0, [pc, #256]	; (540 <FLEXCOMM8_IRQHandler+0xe8>)
     43e:	4700      	bx	r0

00000440 <SEC_VIO_IRQHandler>:
     440:	4840      	ldr	r0, [pc, #256]	; (544 <FLEXCOMM8_IRQHandler+0xec>)
     442:	4700      	bx	r0

00000444 <HASHCRYPT_IRQHandler>:
     444:	4840      	ldr	r0, [pc, #256]	; (548 <FLEXCOMM8_IRQHandler+0xf0>)
     446:	4700      	bx	r0

00000448 <CASER_IRQHandler>:
     448:	4840      	ldr	r0, [pc, #256]	; (54c <FLEXCOMM8_IRQHandler+0xf4>)
     44a:	4700      	bx	r0

0000044c <PUF_IRQHandler>:
     44c:	4840      	ldr	r0, [pc, #256]	; (550 <FLEXCOMM8_IRQHandler+0xf8>)
     44e:	4700      	bx	r0

00000450 <PQ_IRQHandler>:
     450:	4840      	ldr	r0, [pc, #256]	; (554 <FLEXCOMM8_IRQHandler+0xfc>)
     452:	4700      	bx	r0

00000454 <DMA1_IRQHandler>:
     454:	4840      	ldr	r0, [pc, #256]	; (558 <FLEXCOMM8_IRQHandler+0x100>)
     456:	4700      	bx	r0

00000458 <FLEXCOMM8_IRQHandler>:
     458:	4840      	ldr	r0, [pc, #256]	; (55c <FLEXCOMM8_IRQHandler+0x104>)
     45a:	4700      	bx	r0
     45c:	00000359 	.word	0x00000359
     460:	0000035d 	.word	0x0000035d
     464:	000052b1 	.word	0x000052b1
     468:	00005241 	.word	0x00005241
     46c:	0000502f 	.word	0x0000502f
     470:	00000355 	.word	0x00000355
     474:	00000355 	.word	0x00000355
     478:	00000355 	.word	0x00000355
     47c:	00000355 	.word	0x00000355
     480:	00000355 	.word	0x00000355
     484:	00000355 	.word	0x00000355
     488:	00000355 	.word	0x00000355
     48c:	00000355 	.word	0x00000355
     490:	00000355 	.word	0x00000355
     494:	00000355 	.word	0x00000355
     498:	00000355 	.word	0x00000355
     49c:	00000355 	.word	0x00000355
     4a0:	00000355 	.word	0x00000355
     4a4:	00000355 	.word	0x00000355
     4a8:	0000235b 	.word	0x0000235b
     4ac:	000023cf 	.word	0x000023cf
     4b0:	00002443 	.word	0x00002443
     4b4:	000024b7 	.word	0x000024b7
     4b8:	0000252b 	.word	0x0000252b
     4bc:	0000259f 	.word	0x0000259f
     4c0:	00002613 	.word	0x00002613
     4c4:	00002689 	.word	0x00002689
     4c8:	00000355 	.word	0x00000355
     4cc:	00000355 	.word	0x00000355
     4d0:	00000355 	.word	0x00000355
     4d4:	00000355 	.word	0x00000355
     4d8:	00000355 	.word	0x00000355
     4dc:	00000355 	.word	0x00000355
     4e0:	00000355 	.word	0x00000355
     4e4:	00000355 	.word	0x00000355
     4e8:	00000355 	.word	0x00000355
     4ec:	00000355 	.word	0x00000355
     4f0:	00000355 	.word	0x00000355
     4f4:	00000355 	.word	0x00000355
     4f8:	00000355 	.word	0x00000355
     4fc:	00000355 	.word	0x00000355
     500:	00000355 	.word	0x00000355
     504:	00000355 	.word	0x00000355
     508:	00000355 	.word	0x00000355
     50c:	00000355 	.word	0x00000355
     510:	00000355 	.word	0x00000355
     514:	00000355 	.word	0x00000355
     518:	00000355 	.word	0x00000355
     51c:	00000355 	.word	0x00000355
     520:	00000355 	.word	0x00000355
     524:	00000355 	.word	0x00000355
     528:	00000355 	.word	0x00000355
     52c:	00000355 	.word	0x00000355
     530:	00000355 	.word	0x00000355
     534:	00000355 	.word	0x00000355
     538:	00000355 	.word	0x00000355
     53c:	00000355 	.word	0x00000355
     540:	00000355 	.word	0x00000355
     544:	00000355 	.word	0x00000355
     548:	00000355 	.word	0x00000355
     54c:	00000355 	.word	0x00000355
     550:	00000355 	.word	0x00000355
     554:	00000355 	.word	0x00000355
     558:	00000355 	.word	0x00000355
     55c:	000026ff 	.word	0x000026ff

00000560 <__aeabi_drsub>:
     560:	f081 4100 	eor.w	r1, r1, #2147483648	; 0x80000000
     564:	e002      	b.n	56c <__adddf3>
     566:	bf00      	nop

00000568 <__aeabi_dsub>:
     568:	f083 4300 	eor.w	r3, r3, #2147483648	; 0x80000000

0000056c <__adddf3>:
     56c:	b530      	push	{r4, r5, lr}
     56e:	ea4f 0441 	mov.w	r4, r1, lsl #1
     572:	ea4f 0543 	mov.w	r5, r3, lsl #1
     576:	ea94 0f05 	teq	r4, r5
     57a:	bf08      	it	eq
     57c:	ea90 0f02 	teqeq	r0, r2
     580:	bf1f      	itttt	ne
     582:	ea54 0c00 	orrsne.w	ip, r4, r0
     586:	ea55 0c02 	orrsne.w	ip, r5, r2
     58a:	ea7f 5c64 	mvnsne.w	ip, r4, asr #21
     58e:	ea7f 5c65 	mvnsne.w	ip, r5, asr #21
     592:	f000 80e2 	beq.w	75a <__adddf3+0x1ee>
     596:	ea4f 5454 	mov.w	r4, r4, lsr #21
     59a:	ebd4 5555 	rsbs	r5, r4, r5, lsr #21
     59e:	bfb8      	it	lt
     5a0:	426d      	neglt	r5, r5
     5a2:	dd0c      	ble.n	5be <__adddf3+0x52>
     5a4:	442c      	add	r4, r5
     5a6:	ea80 0202 	eor.w	r2, r0, r2
     5aa:	ea81 0303 	eor.w	r3, r1, r3
     5ae:	ea82 0000 	eor.w	r0, r2, r0
     5b2:	ea83 0101 	eor.w	r1, r3, r1
     5b6:	ea80 0202 	eor.w	r2, r0, r2
     5ba:	ea81 0303 	eor.w	r3, r1, r3
     5be:	2d36      	cmp	r5, #54	; 0x36
     5c0:	bf88      	it	hi
     5c2:	bd30      	pophi	{r4, r5, pc}
     5c4:	f011 4f00 	tst.w	r1, #2147483648	; 0x80000000
     5c8:	ea4f 3101 	mov.w	r1, r1, lsl #12
     5cc:	f44f 1c80 	mov.w	ip, #1048576	; 0x100000
     5d0:	ea4c 3111 	orr.w	r1, ip, r1, lsr #12
     5d4:	d002      	beq.n	5dc <__adddf3+0x70>
     5d6:	4240      	negs	r0, r0
     5d8:	eb61 0141 	sbc.w	r1, r1, r1, lsl #1
     5dc:	f013 4f00 	tst.w	r3, #2147483648	; 0x80000000
     5e0:	ea4f 3303 	mov.w	r3, r3, lsl #12
     5e4:	ea4c 3313 	orr.w	r3, ip, r3, lsr #12
     5e8:	d002      	beq.n	5f0 <__adddf3+0x84>
     5ea:	4252      	negs	r2, r2
     5ec:	eb63 0343 	sbc.w	r3, r3, r3, lsl #1
     5f0:	ea94 0f05 	teq	r4, r5
     5f4:	f000 80a7 	beq.w	746 <__adddf3+0x1da>
     5f8:	f1a4 0401 	sub.w	r4, r4, #1
     5fc:	f1d5 0e20 	rsbs	lr, r5, #32
     600:	db0d      	blt.n	61e <__adddf3+0xb2>
     602:	fa02 fc0e 	lsl.w	ip, r2, lr
     606:	fa22 f205 	lsr.w	r2, r2, r5
     60a:	1880      	adds	r0, r0, r2
     60c:	f141 0100 	adc.w	r1, r1, #0
     610:	fa03 f20e 	lsl.w	r2, r3, lr
     614:	1880      	adds	r0, r0, r2
     616:	fa43 f305 	asr.w	r3, r3, r5
     61a:	4159      	adcs	r1, r3
     61c:	e00e      	b.n	63c <__adddf3+0xd0>
     61e:	f1a5 0520 	sub.w	r5, r5, #32
     622:	f10e 0e20 	add.w	lr, lr, #32
     626:	2a01      	cmp	r2, #1
     628:	fa03 fc0e 	lsl.w	ip, r3, lr
     62c:	bf28      	it	cs
     62e:	f04c 0c02 	orrcs.w	ip, ip, #2
     632:	fa43 f305 	asr.w	r3, r3, r5
     636:	18c0      	adds	r0, r0, r3
     638:	eb51 71e3 	adcs.w	r1, r1, r3, asr #31
     63c:	f001 4500 	and.w	r5, r1, #2147483648	; 0x80000000
     640:	d507      	bpl.n	652 <__adddf3+0xe6>
     642:	f04f 0e00 	mov.w	lr, #0
     646:	f1dc 0c00 	rsbs	ip, ip, #0
     64a:	eb7e 0000 	sbcs.w	r0, lr, r0
     64e:	eb6e 0101 	sbc.w	r1, lr, r1
     652:	f5b1 1f80 	cmp.w	r1, #1048576	; 0x100000
     656:	d31b      	bcc.n	690 <__adddf3+0x124>
     658:	f5b1 1f00 	cmp.w	r1, #2097152	; 0x200000
     65c:	d30c      	bcc.n	678 <__adddf3+0x10c>
     65e:	0849      	lsrs	r1, r1, #1
     660:	ea5f 0030 	movs.w	r0, r0, rrx
     664:	ea4f 0c3c 	mov.w	ip, ip, rrx
     668:	f104 0401 	add.w	r4, r4, #1
     66c:	ea4f 5244 	mov.w	r2, r4, lsl #21
     670:	f512 0f80 	cmn.w	r2, #4194304	; 0x400000
     674:	f080 809a 	bcs.w	7ac <__adddf3+0x240>
     678:	f1bc 4f00 	cmp.w	ip, #2147483648	; 0x80000000
     67c:	bf08      	it	eq
     67e:	ea5f 0c50 	movseq.w	ip, r0, lsr #1
     682:	f150 0000 	adcs.w	r0, r0, #0
     686:	eb41 5104 	adc.w	r1, r1, r4, lsl #20
     68a:	ea41 0105 	orr.w	r1, r1, r5
     68e:	bd30      	pop	{r4, r5, pc}
     690:	ea5f 0c4c 	movs.w	ip, ip, lsl #1
     694:	4140      	adcs	r0, r0
     696:	eb41 0101 	adc.w	r1, r1, r1
     69a:	3c01      	subs	r4, #1
     69c:	bf28      	it	cs
     69e:	f5b1 1f80 	cmpcs.w	r1, #1048576	; 0x100000
     6a2:	d2e9      	bcs.n	678 <__adddf3+0x10c>
     6a4:	f091 0f00 	teq	r1, #0
     6a8:	bf04      	itt	eq
     6aa:	4601      	moveq	r1, r0
     6ac:	2000      	moveq	r0, #0
     6ae:	fab1 f381 	clz	r3, r1
     6b2:	bf08      	it	eq
     6b4:	3320      	addeq	r3, #32
     6b6:	f1a3 030b 	sub.w	r3, r3, #11
     6ba:	f1b3 0220 	subs.w	r2, r3, #32
     6be:	da0c      	bge.n	6da <__adddf3+0x16e>
     6c0:	320c      	adds	r2, #12
     6c2:	dd08      	ble.n	6d6 <__adddf3+0x16a>
     6c4:	f102 0c14 	add.w	ip, r2, #20
     6c8:	f1c2 020c 	rsb	r2, r2, #12
     6cc:	fa01 f00c 	lsl.w	r0, r1, ip
     6d0:	fa21 f102 	lsr.w	r1, r1, r2
     6d4:	e00c      	b.n	6f0 <__adddf3+0x184>
     6d6:	f102 0214 	add.w	r2, r2, #20
     6da:	bfd8      	it	le
     6dc:	f1c2 0c20 	rsble	ip, r2, #32
     6e0:	fa01 f102 	lsl.w	r1, r1, r2
     6e4:	fa20 fc0c 	lsr.w	ip, r0, ip
     6e8:	bfdc      	itt	le
     6ea:	ea41 010c 	orrle.w	r1, r1, ip
     6ee:	4090      	lslle	r0, r2
     6f0:	1ae4      	subs	r4, r4, r3
     6f2:	bfa2      	ittt	ge
     6f4:	eb01 5104 	addge.w	r1, r1, r4, lsl #20
     6f8:	4329      	orrge	r1, r5
     6fa:	bd30      	popge	{r4, r5, pc}
     6fc:	ea6f 0404 	mvn.w	r4, r4
     700:	3c1f      	subs	r4, #31
     702:	da1c      	bge.n	73e <__adddf3+0x1d2>
     704:	340c      	adds	r4, #12
     706:	dc0e      	bgt.n	726 <__adddf3+0x1ba>
     708:	f104 0414 	add.w	r4, r4, #20
     70c:	f1c4 0220 	rsb	r2, r4, #32
     710:	fa20 f004 	lsr.w	r0, r0, r4
     714:	fa01 f302 	lsl.w	r3, r1, r2
     718:	ea40 0003 	orr.w	r0, r0, r3
     71c:	fa21 f304 	lsr.w	r3, r1, r4
     720:	ea45 0103 	orr.w	r1, r5, r3
     724:	bd30      	pop	{r4, r5, pc}
     726:	f1c4 040c 	rsb	r4, r4, #12
     72a:	f1c4 0220 	rsb	r2, r4, #32
     72e:	fa20 f002 	lsr.w	r0, r0, r2
     732:	fa01 f304 	lsl.w	r3, r1, r4
     736:	ea40 0003 	orr.w	r0, r0, r3
     73a:	4629      	mov	r1, r5
     73c:	bd30      	pop	{r4, r5, pc}
     73e:	fa21 f004 	lsr.w	r0, r1, r4
     742:	4629      	mov	r1, r5
     744:	bd30      	pop	{r4, r5, pc}
     746:	f094 0f00 	teq	r4, #0
     74a:	f483 1380 	eor.w	r3, r3, #1048576	; 0x100000
     74e:	bf06      	itte	eq
     750:	f481 1180 	eoreq.w	r1, r1, #1048576	; 0x100000
     754:	3401      	addeq	r4, #1
     756:	3d01      	subne	r5, #1
     758:	e74e      	b.n	5f8 <__adddf3+0x8c>
     75a:	ea7f 5c64 	mvns.w	ip, r4, asr #21
     75e:	bf18      	it	ne
     760:	ea7f 5c65 	mvnsne.w	ip, r5, asr #21
     764:	d029      	beq.n	7ba <__adddf3+0x24e>
     766:	ea94 0f05 	teq	r4, r5
     76a:	bf08      	it	eq
     76c:	ea90 0f02 	teqeq	r0, r2
     770:	d005      	beq.n	77e <__adddf3+0x212>
     772:	ea54 0c00 	orrs.w	ip, r4, r0
     776:	bf04      	itt	eq
     778:	4619      	moveq	r1, r3
     77a:	4610      	moveq	r0, r2
     77c:	bd30      	pop	{r4, r5, pc}
     77e:	ea91 0f03 	teq	r1, r3
     782:	bf1e      	ittt	ne
     784:	2100      	movne	r1, #0
     786:	2000      	movne	r0, #0
     788:	bd30      	popne	{r4, r5, pc}
     78a:	ea5f 5c54 	movs.w	ip, r4, lsr #21
     78e:	d105      	bne.n	79c <__adddf3+0x230>
     790:	0040      	lsls	r0, r0, #1
     792:	4149      	adcs	r1, r1
     794:	bf28      	it	cs
     796:	f041 4100 	orrcs.w	r1, r1, #2147483648	; 0x80000000
     79a:	bd30      	pop	{r4, r5, pc}
     79c:	f514 0480 	adds.w	r4, r4, #4194304	; 0x400000
     7a0:	bf3c      	itt	cc
     7a2:	f501 1180 	addcc.w	r1, r1, #1048576	; 0x100000
     7a6:	bd30      	popcc	{r4, r5, pc}
     7a8:	f001 4500 	and.w	r5, r1, #2147483648	; 0x80000000
     7ac:	f045 41fe 	orr.w	r1, r5, #2130706432	; 0x7f000000
     7b0:	f441 0170 	orr.w	r1, r1, #15728640	; 0xf00000
     7b4:	f04f 0000 	mov.w	r0, #0
     7b8:	bd30      	pop	{r4, r5, pc}
     7ba:	ea7f 5c64 	mvns.w	ip, r4, asr #21
     7be:	bf1a      	itte	ne
     7c0:	4619      	movne	r1, r3
     7c2:	4610      	movne	r0, r2
     7c4:	ea7f 5c65 	mvnseq.w	ip, r5, asr #21
     7c8:	bf1c      	itt	ne
     7ca:	460b      	movne	r3, r1
     7cc:	4602      	movne	r2, r0
     7ce:	ea50 3401 	orrs.w	r4, r0, r1, lsl #12
     7d2:	bf06      	itte	eq
     7d4:	ea52 3503 	orrseq.w	r5, r2, r3, lsl #12
     7d8:	ea91 0f03 	teqeq	r1, r3
     7dc:	f441 2100 	orrne.w	r1, r1, #524288	; 0x80000
     7e0:	bd30      	pop	{r4, r5, pc}
     7e2:	bf00      	nop

000007e4 <__aeabi_ui2d>:
     7e4:	f090 0f00 	teq	r0, #0
     7e8:	bf04      	itt	eq
     7ea:	2100      	moveq	r1, #0
     7ec:	4770      	bxeq	lr
     7ee:	b530      	push	{r4, r5, lr}
     7f0:	f44f 6480 	mov.w	r4, #1024	; 0x400
     7f4:	f104 0432 	add.w	r4, r4, #50	; 0x32
     7f8:	f04f 0500 	mov.w	r5, #0
     7fc:	f04f 0100 	mov.w	r1, #0
     800:	e750      	b.n	6a4 <__adddf3+0x138>
     802:	bf00      	nop

00000804 <__aeabi_i2d>:
     804:	f090 0f00 	teq	r0, #0
     808:	bf04      	itt	eq
     80a:	2100      	moveq	r1, #0
     80c:	4770      	bxeq	lr
     80e:	b530      	push	{r4, r5, lr}
     810:	f44f 6480 	mov.w	r4, #1024	; 0x400
     814:	f104 0432 	add.w	r4, r4, #50	; 0x32
     818:	f010 4500 	ands.w	r5, r0, #2147483648	; 0x80000000
     81c:	bf48      	it	mi
     81e:	4240      	negmi	r0, r0
     820:	f04f 0100 	mov.w	r1, #0
     824:	e73e      	b.n	6a4 <__adddf3+0x138>
     826:	bf00      	nop

00000828 <__aeabi_f2d>:
     828:	0042      	lsls	r2, r0, #1
     82a:	ea4f 01e2 	mov.w	r1, r2, asr #3
     82e:	ea4f 0131 	mov.w	r1, r1, rrx
     832:	ea4f 7002 	mov.w	r0, r2, lsl #28
     836:	bf1f      	itttt	ne
     838:	f012 437f 	andsne.w	r3, r2, #4278190080	; 0xff000000
     83c:	f093 4f7f 	teqne	r3, #4278190080	; 0xff000000
     840:	f081 5160 	eorne.w	r1, r1, #939524096	; 0x38000000
     844:	4770      	bxne	lr
     846:	f032 427f 	bics.w	r2, r2, #4278190080	; 0xff000000
     84a:	bf08      	it	eq
     84c:	4770      	bxeq	lr
     84e:	f093 4f7f 	teq	r3, #4278190080	; 0xff000000
     852:	bf04      	itt	eq
     854:	f441 2100 	orreq.w	r1, r1, #524288	; 0x80000
     858:	4770      	bxeq	lr
     85a:	b530      	push	{r4, r5, lr}
     85c:	f44f 7460 	mov.w	r4, #896	; 0x380
     860:	f001 4500 	and.w	r5, r1, #2147483648	; 0x80000000
     864:	f021 4100 	bic.w	r1, r1, #2147483648	; 0x80000000
     868:	e71c      	b.n	6a4 <__adddf3+0x138>
     86a:	bf00      	nop

0000086c <__aeabi_ul2d>:
     86c:	ea50 0201 	orrs.w	r2, r0, r1
     870:	bf08      	it	eq
     872:	4770      	bxeq	lr
     874:	b530      	push	{r4, r5, lr}
     876:	f04f 0500 	mov.w	r5, #0
     87a:	e00a      	b.n	892 <__aeabi_l2d+0x16>

0000087c <__aeabi_l2d>:
     87c:	ea50 0201 	orrs.w	r2, r0, r1
     880:	bf08      	it	eq
     882:	4770      	bxeq	lr
     884:	b530      	push	{r4, r5, lr}
     886:	f011 4500 	ands.w	r5, r1, #2147483648	; 0x80000000
     88a:	d502      	bpl.n	892 <__aeabi_l2d+0x16>
     88c:	4240      	negs	r0, r0
     88e:	eb61 0141 	sbc.w	r1, r1, r1, lsl #1
     892:	f44f 6480 	mov.w	r4, #1024	; 0x400
     896:	f104 0432 	add.w	r4, r4, #50	; 0x32
     89a:	ea5f 5c91 	movs.w	ip, r1, lsr #22
     89e:	f43f aed8 	beq.w	652 <__adddf3+0xe6>
     8a2:	f04f 0203 	mov.w	r2, #3
     8a6:	ea5f 0cdc 	movs.w	ip, ip, lsr #3
     8aa:	bf18      	it	ne
     8ac:	3203      	addne	r2, #3
     8ae:	ea5f 0cdc 	movs.w	ip, ip, lsr #3
     8b2:	bf18      	it	ne
     8b4:	3203      	addne	r2, #3
     8b6:	eb02 02dc 	add.w	r2, r2, ip, lsr #3
     8ba:	f1c2 0320 	rsb	r3, r2, #32
     8be:	fa00 fc03 	lsl.w	ip, r0, r3
     8c2:	fa20 f002 	lsr.w	r0, r0, r2
     8c6:	fa01 fe03 	lsl.w	lr, r1, r3
     8ca:	ea40 000e 	orr.w	r0, r0, lr
     8ce:	fa21 f102 	lsr.w	r1, r1, r2
     8d2:	4414      	add	r4, r2
     8d4:	e6bd      	b.n	652 <__adddf3+0xe6>
     8d6:	bf00      	nop

000008d8 <__aeabi_dmul>:
     8d8:	b570      	push	{r4, r5, r6, lr}
     8da:	f04f 0cff 	mov.w	ip, #255	; 0xff
     8de:	f44c 6ce0 	orr.w	ip, ip, #1792	; 0x700
     8e2:	ea1c 5411 	ands.w	r4, ip, r1, lsr #20
     8e6:	bf1d      	ittte	ne
     8e8:	ea1c 5513 	andsne.w	r5, ip, r3, lsr #20
     8ec:	ea94 0f0c 	teqne	r4, ip
     8f0:	ea95 0f0c 	teqne	r5, ip
     8f4:	f000 f8de 	bleq	ab4 <__aeabi_dmul+0x1dc>
     8f8:	442c      	add	r4, r5
     8fa:	ea81 0603 	eor.w	r6, r1, r3
     8fe:	ea21 514c 	bic.w	r1, r1, ip, lsl #21
     902:	ea23 534c 	bic.w	r3, r3, ip, lsl #21
     906:	ea50 3501 	orrs.w	r5, r0, r1, lsl #12
     90a:	bf18      	it	ne
     90c:	ea52 3503 	orrsne.w	r5, r2, r3, lsl #12
     910:	f441 1180 	orr.w	r1, r1, #1048576	; 0x100000
     914:	f443 1380 	orr.w	r3, r3, #1048576	; 0x100000
     918:	d038      	beq.n	98c <__aeabi_dmul+0xb4>
     91a:	fba0 ce02 	umull	ip, lr, r0, r2
     91e:	f04f 0500 	mov.w	r5, #0
     922:	fbe1 e502 	umlal	lr, r5, r1, r2
     926:	f006 4200 	and.w	r2, r6, #2147483648	; 0x80000000
     92a:	fbe0 e503 	umlal	lr, r5, r0, r3
     92e:	f04f 0600 	mov.w	r6, #0
     932:	fbe1 5603 	umlal	r5, r6, r1, r3
     936:	f09c 0f00 	teq	ip, #0
     93a:	bf18      	it	ne
     93c:	f04e 0e01 	orrne.w	lr, lr, #1
     940:	f1a4 04ff 	sub.w	r4, r4, #255	; 0xff
     944:	f5b6 7f00 	cmp.w	r6, #512	; 0x200
     948:	f564 7440 	sbc.w	r4, r4, #768	; 0x300
     94c:	d204      	bcs.n	958 <__aeabi_dmul+0x80>
     94e:	ea5f 0e4e 	movs.w	lr, lr, lsl #1
     952:	416d      	adcs	r5, r5
     954:	eb46 0606 	adc.w	r6, r6, r6
     958:	ea42 21c6 	orr.w	r1, r2, r6, lsl #11
     95c:	ea41 5155 	orr.w	r1, r1, r5, lsr #21
     960:	ea4f 20c5 	mov.w	r0, r5, lsl #11
     964:	ea40 505e 	orr.w	r0, r0, lr, lsr #21
     968:	ea4f 2ece 	mov.w	lr, lr, lsl #11
     96c:	f1b4 0cfd 	subs.w	ip, r4, #253	; 0xfd
     970:	bf88      	it	hi
     972:	f5bc 6fe0 	cmphi.w	ip, #1792	; 0x700
     976:	d81e      	bhi.n	9b6 <__aeabi_dmul+0xde>
     978:	f1be 4f00 	cmp.w	lr, #2147483648	; 0x80000000
     97c:	bf08      	it	eq
     97e:	ea5f 0e50 	movseq.w	lr, r0, lsr #1
     982:	f150 0000 	adcs.w	r0, r0, #0
     986:	eb41 5104 	adc.w	r1, r1, r4, lsl #20
     98a:	bd70      	pop	{r4, r5, r6, pc}
     98c:	f006 4600 	and.w	r6, r6, #2147483648	; 0x80000000
     990:	ea46 0101 	orr.w	r1, r6, r1
     994:	ea40 0002 	orr.w	r0, r0, r2
     998:	ea81 0103 	eor.w	r1, r1, r3
     99c:	ebb4 045c 	subs.w	r4, r4, ip, lsr #1
     9a0:	bfc2      	ittt	gt
     9a2:	ebd4 050c 	rsbsgt	r5, r4, ip
     9a6:	ea41 5104 	orrgt.w	r1, r1, r4, lsl #20
     9aa:	bd70      	popgt	{r4, r5, r6, pc}
     9ac:	f441 1180 	orr.w	r1, r1, #1048576	; 0x100000
     9b0:	f04f 0e00 	mov.w	lr, #0
     9b4:	3c01      	subs	r4, #1
     9b6:	f300 80ab 	bgt.w	b10 <__aeabi_dmul+0x238>
     9ba:	f114 0f36 	cmn.w	r4, #54	; 0x36
     9be:	bfde      	ittt	le
     9c0:	2000      	movle	r0, #0
     9c2:	f001 4100 	andle.w	r1, r1, #2147483648	; 0x80000000
     9c6:	bd70      	pople	{r4, r5, r6, pc}
     9c8:	f1c4 0400 	rsb	r4, r4, #0
     9cc:	3c20      	subs	r4, #32
     9ce:	da35      	bge.n	a3c <__aeabi_dmul+0x164>
     9d0:	340c      	adds	r4, #12
     9d2:	dc1b      	bgt.n	a0c <__aeabi_dmul+0x134>
     9d4:	f104 0414 	add.w	r4, r4, #20
     9d8:	f1c4 0520 	rsb	r5, r4, #32
     9dc:	fa00 f305 	lsl.w	r3, r0, r5
     9e0:	fa20 f004 	lsr.w	r0, r0, r4
     9e4:	fa01 f205 	lsl.w	r2, r1, r5
     9e8:	ea40 0002 	orr.w	r0, r0, r2
     9ec:	f001 4200 	and.w	r2, r1, #2147483648	; 0x80000000
     9f0:	f021 4100 	bic.w	r1, r1, #2147483648	; 0x80000000
     9f4:	eb10 70d3 	adds.w	r0, r0, r3, lsr #31
     9f8:	fa21 f604 	lsr.w	r6, r1, r4
     9fc:	eb42 0106 	adc.w	r1, r2, r6
     a00:	ea5e 0e43 	orrs.w	lr, lr, r3, lsl #1
     a04:	bf08      	it	eq
     a06:	ea20 70d3 	biceq.w	r0, r0, r3, lsr #31
     a0a:	bd70      	pop	{r4, r5, r6, pc}
     a0c:	f1c4 040c 	rsb	r4, r4, #12
     a10:	f1c4 0520 	rsb	r5, r4, #32
     a14:	fa00 f304 	lsl.w	r3, r0, r4
     a18:	fa20 f005 	lsr.w	r0, r0, r5
     a1c:	fa01 f204 	lsl.w	r2, r1, r4
     a20:	ea40 0002 	orr.w	r0, r0, r2
     a24:	f001 4100 	and.w	r1, r1, #2147483648	; 0x80000000
     a28:	eb10 70d3 	adds.w	r0, r0, r3, lsr #31
     a2c:	f141 0100 	adc.w	r1, r1, #0
     a30:	ea5e 0e43 	orrs.w	lr, lr, r3, lsl #1
     a34:	bf08      	it	eq
     a36:	ea20 70d3 	biceq.w	r0, r0, r3, lsr #31
     a3a:	bd70      	pop	{r4, r5, r6, pc}
     a3c:	f1c4 0520 	rsb	r5, r4, #32
     a40:	fa00 f205 	lsl.w	r2, r0, r5
     a44:	ea4e 0e02 	orr.w	lr, lr, r2
     a48:	fa20 f304 	lsr.w	r3, r0, r4
     a4c:	fa01 f205 	lsl.w	r2, r1, r5
     a50:	ea43 0302 	orr.w	r3, r3, r2
     a54:	fa21 f004 	lsr.w	r0, r1, r4
     a58:	f001 4100 	and.w	r1, r1, #2147483648	; 0x80000000
     a5c:	fa21 f204 	lsr.w	r2, r1, r4
     a60:	ea20 0002 	bic.w	r0, r0, r2
     a64:	eb00 70d3 	add.w	r0, r0, r3, lsr #31
     a68:	ea5e 0e43 	orrs.w	lr, lr, r3, lsl #1
     a6c:	bf08      	it	eq
     a6e:	ea20 70d3 	biceq.w	r0, r0, r3, lsr #31
     a72:	bd70      	pop	{r4, r5, r6, pc}
     a74:	f094 0f00 	teq	r4, #0
     a78:	d10f      	bne.n	a9a <__aeabi_dmul+0x1c2>
     a7a:	f001 4600 	and.w	r6, r1, #2147483648	; 0x80000000
     a7e:	0040      	lsls	r0, r0, #1
     a80:	eb41 0101 	adc.w	r1, r1, r1
     a84:	f411 1f80 	tst.w	r1, #1048576	; 0x100000
     a88:	bf08      	it	eq
     a8a:	3c01      	subeq	r4, #1
     a8c:	d0f7      	beq.n	a7e <__aeabi_dmul+0x1a6>
     a8e:	ea41 0106 	orr.w	r1, r1, r6
     a92:	f095 0f00 	teq	r5, #0
     a96:	bf18      	it	ne
     a98:	4770      	bxne	lr
     a9a:	f003 4600 	and.w	r6, r3, #2147483648	; 0x80000000
     a9e:	0052      	lsls	r2, r2, #1
     aa0:	eb43 0303 	adc.w	r3, r3, r3
     aa4:	f413 1f80 	tst.w	r3, #1048576	; 0x100000
     aa8:	bf08      	it	eq
     aaa:	3d01      	subeq	r5, #1
     aac:	d0f7      	beq.n	a9e <__aeabi_dmul+0x1c6>
     aae:	ea43 0306 	orr.w	r3, r3, r6
     ab2:	4770      	bx	lr
     ab4:	ea94 0f0c 	teq	r4, ip
     ab8:	ea0c 5513 	and.w	r5, ip, r3, lsr #20
     abc:	bf18      	it	ne
     abe:	ea95 0f0c 	teqne	r5, ip
     ac2:	d00c      	beq.n	ade <__aeabi_dmul+0x206>
     ac4:	ea50 0641 	orrs.w	r6, r0, r1, lsl #1
     ac8:	bf18      	it	ne
     aca:	ea52 0643 	orrsne.w	r6, r2, r3, lsl #1
     ace:	d1d1      	bne.n	a74 <__aeabi_dmul+0x19c>
     ad0:	ea81 0103 	eor.w	r1, r1, r3
     ad4:	f001 4100 	and.w	r1, r1, #2147483648	; 0x80000000
     ad8:	f04f 0000 	mov.w	r0, #0
     adc:	bd70      	pop	{r4, r5, r6, pc}
     ade:	ea50 0641 	orrs.w	r6, r0, r1, lsl #1
     ae2:	bf06      	itte	eq
     ae4:	4610      	moveq	r0, r2
     ae6:	4619      	moveq	r1, r3
     ae8:	ea52 0643 	orrsne.w	r6, r2, r3, lsl #1
     aec:	d019      	beq.n	b22 <__aeabi_dmul+0x24a>
     aee:	ea94 0f0c 	teq	r4, ip
     af2:	d102      	bne.n	afa <__aeabi_dmul+0x222>
     af4:	ea50 3601 	orrs.w	r6, r0, r1, lsl #12
     af8:	d113      	bne.n	b22 <__aeabi_dmul+0x24a>
     afa:	ea95 0f0c 	teq	r5, ip
     afe:	d105      	bne.n	b0c <__aeabi_dmul+0x234>
     b00:	ea52 3603 	orrs.w	r6, r2, r3, lsl #12
     b04:	bf1c      	itt	ne
     b06:	4610      	movne	r0, r2
     b08:	4619      	movne	r1, r3
     b0a:	d10a      	bne.n	b22 <__aeabi_dmul+0x24a>
     b0c:	ea81 0103 	eor.w	r1, r1, r3
     b10:	f001 4100 	and.w	r1, r1, #2147483648	; 0x80000000
     b14:	f041 41fe 	orr.w	r1, r1, #2130706432	; 0x7f000000
     b18:	f441 0170 	orr.w	r1, r1, #15728640	; 0xf00000
     b1c:	f04f 0000 	mov.w	r0, #0
     b20:	bd70      	pop	{r4, r5, r6, pc}
     b22:	f041 41fe 	orr.w	r1, r1, #2130706432	; 0x7f000000
     b26:	f441 0178 	orr.w	r1, r1, #16252928	; 0xf80000
     b2a:	bd70      	pop	{r4, r5, r6, pc}

00000b2c <__aeabi_ddiv>:
     b2c:	b570      	push	{r4, r5, r6, lr}
     b2e:	f04f 0cff 	mov.w	ip, #255	; 0xff
     b32:	f44c 6ce0 	orr.w	ip, ip, #1792	; 0x700
     b36:	ea1c 5411 	ands.w	r4, ip, r1, lsr #20
     b3a:	bf1d      	ittte	ne
     b3c:	ea1c 5513 	andsne.w	r5, ip, r3, lsr #20
     b40:	ea94 0f0c 	teqne	r4, ip
     b44:	ea95 0f0c 	teqne	r5, ip
     b48:	f000 f8a7 	bleq	c9a <__aeabi_ddiv+0x16e>
     b4c:	eba4 0405 	sub.w	r4, r4, r5
     b50:	ea81 0e03 	eor.w	lr, r1, r3
     b54:	ea52 3503 	orrs.w	r5, r2, r3, lsl #12
     b58:	ea4f 3101 	mov.w	r1, r1, lsl #12
     b5c:	f000 8088 	beq.w	c70 <__aeabi_ddiv+0x144>
     b60:	ea4f 3303 	mov.w	r3, r3, lsl #12
     b64:	f04f 5580 	mov.w	r5, #268435456	; 0x10000000
     b68:	ea45 1313 	orr.w	r3, r5, r3, lsr #4
     b6c:	ea43 6312 	orr.w	r3, r3, r2, lsr #24
     b70:	ea4f 2202 	mov.w	r2, r2, lsl #8
     b74:	ea45 1511 	orr.w	r5, r5, r1, lsr #4
     b78:	ea45 6510 	orr.w	r5, r5, r0, lsr #24
     b7c:	ea4f 2600 	mov.w	r6, r0, lsl #8
     b80:	f00e 4100 	and.w	r1, lr, #2147483648	; 0x80000000
     b84:	429d      	cmp	r5, r3
     b86:	bf08      	it	eq
     b88:	4296      	cmpeq	r6, r2
     b8a:	f144 04fd 	adc.w	r4, r4, #253	; 0xfd
     b8e:	f504 7440 	add.w	r4, r4, #768	; 0x300
     b92:	d202      	bcs.n	b9a <__aeabi_ddiv+0x6e>
     b94:	085b      	lsrs	r3, r3, #1
     b96:	ea4f 0232 	mov.w	r2, r2, rrx
     b9a:	1ab6      	subs	r6, r6, r2
     b9c:	eb65 0503 	sbc.w	r5, r5, r3
     ba0:	085b      	lsrs	r3, r3, #1
     ba2:	ea4f 0232 	mov.w	r2, r2, rrx
     ba6:	f44f 1080 	mov.w	r0, #1048576	; 0x100000
     baa:	f44f 2c00 	mov.w	ip, #524288	; 0x80000
     bae:	ebb6 0e02 	subs.w	lr, r6, r2
     bb2:	eb75 0e03 	sbcs.w	lr, r5, r3
     bb6:	bf22      	ittt	cs
     bb8:	1ab6      	subcs	r6, r6, r2
     bba:	4675      	movcs	r5, lr
     bbc:	ea40 000c 	orrcs.w	r0, r0, ip
     bc0:	085b      	lsrs	r3, r3, #1
     bc2:	ea4f 0232 	mov.w	r2, r2, rrx
     bc6:	ebb6 0e02 	subs.w	lr, r6, r2
     bca:	eb75 0e03 	sbcs.w	lr, r5, r3
     bce:	bf22      	ittt	cs
     bd0:	1ab6      	subcs	r6, r6, r2
     bd2:	4675      	movcs	r5, lr
     bd4:	ea40 005c 	orrcs.w	r0, r0, ip, lsr #1
     bd8:	085b      	lsrs	r3, r3, #1
     bda:	ea4f 0232 	mov.w	r2, r2, rrx
     bde:	ebb6 0e02 	subs.w	lr, r6, r2
     be2:	eb75 0e03 	sbcs.w	lr, r5, r3
     be6:	bf22      	ittt	cs
     be8:	1ab6      	subcs	r6, r6, r2
     bea:	4675      	movcs	r5, lr
     bec:	ea40 009c 	orrcs.w	r0, r0, ip, lsr #2
     bf0:	085b      	lsrs	r3, r3, #1
     bf2:	ea4f 0232 	mov.w	r2, r2, rrx
     bf6:	ebb6 0e02 	subs.w	lr, r6, r2
     bfa:	eb75 0e03 	sbcs.w	lr, r5, r3
     bfe:	bf22      	ittt	cs
     c00:	1ab6      	subcs	r6, r6, r2
     c02:	4675      	movcs	r5, lr
     c04:	ea40 00dc 	orrcs.w	r0, r0, ip, lsr #3
     c08:	ea55 0e06 	orrs.w	lr, r5, r6
     c0c:	d018      	beq.n	c40 <__aeabi_ddiv+0x114>
     c0e:	ea4f 1505 	mov.w	r5, r5, lsl #4
     c12:	ea45 7516 	orr.w	r5, r5, r6, lsr #28
     c16:	ea4f 1606 	mov.w	r6, r6, lsl #4
     c1a:	ea4f 03c3 	mov.w	r3, r3, lsl #3
     c1e:	ea43 7352 	orr.w	r3, r3, r2, lsr #29
     c22:	ea4f 02c2 	mov.w	r2, r2, lsl #3
     c26:	ea5f 1c1c 	movs.w	ip, ip, lsr #4
     c2a:	d1c0      	bne.n	bae <__aeabi_ddiv+0x82>
     c2c:	f411 1f80 	tst.w	r1, #1048576	; 0x100000
     c30:	d10b      	bne.n	c4a <__aeabi_ddiv+0x11e>
     c32:	ea41 0100 	orr.w	r1, r1, r0
     c36:	f04f 0000 	mov.w	r0, #0
     c3a:	f04f 4c00 	mov.w	ip, #2147483648	; 0x80000000
     c3e:	e7b6      	b.n	bae <__aeabi_ddiv+0x82>
     c40:	f411 1f80 	tst.w	r1, #1048576	; 0x100000
     c44:	bf04      	itt	eq
     c46:	4301      	orreq	r1, r0
     c48:	2000      	moveq	r0, #0
     c4a:	f1b4 0cfd 	subs.w	ip, r4, #253	; 0xfd
     c4e:	bf88      	it	hi
     c50:	f5bc 6fe0 	cmphi.w	ip, #1792	; 0x700
     c54:	f63f aeaf 	bhi.w	9b6 <__aeabi_dmul+0xde>
     c58:	ebb5 0c03 	subs.w	ip, r5, r3
     c5c:	bf04      	itt	eq
     c5e:	ebb6 0c02 	subseq.w	ip, r6, r2
     c62:	ea5f 0c50 	movseq.w	ip, r0, lsr #1
     c66:	f150 0000 	adcs.w	r0, r0, #0
     c6a:	eb41 5104 	adc.w	r1, r1, r4, lsl #20
     c6e:	bd70      	pop	{r4, r5, r6, pc}
     c70:	f00e 4e00 	and.w	lr, lr, #2147483648	; 0x80000000
     c74:	ea4e 3111 	orr.w	r1, lr, r1, lsr #12
     c78:	eb14 045c 	adds.w	r4, r4, ip, lsr #1
     c7c:	bfc2      	ittt	gt
     c7e:	ebd4 050c 	rsbsgt	r5, r4, ip
     c82:	ea41 5104 	orrgt.w	r1, r1, r4, lsl #20
     c86:	bd70      	popgt	{r4, r5, r6, pc}
     c88:	f441 1180 	orr.w	r1, r1, #1048576	; 0x100000
     c8c:	f04f 0e00 	mov.w	lr, #0
     c90:	3c01      	subs	r4, #1
     c92:	e690      	b.n	9b6 <__aeabi_dmul+0xde>
     c94:	ea45 0e06 	orr.w	lr, r5, r6
     c98:	e68d      	b.n	9b6 <__aeabi_dmul+0xde>
     c9a:	ea0c 5513 	and.w	r5, ip, r3, lsr #20
     c9e:	ea94 0f0c 	teq	r4, ip
     ca2:	bf08      	it	eq
     ca4:	ea95 0f0c 	teqeq	r5, ip
     ca8:	f43f af3b 	beq.w	b22 <__aeabi_dmul+0x24a>
     cac:	ea94 0f0c 	teq	r4, ip
     cb0:	d10a      	bne.n	cc8 <__aeabi_ddiv+0x19c>
     cb2:	ea50 3401 	orrs.w	r4, r0, r1, lsl #12
     cb6:	f47f af34 	bne.w	b22 <__aeabi_dmul+0x24a>
     cba:	ea95 0f0c 	teq	r5, ip
     cbe:	f47f af25 	bne.w	b0c <__aeabi_dmul+0x234>
     cc2:	4610      	mov	r0, r2
     cc4:	4619      	mov	r1, r3
     cc6:	e72c      	b.n	b22 <__aeabi_dmul+0x24a>
     cc8:	ea95 0f0c 	teq	r5, ip
     ccc:	d106      	bne.n	cdc <__aeabi_ddiv+0x1b0>
     cce:	ea52 3503 	orrs.w	r5, r2, r3, lsl #12
     cd2:	f43f aefd 	beq.w	ad0 <__aeabi_dmul+0x1f8>
     cd6:	4610      	mov	r0, r2
     cd8:	4619      	mov	r1, r3
     cda:	e722      	b.n	b22 <__aeabi_dmul+0x24a>
     cdc:	ea50 0641 	orrs.w	r6, r0, r1, lsl #1
     ce0:	bf18      	it	ne
     ce2:	ea52 0643 	orrsne.w	r6, r2, r3, lsl #1
     ce6:	f47f aec5 	bne.w	a74 <__aeabi_dmul+0x19c>
     cea:	ea50 0441 	orrs.w	r4, r0, r1, lsl #1
     cee:	f47f af0d 	bne.w	b0c <__aeabi_dmul+0x234>
     cf2:	ea52 0543 	orrs.w	r5, r2, r3, lsl #1
     cf6:	f47f aeeb 	bne.w	ad0 <__aeabi_dmul+0x1f8>
     cfa:	e712      	b.n	b22 <__aeabi_dmul+0x24a>

00000cfc <__gedf2>:
     cfc:	f04f 3cff 	mov.w	ip, #4294967295	; 0xffffffff
     d00:	e006      	b.n	d10 <__cmpdf2+0x4>
     d02:	bf00      	nop

00000d04 <__ledf2>:
     d04:	f04f 0c01 	mov.w	ip, #1
     d08:	e002      	b.n	d10 <__cmpdf2+0x4>
     d0a:	bf00      	nop

00000d0c <__cmpdf2>:
     d0c:	f04f 0c01 	mov.w	ip, #1
     d10:	f84d cd04 	str.w	ip, [sp, #-4]!
     d14:	ea4f 0c41 	mov.w	ip, r1, lsl #1
     d18:	ea7f 5c6c 	mvns.w	ip, ip, asr #21
     d1c:	ea4f 0c43 	mov.w	ip, r3, lsl #1
     d20:	bf18      	it	ne
     d22:	ea7f 5c6c 	mvnsne.w	ip, ip, asr #21
     d26:	d01b      	beq.n	d60 <__cmpdf2+0x54>
     d28:	b001      	add	sp, #4
     d2a:	ea50 0c41 	orrs.w	ip, r0, r1, lsl #1
     d2e:	bf0c      	ite	eq
     d30:	ea52 0c43 	orrseq.w	ip, r2, r3, lsl #1
     d34:	ea91 0f03 	teqne	r1, r3
     d38:	bf02      	ittt	eq
     d3a:	ea90 0f02 	teqeq	r0, r2
     d3e:	2000      	moveq	r0, #0
     d40:	4770      	bxeq	lr
     d42:	f110 0f00 	cmn.w	r0, #0
     d46:	ea91 0f03 	teq	r1, r3
     d4a:	bf58      	it	pl
     d4c:	4299      	cmppl	r1, r3
     d4e:	bf08      	it	eq
     d50:	4290      	cmpeq	r0, r2
     d52:	bf2c      	ite	cs
     d54:	17d8      	asrcs	r0, r3, #31
     d56:	ea6f 70e3 	mvncc.w	r0, r3, asr #31
     d5a:	f040 0001 	orr.w	r0, r0, #1
     d5e:	4770      	bx	lr
     d60:	ea4f 0c41 	mov.w	ip, r1, lsl #1
     d64:	ea7f 5c6c 	mvns.w	ip, ip, asr #21
     d68:	d102      	bne.n	d70 <__cmpdf2+0x64>
     d6a:	ea50 3c01 	orrs.w	ip, r0, r1, lsl #12
     d6e:	d107      	bne.n	d80 <__cmpdf2+0x74>
     d70:	ea4f 0c43 	mov.w	ip, r3, lsl #1
     d74:	ea7f 5c6c 	mvns.w	ip, ip, asr #21
     d78:	d1d6      	bne.n	d28 <__cmpdf2+0x1c>
     d7a:	ea52 3c03 	orrs.w	ip, r2, r3, lsl #12
     d7e:	d0d3      	beq.n	d28 <__cmpdf2+0x1c>
     d80:	f85d 0b04 	ldr.w	r0, [sp], #4
     d84:	4770      	bx	lr
     d86:	bf00      	nop

00000d88 <__aeabi_cdrcmple>:
     d88:	4684      	mov	ip, r0
     d8a:	4610      	mov	r0, r2
     d8c:	4662      	mov	r2, ip
     d8e:	468c      	mov	ip, r1
     d90:	4619      	mov	r1, r3
     d92:	4663      	mov	r3, ip
     d94:	e000      	b.n	d98 <__aeabi_cdcmpeq>
     d96:	bf00      	nop

00000d98 <__aeabi_cdcmpeq>:
     d98:	b501      	push	{r0, lr}
     d9a:	f7ff ffb7 	bl	d0c <__cmpdf2>
     d9e:	2800      	cmp	r0, #0
     da0:	bf48      	it	mi
     da2:	f110 0f00 	cmnmi.w	r0, #0
     da6:	bd01      	pop	{r0, pc}

00000da8 <__aeabi_dcmpeq>:
     da8:	f84d ed08 	str.w	lr, [sp, #-8]!
     dac:	f7ff fff4 	bl	d98 <__aeabi_cdcmpeq>
     db0:	bf0c      	ite	eq
     db2:	2001      	moveq	r0, #1
     db4:	2000      	movne	r0, #0
     db6:	f85d fb08 	ldr.w	pc, [sp], #8
     dba:	bf00      	nop

00000dbc <__aeabi_dcmplt>:
     dbc:	f84d ed08 	str.w	lr, [sp, #-8]!
     dc0:	f7ff ffea 	bl	d98 <__aeabi_cdcmpeq>
     dc4:	bf34      	ite	cc
     dc6:	2001      	movcc	r0, #1
     dc8:	2000      	movcs	r0, #0
     dca:	f85d fb08 	ldr.w	pc, [sp], #8
     dce:	bf00      	nop

00000dd0 <__aeabi_dcmple>:
     dd0:	f84d ed08 	str.w	lr, [sp, #-8]!
     dd4:	f7ff ffe0 	bl	d98 <__aeabi_cdcmpeq>
     dd8:	bf94      	ite	ls
     dda:	2001      	movls	r0, #1
     ddc:	2000      	movhi	r0, #0
     dde:	f85d fb08 	ldr.w	pc, [sp], #8
     de2:	bf00      	nop

00000de4 <__aeabi_dcmpge>:
     de4:	f84d ed08 	str.w	lr, [sp, #-8]!
     de8:	f7ff ffce 	bl	d88 <__aeabi_cdrcmple>
     dec:	bf94      	ite	ls
     dee:	2001      	movls	r0, #1
     df0:	2000      	movhi	r0, #0
     df2:	f85d fb08 	ldr.w	pc, [sp], #8
     df6:	bf00      	nop

00000df8 <__aeabi_dcmpgt>:
     df8:	f84d ed08 	str.w	lr, [sp, #-8]!
     dfc:	f7ff ffc4 	bl	d88 <__aeabi_cdrcmple>
     e00:	bf34      	ite	cc
     e02:	2001      	movcc	r0, #1
     e04:	2000      	movcs	r0, #0
     e06:	f85d fb08 	ldr.w	pc, [sp], #8
     e0a:	bf00      	nop

00000e0c <__aeabi_dcmpun>:
     e0c:	ea4f 0c41 	mov.w	ip, r1, lsl #1
     e10:	ea7f 5c6c 	mvns.w	ip, ip, asr #21
     e14:	d102      	bne.n	e1c <__aeabi_dcmpun+0x10>
     e16:	ea50 3c01 	orrs.w	ip, r0, r1, lsl #12
     e1a:	d10a      	bne.n	e32 <__aeabi_dcmpun+0x26>
     e1c:	ea4f 0c43 	mov.w	ip, r3, lsl #1
     e20:	ea7f 5c6c 	mvns.w	ip, ip, asr #21
     e24:	d102      	bne.n	e2c <__aeabi_dcmpun+0x20>
     e26:	ea52 3c03 	orrs.w	ip, r2, r3, lsl #12
     e2a:	d102      	bne.n	e32 <__aeabi_dcmpun+0x26>
     e2c:	f04f 0000 	mov.w	r0, #0
     e30:	4770      	bx	lr
     e32:	f04f 0001 	mov.w	r0, #1
     e36:	4770      	bx	lr

00000e38 <__aeabi_d2iz>:
     e38:	ea4f 0241 	mov.w	r2, r1, lsl #1
     e3c:	f512 1200 	adds.w	r2, r2, #2097152	; 0x200000
     e40:	d215      	bcs.n	e6e <__aeabi_d2iz+0x36>
     e42:	d511      	bpl.n	e68 <__aeabi_d2iz+0x30>
     e44:	f46f 7378 	mvn.w	r3, #992	; 0x3e0
     e48:	ebb3 5262 	subs.w	r2, r3, r2, asr #21
     e4c:	d912      	bls.n	e74 <__aeabi_d2iz+0x3c>
     e4e:	ea4f 23c1 	mov.w	r3, r1, lsl #11
     e52:	f043 4300 	orr.w	r3, r3, #2147483648	; 0x80000000
     e56:	ea43 5350 	orr.w	r3, r3, r0, lsr #21
     e5a:	f011 4f00 	tst.w	r1, #2147483648	; 0x80000000
     e5e:	fa23 f002 	lsr.w	r0, r3, r2
     e62:	bf18      	it	ne
     e64:	4240      	negne	r0, r0
     e66:	4770      	bx	lr
     e68:	f04f 0000 	mov.w	r0, #0
     e6c:	4770      	bx	lr
     e6e:	ea50 3001 	orrs.w	r0, r0, r1, lsl #12
     e72:	d105      	bne.n	e80 <__aeabi_d2iz+0x48>
     e74:	f011 4000 	ands.w	r0, r1, #2147483648	; 0x80000000
     e78:	bf08      	it	eq
     e7a:	f06f 4000 	mvneq.w	r0, #2147483648	; 0x80000000
     e7e:	4770      	bx	lr
     e80:	f04f 0000 	mov.w	r0, #0
     e84:	4770      	bx	lr
     e86:	bf00      	nop

00000e88 <__aeabi_ldivmod>:
     e88:	b97b      	cbnz	r3, eaa <__aeabi_ldivmod+0x22>
     e8a:	b972      	cbnz	r2, eaa <__aeabi_ldivmod+0x22>
     e8c:	2900      	cmp	r1, #0
     e8e:	bfbe      	ittt	lt
     e90:	2000      	movlt	r0, #0
     e92:	f04f 4100 	movlt.w	r1, #2147483648	; 0x80000000
     e96:	e006      	blt.n	ea6 <__aeabi_ldivmod+0x1e>
     e98:	bf08      	it	eq
     e9a:	2800      	cmpeq	r0, #0
     e9c:	bf1c      	itt	ne
     e9e:	f06f 4100 	mvnne.w	r1, #2147483648	; 0x80000000
     ea2:	f04f 30ff 	movne.w	r0, #4294967295	; 0xffffffff
     ea6:	f000 ba03 	b.w	12b0 <__aeabi_idiv0>
     eaa:	f1ad 0c08 	sub.w	ip, sp, #8
     eae:	e96d ce04 	strd	ip, lr, [sp, #-16]!
     eb2:	2900      	cmp	r1, #0
     eb4:	db09      	blt.n	eca <__aeabi_ldivmod+0x42>
     eb6:	2b00      	cmp	r3, #0
     eb8:	db1a      	blt.n	ef0 <__aeabi_ldivmod+0x68>
     eba:	f000 f883 	bl	fc4 <__udivmoddi4>
     ebe:	f8dd e004 	ldr.w	lr, [sp, #4]
     ec2:	e9dd 2302 	ldrd	r2, r3, [sp, #8]
     ec6:	b004      	add	sp, #16
     ec8:	4770      	bx	lr
     eca:	4240      	negs	r0, r0
     ecc:	eb61 0141 	sbc.w	r1, r1, r1, lsl #1
     ed0:	2b00      	cmp	r3, #0
     ed2:	db1b      	blt.n	f0c <__aeabi_ldivmod+0x84>
     ed4:	f000 f876 	bl	fc4 <__udivmoddi4>
     ed8:	f8dd e004 	ldr.w	lr, [sp, #4]
     edc:	e9dd 2302 	ldrd	r2, r3, [sp, #8]
     ee0:	b004      	add	sp, #16
     ee2:	4240      	negs	r0, r0
     ee4:	eb61 0141 	sbc.w	r1, r1, r1, lsl #1
     ee8:	4252      	negs	r2, r2
     eea:	eb63 0343 	sbc.w	r3, r3, r3, lsl #1
     eee:	4770      	bx	lr
     ef0:	4252      	negs	r2, r2
     ef2:	eb63 0343 	sbc.w	r3, r3, r3, lsl #1
     ef6:	f000 f865 	bl	fc4 <__udivmoddi4>
     efa:	f8dd e004 	ldr.w	lr, [sp, #4]
     efe:	e9dd 2302 	ldrd	r2, r3, [sp, #8]
     f02:	b004      	add	sp, #16
     f04:	4240      	negs	r0, r0
     f06:	eb61 0141 	sbc.w	r1, r1, r1, lsl #1
     f0a:	4770      	bx	lr
     f0c:	4252      	negs	r2, r2
     f0e:	eb63 0343 	sbc.w	r3, r3, r3, lsl #1
     f12:	f000 f857 	bl	fc4 <__udivmoddi4>
     f16:	f8dd e004 	ldr.w	lr, [sp, #4]
     f1a:	e9dd 2302 	ldrd	r2, r3, [sp, #8]
     f1e:	b004      	add	sp, #16
     f20:	4252      	negs	r2, r2
     f22:	eb63 0343 	sbc.w	r3, r3, r3, lsl #1
     f26:	4770      	bx	lr

00000f28 <__aeabi_uldivmod>:
     f28:	b953      	cbnz	r3, f40 <__aeabi_uldivmod+0x18>
     f2a:	b94a      	cbnz	r2, f40 <__aeabi_uldivmod+0x18>
     f2c:	2900      	cmp	r1, #0
     f2e:	bf08      	it	eq
     f30:	2800      	cmpeq	r0, #0
     f32:	bf1c      	itt	ne
     f34:	f04f 31ff 	movne.w	r1, #4294967295	; 0xffffffff
     f38:	f04f 30ff 	movne.w	r0, #4294967295	; 0xffffffff
     f3c:	f000 b9b8 	b.w	12b0 <__aeabi_idiv0>
     f40:	f1ad 0c08 	sub.w	ip, sp, #8
     f44:	e96d ce04 	strd	ip, lr, [sp, #-16]!
     f48:	f000 f83c 	bl	fc4 <__udivmoddi4>
     f4c:	f8dd e004 	ldr.w	lr, [sp, #4]
     f50:	e9dd 2302 	ldrd	r2, r3, [sp, #8]
     f54:	b004      	add	sp, #16
     f56:	4770      	bx	lr

00000f58 <__aeabi_d2lz>:
     f58:	b538      	push	{r3, r4, r5, lr}
     f5a:	2200      	movs	r2, #0
     f5c:	2300      	movs	r3, #0
     f5e:	4604      	mov	r4, r0
     f60:	460d      	mov	r5, r1
     f62:	f7ff ff2b 	bl	dbc <__aeabi_dcmplt>
     f66:	b928      	cbnz	r0, f74 <__aeabi_d2lz+0x1c>
     f68:	4620      	mov	r0, r4
     f6a:	4629      	mov	r1, r5
     f6c:	e8bd 4038 	ldmia.w	sp!, {r3, r4, r5, lr}
     f70:	f000 b80a 	b.w	f88 <__aeabi_d2ulz>
     f74:	4620      	mov	r0, r4
     f76:	f105 4100 	add.w	r1, r5, #2147483648	; 0x80000000
     f7a:	f000 f805 	bl	f88 <__aeabi_d2ulz>
     f7e:	4240      	negs	r0, r0
     f80:	eb61 0141 	sbc.w	r1, r1, r1, lsl #1
     f84:	bd38      	pop	{r3, r4, r5, pc}
     f86:	bf00      	nop

00000f88 <__aeabi_d2ulz>:
     f88:	b5d0      	push	{r4, r6, r7, lr}
     f8a:	2200      	movs	r2, #0
     f8c:	4b0b      	ldr	r3, [pc, #44]	; (fbc <__aeabi_d2ulz+0x34>)
     f8e:	4606      	mov	r6, r0
     f90:	460f      	mov	r7, r1
     f92:	f7ff fca1 	bl	8d8 <__aeabi_dmul>
     f96:	f000 f98d 	bl	12b4 <__aeabi_d2uiz>
     f9a:	4604      	mov	r4, r0
     f9c:	f7ff fc22 	bl	7e4 <__aeabi_ui2d>
     fa0:	2200      	movs	r2, #0
     fa2:	4b07      	ldr	r3, [pc, #28]	; (fc0 <__aeabi_d2ulz+0x38>)
     fa4:	f7ff fc98 	bl	8d8 <__aeabi_dmul>
     fa8:	4602      	mov	r2, r0
     faa:	460b      	mov	r3, r1
     fac:	4630      	mov	r0, r6
     fae:	4639      	mov	r1, r7
     fb0:	f7ff fada 	bl	568 <__aeabi_dsub>
     fb4:	f000 f97e 	bl	12b4 <__aeabi_d2uiz>
     fb8:	4621      	mov	r1, r4
     fba:	bdd0      	pop	{r4, r6, r7, pc}
     fbc:	3df00000 	.word	0x3df00000
     fc0:	41f00000 	.word	0x41f00000

00000fc4 <__udivmoddi4>:
     fc4:	e92d 4ff0 	stmdb	sp!, {r4, r5, r6, r7, r8, r9, sl, fp, lr}
     fc8:	9d09      	ldr	r5, [sp, #36]	; 0x24
     fca:	460e      	mov	r6, r1
     fcc:	4604      	mov	r4, r0
     fce:	460f      	mov	r7, r1
     fd0:	2b00      	cmp	r3, #0
     fd2:	d147      	bne.n	1064 <__udivmoddi4+0xa0>
     fd4:	428a      	cmp	r2, r1
     fd6:	4694      	mov	ip, r2
     fd8:	d95f      	bls.n	109a <__udivmoddi4+0xd6>
     fda:	fab2 f382 	clz	r3, r2
     fde:	b143      	cbz	r3, ff2 <__udivmoddi4+0x2e>
     fe0:	fa02 fc03 	lsl.w	ip, r2, r3
     fe4:	f1c3 0220 	rsb	r2, r3, #32
     fe8:	409f      	lsls	r7, r3
     fea:	409c      	lsls	r4, r3
     fec:	fa20 f202 	lsr.w	r2, r0, r2
     ff0:	4317      	orrs	r7, r2
     ff2:	ea4f 461c 	mov.w	r6, ip, lsr #16
     ff6:	fa1f fe8c 	uxth.w	lr, ip
     ffa:	0c22      	lsrs	r2, r4, #16
     ffc:	fbb7 f1f6 	udiv	r1, r7, r6
    1000:	fb06 7711 	mls	r7, r6, r1, r7
    1004:	fb01 f00e 	mul.w	r0, r1, lr
    1008:	ea42 4207 	orr.w	r2, r2, r7, lsl #16
    100c:	4290      	cmp	r0, r2
    100e:	d908      	bls.n	1022 <__udivmoddi4+0x5e>
    1010:	eb1c 0202 	adds.w	r2, ip, r2
    1014:	f101 37ff 	add.w	r7, r1, #4294967295	; 0xffffffff
    1018:	d202      	bcs.n	1020 <__udivmoddi4+0x5c>
    101a:	4290      	cmp	r0, r2
    101c:	f200 8137 	bhi.w	128e <__udivmoddi4+0x2ca>
    1020:	4639      	mov	r1, r7
    1022:	1a12      	subs	r2, r2, r0
    1024:	b2a4      	uxth	r4, r4
    1026:	fbb2 f0f6 	udiv	r0, r2, r6
    102a:	fb06 2210 	mls	r2, r6, r0, r2
    102e:	fb00 fe0e 	mul.w	lr, r0, lr
    1032:	ea44 4402 	orr.w	r4, r4, r2, lsl #16
    1036:	45a6      	cmp	lr, r4
    1038:	d908      	bls.n	104c <__udivmoddi4+0x88>
    103a:	eb1c 0404 	adds.w	r4, ip, r4
    103e:	f100 32ff 	add.w	r2, r0, #4294967295	; 0xffffffff
    1042:	d202      	bcs.n	104a <__udivmoddi4+0x86>
    1044:	45a6      	cmp	lr, r4
    1046:	f200 811c 	bhi.w	1282 <__udivmoddi4+0x2be>
    104a:	4610      	mov	r0, r2
    104c:	ea40 4001 	orr.w	r0, r0, r1, lsl #16
    1050:	eba4 040e 	sub.w	r4, r4, lr
    1054:	2100      	movs	r1, #0
    1056:	b11d      	cbz	r5, 1060 <__udivmoddi4+0x9c>
    1058:	40dc      	lsrs	r4, r3
    105a:	2300      	movs	r3, #0
    105c:	e9c5 4300 	strd	r4, r3, [r5]
    1060:	e8bd 8ff0 	ldmia.w	sp!, {r4, r5, r6, r7, r8, r9, sl, fp, pc}
    1064:	428b      	cmp	r3, r1
    1066:	d908      	bls.n	107a <__udivmoddi4+0xb6>
    1068:	2d00      	cmp	r5, #0
    106a:	f000 80fe 	beq.w	126a <__udivmoddi4+0x2a6>
    106e:	2100      	movs	r1, #0
    1070:	e9c5 0600 	strd	r0, r6, [r5]
    1074:	4608      	mov	r0, r1
    1076:	e8bd 8ff0 	ldmia.w	sp!, {r4, r5, r6, r7, r8, r9, sl, fp, pc}
    107a:	fab3 f183 	clz	r1, r3
    107e:	2900      	cmp	r1, #0
    1080:	d14c      	bne.n	111c <__udivmoddi4+0x158>
    1082:	42b3      	cmp	r3, r6
    1084:	f0c0 80f4 	bcc.w	1270 <__udivmoddi4+0x2ac>
    1088:	4282      	cmp	r2, r0
    108a:	f240 80f1 	bls.w	1270 <__udivmoddi4+0x2ac>
    108e:	4608      	mov	r0, r1
    1090:	2d00      	cmp	r5, #0
    1092:	d0e5      	beq.n	1060 <__udivmoddi4+0x9c>
    1094:	e9c5 4700 	strd	r4, r7, [r5]
    1098:	e7e2      	b.n	1060 <__udivmoddi4+0x9c>
    109a:	b902      	cbnz	r2, 109e <__udivmoddi4+0xda>
    109c:	deff      	udf	#255	; 0xff
    109e:	fab2 f382 	clz	r3, r2
    10a2:	2b00      	cmp	r3, #0
    10a4:	f040 80a1 	bne.w	11ea <__udivmoddi4+0x226>
    10a8:	1a8a      	subs	r2, r1, r2
    10aa:	ea4f 4e1c 	mov.w	lr, ip, lsr #16
    10ae:	fa1f f78c 	uxth.w	r7, ip
    10b2:	2101      	movs	r1, #1
    10b4:	fbb2 f6fe 	udiv	r6, r2, lr
    10b8:	fb0e 2016 	mls	r0, lr, r6, r2
    10bc:	0c22      	lsrs	r2, r4, #16
    10be:	ea42 4200 	orr.w	r2, r2, r0, lsl #16
    10c2:	fb07 f006 	mul.w	r0, r7, r6
    10c6:	4290      	cmp	r0, r2
    10c8:	d90f      	bls.n	10ea <__udivmoddi4+0x126>
    10ca:	eb1c 0202 	adds.w	r2, ip, r2
    10ce:	f106 38ff 	add.w	r8, r6, #4294967295	; 0xffffffff
    10d2:	bf2c      	ite	cs
    10d4:	f04f 0901 	movcs.w	r9, #1
    10d8:	f04f 0900 	movcc.w	r9, #0
    10dc:	4290      	cmp	r0, r2
    10de:	d903      	bls.n	10e8 <__udivmoddi4+0x124>
    10e0:	f1b9 0f00 	cmp.w	r9, #0
    10e4:	f000 80d0 	beq.w	1288 <__udivmoddi4+0x2c4>
    10e8:	4646      	mov	r6, r8
    10ea:	1a12      	subs	r2, r2, r0
    10ec:	b2a4      	uxth	r4, r4
    10ee:	fbb2 f0fe 	udiv	r0, r2, lr
    10f2:	fb0e 2210 	mls	r2, lr, r0, r2
    10f6:	fb00 f707 	mul.w	r7, r0, r7
    10fa:	ea44 4402 	orr.w	r4, r4, r2, lsl #16
    10fe:	42a7      	cmp	r7, r4
    1100:	d908      	bls.n	1114 <__udivmoddi4+0x150>
    1102:	eb1c 0404 	adds.w	r4, ip, r4
    1106:	f100 32ff 	add.w	r2, r0, #4294967295	; 0xffffffff
    110a:	d202      	bcs.n	1112 <__udivmoddi4+0x14e>
    110c:	42a7      	cmp	r7, r4
    110e:	f200 80b5 	bhi.w	127c <__udivmoddi4+0x2b8>
    1112:	4610      	mov	r0, r2
    1114:	1be4      	subs	r4, r4, r7
    1116:	ea40 4006 	orr.w	r0, r0, r6, lsl #16
    111a:	e79c      	b.n	1056 <__udivmoddi4+0x92>
    111c:	f1c1 0420 	rsb	r4, r1, #32
    1120:	408b      	lsls	r3, r1
    1122:	fa06 fc01 	lsl.w	ip, r6, r1
    1126:	fa00 fe01 	lsl.w	lr, r0, r1
    112a:	fa22 f704 	lsr.w	r7, r2, r4
    112e:	40e6      	lsrs	r6, r4
    1130:	408a      	lsls	r2, r1
    1132:	431f      	orrs	r7, r3
    1134:	fa20 f304 	lsr.w	r3, r0, r4
    1138:	ea4f 4817 	mov.w	r8, r7, lsr #16
    113c:	ea43 030c 	orr.w	r3, r3, ip
    1140:	fa1f fc87 	uxth.w	ip, r7
    1144:	ea4f 4913 	mov.w	r9, r3, lsr #16
    1148:	fbb6 f0f8 	udiv	r0, r6, r8
    114c:	fb08 6610 	mls	r6, r8, r0, r6
    1150:	ea49 4606 	orr.w	r6, r9, r6, lsl #16
    1154:	fb00 f90c 	mul.w	r9, r0, ip
    1158:	45b1      	cmp	r9, r6
    115a:	d90e      	bls.n	117a <__udivmoddi4+0x1b6>
    115c:	19be      	adds	r6, r7, r6
    115e:	f100 3aff 	add.w	sl, r0, #4294967295	; 0xffffffff
    1162:	bf2c      	ite	cs
    1164:	f04f 0b01 	movcs.w	fp, #1
    1168:	f04f 0b00 	movcc.w	fp, #0
    116c:	45b1      	cmp	r9, r6
    116e:	d903      	bls.n	1178 <__udivmoddi4+0x1b4>
    1170:	f1bb 0f00 	cmp.w	fp, #0
    1174:	f000 808e 	beq.w	1294 <__udivmoddi4+0x2d0>
    1178:	4650      	mov	r0, sl
    117a:	eba6 0609 	sub.w	r6, r6, r9
    117e:	fa1f f983 	uxth.w	r9, r3
    1182:	fbb6 f3f8 	udiv	r3, r6, r8
    1186:	fb08 6613 	mls	r6, r8, r3, r6
    118a:	fb03 fc0c 	mul.w	ip, r3, ip
    118e:	ea49 4606 	orr.w	r6, r9, r6, lsl #16
    1192:	45b4      	cmp	ip, r6
    1194:	d906      	bls.n	11a4 <__udivmoddi4+0x1e0>
    1196:	19be      	adds	r6, r7, r6
    1198:	f103 38ff 	add.w	r8, r3, #4294967295	; 0xffffffff
    119c:	d201      	bcs.n	11a2 <__udivmoddi4+0x1de>
    119e:	45b4      	cmp	ip, r6
    11a0:	d87e      	bhi.n	12a0 <__udivmoddi4+0x2dc>
    11a2:	4643      	mov	r3, r8
    11a4:	ea43 4000 	orr.w	r0, r3, r0, lsl #16
    11a8:	eba6 060c 	sub.w	r6, r6, ip
    11ac:	fba0 8c02 	umull	r8, ip, r0, r2
    11b0:	4566      	cmp	r6, ip
    11b2:	4643      	mov	r3, r8
    11b4:	46e1      	mov	r9, ip
    11b6:	d302      	bcc.n	11be <__udivmoddi4+0x1fa>
    11b8:	d107      	bne.n	11ca <__udivmoddi4+0x206>
    11ba:	45c6      	cmp	lr, r8
    11bc:	d205      	bcs.n	11ca <__udivmoddi4+0x206>
    11be:	ebb8 0302 	subs.w	r3, r8, r2
    11c2:	eb6c 0c07 	sbc.w	ip, ip, r7
    11c6:	3801      	subs	r0, #1
    11c8:	46e1      	mov	r9, ip
    11ca:	2d00      	cmp	r5, #0
    11cc:	d06e      	beq.n	12ac <__udivmoddi4+0x2e8>
    11ce:	ebbe 0203 	subs.w	r2, lr, r3
    11d2:	eb66 0609 	sbc.w	r6, r6, r9
    11d6:	fa22 f301 	lsr.w	r3, r2, r1
    11da:	fa06 f404 	lsl.w	r4, r6, r4
    11de:	40ce      	lsrs	r6, r1
    11e0:	2100      	movs	r1, #0
    11e2:	431c      	orrs	r4, r3
    11e4:	e9c5 4600 	strd	r4, r6, [r5]
    11e8:	e73a      	b.n	1060 <__udivmoddi4+0x9c>
    11ea:	fa02 fc03 	lsl.w	ip, r2, r3
    11ee:	f1c3 0220 	rsb	r2, r3, #32
    11f2:	4099      	lsls	r1, r3
    11f4:	409c      	lsls	r4, r3
    11f6:	40d6      	lsrs	r6, r2
    11f8:	ea4f 4e1c 	mov.w	lr, ip, lsr #16
    11fc:	fa20 f202 	lsr.w	r2, r0, r2
    1200:	fa1f f78c 	uxth.w	r7, ip
    1204:	fbb6 f0fe 	udiv	r0, r6, lr
    1208:	430a      	orrs	r2, r1
    120a:	fb0e 6610 	mls	r6, lr, r0, r6
    120e:	0c11      	lsrs	r1, r2, #16
    1210:	ea41 4106 	orr.w	r1, r1, r6, lsl #16
    1214:	fb00 f607 	mul.w	r6, r0, r7
    1218:	428e      	cmp	r6, r1
    121a:	d90e      	bls.n	123a <__udivmoddi4+0x276>
    121c:	eb1c 0101 	adds.w	r1, ip, r1
    1220:	f100 38ff 	add.w	r8, r0, #4294967295	; 0xffffffff
    1224:	bf2c      	ite	cs
    1226:	f04f 0901 	movcs.w	r9, #1
    122a:	f04f 0900 	movcc.w	r9, #0
    122e:	428e      	cmp	r6, r1
    1230:	d902      	bls.n	1238 <__udivmoddi4+0x274>
    1232:	f1b9 0f00 	cmp.w	r9, #0
    1236:	d030      	beq.n	129a <__udivmoddi4+0x2d6>
    1238:	4640      	mov	r0, r8
    123a:	1b89      	subs	r1, r1, r6
    123c:	b292      	uxth	r2, r2
    123e:	fbb1 f6fe 	udiv	r6, r1, lr
    1242:	fb0e 1116 	mls	r1, lr, r6, r1
    1246:	ea42 4201 	orr.w	r2, r2, r1, lsl #16
    124a:	fb06 f107 	mul.w	r1, r6, r7
    124e:	4291      	cmp	r1, r2
    1250:	d907      	bls.n	1262 <__udivmoddi4+0x29e>
    1252:	eb1c 0202 	adds.w	r2, ip, r2
    1256:	f106 38ff 	add.w	r8, r6, #4294967295	; 0xffffffff
    125a:	d201      	bcs.n	1260 <__udivmoddi4+0x29c>
    125c:	4291      	cmp	r1, r2
    125e:	d822      	bhi.n	12a6 <__udivmoddi4+0x2e2>
    1260:	4646      	mov	r6, r8
    1262:	1a52      	subs	r2, r2, r1
    1264:	ea46 4100 	orr.w	r1, r6, r0, lsl #16
    1268:	e724      	b.n	10b4 <__udivmoddi4+0xf0>
    126a:	4629      	mov	r1, r5
    126c:	4628      	mov	r0, r5
    126e:	e6f7      	b.n	1060 <__udivmoddi4+0x9c>
    1270:	1a84      	subs	r4, r0, r2
    1272:	eb66 0203 	sbc.w	r2, r6, r3
    1276:	2001      	movs	r0, #1
    1278:	4617      	mov	r7, r2
    127a:	e709      	b.n	1090 <__udivmoddi4+0xcc>
    127c:	4464      	add	r4, ip
    127e:	3802      	subs	r0, #2
    1280:	e748      	b.n	1114 <__udivmoddi4+0x150>
    1282:	4464      	add	r4, ip
    1284:	3802      	subs	r0, #2
    1286:	e6e1      	b.n	104c <__udivmoddi4+0x88>
    1288:	3e02      	subs	r6, #2
    128a:	4462      	add	r2, ip
    128c:	e72d      	b.n	10ea <__udivmoddi4+0x126>
    128e:	3902      	subs	r1, #2
    1290:	4462      	add	r2, ip
    1292:	e6c6      	b.n	1022 <__udivmoddi4+0x5e>
    1294:	3802      	subs	r0, #2
    1296:	443e      	add	r6, r7
    1298:	e76f      	b.n	117a <__udivmoddi4+0x1b6>
    129a:	3802      	subs	r0, #2
    129c:	4461      	add	r1, ip
    129e:	e7cc      	b.n	123a <__udivmoddi4+0x276>
    12a0:	3b02      	subs	r3, #2
    12a2:	443e      	add	r6, r7
    12a4:	e77e      	b.n	11a4 <__udivmoddi4+0x1e0>
    12a6:	3e02      	subs	r6, #2
    12a8:	4462      	add	r2, ip
    12aa:	e7da      	b.n	1262 <__udivmoddi4+0x29e>
    12ac:	4629      	mov	r1, r5
    12ae:	e6d7      	b.n	1060 <__udivmoddi4+0x9c>

000012b0 <__aeabi_idiv0>:
    12b0:	4770      	bx	lr
    12b2:	bf00      	nop

000012b4 <__aeabi_d2uiz>:
    12b4:	004a      	lsls	r2, r1, #1
    12b6:	d211      	bcs.n	12dc <__aeabi_d2uiz+0x28>
    12b8:	f512 1200 	adds.w	r2, r2, #2097152	; 0x200000
    12bc:	d211      	bcs.n	12e2 <__aeabi_d2uiz+0x2e>
    12be:	d50d      	bpl.n	12dc <__aeabi_d2uiz+0x28>
    12c0:	f46f 7378 	mvn.w	r3, #992	; 0x3e0
    12c4:	ebb3 5262 	subs.w	r2, r3, r2, asr #21
    12c8:	d40e      	bmi.n	12e8 <__aeabi_d2uiz+0x34>
    12ca:	ea4f 23c1 	mov.w	r3, r1, lsl #11
    12ce:	f043 4300 	orr.w	r3, r3, #2147483648	; 0x80000000
    12d2:	ea43 5350 	orr.w	r3, r3, r0, lsr #21
    12d6:	fa23 f002 	lsr.w	r0, r3, r2
    12da:	4770      	bx	lr
    12dc:	f04f 0000 	mov.w	r0, #0
    12e0:	4770      	bx	lr
    12e2:	ea50 3001 	orrs.w	r0, r0, r1, lsl #12
    12e6:	d102      	bne.n	12ee <__aeabi_d2uiz+0x3a>
    12e8:	f04f 30ff 	mov.w	r0, #4294967295	; 0xffffffff
    12ec:	4770      	bx	lr
    12ee:	f04f 0000 	mov.w	r0, #0
    12f2:	4770      	bx	lr

000012f4 <__aeabi_memset>:
    12f4:	b470      	push	{r4, r5, r6}
    12f6:	0784      	lsls	r4, r0, #30
    12f8:	d046      	beq.n	1388 <__aeabi_memset+0x94>
    12fa:	1e4c      	subs	r4, r1, #1
    12fc:	2900      	cmp	r1, #0
    12fe:	d041      	beq.n	1384 <__aeabi_memset+0x90>
    1300:	b2d5      	uxtb	r5, r2
    1302:	4603      	mov	r3, r0
    1304:	e002      	b.n	130c <__aeabi_memset+0x18>
    1306:	1e61      	subs	r1, r4, #1
    1308:	b3e4      	cbz	r4, 1384 <__aeabi_memset+0x90>
    130a:	460c      	mov	r4, r1
    130c:	f803 5b01 	strb.w	r5, [r3], #1
    1310:	0799      	lsls	r1, r3, #30
    1312:	d1f8      	bne.n	1306 <__aeabi_memset+0x12>
    1314:	2c03      	cmp	r4, #3
    1316:	d92e      	bls.n	1376 <__aeabi_memset+0x82>
    1318:	b2d5      	uxtb	r5, r2
    131a:	ea45 2505 	orr.w	r5, r5, r5, lsl #8
    131e:	2c0f      	cmp	r4, #15
    1320:	ea45 4505 	orr.w	r5, r5, r5, lsl #16
    1324:	d919      	bls.n	135a <__aeabi_memset+0x66>
    1326:	4626      	mov	r6, r4
    1328:	f103 0110 	add.w	r1, r3, #16
    132c:	3e10      	subs	r6, #16
    132e:	2e0f      	cmp	r6, #15
    1330:	f841 5c10 	str.w	r5, [r1, #-16]
    1334:	f841 5c0c 	str.w	r5, [r1, #-12]
    1338:	f841 5c08 	str.w	r5, [r1, #-8]
    133c:	f841 5c04 	str.w	r5, [r1, #-4]
    1340:	f101 0110 	add.w	r1, r1, #16
    1344:	d8f2      	bhi.n	132c <__aeabi_memset+0x38>
    1346:	f1a4 0110 	sub.w	r1, r4, #16
    134a:	f021 010f 	bic.w	r1, r1, #15
    134e:	f004 040f 	and.w	r4, r4, #15
    1352:	3110      	adds	r1, #16
    1354:	2c03      	cmp	r4, #3
    1356:	440b      	add	r3, r1
    1358:	d90d      	bls.n	1376 <__aeabi_memset+0x82>
    135a:	461e      	mov	r6, r3
    135c:	4621      	mov	r1, r4
    135e:	3904      	subs	r1, #4
    1360:	2903      	cmp	r1, #3
    1362:	f846 5b04 	str.w	r5, [r6], #4
    1366:	d8fa      	bhi.n	135e <__aeabi_memset+0x6a>
    1368:	1f21      	subs	r1, r4, #4
    136a:	f021 0103 	bic.w	r1, r1, #3
    136e:	3104      	adds	r1, #4
    1370:	440b      	add	r3, r1
    1372:	f004 0403 	and.w	r4, r4, #3
    1376:	b12c      	cbz	r4, 1384 <__aeabi_memset+0x90>
    1378:	b2d2      	uxtb	r2, r2
    137a:	441c      	add	r4, r3
    137c:	f803 2b01 	strb.w	r2, [r3], #1
    1380:	42a3      	cmp	r3, r4
    1382:	d1fb      	bne.n	137c <__aeabi_memset+0x88>
    1384:	bc70      	pop	{r4, r5, r6}
    1386:	4770      	bx	lr
    1388:	460c      	mov	r4, r1
    138a:	4603      	mov	r3, r0
    138c:	e7c2      	b.n	1314 <__aeabi_memset+0x20>
	...

00001390 <memcpy>:
    1390:	4684      	mov	ip, r0
    1392:	ea41 0300 	orr.w	r3, r1, r0
    1396:	f013 0303 	ands.w	r3, r3, #3
    139a:	d149      	bne.n	1430 <memcpy+0xa0>
    139c:	3a40      	subs	r2, #64	; 0x40
    139e:	d323      	bcc.n	13e8 <memcpy+0x58>
    13a0:	680b      	ldr	r3, [r1, #0]
    13a2:	6003      	str	r3, [r0, #0]
    13a4:	684b      	ldr	r3, [r1, #4]
    13a6:	6043      	str	r3, [r0, #4]
    13a8:	688b      	ldr	r3, [r1, #8]
    13aa:	6083      	str	r3, [r0, #8]
    13ac:	68cb      	ldr	r3, [r1, #12]
    13ae:	60c3      	str	r3, [r0, #12]
    13b0:	690b      	ldr	r3, [r1, #16]
    13b2:	6103      	str	r3, [r0, #16]
    13b4:	694b      	ldr	r3, [r1, #20]
    13b6:	6143      	str	r3, [r0, #20]
    13b8:	698b      	ldr	r3, [r1, #24]
    13ba:	6183      	str	r3, [r0, #24]
    13bc:	69cb      	ldr	r3, [r1, #28]
    13be:	61c3      	str	r3, [r0, #28]
    13c0:	6a0b      	ldr	r3, [r1, #32]
    13c2:	6203      	str	r3, [r0, #32]
    13c4:	6a4b      	ldr	r3, [r1, #36]	; 0x24
    13c6:	6243      	str	r3, [r0, #36]	; 0x24
    13c8:	6a8b      	ldr	r3, [r1, #40]	; 0x28
    13ca:	6283      	str	r3, [r0, #40]	; 0x28
    13cc:	6acb      	ldr	r3, [r1, #44]	; 0x2c
    13ce:	62c3      	str	r3, [r0, #44]	; 0x2c
    13d0:	6b0b      	ldr	r3, [r1, #48]	; 0x30
    13d2:	6303      	str	r3, [r0, #48]	; 0x30
    13d4:	6b4b      	ldr	r3, [r1, #52]	; 0x34
    13d6:	6343      	str	r3, [r0, #52]	; 0x34
    13d8:	6b8b      	ldr	r3, [r1, #56]	; 0x38
    13da:	6383      	str	r3, [r0, #56]	; 0x38
    13dc:	6bcb      	ldr	r3, [r1, #60]	; 0x3c
    13de:	63c3      	str	r3, [r0, #60]	; 0x3c
    13e0:	3040      	adds	r0, #64	; 0x40
    13e2:	3140      	adds	r1, #64	; 0x40
    13e4:	3a40      	subs	r2, #64	; 0x40
    13e6:	d2db      	bcs.n	13a0 <memcpy+0x10>
    13e8:	3230      	adds	r2, #48	; 0x30
    13ea:	d30b      	bcc.n	1404 <memcpy+0x74>
    13ec:	680b      	ldr	r3, [r1, #0]
    13ee:	6003      	str	r3, [r0, #0]
    13f0:	684b      	ldr	r3, [r1, #4]
    13f2:	6043      	str	r3, [r0, #4]
    13f4:	688b      	ldr	r3, [r1, #8]
    13f6:	6083      	str	r3, [r0, #8]
    13f8:	68cb      	ldr	r3, [r1, #12]
    13fa:	60c3      	str	r3, [r0, #12]
    13fc:	3010      	adds	r0, #16
    13fe:	3110      	adds	r1, #16
    1400:	3a10      	subs	r2, #16
    1402:	d2f3      	bcs.n	13ec <memcpy+0x5c>
    1404:	320c      	adds	r2, #12
    1406:	d305      	bcc.n	1414 <memcpy+0x84>
    1408:	f851 3b04 	ldr.w	r3, [r1], #4
    140c:	f840 3b04 	str.w	r3, [r0], #4
    1410:	3a04      	subs	r2, #4
    1412:	d2f9      	bcs.n	1408 <memcpy+0x78>
    1414:	3204      	adds	r2, #4
    1416:	d008      	beq.n	142a <memcpy+0x9a>
    1418:	07d2      	lsls	r2, r2, #31
    141a:	bf1c      	itt	ne
    141c:	f811 3b01 	ldrbne.w	r3, [r1], #1
    1420:	f800 3b01 	strbne.w	r3, [r0], #1
    1424:	d301      	bcc.n	142a <memcpy+0x9a>
    1426:	880b      	ldrh	r3, [r1, #0]
    1428:	8003      	strh	r3, [r0, #0]
    142a:	4660      	mov	r0, ip
    142c:	4770      	bx	lr
    142e:	bf00      	nop
    1430:	2a08      	cmp	r2, #8
    1432:	d313      	bcc.n	145c <memcpy+0xcc>
    1434:	078b      	lsls	r3, r1, #30
    1436:	d0b1      	beq.n	139c <memcpy+0xc>
    1438:	f010 0303 	ands.w	r3, r0, #3
    143c:	d0ae      	beq.n	139c <memcpy+0xc>
    143e:	f1c3 0304 	rsb	r3, r3, #4
    1442:	1ad2      	subs	r2, r2, r3
    1444:	07db      	lsls	r3, r3, #31
    1446:	bf1c      	itt	ne
    1448:	f811 3b01 	ldrbne.w	r3, [r1], #1
    144c:	f800 3b01 	strbne.w	r3, [r0], #1
    1450:	d3a4      	bcc.n	139c <memcpy+0xc>
    1452:	f831 3b02 	ldrh.w	r3, [r1], #2
    1456:	f820 3b02 	strh.w	r3, [r0], #2
    145a:	e79f      	b.n	139c <memcpy+0xc>
    145c:	3a04      	subs	r2, #4
    145e:	d3d9      	bcc.n	1414 <memcpy+0x84>
    1460:	3a01      	subs	r2, #1
    1462:	f811 3b01 	ldrb.w	r3, [r1], #1
    1466:	f800 3b01 	strb.w	r3, [r0], #1
    146a:	d2f9      	bcs.n	1460 <memcpy+0xd0>
    146c:	780b      	ldrb	r3, [r1, #0]
    146e:	7003      	strb	r3, [r0, #0]
    1470:	784b      	ldrb	r3, [r1, #1]
    1472:	7043      	strb	r3, [r0, #1]
    1474:	788b      	ldrb	r3, [r1, #2]
    1476:	7083      	strb	r3, [r0, #2]
    1478:	4660      	mov	r0, ip
    147a:	4770      	bx	lr

0000147c <SystemInit>:
    147c:	b580      	push	{r7, lr}
    147e:	466f      	mov	r7, sp
    1480:	f64e 5188 	movw	r1, #60808	; 0xed88
    1484:	f2ce 0100 	movt	r1, #57344	; 0xe000
    1488:	6808      	ldr	r0, [r1, #0]
    148a:	f440 0070 	orr.w	r0, r0, #15728640	; 0xf00000
    148e:	6008      	str	r0, [r1, #0]
    1490:	6808      	ldr	r0, [r1, #0]
    1492:	f040 000f 	orr.w	r0, r0, #15
    1496:	6008      	str	r0, [r1, #0]
    1498:	f64e 518c 	movw	r1, #60812	; 0xed8c
    149c:	f2ce 0100 	movt	r1, #57344	; 0xe000
    14a0:	6808      	ldr	r0, [r1, #0]
    14a2:	f640 4203 	movw	r2, #3075	; 0xc03
    14a6:	4310      	orrs	r0, r2
    14a8:	6008      	str	r0, [r1, #0]
    14aa:	f240 0000 	movw	r0, #0
    14ae:	f2c0 0000 	movt	r0, #0
    14b2:	f64e 5108 	movw	r1, #60680	; 0xed08
    14b6:	f2ce 0100 	movt	r1, #57344	; 0xe000
    14ba:	6008      	str	r0, [r1, #0]
    14bc:	f240 3108 	movw	r1, #776	; 0x308
    14c0:	f2c4 0100 	movt	r1, #16384	; 0x4000
    14c4:	2000      	movs	r0, #0
    14c6:	6008      	str	r0, [r1, #0]
    14c8:	f240 2120 	movw	r1, #544	; 0x220
    14cc:	f2c4 0100 	movt	r1, #16384	; 0x4000
    14d0:	2078      	movs	r0, #120	; 0x78
    14d2:	6008      	str	r0, [r1, #0]
    14d4:	f000 f801 	bl	14da <SystemInitHook>
    14d8:	bd80      	pop	{r7, pc}

000014da <SystemInitHook>:
    14da:	4770      	bx	lr

000014dc <SDK_DelayAtLeastUs>:
    14dc:	b580      	push	{r7, lr}
    14de:	466f      	mov	r7, sp
    14e0:	b084      	sub	sp, #16
    14e2:	9102      	str	r1, [sp, #8]
    14e4:	9003      	str	r0, [sp, #12]
    14e6:	b340      	cbz	r0, 153a <SDK_DelayAtLeastUs+0x5e>
    14e8:	e7ff      	b.n	14ea <SDK_DelayAtLeastUs+0xe>
    14ea:	9803      	ldr	r0, [sp, #12]
    14ec:	9902      	ldr	r1, [sp, #8]
    14ee:	fba0 0101 	umull	r0, r1, r0, r1
    14f2:	f244 2240 	movw	r2, #16960	; 0x4240
    14f6:	f2c0 020f 	movt	r2, #15
    14fa:	2300      	movs	r3, #0
    14fc:	f7ff fd14 	bl	f28 <__aeabi_uldivmod>
    1500:	460a      	mov	r2, r1
    1502:	9200      	str	r2, [sp, #0]
    1504:	9001      	str	r0, [sp, #4]
    1506:	b909      	cbnz	r1, 150c <SDK_DelayAtLeastUs+0x30>
    1508:	e7ff      	b.n	150a <SDK_DelayAtLeastUs+0x2e>
    150a:	e00e      	b.n	152a <SDK_DelayAtLeastUs+0x4e>
    150c:	f248 7074 	movw	r0, #34676	; 0x8774
    1510:	f2c0 0000 	movt	r0, #0
    1514:	f248 72e5 	movw	r2, #34789	; 0x87e5
    1518:	f2c0 0200 	movt	r2, #0
    151c:	f248 73f8 	movw	r3, #34808	; 0x87f8
    1520:	f2c0 0300 	movt	r3, #0
    1524:	21d5      	movs	r1, #213	; 0xd5
    1526:	f003 fd0c 	bl	4f42 <__assert_func>
    152a:	9900      	ldr	r1, [sp, #0]
    152c:	9801      	ldr	r0, [sp, #4]
    152e:	0880      	lsrs	r0, r0, #2
    1530:	ea40 7081 	orr.w	r0, r0, r1, lsl #30
    1534:	f000 f803 	bl	153e <DelayLoop>
    1538:	e7ff      	b.n	153a <SDK_DelayAtLeastUs+0x5e>
    153a:	b004      	add	sp, #16
    153c:	bd80      	pop	{r7, pc}

0000153e <DelayLoop>:
    153e:	4600      	mov	r0, r0

00001540 <loop>:
    1540:	f1a0 0001 	sub.w	r0, r0, #1
    1544:	2800      	cmp	r0, #0
    1546:	d1fb      	bne.n	1540 <loop>
    1548:	4770      	bx	lr

0000154a <CLOCK_AttachClk>:
    154a:	b089      	sub	sp, #36	; 0x24
    154c:	9008      	str	r0, [sp, #32]
    154e:	f1b0 4f00 	cmp.w	r0, #2147483648	; 0x80000000
    1552:	d045      	beq.n	15e0 <CLOCK_AttachClk+0x96>
    1554:	e7ff      	b.n	1556 <CLOCK_AttachClk+0xc>
    1556:	9908      	ldr	r1, [sp, #32]
    1558:	2000      	movs	r0, #0
    155a:	9106      	str	r1, [sp, #24]
    155c:	9007      	str	r0, [sp, #28]
    155e:	e7ff      	b.n	1560 <CLOCK_AttachClk+0x16>
    1560:	9906      	ldr	r1, [sp, #24]
    1562:	9807      	ldr	r0, [sp, #28]
    1564:	9004      	str	r0, [sp, #16]
    1566:	9105      	str	r1, [sp, #20]
    1568:	2801      	cmp	r0, #1
    156a:	d838      	bhi.n	15de <CLOCK_AttachClk+0x94>
    156c:	e7ff      	b.n	156e <CLOCK_AttachClk+0x24>
    156e:	9805      	ldr	r0, [sp, #20]
    1570:	b908      	cbnz	r0, 1576 <CLOCK_AttachClk+0x2c>
    1572:	e7ff      	b.n	1574 <CLOCK_AttachClk+0x2a>
    1574:	e033      	b.n	15de <CLOCK_AttachClk+0x94>
    1576:	9805      	ldr	r0, [sp, #20]
    1578:	f36f 301f 	bfc	r0, #12, #20
    157c:	4601      	mov	r1, r0
    157e:	9103      	str	r1, [sp, #12]
    1580:	b318      	cbz	r0, 15ca <CLOCK_AttachClk+0x80>
    1582:	e7ff      	b.n	1584 <CLOCK_AttachClk+0x3a>
    1584:	9903      	ldr	r1, [sp, #12]
    1586:	b2c8      	uxtb	r0, r1
    1588:	4602      	mov	r2, r0
    158a:	9201      	str	r2, [sp, #4]
    158c:	f401 6270 	and.w	r2, r1, #3840	; 0xf00
    1590:	f04f 31ff 	mov.w	r1, #4294967295	; 0xffffffff
    1594:	eb01 2112 	add.w	r1, r1, r2, lsr #8
    1598:	9102      	str	r1, [sp, #8]
    159a:	283f      	cmp	r0, #63	; 0x3f
    159c:	d109      	bne.n	15b2 <CLOCK_AttachClk+0x68>
    159e:	e7ff      	b.n	15a0 <CLOCK_AttachClk+0x56>
    15a0:	9a02      	ldr	r2, [sp, #8]
    15a2:	2198      	movs	r1, #152	; 0x98
    15a4:	f2c4 0102 	movt	r1, #16386	; 0x4002
    15a8:	6808      	ldr	r0, [r1, #0]
    15aa:	f362 0000 	bfi	r0, r2, #0, #1
    15ae:	6008      	str	r0, [r1, #0]
    15b0:	e00a      	b.n	15c8 <CLOCK_AttachClk+0x7e>
    15b2:	9901      	ldr	r1, [sp, #4]
    15b4:	9802      	ldr	r0, [sp, #8]
    15b6:	b2c0      	uxtb	r0, r0
    15b8:	b2ca      	uxtb	r2, r1
    15ba:	f240 2160 	movw	r1, #608	; 0x260
    15be:	f2c4 0100 	movt	r1, #16384	; 0x4000
    15c2:	f841 0022 	str.w	r0, [r1, r2, lsl #2]
    15c6:	e7ff      	b.n	15c8 <CLOCK_AttachClk+0x7e>
    15c8:	e7ff      	b.n	15ca <CLOCK_AttachClk+0x80>
    15ca:	9805      	ldr	r0, [sp, #20]
    15cc:	0b00      	lsrs	r0, r0, #12
    15ce:	9000      	str	r0, [sp, #0]
    15d0:	e7ff      	b.n	15d2 <CLOCK_AttachClk+0x88>
    15d2:	9900      	ldr	r1, [sp, #0]
    15d4:	9804      	ldr	r0, [sp, #16]
    15d6:	3001      	adds	r0, #1
    15d8:	9106      	str	r1, [sp, #24]
    15da:	9007      	str	r0, [sp, #28]
    15dc:	e7c0      	b.n	1560 <CLOCK_AttachClk+0x16>
    15de:	e7ff      	b.n	15e0 <CLOCK_AttachClk+0x96>
    15e0:	b009      	add	sp, #36	; 0x24
    15e2:	4770      	bx	lr

000015e4 <CLOCK_SetClkDiv>:
    15e4:	b083      	sub	sp, #12
    15e6:	9100      	str	r1, [sp, #0]
    15e8:	4601      	mov	r1, r0
    15ea:	9101      	str	r1, [sp, #4]
    15ec:	9202      	str	r2, [sp, #8]
    15ee:	2808      	cmp	r0, #8
    15f0:	db12      	blt.n	1618 <CLOCK_SetClkDiv+0x34>
    15f2:	e7ff      	b.n	15f4 <CLOCK_SetClkDiv+0x10>
    15f4:	9801      	ldr	r0, [sp, #4]
    15f6:	b2c0      	uxtb	r0, r0
    15f8:	280f      	cmp	r0, #15
    15fa:	dc0d      	bgt.n	1618 <CLOCK_SetClkDiv+0x34>
    15fc:	e7ff      	b.n	15fe <CLOCK_SetClkDiv+0x1a>
    15fe:	9901      	ldr	r1, [sp, #4]
    1600:	9a00      	ldr	r2, [sp, #0]
    1602:	20ff      	movs	r0, #255	; 0xff
    1604:	f362 200f 	bfi	r0, r2, #8, #8
    1608:	b2ca      	uxtb	r2, r1
    160a:	f240 3100 	movw	r1, #768	; 0x300
    160e:	f2c4 0100 	movt	r1, #16384	; 0x4000
    1612:	f841 0022 	str.w	r0, [r1, r2, lsl #2]
    1616:	e028      	b.n	166a <CLOCK_SetClkDiv+0x86>
    1618:	9802      	ldr	r0, [sp, #8]
    161a:	07c0      	lsls	r0, r0, #31
    161c:	b158      	cbz	r0, 1636 <CLOCK_SetClkDiv+0x52>
    161e:	e7ff      	b.n	1620 <CLOCK_SetClkDiv+0x3c>
    1620:	9801      	ldr	r0, [sp, #4]
    1622:	b2c2      	uxtb	r2, r0
    1624:	f240 3100 	movw	r1, #768	; 0x300
    1628:	f2c4 0100 	movt	r1, #16384	; 0x4000
    162c:	f04f 5000 	mov.w	r0, #536870912	; 0x20000000
    1630:	f841 0022 	str.w	r0, [r1, r2, lsl #2]
    1634:	e7ff      	b.n	1636 <CLOCK_SetClkDiv+0x52>
    1636:	9800      	ldr	r0, [sp, #0]
    1638:	b958      	cbnz	r0, 1652 <CLOCK_SetClkDiv+0x6e>
    163a:	e7ff      	b.n	163c <CLOCK_SetClkDiv+0x58>
    163c:	9801      	ldr	r0, [sp, #4]
    163e:	b2c2      	uxtb	r2, r0
    1640:	f240 3100 	movw	r1, #768	; 0x300
    1644:	f2c4 0100 	movt	r1, #16384	; 0x4000
    1648:	f04f 4080 	mov.w	r0, #1073741824	; 0x40000000
    164c:	f841 0022 	str.w	r0, [r1, r2, lsl #2]
    1650:	e00a      	b.n	1668 <CLOCK_SetClkDiv+0x84>
    1652:	9901      	ldr	r1, [sp, #4]
    1654:	9800      	ldr	r0, [sp, #0]
    1656:	3801      	subs	r0, #1
    1658:	b2ca      	uxtb	r2, r1
    165a:	f240 3100 	movw	r1, #768	; 0x300
    165e:	f2c4 0100 	movt	r1, #16384	; 0x4000
    1662:	f841 0022 	str.w	r0, [r1, r2, lsl #2]
    1666:	e7ff      	b.n	1668 <CLOCK_SetClkDiv+0x84>
    1668:	e7ff      	b.n	166a <CLOCK_SetClkDiv+0x86>
    166a:	b003      	add	sp, #12
    166c:	4770      	bx	lr

0000166e <CLOCK_SetupFROClocking>:
    166e:	b580      	push	{r7, lr}
    1670:	466f      	mov	r7, sp
    1672:	b082      	sub	sp, #8
    1674:	9001      	str	r0, [sp, #4]
    1676:	f641 3100 	movw	r1, #6912	; 0x1b00
    167a:	f2c0 01b7 	movt	r1, #183	; 0xb7
    167e:	4288      	cmp	r0, r1
    1680:	d013      	beq.n	16aa <CLOCK_SetupFROClocking+0x3c>
    1682:	e7ff      	b.n	1684 <CLOCK_SetupFROClocking+0x16>
    1684:	9801      	ldr	r0, [sp, #4]
    1686:	f646 4100 	movw	r1, #27648	; 0x6c00
    168a:	f2c0 21dc 	movt	r1, #732	; 0x2dc
    168e:	4288      	cmp	r0, r1
    1690:	d00b      	beq.n	16aa <CLOCK_SetupFROClocking+0x3c>
    1692:	e7ff      	b.n	1694 <CLOCK_SetupFROClocking+0x26>
    1694:	9801      	ldr	r0, [sp, #4]
    1696:	f64d 0100 	movw	r1, #55296	; 0xd800
    169a:	f2c0 51b8 	movt	r1, #1464	; 0x5b8
    169e:	4288      	cmp	r0, r1
    16a0:	d003      	beq.n	16aa <CLOCK_SetupFROClocking+0x3c>
    16a2:	e7ff      	b.n	16a4 <CLOCK_SetupFROClocking+0x36>
    16a4:	2001      	movs	r0, #1
    16a6:	9000      	str	r0, [sp, #0]
    16a8:	e02b      	b.n	1702 <CLOCK_SetupFROClocking+0x94>
    16aa:	f240 1148 	movw	r1, #328	; 0x148
    16ae:	f2c4 0100 	movt	r1, #16384	; 0x4000
    16b2:	f04f 6000 	mov.w	r0, #134217728	; 0x8000000
    16b6:	6008      	str	r0, [r1, #0]
    16b8:	f240 2128 	movw	r1, #552	; 0x228
    16bc:	f2c4 0100 	movt	r1, #16384	; 0x4000
    16c0:	6008      	str	r0, [r1, #0]
    16c2:	2020      	movs	r0, #32
    16c4:	f000 f820 	bl	1708 <POWER_DisablePD>
    16c8:	9801      	ldr	r0, [sp, #4]
    16ca:	f64d 0100 	movw	r1, #55296	; 0xd800
    16ce:	f2c0 51b8 	movt	r1, #1464	; 0x5b8
    16d2:	4288      	cmp	r0, r1
    16d4:	d109      	bne.n	16ea <CLOCK_SetupFROClocking+0x7c>
    16d6:	e7ff      	b.n	16d8 <CLOCK_SetupFROClocking+0x6a>
    16d8:	f243 0110 	movw	r1, #12304	; 0x3010
    16dc:	f2c4 0101 	movt	r1, #16385	; 0x4001
    16e0:	6808      	ldr	r0, [r1, #0]
    16e2:	f040 4080 	orr.w	r0, r0, #1073741824	; 0x40000000
    16e6:	6008      	str	r0, [r1, #0]
    16e8:	e008      	b.n	16fc <CLOCK_SetupFROClocking+0x8e>
    16ea:	f243 0110 	movw	r1, #12304	; 0x3010
    16ee:	f2c4 0101 	movt	r1, #16385	; 0x4001
    16f2:	6808      	ldr	r0, [r1, #0]
    16f4:	f440 4080 	orr.w	r0, r0, #16384	; 0x4000
    16f8:	6008      	str	r0, [r1, #0]
    16fa:	e7ff      	b.n	16fc <CLOCK_SetupFROClocking+0x8e>
    16fc:	2000      	movs	r0, #0
    16fe:	9000      	str	r0, [sp, #0]
    1700:	e7ff      	b.n	1702 <CLOCK_SetupFROClocking+0x94>
    1702:	9800      	ldr	r0, [sp, #0]
    1704:	b002      	add	sp, #8
    1706:	bd80      	pop	{r7, pc}

00001708 <POWER_DisablePD>:
    1708:	21c8      	movs	r1, #200	; 0xc8
    170a:	f2c4 0102 	movt	r1, #16386	; 0x4002
    170e:	6008      	str	r0, [r1, #0]
    1710:	4770      	bx	lr

00001712 <CLOCK_SetFLASHAccessCyclesForFreq>:
    1712:	b08f      	sub	sp, #60	; 0x3c
    1714:	900d      	str	r0, [sp, #52]	; 0x34
    1716:	f240 4100 	movw	r1, #1024	; 0x400
    171a:	f2c4 0100 	movt	r1, #16384	; 0x4000
    171e:	6809      	ldr	r1, [r1, #0]
    1720:	f001 0120 	and.w	r1, r1, #32
    1724:	910e      	str	r1, [sp, #56]	; 0x38
    1726:	f64d 01c0 	movw	r1, #55488	; 0xd8c0
    172a:	f2c0 01a7 	movt	r1, #167	; 0xa7
    172e:	4288      	cmp	r0, r1
    1730:	d803      	bhi.n	173a <CLOCK_SetFLASHAccessCyclesForFreq+0x28>
    1732:	e7ff      	b.n	1734 <CLOCK_SetFLASHAccessCyclesForFreq+0x22>
    1734:	2000      	movs	r0, #0
    1736:	900c      	str	r0, [sp, #48]	; 0x30
    1738:	e09c      	b.n	1874 <CLOCK_SetFLASHAccessCyclesForFreq+0x162>
    173a:	980d      	ldr	r0, [sp, #52]	; 0x34
    173c:	f24b 1180 	movw	r1, #45440	; 0xb180
    1740:	f2c0 114f 	movt	r1, #335	; 0x14f
    1744:	4288      	cmp	r0, r1
    1746:	d803      	bhi.n	1750 <CLOCK_SetFLASHAccessCyclesForFreq+0x3e>
    1748:	e7ff      	b.n	174a <CLOCK_SetFLASHAccessCyclesForFreq+0x38>
    174a:	2001      	movs	r0, #1
    174c:	900b      	str	r0, [sp, #44]	; 0x2c
    174e:	e08e      	b.n	186e <CLOCK_SetFLASHAccessCyclesForFreq+0x15c>
    1750:	980d      	ldr	r0, [sp, #52]	; 0x34
    1752:	f648 2140 	movw	r1, #35392	; 0x8a40
    1756:	f2c0 11f7 	movt	r1, #503	; 0x1f7
    175a:	4288      	cmp	r0, r1
    175c:	d803      	bhi.n	1766 <CLOCK_SetFLASHAccessCyclesForFreq+0x54>
    175e:	e7ff      	b.n	1760 <CLOCK_SetFLASHAccessCyclesForFreq+0x4e>
    1760:	2002      	movs	r0, #2
    1762:	900a      	str	r0, [sp, #40]	; 0x28
    1764:	e080      	b.n	1868 <CLOCK_SetFLASHAccessCyclesForFreq+0x156>
    1766:	980d      	ldr	r0, [sp, #52]	; 0x34
    1768:	f246 3100 	movw	r1, #25344	; 0x6300
    176c:	f2c0 219f 	movt	r1, #671	; 0x29f
    1770:	4288      	cmp	r0, r1
    1772:	d803      	bhi.n	177c <CLOCK_SetFLASHAccessCyclesForFreq+0x6a>
    1774:	e7ff      	b.n	1776 <CLOCK_SetFLASHAccessCyclesForFreq+0x64>
    1776:	2003      	movs	r0, #3
    1778:	9009      	str	r0, [sp, #36]	; 0x24
    177a:	e072      	b.n	1862 <CLOCK_SetFLASHAccessCyclesForFreq+0x150>
    177c:	980d      	ldr	r0, [sp, #52]	; 0x34
    177e:	f643 31c0 	movw	r1, #15296	; 0x3bc0
    1782:	f2c0 3147 	movt	r1, #839	; 0x347
    1786:	4288      	cmp	r0, r1
    1788:	d803      	bhi.n	1792 <CLOCK_SetFLASHAccessCyclesForFreq+0x80>
    178a:	e7ff      	b.n	178c <CLOCK_SetFLASHAccessCyclesForFreq+0x7a>
    178c:	2004      	movs	r0, #4
    178e:	9008      	str	r0, [sp, #32]
    1790:	e064      	b.n	185c <CLOCK_SetFLASHAccessCyclesForFreq+0x14a>
    1792:	980d      	ldr	r0, [sp, #52]	; 0x34
    1794:	f241 4180 	movw	r1, #5248	; 0x1480
    1798:	f2c0 31ef 	movt	r1, #1007	; 0x3ef
    179c:	4288      	cmp	r0, r1
    179e:	d803      	bhi.n	17a8 <CLOCK_SetFLASHAccessCyclesForFreq+0x96>
    17a0:	e7ff      	b.n	17a2 <CLOCK_SetFLASHAccessCyclesForFreq+0x90>
    17a2:	2005      	movs	r0, #5
    17a4:	9007      	str	r0, [sp, #28]
    17a6:	e056      	b.n	1856 <CLOCK_SetFLASHAccessCyclesForFreq+0x144>
    17a8:	980d      	ldr	r0, [sp, #52]	; 0x34
    17aa:	f64e 5140 	movw	r1, #60736	; 0xed40
    17ae:	f2c0 4196 	movt	r1, #1174	; 0x496
    17b2:	4288      	cmp	r0, r1
    17b4:	d803      	bhi.n	17be <CLOCK_SetFLASHAccessCyclesForFreq+0xac>
    17b6:	e7ff      	b.n	17b8 <CLOCK_SetFLASHAccessCyclesForFreq+0xa6>
    17b8:	2006      	movs	r0, #6
    17ba:	9006      	str	r0, [sp, #24]
    17bc:	e048      	b.n	1850 <CLOCK_SetFLASHAccessCyclesForFreq+0x13e>
    17be:	980d      	ldr	r0, [sp, #52]	; 0x34
    17c0:	f24c 6100 	movw	r1, #50688	; 0xc600
    17c4:	f2c0 513e 	movt	r1, #1342	; 0x53e
    17c8:	4288      	cmp	r0, r1
    17ca:	d803      	bhi.n	17d4 <CLOCK_SetFLASHAccessCyclesForFreq+0xc2>
    17cc:	e7ff      	b.n	17ce <CLOCK_SetFLASHAccessCyclesForFreq+0xbc>
    17ce:	2007      	movs	r0, #7
    17d0:	9005      	str	r0, [sp, #20]
    17d2:	e03a      	b.n	184a <CLOCK_SetFLASHAccessCyclesForFreq+0x138>
    17d4:	980d      	ldr	r0, [sp, #52]	; 0x34
    17d6:	f24e 1100 	movw	r1, #57600	; 0xe100
    17da:	f2c0 51f5 	movt	r1, #1525	; 0x5f5
    17de:	4288      	cmp	r0, r1
    17e0:	d803      	bhi.n	17ea <CLOCK_SetFLASHAccessCyclesForFreq+0xd8>
    17e2:	e7ff      	b.n	17e4 <CLOCK_SetFLASHAccessCyclesForFreq+0xd2>
    17e4:	2008      	movs	r0, #8
    17e6:	9004      	str	r0, [sp, #16]
    17e8:	e02c      	b.n	1844 <CLOCK_SetFLASHAccessCyclesForFreq+0x132>
    17ea:	980d      	ldr	r0, [sp, #52]	; 0x34
    17ec:	f24c 21c0 	movw	r1, #49856	; 0xc2c0
    17f0:	f2c0 61da 	movt	r1, #1754	; 0x6da
    17f4:	4288      	cmp	r0, r1
    17f6:	d803      	bhi.n	1800 <CLOCK_SetFLASHAccessCyclesForFreq+0xee>
    17f8:	e7ff      	b.n	17fa <CLOCK_SetFLASHAccessCyclesForFreq+0xe8>
    17fa:	2009      	movs	r0, #9
    17fc:	9003      	str	r0, [sp, #12]
    17fe:	e01e      	b.n	183e <CLOCK_SetFLASHAccessCyclesForFreq+0x12c>
    1800:	980d      	ldr	r0, [sp, #52]	; 0x34
    1802:	f24a 4180 	movw	r1, #42112	; 0xa480
    1806:	f2c0 71bf 	movt	r1, #1983	; 0x7bf
    180a:	4288      	cmp	r0, r1
    180c:	d803      	bhi.n	1816 <CLOCK_SetFLASHAccessCyclesForFreq+0x104>
    180e:	e7ff      	b.n	1810 <CLOCK_SetFLASHAccessCyclesForFreq+0xfe>
    1810:	200a      	movs	r0, #10
    1812:	9002      	str	r0, [sp, #8]
    1814:	e010      	b.n	1838 <CLOCK_SetFLASHAccessCyclesForFreq+0x126>
    1816:	980d      	ldr	r0, [sp, #52]	; 0x34
    1818:	f24d 1180 	movw	r1, #53632	; 0xd180
    181c:	f6c0 01f0 	movt	r1, #2288	; 0x8f0
    1820:	4288      	cmp	r0, r1
    1822:	d803      	bhi.n	182c <CLOCK_SetFLASHAccessCyclesForFreq+0x11a>
    1824:	e7ff      	b.n	1826 <CLOCK_SetFLASHAccessCyclesForFreq+0x114>
    1826:	200b      	movs	r0, #11
    1828:	9001      	str	r0, [sp, #4]
    182a:	e002      	b.n	1832 <CLOCK_SetFLASHAccessCyclesForFreq+0x120>
    182c:	200c      	movs	r0, #12
    182e:	9001      	str	r0, [sp, #4]
    1830:	e7ff      	b.n	1832 <CLOCK_SetFLASHAccessCyclesForFreq+0x120>
    1832:	9801      	ldr	r0, [sp, #4]
    1834:	9002      	str	r0, [sp, #8]
    1836:	e7ff      	b.n	1838 <CLOCK_SetFLASHAccessCyclesForFreq+0x126>
    1838:	9802      	ldr	r0, [sp, #8]
    183a:	9003      	str	r0, [sp, #12]
    183c:	e7ff      	b.n	183e <CLOCK_SetFLASHAccessCyclesForFreq+0x12c>
    183e:	9803      	ldr	r0, [sp, #12]
    1840:	9004      	str	r0, [sp, #16]
    1842:	e7ff      	b.n	1844 <CLOCK_SetFLASHAccessCyclesForFreq+0x132>
    1844:	9804      	ldr	r0, [sp, #16]
    1846:	9005      	str	r0, [sp, #20]
    1848:	e7ff      	b.n	184a <CLOCK_SetFLASHAccessCyclesForFreq+0x138>
    184a:	9805      	ldr	r0, [sp, #20]
    184c:	9006      	str	r0, [sp, #24]
    184e:	e7ff      	b.n	1850 <CLOCK_SetFLASHAccessCyclesForFreq+0x13e>
    1850:	9806      	ldr	r0, [sp, #24]
    1852:	9007      	str	r0, [sp, #28]
    1854:	e7ff      	b.n	1856 <CLOCK_SetFLASHAccessCyclesForFreq+0x144>
    1856:	9807      	ldr	r0, [sp, #28]
    1858:	9008      	str	r0, [sp, #32]
    185a:	e7ff      	b.n	185c <CLOCK_SetFLASHAccessCyclesForFreq+0x14a>
    185c:	9808      	ldr	r0, [sp, #32]
    185e:	9009      	str	r0, [sp, #36]	; 0x24
    1860:	e7ff      	b.n	1862 <CLOCK_SetFLASHAccessCyclesForFreq+0x150>
    1862:	9809      	ldr	r0, [sp, #36]	; 0x24
    1864:	900a      	str	r0, [sp, #40]	; 0x28
    1866:	e7ff      	b.n	1868 <CLOCK_SetFLASHAccessCyclesForFreq+0x156>
    1868:	980a      	ldr	r0, [sp, #40]	; 0x28
    186a:	900b      	str	r0, [sp, #44]	; 0x2c
    186c:	e7ff      	b.n	186e <CLOCK_SetFLASHAccessCyclesForFreq+0x15c>
    186e:	980b      	ldr	r0, [sp, #44]	; 0x2c
    1870:	900c      	str	r0, [sp, #48]	; 0x30
    1872:	e7ff      	b.n	1874 <CLOCK_SetFLASHAccessCyclesForFreq+0x162>
    1874:	9a0c      	ldr	r2, [sp, #48]	; 0x30
    1876:	9200      	str	r2, [sp, #0]
    1878:	f240 4100 	movw	r1, #1024	; 0x400
    187c:	f2c4 0100 	movt	r1, #16384	; 0x4000
    1880:	6808      	ldr	r0, [r1, #0]
    1882:	f020 0020 	bic.w	r0, r0, #32
    1886:	6008      	str	r0, [r1, #0]
    1888:	f644 71e8 	movw	r1, #20456	; 0x4fe8
    188c:	f2c4 0103 	movt	r1, #16387	; 0x4003
    1890:	201f      	movs	r0, #31
    1892:	6008      	str	r0, [r1, #0]
    1894:	f244 0180 	movw	r1, #16512	; 0x4080
    1898:	f2c4 0103 	movt	r1, #16387	; 0x4003
    189c:	6808      	ldr	r0, [r1, #0]
    189e:	f362 0003 	bfi	r0, r2, #0, #4
    18a2:	6008      	str	r0, [r1, #0]
    18a4:	f244 0100 	movw	r1, #16384	; 0x4000
    18a8:	f2c4 0103 	movt	r1, #16387	; 0x4003
    18ac:	2002      	movs	r0, #2
    18ae:	6008      	str	r0, [r1, #0]
    18b0:	e7ff      	b.n	18b2 <CLOCK_SetFLASHAccessCyclesForFreq+0x1a0>
    18b2:	f644 70e0 	movw	r0, #20448	; 0x4fe0
    18b6:	f2c4 0003 	movt	r0, #16387	; 0x4003
    18ba:	6800      	ldr	r0, [r0, #0]
    18bc:	0740      	lsls	r0, r0, #29
    18be:	2800      	cmp	r0, #0
    18c0:	d401      	bmi.n	18c6 <CLOCK_SetFLASHAccessCyclesForFreq+0x1b4>
    18c2:	e7ff      	b.n	18c4 <CLOCK_SetFLASHAccessCyclesForFreq+0x1b2>
    18c4:	e7f5      	b.n	18b2 <CLOCK_SetFLASHAccessCyclesForFreq+0x1a0>
    18c6:	9a0e      	ldr	r2, [sp, #56]	; 0x38
    18c8:	9b00      	ldr	r3, [sp, #0]
    18ca:	f240 4100 	movw	r1, #1024	; 0x400
    18ce:	f2c4 0100 	movt	r1, #16384	; 0x4000
    18d2:	6808      	ldr	r0, [r1, #0]
    18d4:	f363 300f 	bfi	r0, r3, #12, #4
    18d8:	6008      	str	r0, [r1, #0]
    18da:	6808      	ldr	r0, [r1, #0]
    18dc:	4310      	orrs	r0, r2
    18de:	6008      	str	r0, [r1, #0]
    18e0:	b00f      	add	sp, #60	; 0x3c
    18e2:	4770      	bx	lr

000018e4 <CLOCK_SetupExtClocking>:
    18e4:	b580      	push	{r7, lr}
    18e6:	466f      	mov	r7, sp
    18e8:	b082      	sub	sp, #8
    18ea:	9001      	str	r0, [sp, #4]
    18ec:	f644 0101 	movw	r1, #18433	; 0x4801
    18f0:	f2c0 11e8 	movt	r1, #488	; 0x1e8
    18f4:	4288      	cmp	r0, r1
    18f6:	d303      	bcc.n	1900 <CLOCK_SetupExtClocking+0x1c>
    18f8:	e7ff      	b.n	18fa <CLOCK_SetupExtClocking+0x16>
    18fa:	2001      	movs	r0, #1
    18fc:	9000      	str	r0, [sp, #0]
    18fe:	e022      	b.n	1946 <CLOCK_SetupExtClocking+0x62>
    1900:	f44f 7080 	mov.w	r0, #256	; 0x100
    1904:	f7ff ff00 	bl	1708 <POWER_DisablePD>
    1908:	f44f 1080 	mov.w	r0, #1048576	; 0x100000
    190c:	f7ff fefc 	bl	1708 <POWER_DisablePD>
    1910:	f640 2118 	movw	r1, #2584	; 0xa18
    1914:	f2c4 0100 	movt	r1, #16384	; 0x4000
    1918:	6808      	ldr	r0, [r1, #0]
    191a:	f040 0020 	orr.w	r0, r0, #32
    191e:	6008      	str	r0, [r1, #0]
    1920:	e7ff      	b.n	1922 <CLOCK_SetupExtClocking+0x3e>
    1922:	f243 0024 	movw	r0, #12324	; 0x3024
    1926:	f2c4 0001 	movt	r0, #16385	; 0x4001
    192a:	6800      	ldr	r0, [r0, #0]
    192c:	07c0      	lsls	r0, r0, #31
    192e:	b908      	cbnz	r0, 1934 <CLOCK_SetupExtClocking+0x50>
    1930:	e7ff      	b.n	1932 <CLOCK_SetupExtClocking+0x4e>
    1932:	e7f6      	b.n	1922 <CLOCK_SetupExtClocking+0x3e>
    1934:	9801      	ldr	r0, [sp, #4]
    1936:	f240 0104 	movw	r1, #4
    193a:	f2c2 0100 	movt	r1, #8192	; 0x2000
    193e:	6008      	str	r0, [r1, #0]
    1940:	2000      	movs	r0, #0
    1942:	9000      	str	r0, [sp, #0]
    1944:	e7ff      	b.n	1946 <CLOCK_SetupExtClocking+0x62>
    1946:	9800      	ldr	r0, [sp, #0]
    1948:	b002      	add	sp, #8
    194a:	bd80      	pop	{r7, pc}

0000194c <CLOCK_GetExtClkFreq>:
    194c:	b081      	sub	sp, #4
    194e:	f243 0020 	movw	r0, #12320	; 0x3020
    1952:	f2c4 0001 	movt	r0, #16385	; 0x4001
    1956:	6800      	ldr	r0, [r0, #0]
    1958:	01c0      	lsls	r0, r0, #7
    195a:	2800      	cmp	r0, #0
    195c:	d507      	bpl.n	196e <CLOCK_GetExtClkFreq+0x22>
    195e:	e7ff      	b.n	1960 <CLOCK_GetExtClkFreq+0x14>
    1960:	f240 0004 	movw	r0, #4
    1964:	f2c2 0000 	movt	r0, #8192	; 0x2000
    1968:	6800      	ldr	r0, [r0, #0]
    196a:	9000      	str	r0, [sp, #0]
    196c:	e002      	b.n	1974 <CLOCK_GetExtClkFreq+0x28>
    196e:	2000      	movs	r0, #0
    1970:	9000      	str	r0, [sp, #0]
    1972:	e7ff      	b.n	1974 <CLOCK_GetExtClkFreq+0x28>
    1974:	9800      	ldr	r0, [sp, #0]
    1976:	b001      	add	sp, #4
    1978:	4770      	bx	lr

0000197a <CLOCK_GetFro1MFreq>:
    197a:	f640 2018 	movw	r0, #2584	; 0xa18
    197e:	f2c4 0000 	movt	r0, #16384	; 0x4000
    1982:	6800      	ldr	r0, [r0, #0]
    1984:	f000 0040 	and.w	r0, r0, #64	; 0x40
    1988:	2800      	cmp	r0, #0
    198a:	bf1c      	itt	ne
    198c:	f244 2040 	movwne	r0, #16960	; 0x4240
    1990:	f2c0 000f 	movtne	r0, #15
    1994:	4770      	bx	lr

00001996 <CLOCK_GetOsc32KFreq>:
    1996:	b082      	sub	sp, #8
    1998:	20b8      	movs	r0, #184	; 0xb8
    199a:	f2c4 0002 	movt	r0, #16386	; 0x4002
    199e:	6800      	ldr	r0, [r0, #0]
    19a0:	0640      	lsls	r0, r0, #25
    19a2:	2800      	cmp	r0, #0
    19a4:	d40b      	bmi.n	19be <CLOCK_GetOsc32KFreq+0x28>
    19a6:	e7ff      	b.n	19a8 <CLOCK_GetOsc32KFreq+0x12>
    19a8:	2098      	movs	r0, #152	; 0x98
    19aa:	f2c4 0002 	movt	r0, #16386	; 0x4002
    19ae:	6800      	ldr	r0, [r0, #0]
    19b0:	07c0      	lsls	r0, r0, #31
    19b2:	b920      	cbnz	r0, 19be <CLOCK_GetOsc32KFreq+0x28>
    19b4:	e7ff      	b.n	19b6 <CLOCK_GetOsc32KFreq+0x20>
    19b6:	f44f 4000 	mov.w	r0, #32768	; 0x8000
    19ba:	9001      	str	r0, [sp, #4]
    19bc:	e01a      	b.n	19f4 <CLOCK_GetOsc32KFreq+0x5e>
    19be:	20b8      	movs	r0, #184	; 0xb8
    19c0:	f2c4 0002 	movt	r0, #16386	; 0x4002
    19c4:	6801      	ldr	r1, [r0, #0]
    19c6:	2000      	movs	r0, #0
    19c8:	0609      	lsls	r1, r1, #24
    19ca:	2900      	cmp	r1, #0
    19cc:	9000      	str	r0, [sp, #0]
    19ce:	d408      	bmi.n	19e2 <CLOCK_GetOsc32KFreq+0x4c>
    19d0:	e7ff      	b.n	19d2 <CLOCK_GetOsc32KFreq+0x3c>
    19d2:	2098      	movs	r0, #152	; 0x98
    19d4:	f2c4 0002 	movt	r0, #16386	; 0x4002
    19d8:	6800      	ldr	r0, [r0, #0]
    19da:	f000 0001 	and.w	r0, r0, #1
    19de:	9000      	str	r0, [sp, #0]
    19e0:	e7ff      	b.n	19e2 <CLOCK_GetOsc32KFreq+0x4c>
    19e2:	9800      	ldr	r0, [sp, #0]
    19e4:	f000 0001 	and.w	r0, r0, #1
    19e8:	2800      	cmp	r0, #0
    19ea:	bf18      	it	ne
    19ec:	f44f 4000 	movne.w	r0, #32768	; 0x8000
    19f0:	9001      	str	r0, [sp, #4]
    19f2:	e7ff      	b.n	19f4 <CLOCK_GetOsc32KFreq+0x5e>
    19f4:	9801      	ldr	r0, [sp, #4]
    19f6:	b002      	add	sp, #8
    19f8:	4770      	bx	lr
	...

000019fc <CLOCK_GetPLL0InClockRate>:
    19fc:	b580      	push	{r7, lr}
    19fe:	466f      	mov	r7, sp
    1a00:	b082      	sub	sp, #8
    1a02:	f240 2090 	movw	r0, #656	; 0x290
    1a06:	f2c4 0000 	movt	r0, #16384	; 0x4000
    1a0a:	6800      	ldr	r0, [r0, #0]
    1a0c:	f000 0007 	and.w	r0, r0, #7
    1a10:	4601      	mov	r1, r0
    1a12:	9101      	str	r1, [sp, #4]
    1a14:	2803      	cmp	r0, #3
    1a16:	d816      	bhi.n	1a46 <CLOCK_GetPLL0InClockRate+0x4a>
    1a18:	9901      	ldr	r1, [sp, #4]
    1a1a:	e8df f001 	tbb	[pc, r1]
    1a1e:	0802      	.short	0x0802
    1a20:	100c      	.short	0x100c
    1a22:	f641 3000 	movw	r0, #6912	; 0x1b00
    1a26:	f2c0 00b7 	movt	r0, #183	; 0xb7
    1a2a:	9000      	str	r0, [sp, #0]
    1a2c:	e00e      	b.n	1a4c <CLOCK_GetPLL0InClockRate+0x50>
    1a2e:	f7ff ff8d 	bl	194c <CLOCK_GetExtClkFreq>
    1a32:	9000      	str	r0, [sp, #0]
    1a34:	e00a      	b.n	1a4c <CLOCK_GetPLL0InClockRate+0x50>
    1a36:	f7ff ffa0 	bl	197a <CLOCK_GetFro1MFreq>
    1a3a:	9000      	str	r0, [sp, #0]
    1a3c:	e006      	b.n	1a4c <CLOCK_GetPLL0InClockRate+0x50>
    1a3e:	f7ff ffaa 	bl	1996 <CLOCK_GetOsc32KFreq>
    1a42:	9000      	str	r0, [sp, #0]
    1a44:	e002      	b.n	1a4c <CLOCK_GetPLL0InClockRate+0x50>
    1a46:	2000      	movs	r0, #0
    1a48:	9000      	str	r0, [sp, #0]
    1a4a:	e7ff      	b.n	1a4c <CLOCK_GetPLL0InClockRate+0x50>
    1a4c:	9800      	ldr	r0, [sp, #0]
    1a4e:	b002      	add	sp, #8
    1a50:	bd80      	pop	{r7, pc}

00001a52 <findPll0PreDiv>:
    1a52:	b082      	sub	sp, #8
    1a54:	f240 5080 	movw	r0, #1408	; 0x580
    1a58:	f2c4 0000 	movt	r0, #16384	; 0x4000
    1a5c:	6801      	ldr	r1, [r0, #0]
    1a5e:	2001      	movs	r0, #1
    1a60:	0309      	lsls	r1, r1, #12
    1a62:	2900      	cmp	r1, #0
    1a64:	9001      	str	r0, [sp, #4]
    1a66:	d410      	bmi.n	1a8a <findPll0PreDiv+0x38>
    1a68:	e7ff      	b.n	1a6a <findPll0PreDiv+0x18>
    1a6a:	f240 5088 	movw	r0, #1416	; 0x588
    1a6e:	f2c4 0000 	movt	r0, #16384	; 0x4000
    1a72:	6800      	ldr	r0, [r0, #0]
    1a74:	b2c1      	uxtb	r1, r0
    1a76:	4608      	mov	r0, r1
    1a78:	9000      	str	r0, [sp, #0]
    1a7a:	b919      	cbnz	r1, 1a84 <findPll0PreDiv+0x32>
    1a7c:	e7ff      	b.n	1a7e <findPll0PreDiv+0x2c>
    1a7e:	2001      	movs	r0, #1
    1a80:	9000      	str	r0, [sp, #0]
    1a82:	e7ff      	b.n	1a84 <findPll0PreDiv+0x32>
    1a84:	9800      	ldr	r0, [sp, #0]
    1a86:	9001      	str	r0, [sp, #4]
    1a88:	e7ff      	b.n	1a8a <findPll0PreDiv+0x38>
    1a8a:	9801      	ldr	r0, [sp, #4]
    1a8c:	b002      	add	sp, #8
    1a8e:	4770      	bx	lr

00001a90 <POWER_EnablePD>:
    1a90:	21c0      	movs	r1, #192	; 0xc0
    1a92:	f2c4 0102 	movt	r1, #16386	; 0x4002
    1a96:	6008      	str	r0, [r1, #0]
    1a98:	4770      	bx	lr

00001a9a <CLOCK_IsPLL0Locked>:
    1a9a:	f240 5084 	movw	r0, #1412	; 0x584
    1a9e:	f2c4 0000 	movt	r0, #16384	; 0x4000
    1aa2:	6800      	ldr	r0, [r0, #0]
    1aa4:	f000 0001 	and.w	r0, r0, #1
    1aa8:	4770      	bx	lr

00001aaa <CLOCK_SetPLL0Freq>:
    1aaa:	b580      	push	{r7, lr}
    1aac:	466f      	mov	r7, sp
    1aae:	b08a      	sub	sp, #40	; 0x28
    1ab0:	9009      	str	r0, [sp, #36]	; 0x24
    1ab2:	f44f 7000 	mov.w	r0, #512	; 0x200
    1ab6:	9007      	str	r0, [sp, #28]
    1ab8:	f7ff ffea 	bl	1a90 <POWER_EnablePD>
    1abc:	f44f 0000 	mov.w	r0, #8388608	; 0x800000
    1ac0:	9008      	str	r0, [sp, #32]
    1ac2:	f7ff ffe5 	bl	1a90 <POWER_EnablePD>
    1ac6:	9807      	ldr	r0, [sp, #28]
    1ac8:	9909      	ldr	r1, [sp, #36]	; 0x24
    1aca:	680a      	ldr	r2, [r1, #0]
    1acc:	f240 5380 	movw	r3, #1408	; 0x580
    1ad0:	f2c4 0300 	movt	r3, #16384	; 0x4000
    1ad4:	601a      	str	r2, [r3, #0]
    1ad6:	684a      	ldr	r2, [r1, #4]
    1ad8:	f240 5388 	movw	r3, #1416	; 0x588
    1adc:	f2c4 0300 	movt	r3, #16384	; 0x4000
    1ae0:	601a      	str	r2, [r3, #0]
    1ae2:	684a      	ldr	r2, [r1, #4]
    1ae4:	f442 7280 	orr.w	r2, r2, #256	; 0x100
    1ae8:	601a      	str	r2, [r3, #0]
    1aea:	688a      	ldr	r2, [r1, #8]
    1aec:	f240 538c 	movw	r3, #1420	; 0x58c
    1af0:	f2c4 0300 	movt	r3, #16384	; 0x4000
    1af4:	601a      	str	r2, [r3, #0]
    1af6:	688a      	ldr	r2, [r1, #8]
    1af8:	f042 0220 	orr.w	r2, r2, #32
    1afc:	601a      	str	r2, [r3, #0]
    1afe:	690a      	ldr	r2, [r1, #16]
    1b00:	f240 5390 	movw	r3, #1424	; 0x590
    1b04:	f2c4 0300 	movt	r3, #16384	; 0x4000
    1b08:	601a      	str	r2, [r3, #0]
    1b0a:	694b      	ldr	r3, [r1, #20]
    1b0c:	f240 5294 	movw	r2, #1428	; 0x594
    1b10:	f2c4 0200 	movt	r2, #16384	; 0x4000
    1b14:	6013      	str	r3, [r2, #0]
    1b16:	6949      	ldr	r1, [r1, #20]
    1b18:	2302      	movs	r3, #2
    1b1a:	f2c0 4300 	movt	r3, #1024	; 0x400
    1b1e:	4319      	orrs	r1, r3
    1b20:	6011      	str	r1, [r2, #0]
    1b22:	f7ff fdf1 	bl	1708 <POWER_DisablePD>
    1b26:	9808      	ldr	r0, [sp, #32]
    1b28:	f7ff fdee 	bl	1708 <POWER_DisablePD>
    1b2c:	9809      	ldr	r0, [sp, #36]	; 0x24
    1b2e:	7f00      	ldrb	r0, [r0, #28]
    1b30:	0780      	lsls	r0, r0, #30
    1b32:	2800      	cmp	r0, #0
    1b34:	d55b      	bpl.n	1bee <CLOCK_SetPLL0Freq+0x144>
    1b36:	e7ff      	b.n	1b38 <CLOCK_SetPLL0Freq+0x8e>
    1b38:	f240 5094 	movw	r0, #1428	; 0x594
    1b3c:	f2c4 0000 	movt	r0, #16384	; 0x4000
    1b40:	6800      	ldr	r0, [r0, #0]
    1b42:	00c0      	lsls	r0, r0, #3
    1b44:	2800      	cmp	r0, #0
    1b46:	d548      	bpl.n	1bda <CLOCK_SetPLL0Freq+0x130>
    1b48:	e7ff      	b.n	1b4a <CLOCK_SetPLL0Freq+0xa0>
    1b4a:	f7ff ff57 	bl	19fc <CLOCK_GetPLL0InClockRate>
    1b4e:	9005      	str	r0, [sp, #20]
    1b50:	f7ff ff7f 	bl	1a52 <findPll0PreDiv>
    1b54:	4601      	mov	r1, r0
    1b56:	9805      	ldr	r0, [sp, #20]
    1b58:	fbb0 f0f1 	udiv	r0, r0, r1
    1b5c:	f248 4100 	movw	r1, #33792	; 0x8400
    1b60:	f2c1 71d7 	movt	r1, #6103	; 0x17d7
    1b64:	fbb1 f1f0 	udiv	r1, r1, r0
    1b68:	f501 71fa 	add.w	r1, r1, #500	; 0x1f4
    1b6c:	9106      	str	r1, [sp, #24]
    1b6e:	f642 41ff 	movw	r1, #11519	; 0x2cff
    1b72:	f2c0 1131 	movt	r1, #305	; 0x131
    1b76:	4288      	cmp	r0, r1
    1b78:	d826      	bhi.n	1bc8 <CLOCK_SetPLL0Freq+0x11e>
    1b7a:	e7ff      	b.n	1b7c <CLOCK_SetPLL0Freq+0xd2>
    1b7c:	2000      	movs	r0, #0
    1b7e:	9004      	str	r0, [sp, #16]
    1b80:	e7ff      	b.n	1b82 <CLOCK_SetPLL0Freq+0xd8>
    1b82:	9804      	ldr	r0, [sp, #16]
    1b84:	9002      	str	r0, [sp, #8]
    1b86:	f7ff ff88 	bl	1a9a <CLOCK_IsPLL0Locked>
    1b8a:	4601      	mov	r1, r0
    1b8c:	2000      	movs	r0, #0
    1b8e:	9003      	str	r0, [sp, #12]
    1b90:	b941      	cbnz	r1, 1ba4 <CLOCK_SetPLL0Freq+0xfa>
    1b92:	e7ff      	b.n	1b94 <CLOCK_SetPLL0Freq+0xea>
    1b94:	9902      	ldr	r1, [sp, #8]
    1b96:	9a06      	ldr	r2, [sp, #24]
    1b98:	2000      	movs	r0, #0
    1b9a:	4291      	cmp	r1, r2
    1b9c:	bf38      	it	cc
    1b9e:	2001      	movcc	r0, #1
    1ba0:	9003      	str	r0, [sp, #12]
    1ba2:	e7ff      	b.n	1ba4 <CLOCK_SetPLL0Freq+0xfa>
    1ba4:	9803      	ldr	r0, [sp, #12]
    1ba6:	07c0      	lsls	r0, r0, #31
    1ba8:	b168      	cbz	r0, 1bc6 <CLOCK_SetPLL0Freq+0x11c>
    1baa:	e7ff      	b.n	1bac <CLOCK_SetPLL0Freq+0x102>
    1bac:	9802      	ldr	r0, [sp, #8]
    1bae:	3064      	adds	r0, #100	; 0x64
    1bb0:	9001      	str	r0, [sp, #4]
    1bb2:	2064      	movs	r0, #100	; 0x64
    1bb4:	f24d 1180 	movw	r1, #53632	; 0xd180
    1bb8:	f6c0 01f0 	movt	r1, #2288	; 0x8f0
    1bbc:	f7ff fc8e 	bl	14dc <SDK_DelayAtLeastUs>
    1bc0:	9801      	ldr	r0, [sp, #4]
    1bc2:	9004      	str	r0, [sp, #16]
    1bc4:	e7dd      	b.n	1b82 <CLOCK_SetPLL0Freq+0xd8>
    1bc6:	e007      	b.n	1bd8 <CLOCK_SetPLL0Freq+0x12e>
    1bc8:	9806      	ldr	r0, [sp, #24]
    1bca:	f24d 1180 	movw	r1, #53632	; 0xd180
    1bce:	f6c0 01f0 	movt	r1, #2288	; 0x8f0
    1bd2:	f7ff fc83 	bl	14dc <SDK_DelayAtLeastUs>
    1bd6:	e7ff      	b.n	1bd8 <CLOCK_SetPLL0Freq+0x12e>
    1bd8:	e008      	b.n	1bec <CLOCK_SetPLL0Freq+0x142>
    1bda:	f241 7070 	movw	r0, #6000	; 0x1770
    1bde:	f24d 1180 	movw	r1, #53632	; 0xd180
    1be2:	f6c0 01f0 	movt	r1, #2288	; 0x8f0
    1be6:	f7ff fc79 	bl	14dc <SDK_DelayAtLeastUs>
    1bea:	e7ff      	b.n	1bec <CLOCK_SetPLL0Freq+0x142>
    1bec:	e7ff      	b.n	1bee <CLOCK_SetPLL0Freq+0x144>
    1bee:	9809      	ldr	r0, [sp, #36]	; 0x24
    1bf0:	6980      	ldr	r0, [r0, #24]
    1bf2:	f240 4158 	movw	r1, #1112	; 0x458
    1bf6:	f2c2 0100 	movt	r1, #8192	; 0x2000
    1bfa:	6008      	str	r0, [r1, #0]
    1bfc:	2000      	movs	r0, #0
    1bfe:	b00a      	add	sp, #40	; 0x28
    1c00:	bd80      	pop	{r7, pc}

00001c02 <POWER_SetVoltageForFreq>:
    1c02:	b580      	push	{r7, lr}
    1c04:	466f      	mov	r7, sp
    1c06:	b084      	sub	sp, #16
    1c08:	9003      	str	r0, [sp, #12]
    1c0a:	f24e 1100 	movw	r1, #57600	; 0xe100
    1c0e:	f2c0 51f5 	movt	r1, #1525	; 0x5f5
    1c12:	4288      	cmp	r0, r1
    1c14:	d808      	bhi.n	1c28 <POWER_SetVoltageForFreq+0x26>
    1c16:	e7ff      	b.n	1c18 <POWER_SetVoltageForFreq+0x16>
    1c18:	2000      	movs	r0, #0
    1c1a:	9002      	str	r0, [sp, #8]
    1c1c:	f000 f81f 	bl	1c5e <lowpower_set_dcdc_power_profile>
    1c20:	9802      	ldr	r0, [sp, #8]
    1c22:	f000 f890 	bl	1d46 <lowpower_set_voltage_for_process>
    1c26:	e018      	b.n	1c5a <POWER_SetVoltageForFreq+0x58>
    1c28:	9803      	ldr	r0, [sp, #12]
    1c2a:	f24a 4180 	movw	r1, #42112	; 0xa480
    1c2e:	f2c0 71bf 	movt	r1, #1983	; 0x7bf
    1c32:	4288      	cmp	r0, r1
    1c34:	d808      	bhi.n	1c48 <POWER_SetVoltageForFreq+0x46>
    1c36:	e7ff      	b.n	1c38 <POWER_SetVoltageForFreq+0x36>
    1c38:	2001      	movs	r0, #1
    1c3a:	9001      	str	r0, [sp, #4]
    1c3c:	f000 f80f 	bl	1c5e <lowpower_set_dcdc_power_profile>
    1c40:	9801      	ldr	r0, [sp, #4]
    1c42:	f000 f880 	bl	1d46 <lowpower_set_voltage_for_process>
    1c46:	e007      	b.n	1c58 <POWER_SetVoltageForFreq+0x56>
    1c48:	2002      	movs	r0, #2
    1c4a:	9000      	str	r0, [sp, #0]
    1c4c:	f000 f807 	bl	1c5e <lowpower_set_dcdc_power_profile>
    1c50:	9800      	ldr	r0, [sp, #0]
    1c52:	f000 f878 	bl	1d46 <lowpower_set_voltage_for_process>
    1c56:	e7ff      	b.n	1c58 <POWER_SetVoltageForFreq+0x56>
    1c58:	e7ff      	b.n	1c5a <POWER_SetVoltageForFreq+0x58>
    1c5a:	b004      	add	sp, #16
    1c5c:	bd80      	pop	{r7, pc}

00001c5e <lowpower_set_dcdc_power_profile>:
    1c5e:	b087      	sub	sp, #28
    1c60:	4601      	mov	r1, r0
    1c62:	9106      	str	r1, [sp, #24]
    1c64:	b140      	cbz	r0, 1c78 <lowpower_set_dcdc_power_profile+0x1a>
    1c66:	e7ff      	b.n	1c68 <lowpower_set_dcdc_power_profile+0xa>
    1c68:	9806      	ldr	r0, [sp, #24]
    1c6a:	2801      	cmp	r0, #1
    1c6c:	d020      	beq.n	1cb0 <lowpower_set_dcdc_power_profile+0x52>
    1c6e:	e7ff      	b.n	1c70 <lowpower_set_dcdc_power_profile+0x12>
    1c70:	9806      	ldr	r0, [sp, #24]
    1c72:	2802      	cmp	r0, #2
    1c74:	d038      	beq.n	1ce8 <lowpower_set_dcdc_power_profile+0x8a>
    1c76:	e053      	b.n	1d20 <lowpower_set_dcdc_power_profile+0xc2>
    1c78:	f64f 40e0 	movw	r0, #64736	; 0xfce0
    1c7c:	f2c0 0009 	movt	r0, #9
    1c80:	6800      	ldr	r0, [r0, #0]
    1c82:	9004      	str	r0, [sp, #16]
    1c84:	f64f 41e4 	movw	r1, #64740	; 0xfce4
    1c88:	f2c0 0109 	movt	r1, #9
    1c8c:	6809      	ldr	r1, [r1, #0]
    1c8e:	9105      	str	r1, [sp, #20]
    1c90:	07c0      	lsls	r0, r0, #31
    1c92:	b160      	cbz	r0, 1cae <lowpower_set_dcdc_power_profile+0x50>
    1c94:	e7ff      	b.n	1c96 <lowpower_set_dcdc_power_profile+0x38>
    1c96:	9805      	ldr	r0, [sp, #20]
    1c98:	9904      	ldr	r1, [sp, #16]
    1c9a:	0849      	lsrs	r1, r1, #1
    1c9c:	2210      	movs	r2, #16
    1c9e:	f2c4 0202 	movt	r2, #16386	; 0x4002
    1ca2:	6011      	str	r1, [r2, #0]
    1ca4:	2114      	movs	r1, #20
    1ca6:	f2c4 0102 	movt	r1, #16386	; 0x4002
    1caa:	6008      	str	r0, [r1, #0]
    1cac:	e7ff      	b.n	1cae <lowpower_set_dcdc_power_profile+0x50>
    1cae:	e048      	b.n	1d42 <lowpower_set_dcdc_power_profile+0xe4>
    1cb0:	f64f 40e8 	movw	r0, #64744	; 0xfce8
    1cb4:	f2c0 0009 	movt	r0, #9
    1cb8:	6800      	ldr	r0, [r0, #0]
    1cba:	9002      	str	r0, [sp, #8]
    1cbc:	f64f 41ec 	movw	r1, #64748	; 0xfcec
    1cc0:	f2c0 0109 	movt	r1, #9
    1cc4:	6809      	ldr	r1, [r1, #0]
    1cc6:	9103      	str	r1, [sp, #12]
    1cc8:	07c0      	lsls	r0, r0, #31
    1cca:	b160      	cbz	r0, 1ce6 <lowpower_set_dcdc_power_profile+0x88>
    1ccc:	e7ff      	b.n	1cce <lowpower_set_dcdc_power_profile+0x70>
    1cce:	9803      	ldr	r0, [sp, #12]
    1cd0:	9902      	ldr	r1, [sp, #8]
    1cd2:	0849      	lsrs	r1, r1, #1
    1cd4:	2210      	movs	r2, #16
    1cd6:	f2c4 0202 	movt	r2, #16386	; 0x4002
    1cda:	6011      	str	r1, [r2, #0]
    1cdc:	2114      	movs	r1, #20
    1cde:	f2c4 0102 	movt	r1, #16386	; 0x4002
    1ce2:	6008      	str	r0, [r1, #0]
    1ce4:	e7ff      	b.n	1ce6 <lowpower_set_dcdc_power_profile+0x88>
    1ce6:	e02c      	b.n	1d42 <lowpower_set_dcdc_power_profile+0xe4>
    1ce8:	f64f 40d8 	movw	r0, #64728	; 0xfcd8
    1cec:	f2c0 0009 	movt	r0, #9
    1cf0:	6800      	ldr	r0, [r0, #0]
    1cf2:	9000      	str	r0, [sp, #0]
    1cf4:	f64f 41dc 	movw	r1, #64732	; 0xfcdc
    1cf8:	f2c0 0109 	movt	r1, #9
    1cfc:	6809      	ldr	r1, [r1, #0]
    1cfe:	9101      	str	r1, [sp, #4]
    1d00:	07c0      	lsls	r0, r0, #31
    1d02:	b160      	cbz	r0, 1d1e <lowpower_set_dcdc_power_profile+0xc0>
    1d04:	e7ff      	b.n	1d06 <lowpower_set_dcdc_power_profile+0xa8>
    1d06:	9801      	ldr	r0, [sp, #4]
    1d08:	9900      	ldr	r1, [sp, #0]
    1d0a:	0849      	lsrs	r1, r1, #1
    1d0c:	2210      	movs	r2, #16
    1d0e:	f2c4 0202 	movt	r2, #16386	; 0x4002
    1d12:	6011      	str	r1, [r2, #0]
    1d14:	2114      	movs	r1, #20
    1d16:	f2c4 0102 	movt	r1, #16386	; 0x4002
    1d1a:	6008      	str	r0, [r1, #0]
    1d1c:	e7ff      	b.n	1d1e <lowpower_set_dcdc_power_profile+0xc0>
    1d1e:	e010      	b.n	1d42 <lowpower_set_dcdc_power_profile+0xe4>
    1d20:	2110      	movs	r1, #16
    1d22:	f2c4 0102 	movt	r1, #16386	; 0x4002
    1d26:	f644 6068 	movw	r0, #20072	; 0x4e68
    1d2a:	f2c0 100c 	movt	r0, #268	; 0x10c
    1d2e:	6008      	str	r0, [r1, #0]
    1d30:	2114      	movs	r1, #20
    1d32:	f2c4 0102 	movt	r1, #16386	; 0x4002
    1d36:	f643 2098 	movw	r0, #15000	; 0x3a98
    1d3a:	f2c0 1080 	movt	r0, #384	; 0x180
    1d3e:	6008      	str	r0, [r1, #0]
    1d40:	e7ff      	b.n	1d42 <lowpower_set_dcdc_power_profile+0xe4>
    1d42:	b007      	add	sp, #28
    1d44:	4770      	bx	lr

00001d46 <lowpower_set_voltage_for_process>:
    1d46:	b580      	push	{r7, lr}
    1d48:	466f      	mov	r7, sp
    1d4a:	b086      	sub	sp, #24
    1d4c:	9004      	str	r0, [sp, #16]
    1d4e:	f000 f85b 	bl	1e08 <lowpower_get_part_process_corner>
    1d52:	4601      	mov	r1, r0
    1d54:	9105      	str	r1, [sp, #20]
    1d56:	b120      	cbz	r0, 1d62 <lowpower_set_voltage_for_process+0x1c>
    1d58:	e7ff      	b.n	1d5a <lowpower_set_voltage_for_process+0x14>
    1d5a:	9805      	ldr	r0, [sp, #20]
    1d5c:	2802      	cmp	r0, #2
    1d5e:	d01b      	beq.n	1d98 <lowpower_set_voltage_for_process+0x52>
    1d60:	e035      	b.n	1dce <lowpower_set_voltage_for_process+0x88>
    1d62:	9804      	ldr	r0, [sp, #16]
    1d64:	b2c0      	uxtb	r0, r0
    1d66:	4601      	mov	r1, r0
    1d68:	9103      	str	r1, [sp, #12]
    1d6a:	2801      	cmp	r0, #1
    1d6c:	d004      	beq.n	1d78 <lowpower_set_voltage_for_process+0x32>
    1d6e:	e7ff      	b.n	1d70 <lowpower_set_voltage_for_process+0x2a>
    1d70:	9803      	ldr	r0, [sp, #12]
    1d72:	2802      	cmp	r0, #2
    1d74:	d005      	beq.n	1d82 <lowpower_set_voltage_for_process+0x3c>
    1d76:	e009      	b.n	1d8c <lowpower_set_voltage_for_process+0x46>
    1d78:	f240 407e 	movw	r0, #1150	; 0x47e
    1d7c:	f000 f89b 	bl	1eb6 <lowpower_set_system_voltage>
    1d80:	e009      	b.n	1d96 <lowpower_set_voltage_for_process+0x50>
    1d82:	f44f 6096 	mov.w	r0, #1200	; 0x4b0
    1d86:	f000 f896 	bl	1eb6 <lowpower_set_system_voltage>
    1d8a:	e004      	b.n	1d96 <lowpower_set_voltage_for_process+0x50>
    1d8c:	f240 4033 	movw	r0, #1075	; 0x433
    1d90:	f000 f891 	bl	1eb6 <lowpower_set_system_voltage>
    1d94:	e7ff      	b.n	1d96 <lowpower_set_voltage_for_process+0x50>
    1d96:	e035      	b.n	1e04 <lowpower_set_voltage_for_process+0xbe>
    1d98:	9804      	ldr	r0, [sp, #16]
    1d9a:	b2c0      	uxtb	r0, r0
    1d9c:	4601      	mov	r1, r0
    1d9e:	9102      	str	r1, [sp, #8]
    1da0:	2801      	cmp	r0, #1
    1da2:	d004      	beq.n	1dae <lowpower_set_voltage_for_process+0x68>
    1da4:	e7ff      	b.n	1da6 <lowpower_set_voltage_for_process+0x60>
    1da6:	9802      	ldr	r0, [sp, #8]
    1da8:	2802      	cmp	r0, #2
    1daa:	d005      	beq.n	1db8 <lowpower_set_voltage_for_process+0x72>
    1dac:	e009      	b.n	1dc2 <lowpower_set_voltage_for_process+0x7c>
    1dae:	f240 4001 	movw	r0, #1025	; 0x401
    1db2:	f000 f880 	bl	1eb6 <lowpower_set_system_voltage>
    1db6:	e009      	b.n	1dcc <lowpower_set_voltage_for_process+0x86>
    1db8:	f240 401a 	movw	r0, #1050	; 0x41a
    1dbc:	f000 f87b 	bl	1eb6 <lowpower_set_system_voltage>
    1dc0:	e004      	b.n	1dcc <lowpower_set_voltage_for_process+0x86>
    1dc2:	f44f 707a 	mov.w	r0, #1000	; 0x3e8
    1dc6:	f000 f876 	bl	1eb6 <lowpower_set_system_voltage>
    1dca:	e7ff      	b.n	1dcc <lowpower_set_voltage_for_process+0x86>
    1dcc:	e01a      	b.n	1e04 <lowpower_set_voltage_for_process+0xbe>
    1dce:	9804      	ldr	r0, [sp, #16]
    1dd0:	b2c0      	uxtb	r0, r0
    1dd2:	4601      	mov	r1, r0
    1dd4:	9101      	str	r1, [sp, #4]
    1dd6:	2801      	cmp	r0, #1
    1dd8:	d004      	beq.n	1de4 <lowpower_set_voltage_for_process+0x9e>
    1dda:	e7ff      	b.n	1ddc <lowpower_set_voltage_for_process+0x96>
    1ddc:	9801      	ldr	r0, [sp, #4]
    1dde:	2802      	cmp	r0, #2
    1de0:	d005      	beq.n	1dee <lowpower_set_voltage_for_process+0xa8>
    1de2:	e009      	b.n	1df8 <lowpower_set_voltage_for_process+0xb2>
    1de4:	f240 404c 	movw	r0, #1100	; 0x44c
    1de8:	f000 f865 	bl	1eb6 <lowpower_set_system_voltage>
    1dec:	e009      	b.n	1e02 <lowpower_set_voltage_for_process+0xbc>
    1dee:	f240 407e 	movw	r0, #1150	; 0x47e
    1df2:	f000 f860 	bl	1eb6 <lowpower_set_system_voltage>
    1df6:	e004      	b.n	1e02 <lowpower_set_voltage_for_process+0xbc>
    1df8:	f44f 707a 	mov.w	r0, #1000	; 0x3e8
    1dfc:	f000 f85b 	bl	1eb6 <lowpower_set_system_voltage>
    1e00:	e7ff      	b.n	1e02 <lowpower_set_voltage_for_process+0xbc>
    1e02:	e7ff      	b.n	1e04 <lowpower_set_voltage_for_process+0xbe>
    1e04:	b006      	add	sp, #24
    1e06:	bd80      	pop	{r7, pc}

00001e08 <lowpower_get_part_process_corner>:
    1e08:	b08a      	sub	sp, #40	; 0x28
    1e0a:	f64f 5030 	movw	r0, #64816	; 0xfd30
    1e0e:	f2c0 0009 	movt	r0, #9
    1e12:	6800      	ldr	r0, [r0, #0]
    1e14:	9008      	str	r0, [sp, #32]
    1e16:	f64f 5140 	movw	r1, #64832	; 0xfd40
    1e1a:	f2c0 0109 	movt	r1, #9
    1e1e:	6809      	ldr	r1, [r1, #0]
    1e20:	9109      	str	r1, [sp, #36]	; 0x24
    1e22:	07c0      	lsls	r0, r0, #31
    1e24:	b120      	cbz	r0, 1e30 <lowpower_get_part_process_corner+0x28>
    1e26:	e7ff      	b.n	1e28 <lowpower_get_part_process_corner+0x20>
    1e28:	9808      	ldr	r0, [sp, #32]
    1e2a:	0840      	lsrs	r0, r0, #1
    1e2c:	9007      	str	r0, [sp, #28]
    1e2e:	e005      	b.n	1e3c <lowpower_get_part_process_corner+0x34>
    1e30:	f647 60a0 	movw	r0, #32416	; 0x7ea0
    1e34:	f2c0 1026 	movt	r0, #294	; 0x126
    1e38:	9007      	str	r0, [sp, #28]
    1e3a:	e7ff      	b.n	1e3c <lowpower_get_part_process_corner+0x34>
    1e3c:	9809      	ldr	r0, [sp, #36]	; 0x24
    1e3e:	9907      	ldr	r1, [sp, #28]
    1e40:	9106      	str	r1, [sp, #24]
    1e42:	07c0      	lsls	r0, r0, #31
    1e44:	b120      	cbz	r0, 1e50 <lowpower_get_part_process_corner+0x48>
    1e46:	e7ff      	b.n	1e48 <lowpower_get_part_process_corner+0x40>
    1e48:	9809      	ldr	r0, [sp, #36]	; 0x24
    1e4a:	0840      	lsrs	r0, r0, #1
    1e4c:	9005      	str	r0, [sp, #20]
    1e4e:	e005      	b.n	1e5c <lowpower_get_part_process_corner+0x54>
    1e50:	f647 60a0 	movw	r0, #32416	; 0x7ea0
    1e54:	f2c0 1026 	movt	r0, #294	; 0x126
    1e58:	9005      	str	r0, [sp, #20]
    1e5a:	e7ff      	b.n	1e5c <lowpower_get_part_process_corner+0x54>
    1e5c:	9906      	ldr	r1, [sp, #24]
    1e5e:	9805      	ldr	r0, [sp, #20]
    1e60:	9004      	str	r0, [sp, #16]
    1e62:	4288      	cmp	r0, r1
    1e64:	d803      	bhi.n	1e6e <lowpower_get_part_process_corner+0x66>
    1e66:	e7ff      	b.n	1e68 <lowpower_get_part_process_corner+0x60>
    1e68:	9804      	ldr	r0, [sp, #16]
    1e6a:	9003      	str	r0, [sp, #12]
    1e6c:	e002      	b.n	1e74 <lowpower_get_part_process_corner+0x6c>
    1e6e:	9806      	ldr	r0, [sp, #24]
    1e70:	9003      	str	r0, [sp, #12]
    1e72:	e7ff      	b.n	1e74 <lowpower_get_part_process_corner+0x6c>
    1e74:	9803      	ldr	r0, [sp, #12]
    1e76:	9002      	str	r0, [sp, #8]
    1e78:	f64d 71a0 	movw	r1, #57248	; 0xdfa0
    1e7c:	f2c0 1101 	movt	r1, #257	; 0x101
    1e80:	4288      	cmp	r0, r1
    1e82:	d803      	bhi.n	1e8c <lowpower_get_part_process_corner+0x84>
    1e84:	e7ff      	b.n	1e86 <lowpower_get_part_process_corner+0x7e>
    1e86:	2000      	movs	r0, #0
    1e88:	9001      	str	r0, [sp, #4]
    1e8a:	e010      	b.n	1eae <lowpower_get_part_process_corner+0xa6>
    1e8c:	9802      	ldr	r0, [sp, #8]
    1e8e:	f641 51a0 	movw	r1, #7584	; 0x1da0
    1e92:	f2c0 114b 	movt	r1, #331	; 0x14b
    1e96:	4288      	cmp	r0, r1
    1e98:	d803      	bhi.n	1ea2 <lowpower_get_part_process_corner+0x9a>
    1e9a:	e7ff      	b.n	1e9c <lowpower_get_part_process_corner+0x94>
    1e9c:	2001      	movs	r0, #1
    1e9e:	9000      	str	r0, [sp, #0]
    1ea0:	e002      	b.n	1ea8 <lowpower_get_part_process_corner+0xa0>
    1ea2:	2002      	movs	r0, #2
    1ea4:	9000      	str	r0, [sp, #0]
    1ea6:	e7ff      	b.n	1ea8 <lowpower_get_part_process_corner+0xa0>
    1ea8:	9800      	ldr	r0, [sp, #0]
    1eaa:	9001      	str	r0, [sp, #4]
    1eac:	e7ff      	b.n	1eae <lowpower_get_part_process_corner+0xa6>
    1eae:	9801      	ldr	r0, [sp, #4]
    1eb0:	b2c0      	uxtb	r0, r0
    1eb2:	b00a      	add	sp, #40	; 0x28
    1eb4:	4770      	bx	lr

00001eb6 <lowpower_set_system_voltage>:
    1eb6:	b580      	push	{r7, lr}
    1eb8:	466f      	mov	r7, sp
    1eba:	b09b      	sub	sp, #108	; 0x6c
    1ebc:	901a      	str	r0, [sp, #104]	; 0x68
    1ebe:	f240 31b6 	movw	r1, #950	; 0x3b6
    1ec2:	4288      	cmp	r0, r1
    1ec4:	d807      	bhi.n	1ed6 <lowpower_set_system_voltage+0x20>
    1ec6:	e7ff      	b.n	1ec8 <lowpower_set_system_voltage+0x12>
    1ec8:	2000      	movs	r0, #0
    1eca:	210a      	movs	r1, #10
    1ecc:	220f      	movs	r2, #15
    1ece:	9217      	str	r2, [sp, #92]	; 0x5c
    1ed0:	9118      	str	r1, [sp, #96]	; 0x60
    1ed2:	9019      	str	r0, [sp, #100]	; 0x64
    1ed4:	e0a7      	b.n	2026 <lowpower_set_system_voltage+0x170>
    1ed6:	981a      	ldr	r0, [sp, #104]	; 0x68
    1ed8:	0900      	lsrs	r0, r0, #4
    1eda:	283c      	cmp	r0, #60	; 0x3c
    1edc:	d807      	bhi.n	1eee <lowpower_set_system_voltage+0x38>
    1ede:	e7ff      	b.n	1ee0 <lowpower_set_system_voltage+0x2a>
    1ee0:	2001      	movs	r0, #1
    1ee2:	210c      	movs	r1, #12
    1ee4:	2211      	movs	r2, #17
    1ee6:	9214      	str	r2, [sp, #80]	; 0x50
    1ee8:	9115      	str	r1, [sp, #84]	; 0x54
    1eea:	9016      	str	r0, [sp, #88]	; 0x58
    1eec:	e094      	b.n	2018 <lowpower_set_system_voltage+0x162>
    1eee:	981a      	ldr	r0, [sp, #104]	; 0x68
    1ef0:	f5b0 7f7a 	cmp.w	r0, #1000	; 0x3e8
    1ef4:	d807      	bhi.n	1f06 <lowpower_set_system_voltage+0x50>
    1ef6:	e7ff      	b.n	1ef8 <lowpower_set_system_voltage+0x42>
    1ef8:	2002      	movs	r0, #2
    1efa:	210e      	movs	r1, #14
    1efc:	2213      	movs	r2, #19
    1efe:	9211      	str	r2, [sp, #68]	; 0x44
    1f00:	9112      	str	r1, [sp, #72]	; 0x48
    1f02:	9013      	str	r0, [sp, #76]	; 0x4c
    1f04:	e081      	b.n	200a <lowpower_set_system_voltage+0x154>
    1f06:	981a      	ldr	r0, [sp, #104]	; 0x68
    1f08:	f240 4101 	movw	r1, #1025	; 0x401
    1f0c:	4288      	cmp	r0, r1
    1f0e:	d807      	bhi.n	1f20 <lowpower_set_system_voltage+0x6a>
    1f10:	e7ff      	b.n	1f12 <lowpower_set_system_voltage+0x5c>
    1f12:	2003      	movs	r0, #3
    1f14:	2111      	movs	r1, #17
    1f16:	2216      	movs	r2, #22
    1f18:	920e      	str	r2, [sp, #56]	; 0x38
    1f1a:	910f      	str	r1, [sp, #60]	; 0x3c
    1f1c:	9010      	str	r0, [sp, #64]	; 0x40
    1f1e:	e06d      	b.n	1ffc <lowpower_set_system_voltage+0x146>
    1f20:	981a      	ldr	r0, [sp, #104]	; 0x68
    1f22:	f240 411a 	movw	r1, #1050	; 0x41a
    1f26:	4288      	cmp	r0, r1
    1f28:	d807      	bhi.n	1f3a <lowpower_set_system_voltage+0x84>
    1f2a:	e7ff      	b.n	1f2c <lowpower_set_system_voltage+0x76>
    1f2c:	2004      	movs	r0, #4
    1f2e:	2114      	movs	r1, #20
    1f30:	2219      	movs	r2, #25
    1f32:	920b      	str	r2, [sp, #44]	; 0x2c
    1f34:	910c      	str	r1, [sp, #48]	; 0x30
    1f36:	900d      	str	r0, [sp, #52]	; 0x34
    1f38:	e059      	b.n	1fee <lowpower_set_system_voltage+0x138>
    1f3a:	981a      	ldr	r0, [sp, #104]	; 0x68
    1f3c:	f240 4133 	movw	r1, #1075	; 0x433
    1f40:	4288      	cmp	r0, r1
    1f42:	d807      	bhi.n	1f54 <lowpower_set_system_voltage+0x9e>
    1f44:	e7ff      	b.n	1f46 <lowpower_set_system_voltage+0x90>
    1f46:	2005      	movs	r0, #5
    1f48:	2116      	movs	r1, #22
    1f4a:	221b      	movs	r2, #27
    1f4c:	9208      	str	r2, [sp, #32]
    1f4e:	9109      	str	r1, [sp, #36]	; 0x24
    1f50:	900a      	str	r0, [sp, #40]	; 0x28
    1f52:	e045      	b.n	1fe0 <lowpower_set_system_voltage+0x12a>
    1f54:	981a      	ldr	r0, [sp, #104]	; 0x68
    1f56:	f240 414c 	movw	r1, #1100	; 0x44c
    1f5a:	4288      	cmp	r0, r1
    1f5c:	d807      	bhi.n	1f6e <lowpower_set_system_voltage+0xb8>
    1f5e:	e7ff      	b.n	1f60 <lowpower_set_system_voltage+0xaa>
    1f60:	2006      	movs	r0, #6
    1f62:	2118      	movs	r1, #24
    1f64:	221d      	movs	r2, #29
    1f66:	9205      	str	r2, [sp, #20]
    1f68:	9106      	str	r1, [sp, #24]
    1f6a:	9007      	str	r0, [sp, #28]
    1f6c:	e031      	b.n	1fd2 <lowpower_set_system_voltage+0x11c>
    1f6e:	981a      	ldr	r0, [sp, #104]	; 0x68
    1f70:	f240 4165 	movw	r1, #1125	; 0x465
    1f74:	4288      	cmp	r0, r1
    1f76:	d807      	bhi.n	1f88 <lowpower_set_system_voltage+0xd2>
    1f78:	e7ff      	b.n	1f7a <lowpower_set_system_voltage+0xc4>
    1f7a:	2007      	movs	r0, #7
    1f7c:	211b      	movs	r1, #27
    1f7e:	221e      	movs	r2, #30
    1f80:	9202      	str	r2, [sp, #8]
    1f82:	9103      	str	r1, [sp, #12]
    1f84:	9004      	str	r0, [sp, #16]
    1f86:	e01d      	b.n	1fc4 <lowpower_set_system_voltage+0x10e>
    1f88:	981a      	ldr	r0, [sp, #104]	; 0x68
    1f8a:	f240 417e 	movw	r1, #1150	; 0x47e
    1f8e:	4288      	cmp	r0, r1
    1f90:	d803      	bhi.n	1f9a <lowpower_set_system_voltage+0xe4>
    1f92:	e7ff      	b.n	1f94 <lowpower_set_system_voltage+0xde>
    1f94:	2008      	movs	r0, #8
    1f96:	9001      	str	r0, [sp, #4]
    1f98:	e00d      	b.n	1fb6 <lowpower_set_system_voltage+0x100>
    1f9a:	981a      	ldr	r0, [sp, #104]	; 0x68
    1f9c:	08c0      	lsrs	r0, r0, #3
    1f9e:	2892      	cmp	r0, #146	; 0x92
    1fa0:	d803      	bhi.n	1faa <lowpower_set_system_voltage+0xf4>
    1fa2:	e7ff      	b.n	1fa4 <lowpower_set_system_voltage+0xee>
    1fa4:	2009      	movs	r0, #9
    1fa6:	9000      	str	r0, [sp, #0]
    1fa8:	e002      	b.n	1fb0 <lowpower_set_system_voltage+0xfa>
    1faa:	200a      	movs	r0, #10
    1fac:	9000      	str	r0, [sp, #0]
    1fae:	e7ff      	b.n	1fb0 <lowpower_set_system_voltage+0xfa>
    1fb0:	9800      	ldr	r0, [sp, #0]
    1fb2:	9001      	str	r0, [sp, #4]
    1fb4:	e7ff      	b.n	1fb6 <lowpower_set_system_voltage+0x100>
    1fb6:	9801      	ldr	r0, [sp, #4]
    1fb8:	211e      	movs	r1, #30
    1fba:	221f      	movs	r2, #31
    1fbc:	9202      	str	r2, [sp, #8]
    1fbe:	9103      	str	r1, [sp, #12]
    1fc0:	9004      	str	r0, [sp, #16]
    1fc2:	e7ff      	b.n	1fc4 <lowpower_set_system_voltage+0x10e>
    1fc4:	9a02      	ldr	r2, [sp, #8]
    1fc6:	9903      	ldr	r1, [sp, #12]
    1fc8:	9804      	ldr	r0, [sp, #16]
    1fca:	9205      	str	r2, [sp, #20]
    1fcc:	9106      	str	r1, [sp, #24]
    1fce:	9007      	str	r0, [sp, #28]
    1fd0:	e7ff      	b.n	1fd2 <lowpower_set_system_voltage+0x11c>
    1fd2:	9a05      	ldr	r2, [sp, #20]
    1fd4:	9906      	ldr	r1, [sp, #24]
    1fd6:	9807      	ldr	r0, [sp, #28]
    1fd8:	9208      	str	r2, [sp, #32]
    1fda:	9109      	str	r1, [sp, #36]	; 0x24
    1fdc:	900a      	str	r0, [sp, #40]	; 0x28
    1fde:	e7ff      	b.n	1fe0 <lowpower_set_system_voltage+0x12a>
    1fe0:	9a08      	ldr	r2, [sp, #32]
    1fe2:	9909      	ldr	r1, [sp, #36]	; 0x24
    1fe4:	980a      	ldr	r0, [sp, #40]	; 0x28
    1fe6:	920b      	str	r2, [sp, #44]	; 0x2c
    1fe8:	910c      	str	r1, [sp, #48]	; 0x30
    1fea:	900d      	str	r0, [sp, #52]	; 0x34
    1fec:	e7ff      	b.n	1fee <lowpower_set_system_voltage+0x138>
    1fee:	9a0b      	ldr	r2, [sp, #44]	; 0x2c
    1ff0:	990c      	ldr	r1, [sp, #48]	; 0x30
    1ff2:	980d      	ldr	r0, [sp, #52]	; 0x34
    1ff4:	920e      	str	r2, [sp, #56]	; 0x38
    1ff6:	910f      	str	r1, [sp, #60]	; 0x3c
    1ff8:	9010      	str	r0, [sp, #64]	; 0x40
    1ffa:	e7ff      	b.n	1ffc <lowpower_set_system_voltage+0x146>
    1ffc:	9a0e      	ldr	r2, [sp, #56]	; 0x38
    1ffe:	990f      	ldr	r1, [sp, #60]	; 0x3c
    2000:	9810      	ldr	r0, [sp, #64]	; 0x40
    2002:	9211      	str	r2, [sp, #68]	; 0x44
    2004:	9112      	str	r1, [sp, #72]	; 0x48
    2006:	9013      	str	r0, [sp, #76]	; 0x4c
    2008:	e7ff      	b.n	200a <lowpower_set_system_voltage+0x154>
    200a:	9a11      	ldr	r2, [sp, #68]	; 0x44
    200c:	9912      	ldr	r1, [sp, #72]	; 0x48
    200e:	9813      	ldr	r0, [sp, #76]	; 0x4c
    2010:	9214      	str	r2, [sp, #80]	; 0x50
    2012:	9115      	str	r1, [sp, #84]	; 0x54
    2014:	9016      	str	r0, [sp, #88]	; 0x58
    2016:	e7ff      	b.n	2018 <lowpower_set_system_voltage+0x162>
    2018:	9a14      	ldr	r2, [sp, #80]	; 0x50
    201a:	9915      	ldr	r1, [sp, #84]	; 0x54
    201c:	9816      	ldr	r0, [sp, #88]	; 0x58
    201e:	9217      	str	r2, [sp, #92]	; 0x5c
    2020:	9118      	str	r1, [sp, #96]	; 0x60
    2022:	9019      	str	r0, [sp, #100]	; 0x64
    2024:	e7ff      	b.n	2026 <lowpower_set_system_voltage+0x170>
    2026:	9b17      	ldr	r3, [sp, #92]	; 0x5c
    2028:	f8dd c060 	ldr.w	ip, [sp, #96]	; 0x60
    202c:	9a19      	ldr	r2, [sp, #100]	; 0x64
    202e:	211c      	movs	r1, #28
    2030:	f2c4 0102 	movt	r1, #16386	; 0x4002
    2034:	6808      	ldr	r0, [r1, #0]
    2036:	f647 4e1f 	movw	lr, #31775	; 0x7c1f
    203a:	ea20 000e 	bic.w	r0, r0, lr
    203e:	f00c 0c1f 	and.w	ip, ip, #31
    2042:	4460      	add	r0, ip
    2044:	f003 031f 	and.w	r3, r3, #31
    2048:	ea40 2083 	orr.w	r0, r0, r3, lsl #10
    204c:	6008      	str	r0, [r1, #0]
    204e:	2110      	movs	r1, #16
    2050:	f2c4 0102 	movt	r1, #16386	; 0x4002
    2054:	6808      	ldr	r0, [r1, #0]
    2056:	f362 4054 	bfi	r0, r2, #17, #4
    205a:	6008      	str	r0, [r1, #0]
    205c:	b01b      	add	sp, #108	; 0x6c
    205e:	bd80      	pop	{r7, pc}

00002060 <RESET_SetPeripheralReset>:
    2060:	b580      	push	{r7, lr}
    2062:	466f      	mov	r7, sp
    2064:	b082      	sub	sp, #8
    2066:	0c01      	lsrs	r1, r0, #16
    2068:	9100      	str	r1, [sp, #0]
    206a:	b280      	uxth	r0, r0
    206c:	2101      	movs	r1, #1
    206e:	4081      	lsls	r1, r0
    2070:	9101      	str	r1, [sp, #4]
    2072:	281f      	cmp	r0, #31
    2074:	d801      	bhi.n	207a <RESET_SetPeripheralReset+0x1a>
    2076:	e7ff      	b.n	2078 <RESET_SetPeripheralReset+0x18>
    2078:	e00e      	b.n	2098 <RESET_SetPeripheralReset+0x38>
    207a:	f648 000c 	movw	r0, #34828	; 0x880c
    207e:	f2c0 0000 	movt	r0, #0
    2082:	f648 0220 	movw	r2, #34848	; 0x8820
    2086:	f2c0 0200 	movt	r2, #0
    208a:	f648 0339 	movw	r3, #34873	; 0x8839
    208e:	f2c0 0300 	movt	r3, #0
    2092:	2130      	movs	r1, #48	; 0x30
    2094:	f002 ff55 	bl	4f42 <__assert_func>
    2098:	9801      	ldr	r0, [sp, #4]
    209a:	9a00      	ldr	r2, [sp, #0]
    209c:	f240 1120 	movw	r1, #288	; 0x120
    20a0:	f2c4 0100 	movt	r1, #16384	; 0x4000
    20a4:	f841 0022 	str.w	r0, [r1, r2, lsl #2]
    20a8:	e7ff      	b.n	20aa <RESET_SetPeripheralReset+0x4a>
    20aa:	9901      	ldr	r1, [sp, #4]
    20ac:	9a00      	ldr	r2, [sp, #0]
    20ae:	f240 1000 	movw	r0, #256	; 0x100
    20b2:	f2c4 0000 	movt	r0, #16384	; 0x4000
    20b6:	f850 0022 	ldr.w	r0, [r0, r2, lsl #2]
    20ba:	4208      	tst	r0, r1
    20bc:	d101      	bne.n	20c2 <RESET_SetPeripheralReset+0x62>
    20be:	e7ff      	b.n	20c0 <RESET_SetPeripheralReset+0x60>
    20c0:	e7f3      	b.n	20aa <RESET_SetPeripheralReset+0x4a>
    20c2:	b002      	add	sp, #8
    20c4:	bd80      	pop	{r7, pc}

000020c6 <RESET_ClearPeripheralReset>:
    20c6:	b580      	push	{r7, lr}
    20c8:	466f      	mov	r7, sp
    20ca:	b082      	sub	sp, #8
    20cc:	0c01      	lsrs	r1, r0, #16
    20ce:	9100      	str	r1, [sp, #0]
    20d0:	b280      	uxth	r0, r0
    20d2:	2101      	movs	r1, #1
    20d4:	4081      	lsls	r1, r0
    20d6:	9101      	str	r1, [sp, #4]
    20d8:	281f      	cmp	r0, #31
    20da:	d801      	bhi.n	20e0 <RESET_ClearPeripheralReset+0x1a>
    20dc:	e7ff      	b.n	20de <RESET_ClearPeripheralReset+0x18>
    20de:	e00e      	b.n	20fe <RESET_ClearPeripheralReset+0x38>
    20e0:	f648 000c 	movw	r0, #34828	; 0x880c
    20e4:	f2c0 0000 	movt	r0, #0
    20e8:	f648 0246 	movw	r2, #34886	; 0x8846
    20ec:	f2c0 0200 	movt	r2, #0
    20f0:	f648 0339 	movw	r3, #34873	; 0x8839
    20f4:	f2c0 0300 	movt	r3, #0
    20f8:	2149      	movs	r1, #73	; 0x49
    20fa:	f002 ff22 	bl	4f42 <__assert_func>
    20fe:	9801      	ldr	r0, [sp, #4]
    2100:	9a00      	ldr	r2, [sp, #0]
    2102:	f240 1140 	movw	r1, #320	; 0x140
    2106:	f2c4 0100 	movt	r1, #16384	; 0x4000
    210a:	f841 0022 	str.w	r0, [r1, r2, lsl #2]
    210e:	e7ff      	b.n	2110 <RESET_ClearPeripheralReset+0x4a>
    2110:	9801      	ldr	r0, [sp, #4]
    2112:	9a00      	ldr	r2, [sp, #0]
    2114:	f240 1100 	movw	r1, #256	; 0x100
    2118:	f2c4 0100 	movt	r1, #16384	; 0x4000
    211c:	f851 1022 	ldr.w	r1, [r1, r2, lsl #2]
    2120:	4001      	ands	r1, r0
    2122:	4288      	cmp	r0, r1
    2124:	d101      	bne.n	212a <RESET_ClearPeripheralReset+0x64>
    2126:	e7ff      	b.n	2128 <RESET_ClearPeripheralReset+0x62>
    2128:	e7f2      	b.n	2110 <RESET_ClearPeripheralReset+0x4a>
    212a:	b002      	add	sp, #8
    212c:	bd80      	pop	{r7, pc}

0000212e <RESET_PeripheralReset>:
    212e:	b580      	push	{r7, lr}
    2130:	466f      	mov	r7, sp
    2132:	b082      	sub	sp, #8
    2134:	9001      	str	r0, [sp, #4]
    2136:	f7ff ff93 	bl	2060 <RESET_SetPeripheralReset>
    213a:	9801      	ldr	r0, [sp, #4]
    213c:	f7ff ffc3 	bl	20c6 <RESET_ClearPeripheralReset>
    2140:	b002      	add	sp, #8
    2142:	bd80      	pop	{r7, pc}

00002144 <GPIO_EnablePortClock>:
    2144:	b580      	push	{r7, lr}
    2146:	466f      	mov	r7, sp
    2148:	b082      	sub	sp, #8
    214a:	9101      	str	r1, [sp, #4]
    214c:	2903      	cmp	r1, #3
    214e:	d801      	bhi.n	2154 <GPIO_EnablePortClock+0x10>
    2150:	e7ff      	b.n	2152 <GPIO_EnablePortClock+0xe>
    2152:	e00e      	b.n	2172 <GPIO_EnablePortClock+0x2e>
    2154:	f648 0061 	movw	r0, #34913	; 0x8861
    2158:	f2c0 0000 	movt	r0, #0
    215c:	f648 0274 	movw	r2, #34932	; 0x8874
    2160:	f2c0 0200 	movt	r2, #0
    2164:	f648 0389 	movw	r3, #34953	; 0x8889
    2168:	f2c0 0300 	movt	r3, #0
    216c:	212d      	movs	r1, #45	; 0x2d
    216e:	f002 fee8 	bl	4f42 <__assert_func>
    2172:	9901      	ldr	r1, [sp, #4]
    2174:	f648 00ac 	movw	r0, #34988	; 0x88ac
    2178:	f2c0 0000 	movt	r0, #0
    217c:	f830 0011 	ldrh.w	r0, [r0, r1, lsl #1]
    2180:	f000 f847 	bl	2212 <CLOCK_EnableClock>
    2184:	b002      	add	sp, #8
    2186:	bd80      	pop	{r7, pc}

00002188 <GPIO_PinInit>:
    2188:	b580      	push	{r7, lr}
    218a:	466f      	mov	r7, sp
    218c:	b084      	sub	sp, #16
    218e:	9303      	str	r3, [sp, #12]
    2190:	9200      	str	r2, [sp, #0]
    2192:	9101      	str	r1, [sp, #4]
    2194:	9002      	str	r0, [sp, #8]
    2196:	f7ff ffd5 	bl	2144 <GPIO_EnablePortClock>
    219a:	9b03      	ldr	r3, [sp, #12]
    219c:	7818      	ldrb	r0, [r3, #0]
    219e:	b970      	cbnz	r0, 21be <GPIO_PinInit+0x36>
    21a0:	e7ff      	b.n	21a2 <GPIO_PinInit+0x1a>
    21a2:	9802      	ldr	r0, [sp, #8]
    21a4:	9901      	ldr	r1, [sp, #4]
    21a6:	9b00      	ldr	r3, [sp, #0]
    21a8:	2201      	movs	r2, #1
    21aa:	fa02 f303 	lsl.w	r3, r2, r3
    21ae:	eb00 0181 	add.w	r1, r0, r1, lsl #2
    21b2:	f44f 5200 	mov.w	r2, #8192	; 0x2000
    21b6:	5888      	ldr	r0, [r1, r2]
    21b8:	4398      	bics	r0, r3
    21ba:	5088      	str	r0, [r1, r2]
    21bc:	e027      	b.n	220e <GPIO_PinInit+0x86>
    21be:	9803      	ldr	r0, [sp, #12]
    21c0:	7840      	ldrb	r0, [r0, #1]
    21c2:	b958      	cbnz	r0, 21dc <GPIO_PinInit+0x54>
    21c4:	e7ff      	b.n	21c6 <GPIO_PinInit+0x3e>
    21c6:	9902      	ldr	r1, [sp, #8]
    21c8:	9a01      	ldr	r2, [sp, #4]
    21ca:	9b00      	ldr	r3, [sp, #0]
    21cc:	2001      	movs	r0, #1
    21ce:	4098      	lsls	r0, r3
    21d0:	eb01 0182 	add.w	r1, r1, r2, lsl #2
    21d4:	f44f 520a 	mov.w	r2, #8832	; 0x2280
    21d8:	5088      	str	r0, [r1, r2]
    21da:	e00a      	b.n	21f2 <GPIO_PinInit+0x6a>
    21dc:	9902      	ldr	r1, [sp, #8]
    21de:	9a01      	ldr	r2, [sp, #4]
    21e0:	9b00      	ldr	r3, [sp, #0]
    21e2:	2001      	movs	r0, #1
    21e4:	4098      	lsls	r0, r3
    21e6:	eb01 0182 	add.w	r1, r1, r2, lsl #2
    21ea:	f44f 5208 	mov.w	r2, #8704	; 0x2200
    21ee:	5088      	str	r0, [r1, r2]
    21f0:	e7ff      	b.n	21f2 <GPIO_PinInit+0x6a>
    21f2:	9802      	ldr	r0, [sp, #8]
    21f4:	9901      	ldr	r1, [sp, #4]
    21f6:	9b00      	ldr	r3, [sp, #0]
    21f8:	2201      	movs	r2, #1
    21fa:	fa02 f303 	lsl.w	r3, r2, r3
    21fe:	eb00 0181 	add.w	r1, r0, r1, lsl #2
    2202:	f44f 5200 	mov.w	r2, #8192	; 0x2000
    2206:	5888      	ldr	r0, [r1, r2]
    2208:	4318      	orrs	r0, r3
    220a:	5088      	str	r0, [r1, r2]
    220c:	e7ff      	b.n	220e <GPIO_PinInit+0x86>
    220e:	b004      	add	sp, #16
    2210:	bd80      	pop	{r7, pc}

00002212 <CLOCK_EnableClock>:
    2212:	0a02      	lsrs	r2, r0, #8
    2214:	b2c1      	uxtb	r1, r0
    2216:	2001      	movs	r0, #1
    2218:	4088      	lsls	r0, r1
    221a:	f240 2120 	movw	r1, #544	; 0x220
    221e:	f2c4 0100 	movt	r1, #16384	; 0x4000
    2222:	f841 0022 	str.w	r0, [r1, r2, lsl #2]
    2226:	4770      	bx	lr

00002228 <FLEXCOMM_GetInstance>:
    2228:	b580      	push	{r7, lr}
    222a:	466f      	mov	r7, sp
    222c:	b084      	sub	sp, #16
    222e:	9002      	str	r0, [sp, #8]
    2230:	2000      	movs	r0, #0
    2232:	9003      	str	r0, [sp, #12]
    2234:	e7ff      	b.n	2236 <FLEXCOMM_GetInstance+0xe>
    2236:	9803      	ldr	r0, [sp, #12]
    2238:	9001      	str	r0, [sp, #4]
    223a:	2808      	cmp	r0, #8
    223c:	d811      	bhi.n	2262 <FLEXCOMM_GetInstance+0x3a>
    223e:	e7ff      	b.n	2240 <FLEXCOMM_GetInstance+0x18>
    2240:	9802      	ldr	r0, [sp, #8]
    2242:	9a01      	ldr	r2, [sp, #4]
    2244:	f648 01b4 	movw	r1, #34996	; 0x88b4
    2248:	f2c0 0100 	movt	r1, #0
    224c:	f851 1022 	ldr.w	r1, [r1, r2, lsl #2]
    2250:	4288      	cmp	r0, r1
    2252:	d101      	bne.n	2258 <FLEXCOMM_GetInstance+0x30>
    2254:	e7ff      	b.n	2256 <FLEXCOMM_GetInstance+0x2e>
    2256:	e004      	b.n	2262 <FLEXCOMM_GetInstance+0x3a>
    2258:	e7ff      	b.n	225a <FLEXCOMM_GetInstance+0x32>
    225a:	9801      	ldr	r0, [sp, #4]
    225c:	3001      	adds	r0, #1
    225e:	9003      	str	r0, [sp, #12]
    2260:	e7e9      	b.n	2236 <FLEXCOMM_GetInstance+0xe>
    2262:	9801      	ldr	r0, [sp, #4]
    2264:	2808      	cmp	r0, #8
    2266:	d801      	bhi.n	226c <FLEXCOMM_GetInstance+0x44>
    2268:	e7ff      	b.n	226a <FLEXCOMM_GetInstance+0x42>
    226a:	e00e      	b.n	228a <FLEXCOMM_GetInstance+0x62>
    226c:	f648 00d8 	movw	r0, #35032	; 0x88d8
    2270:	f2c0 0000 	movt	r0, #0
    2274:	f648 02ef 	movw	r2, #35055	; 0x88ef
    2278:	f2c0 0200 	movt	r2, #0
    227c:	f648 1304 	movw	r3, #35076	; 0x8904
    2280:	f2c0 0300 	movt	r3, #0
    2284:	215f      	movs	r1, #95	; 0x5f
    2286:	f002 fe5c 	bl	4f42 <__assert_func>
    228a:	9801      	ldr	r0, [sp, #4]
    228c:	b004      	add	sp, #16
    228e:	bd80      	pop	{r7, pc}

00002290 <FLEXCOMM_Init>:
    2290:	b580      	push	{r7, lr}
    2292:	466f      	mov	r7, sp
    2294:	b084      	sub	sp, #16
    2296:	9103      	str	r1, [sp, #12]
    2298:	9002      	str	r0, [sp, #8]
    229a:	f7ff ffc5 	bl	2228 <FLEXCOMM_GetInstance>
    229e:	4601      	mov	r1, r0
    22a0:	9101      	str	r1, [sp, #4]
    22a2:	f648 204c 	movw	r0, #35404	; 0x8a4c
    22a6:	f2c0 0000 	movt	r0, #0
    22aa:	f830 0011 	ldrh.w	r0, [r0, r1, lsl #1]
    22ae:	f000 f810 	bl	22d2 <CLOCK_EnableClock>
    22b2:	9901      	ldr	r1, [sp, #4]
    22b4:	f648 2060 	movw	r0, #35424	; 0x8a60
    22b8:	f2c0 0000 	movt	r0, #0
    22bc:	f850 0021 	ldr.w	r0, [r0, r1, lsl #2]
    22c0:	f7ff ff35 	bl	212e <RESET_PeripheralReset>
    22c4:	9802      	ldr	r0, [sp, #8]
    22c6:	9903      	ldr	r1, [sp, #12]
    22c8:	2200      	movs	r2, #0
    22ca:	f000 f80d 	bl	22e8 <FLEXCOMM_SetPeriph>
    22ce:	b004      	add	sp, #16
    22d0:	bd80      	pop	{r7, pc}

000022d2 <CLOCK_EnableClock>:
    22d2:	0a02      	lsrs	r2, r0, #8
    22d4:	b2c1      	uxtb	r1, r0
    22d6:	2001      	movs	r0, #1
    22d8:	4088      	lsls	r0, r1
    22da:	f240 2120 	movw	r1, #544	; 0x220
    22de:	f2c4 0100 	movt	r1, #16384	; 0x4000
    22e2:	f841 0022 	str.w	r0, [r1, r2, lsl #2]
    22e6:	4770      	bx	lr

000022e8 <FLEXCOMM_SetPeriph>:
    22e8:	b580      	push	{r7, lr}
    22ea:	466f      	mov	r7, sp
    22ec:	b084      	sub	sp, #16
    22ee:	9201      	str	r2, [sp, #4]
    22f0:	9002      	str	r0, [sp, #8]
    22f2:	460a      	mov	r2, r1
    22f4:	9203      	str	r2, [sp, #12]
    22f6:	f000 fa3d 	bl	2774 <FLEXCOMM_PeripheralIsPresent>
    22fa:	b918      	cbnz	r0, 2304 <FLEXCOMM_SetPeriph+0x1c>
    22fc:	e7ff      	b.n	22fe <FLEXCOMM_SetPeriph+0x16>
    22fe:	2003      	movs	r0, #3
    2300:	9000      	str	r0, [sp, #0]
    2302:	e027      	b.n	2354 <FLEXCOMM_SetPeriph+0x6c>
    2304:	9802      	ldr	r0, [sp, #8]
    2306:	f8d0 0ff8 	ldr.w	r0, [r0, #4088]	; 0xff8
    230a:	0700      	lsls	r0, r0, #28
    230c:	2800      	cmp	r0, #0
    230e:	d50d      	bpl.n	232c <FLEXCOMM_SetPeriph+0x44>
    2310:	e7ff      	b.n	2312 <FLEXCOMM_SetPeriph+0x2a>
    2312:	9903      	ldr	r1, [sp, #12]
    2314:	9802      	ldr	r0, [sp, #8]
    2316:	f8d0 0ff8 	ldr.w	r0, [r0, #4088]	; 0xff8
    231a:	f000 0007 	and.w	r0, r0, #7
    231e:	b2c9      	uxtb	r1, r1
    2320:	4288      	cmp	r0, r1
    2322:	d003      	beq.n	232c <FLEXCOMM_SetPeriph+0x44>
    2324:	e7ff      	b.n	2326 <FLEXCOMM_SetPeriph+0x3e>
    2326:	2001      	movs	r0, #1
    2328:	9000      	str	r0, [sp, #0]
    232a:	e013      	b.n	2354 <FLEXCOMM_SetPeriph+0x6c>
    232c:	9801      	ldr	r0, [sp, #4]
    232e:	b140      	cbz	r0, 2342 <FLEXCOMM_SetPeriph+0x5a>
    2330:	e7ff      	b.n	2332 <FLEXCOMM_SetPeriph+0x4a>
    2332:	9902      	ldr	r1, [sp, #8]
    2334:	9803      	ldr	r0, [sp, #12]
    2336:	f040 0008 	orr.w	r0, r0, #8
    233a:	b2c0      	uxtb	r0, r0
    233c:	f8c1 0ff8 	str.w	r0, [r1, #4088]	; 0xff8
    2340:	e005      	b.n	234e <FLEXCOMM_SetPeriph+0x66>
    2342:	9902      	ldr	r1, [sp, #8]
    2344:	9803      	ldr	r0, [sp, #12]
    2346:	b2c0      	uxtb	r0, r0
    2348:	f8c1 0ff8 	str.w	r0, [r1, #4088]	; 0xff8
    234c:	e7ff      	b.n	234e <FLEXCOMM_SetPeriph+0x66>
    234e:	2000      	movs	r0, #0
    2350:	9000      	str	r0, [sp, #0]
    2352:	e7ff      	b.n	2354 <FLEXCOMM_SetPeriph+0x6c>
    2354:	9800      	ldr	r0, [sp, #0]
    2356:	b004      	add	sp, #16
    2358:	bd80      	pop	{r7, pc}

0000235a <FLEXCOMM0_DriverIRQHandler>:
    235a:	b580      	push	{r7, lr}
    235c:	466f      	mov	r7, sp
    235e:	b082      	sub	sp, #8
    2360:	f246 0000 	movw	r0, #24576	; 0x6000
    2364:	f2c4 0008 	movt	r0, #16392	; 0x4008
    2368:	f7ff ff5e 	bl	2228 <FLEXCOMM_GetInstance>
    236c:	4601      	mov	r1, r0
    236e:	4608      	mov	r0, r1
    2370:	9001      	str	r0, [sp, #4]
    2372:	f240 405c 	movw	r0, #1116	; 0x45c
    2376:	f2c2 0000 	movt	r0, #8192	; 0x2000
    237a:	f850 0021 	ldr.w	r0, [r0, r1, lsl #2]
    237e:	b108      	cbz	r0, 2384 <FLEXCOMM0_DriverIRQHandler+0x2a>
    2380:	e7ff      	b.n	2382 <FLEXCOMM0_DriverIRQHandler+0x28>
    2382:	e00e      	b.n	23a2 <FLEXCOMM0_DriverIRQHandler+0x48>
    2384:	f648 00d8 	movw	r0, #35032	; 0x88d8
    2388:	f2c0 0000 	movt	r0, #0
    238c:	f648 1231 	movw	r2, #35121	; 0x8931
    2390:	f2c0 0200 	movt	r2, #0
    2394:	f648 134c 	movw	r3, #35148	; 0x894c
    2398:	f2c0 0300 	movt	r3, #0
    239c:	21ac      	movs	r1, #172	; 0xac
    239e:	f002 fdd0 	bl	4f42 <__assert_func>
    23a2:	9b01      	ldr	r3, [sp, #4]
    23a4:	f240 405c 	movw	r0, #1116	; 0x45c
    23a8:	f2c2 0000 	movt	r0, #8192	; 0x2000
    23ac:	f850 2023 	ldr.w	r2, [r0, r3, lsl #2]
    23b0:	f648 00b4 	movw	r0, #34996	; 0x88b4
    23b4:	f2c0 0000 	movt	r0, #0
    23b8:	f850 0023 	ldr.w	r0, [r0, r3, lsl #2]
    23bc:	f240 4180 	movw	r1, #1152	; 0x480
    23c0:	f2c2 0100 	movt	r1, #8192	; 0x2000
    23c4:	f851 1023 	ldr.w	r1, [r1, r3, lsl #2]
    23c8:	4790      	blx	r2
    23ca:	b002      	add	sp, #8
    23cc:	bd80      	pop	{r7, pc}

000023ce <FLEXCOMM1_DriverIRQHandler>:
    23ce:	b580      	push	{r7, lr}
    23d0:	466f      	mov	r7, sp
    23d2:	b082      	sub	sp, #8
    23d4:	f247 0000 	movw	r0, #28672	; 0x7000
    23d8:	f2c4 0008 	movt	r0, #16392	; 0x4008
    23dc:	f7ff ff24 	bl	2228 <FLEXCOMM_GetInstance>
    23e0:	4601      	mov	r1, r0
    23e2:	4608      	mov	r0, r1
    23e4:	9001      	str	r0, [sp, #4]
    23e6:	f240 405c 	movw	r0, #1116	; 0x45c
    23ea:	f2c2 0000 	movt	r0, #8192	; 0x2000
    23ee:	f850 0021 	ldr.w	r0, [r0, r1, lsl #2]
    23f2:	b108      	cbz	r0, 23f8 <FLEXCOMM1_DriverIRQHandler+0x2a>
    23f4:	e7ff      	b.n	23f6 <FLEXCOMM1_DriverIRQHandler+0x28>
    23f6:	e00e      	b.n	2416 <FLEXCOMM1_DriverIRQHandler+0x48>
    23f8:	f648 00d8 	movw	r0, #35032	; 0x88d8
    23fc:	f2c0 0000 	movt	r0, #0
    2400:	f648 1273 	movw	r2, #35187	; 0x8973
    2404:	f2c0 0200 	movt	r2, #0
    2408:	f648 134c 	movw	r3, #35148	; 0x894c
    240c:	f2c0 0300 	movt	r3, #0
    2410:	21ba      	movs	r1, #186	; 0xba
    2412:	f002 fd96 	bl	4f42 <__assert_func>
    2416:	9b01      	ldr	r3, [sp, #4]
    2418:	f240 405c 	movw	r0, #1116	; 0x45c
    241c:	f2c2 0000 	movt	r0, #8192	; 0x2000
    2420:	f850 2023 	ldr.w	r2, [r0, r3, lsl #2]
    2424:	f648 00b4 	movw	r0, #34996	; 0x88b4
    2428:	f2c0 0000 	movt	r0, #0
    242c:	f850 0023 	ldr.w	r0, [r0, r3, lsl #2]
    2430:	f240 4180 	movw	r1, #1152	; 0x480
    2434:	f2c2 0100 	movt	r1, #8192	; 0x2000
    2438:	f851 1023 	ldr.w	r1, [r1, r3, lsl #2]
    243c:	4790      	blx	r2
    243e:	b002      	add	sp, #8
    2440:	bd80      	pop	{r7, pc}

00002442 <FLEXCOMM2_DriverIRQHandler>:
    2442:	b580      	push	{r7, lr}
    2444:	466f      	mov	r7, sp
    2446:	b082      	sub	sp, #8
    2448:	f248 0000 	movw	r0, #32768	; 0x8000
    244c:	f2c4 0008 	movt	r0, #16392	; 0x4008
    2450:	f7ff feea 	bl	2228 <FLEXCOMM_GetInstance>
    2454:	4601      	mov	r1, r0
    2456:	4608      	mov	r0, r1
    2458:	9001      	str	r0, [sp, #4]
    245a:	f240 405c 	movw	r0, #1116	; 0x45c
    245e:	f2c2 0000 	movt	r0, #8192	; 0x2000
    2462:	f850 0021 	ldr.w	r0, [r0, r1, lsl #2]
    2466:	b108      	cbz	r0, 246c <FLEXCOMM2_DriverIRQHandler+0x2a>
    2468:	e7ff      	b.n	246a <FLEXCOMM2_DriverIRQHandler+0x28>
    246a:	e00e      	b.n	248a <FLEXCOMM2_DriverIRQHandler+0x48>
    246c:	f648 00d8 	movw	r0, #35032	; 0x88d8
    2470:	f2c0 0000 	movt	r0, #0
    2474:	f648 128e 	movw	r2, #35214	; 0x898e
    2478:	f2c0 0200 	movt	r2, #0
    247c:	f648 134c 	movw	r3, #35148	; 0x894c
    2480:	f2c0 0300 	movt	r3, #0
    2484:	21c8      	movs	r1, #200	; 0xc8
    2486:	f002 fd5c 	bl	4f42 <__assert_func>
    248a:	9b01      	ldr	r3, [sp, #4]
    248c:	f240 405c 	movw	r0, #1116	; 0x45c
    2490:	f2c2 0000 	movt	r0, #8192	; 0x2000
    2494:	f850 2023 	ldr.w	r2, [r0, r3, lsl #2]
    2498:	f648 00b4 	movw	r0, #34996	; 0x88b4
    249c:	f2c0 0000 	movt	r0, #0
    24a0:	f850 0023 	ldr.w	r0, [r0, r3, lsl #2]
    24a4:	f240 4180 	movw	r1, #1152	; 0x480
    24a8:	f2c2 0100 	movt	r1, #8192	; 0x2000
    24ac:	f851 1023 	ldr.w	r1, [r1, r3, lsl #2]
    24b0:	4790      	blx	r2
    24b2:	b002      	add	sp, #8
    24b4:	bd80      	pop	{r7, pc}

000024b6 <FLEXCOMM3_DriverIRQHandler>:
    24b6:	b580      	push	{r7, lr}
    24b8:	466f      	mov	r7, sp
    24ba:	b082      	sub	sp, #8
    24bc:	f249 0000 	movw	r0, #36864	; 0x9000
    24c0:	f2c4 0008 	movt	r0, #16392	; 0x4008
    24c4:	f7ff feb0 	bl	2228 <FLEXCOMM_GetInstance>
    24c8:	4601      	mov	r1, r0
    24ca:	4608      	mov	r0, r1
    24cc:	9001      	str	r0, [sp, #4]
    24ce:	f240 405c 	movw	r0, #1116	; 0x45c
    24d2:	f2c2 0000 	movt	r0, #8192	; 0x2000
    24d6:	f850 0021 	ldr.w	r0, [r0, r1, lsl #2]
    24da:	b108      	cbz	r0, 24e0 <FLEXCOMM3_DriverIRQHandler+0x2a>
    24dc:	e7ff      	b.n	24de <FLEXCOMM3_DriverIRQHandler+0x28>
    24de:	e00e      	b.n	24fe <FLEXCOMM3_DriverIRQHandler+0x48>
    24e0:	f648 00d8 	movw	r0, #35032	; 0x88d8
    24e4:	f2c0 0000 	movt	r0, #0
    24e8:	f648 12a9 	movw	r2, #35241	; 0x89a9
    24ec:	f2c0 0200 	movt	r2, #0
    24f0:	f648 134c 	movw	r3, #35148	; 0x894c
    24f4:	f2c0 0300 	movt	r3, #0
    24f8:	21d6      	movs	r1, #214	; 0xd6
    24fa:	f002 fd22 	bl	4f42 <__assert_func>
    24fe:	9b01      	ldr	r3, [sp, #4]
    2500:	f240 405c 	movw	r0, #1116	; 0x45c
    2504:	f2c2 0000 	movt	r0, #8192	; 0x2000
    2508:	f850 2023 	ldr.w	r2, [r0, r3, lsl #2]
    250c:	f648 00b4 	movw	r0, #34996	; 0x88b4
    2510:	f2c0 0000 	movt	r0, #0
    2514:	f850 0023 	ldr.w	r0, [r0, r3, lsl #2]
    2518:	f240 4180 	movw	r1, #1152	; 0x480
    251c:	f2c2 0100 	movt	r1, #8192	; 0x2000
    2520:	f851 1023 	ldr.w	r1, [r1, r3, lsl #2]
    2524:	4790      	blx	r2
    2526:	b002      	add	sp, #8
    2528:	bd80      	pop	{r7, pc}

0000252a <FLEXCOMM4_DriverIRQHandler>:
    252a:	b580      	push	{r7, lr}
    252c:	466f      	mov	r7, sp
    252e:	b082      	sub	sp, #8
    2530:	f24a 0000 	movw	r0, #40960	; 0xa000
    2534:	f2c4 0008 	movt	r0, #16392	; 0x4008
    2538:	f7ff fe76 	bl	2228 <FLEXCOMM_GetInstance>
    253c:	4601      	mov	r1, r0
    253e:	4608      	mov	r0, r1
    2540:	9001      	str	r0, [sp, #4]
    2542:	f240 405c 	movw	r0, #1116	; 0x45c
    2546:	f2c2 0000 	movt	r0, #8192	; 0x2000
    254a:	f850 0021 	ldr.w	r0, [r0, r1, lsl #2]
    254e:	b108      	cbz	r0, 2554 <FLEXCOMM4_DriverIRQHandler+0x2a>
    2550:	e7ff      	b.n	2552 <FLEXCOMM4_DriverIRQHandler+0x28>
    2552:	e00e      	b.n	2572 <FLEXCOMM4_DriverIRQHandler+0x48>
    2554:	f648 00d8 	movw	r0, #35032	; 0x88d8
    2558:	f2c0 0000 	movt	r0, #0
    255c:	f648 12c4 	movw	r2, #35268	; 0x89c4
    2560:	f2c0 0200 	movt	r2, #0
    2564:	f648 134c 	movw	r3, #35148	; 0x894c
    2568:	f2c0 0300 	movt	r3, #0
    256c:	21e4      	movs	r1, #228	; 0xe4
    256e:	f002 fce8 	bl	4f42 <__assert_func>
    2572:	9b01      	ldr	r3, [sp, #4]
    2574:	f240 405c 	movw	r0, #1116	; 0x45c
    2578:	f2c2 0000 	movt	r0, #8192	; 0x2000
    257c:	f850 2023 	ldr.w	r2, [r0, r3, lsl #2]
    2580:	f648 00b4 	movw	r0, #34996	; 0x88b4
    2584:	f2c0 0000 	movt	r0, #0
    2588:	f850 0023 	ldr.w	r0, [r0, r3, lsl #2]
    258c:	f240 4180 	movw	r1, #1152	; 0x480
    2590:	f2c2 0100 	movt	r1, #8192	; 0x2000
    2594:	f851 1023 	ldr.w	r1, [r1, r3, lsl #2]
    2598:	4790      	blx	r2
    259a:	b002      	add	sp, #8
    259c:	bd80      	pop	{r7, pc}

0000259e <FLEXCOMM5_DriverIRQHandler>:
    259e:	b580      	push	{r7, lr}
    25a0:	466f      	mov	r7, sp
    25a2:	b082      	sub	sp, #8
    25a4:	f246 0000 	movw	r0, #24576	; 0x6000
    25a8:	f2c4 0009 	movt	r0, #16393	; 0x4009
    25ac:	f7ff fe3c 	bl	2228 <FLEXCOMM_GetInstance>
    25b0:	4601      	mov	r1, r0
    25b2:	4608      	mov	r0, r1
    25b4:	9001      	str	r0, [sp, #4]
    25b6:	f240 405c 	movw	r0, #1116	; 0x45c
    25ba:	f2c2 0000 	movt	r0, #8192	; 0x2000
    25be:	f850 0021 	ldr.w	r0, [r0, r1, lsl #2]
    25c2:	b108      	cbz	r0, 25c8 <FLEXCOMM5_DriverIRQHandler+0x2a>
    25c4:	e7ff      	b.n	25c6 <FLEXCOMM5_DriverIRQHandler+0x28>
    25c6:	e00e      	b.n	25e6 <FLEXCOMM5_DriverIRQHandler+0x48>
    25c8:	f648 00d8 	movw	r0, #35032	; 0x88d8
    25cc:	f2c0 0000 	movt	r0, #0
    25d0:	f648 12df 	movw	r2, #35295	; 0x89df
    25d4:	f2c0 0200 	movt	r2, #0
    25d8:	f648 134c 	movw	r3, #35148	; 0x894c
    25dc:	f2c0 0300 	movt	r3, #0
    25e0:	21f3      	movs	r1, #243	; 0xf3
    25e2:	f002 fcae 	bl	4f42 <__assert_func>
    25e6:	9b01      	ldr	r3, [sp, #4]
    25e8:	f240 405c 	movw	r0, #1116	; 0x45c
    25ec:	f2c2 0000 	movt	r0, #8192	; 0x2000
    25f0:	f850 2023 	ldr.w	r2, [r0, r3, lsl #2]
    25f4:	f648 00b4 	movw	r0, #34996	; 0x88b4
    25f8:	f2c0 0000 	movt	r0, #0
    25fc:	f850 0023 	ldr.w	r0, [r0, r3, lsl #2]
    2600:	f240 4180 	movw	r1, #1152	; 0x480
    2604:	f2c2 0100 	movt	r1, #8192	; 0x2000
    2608:	f851 1023 	ldr.w	r1, [r1, r3, lsl #2]
    260c:	4790      	blx	r2
    260e:	b002      	add	sp, #8
    2610:	bd80      	pop	{r7, pc}

00002612 <FLEXCOMM6_DriverIRQHandler>:
    2612:	b580      	push	{r7, lr}
    2614:	466f      	mov	r7, sp
    2616:	b082      	sub	sp, #8
    2618:	f247 0000 	movw	r0, #28672	; 0x7000
    261c:	f2c4 0009 	movt	r0, #16393	; 0x4009
    2620:	f7ff fe02 	bl	2228 <FLEXCOMM_GetInstance>
    2624:	4601      	mov	r1, r0
    2626:	4608      	mov	r0, r1
    2628:	9001      	str	r0, [sp, #4]
    262a:	f240 405c 	movw	r0, #1116	; 0x45c
    262e:	f2c2 0000 	movt	r0, #8192	; 0x2000
    2632:	f850 0021 	ldr.w	r0, [r0, r1, lsl #2]
    2636:	b108      	cbz	r0, 263c <FLEXCOMM6_DriverIRQHandler+0x2a>
    2638:	e7ff      	b.n	263a <FLEXCOMM6_DriverIRQHandler+0x28>
    263a:	e00f      	b.n	265c <FLEXCOMM6_DriverIRQHandler+0x4a>
    263c:	f648 00d8 	movw	r0, #35032	; 0x88d8
    2640:	f2c0 0000 	movt	r0, #0
    2644:	f648 12fa 	movw	r2, #35322	; 0x89fa
    2648:	f2c0 0200 	movt	r2, #0
    264c:	f648 134c 	movw	r3, #35148	; 0x894c
    2650:	f2c0 0300 	movt	r3, #0
    2654:	f240 1101 	movw	r1, #257	; 0x101
    2658:	f002 fc73 	bl	4f42 <__assert_func>
    265c:	9b01      	ldr	r3, [sp, #4]
    265e:	f240 405c 	movw	r0, #1116	; 0x45c
    2662:	f2c2 0000 	movt	r0, #8192	; 0x2000
    2666:	f850 2023 	ldr.w	r2, [r0, r3, lsl #2]
    266a:	f648 00b4 	movw	r0, #34996	; 0x88b4
    266e:	f2c0 0000 	movt	r0, #0
    2672:	f850 0023 	ldr.w	r0, [r0, r3, lsl #2]
    2676:	f240 4180 	movw	r1, #1152	; 0x480
    267a:	f2c2 0100 	movt	r1, #8192	; 0x2000
    267e:	f851 1023 	ldr.w	r1, [r1, r3, lsl #2]
    2682:	4790      	blx	r2
    2684:	b002      	add	sp, #8
    2686:	bd80      	pop	{r7, pc}

00002688 <FLEXCOMM7_DriverIRQHandler>:
    2688:	b580      	push	{r7, lr}
    268a:	466f      	mov	r7, sp
    268c:	b082      	sub	sp, #8
    268e:	f248 0000 	movw	r0, #32768	; 0x8000
    2692:	f2c4 0009 	movt	r0, #16393	; 0x4009
    2696:	f7ff fdc7 	bl	2228 <FLEXCOMM_GetInstance>
    269a:	4601      	mov	r1, r0
    269c:	4608      	mov	r0, r1
    269e:	9001      	str	r0, [sp, #4]
    26a0:	f240 405c 	movw	r0, #1116	; 0x45c
    26a4:	f2c2 0000 	movt	r0, #8192	; 0x2000
    26a8:	f850 0021 	ldr.w	r0, [r0, r1, lsl #2]
    26ac:	b108      	cbz	r0, 26b2 <FLEXCOMM7_DriverIRQHandler+0x2a>
    26ae:	e7ff      	b.n	26b0 <FLEXCOMM7_DriverIRQHandler+0x28>
    26b0:	e00f      	b.n	26d2 <FLEXCOMM7_DriverIRQHandler+0x4a>
    26b2:	f648 00d8 	movw	r0, #35032	; 0x88d8
    26b6:	f2c0 0000 	movt	r0, #0
    26ba:	f648 2215 	movw	r2, #35349	; 0x8a15
    26be:	f2c0 0200 	movt	r2, #0
    26c2:	f648 134c 	movw	r3, #35148	; 0x894c
    26c6:	f2c0 0300 	movt	r3, #0
    26ca:	f240 110f 	movw	r1, #271	; 0x10f
    26ce:	f002 fc38 	bl	4f42 <__assert_func>
    26d2:	9b01      	ldr	r3, [sp, #4]
    26d4:	f240 405c 	movw	r0, #1116	; 0x45c
    26d8:	f2c2 0000 	movt	r0, #8192	; 0x2000
    26dc:	f850 2023 	ldr.w	r2, [r0, r3, lsl #2]
    26e0:	f648 00b4 	movw	r0, #34996	; 0x88b4
    26e4:	f2c0 0000 	movt	r0, #0
    26e8:	f850 0023 	ldr.w	r0, [r0, r3, lsl #2]
    26ec:	f240 4180 	movw	r1, #1152	; 0x480
    26f0:	f2c2 0100 	movt	r1, #8192	; 0x2000
    26f4:	f851 1023 	ldr.w	r1, [r1, r3, lsl #2]
    26f8:	4790      	blx	r2
    26fa:	b002      	add	sp, #8
    26fc:	bd80      	pop	{r7, pc}

000026fe <FLEXCOMM8_DriverIRQHandler>:
    26fe:	b580      	push	{r7, lr}
    2700:	466f      	mov	r7, sp
    2702:	b082      	sub	sp, #8
    2704:	f24f 0000 	movw	r0, #61440	; 0xf000
    2708:	f2c4 0009 	movt	r0, #16393	; 0x4009
    270c:	f7ff fd8c 	bl	2228 <FLEXCOMM_GetInstance>
    2710:	4601      	mov	r1, r0
    2712:	4608      	mov	r0, r1
    2714:	9001      	str	r0, [sp, #4]
    2716:	f240 405c 	movw	r0, #1116	; 0x45c
    271a:	f2c2 0000 	movt	r0, #8192	; 0x2000
    271e:	f850 0021 	ldr.w	r0, [r0, r1, lsl #2]
    2722:	b108      	cbz	r0, 2728 <FLEXCOMM8_DriverIRQHandler+0x2a>
    2724:	e7ff      	b.n	2726 <FLEXCOMM8_DriverIRQHandler+0x28>
    2726:	e00f      	b.n	2748 <FLEXCOMM8_DriverIRQHandler+0x4a>
    2728:	f648 00d8 	movw	r0, #35032	; 0x88d8
    272c:	f2c0 0000 	movt	r0, #0
    2730:	f648 2230 	movw	r2, #35376	; 0x8a30
    2734:	f2c0 0200 	movt	r2, #0
    2738:	f648 134c 	movw	r3, #35148	; 0x894c
    273c:	f2c0 0300 	movt	r3, #0
    2740:	f240 111d 	movw	r1, #285	; 0x11d
    2744:	f002 fbfd 	bl	4f42 <__assert_func>
    2748:	9b01      	ldr	r3, [sp, #4]
    274a:	f240 405c 	movw	r0, #1116	; 0x45c
    274e:	f2c2 0000 	movt	r0, #8192	; 0x2000
    2752:	f850 2023 	ldr.w	r2, [r0, r3, lsl #2]
    2756:	f648 00b4 	movw	r0, #34996	; 0x88b4
    275a:	f2c0 0000 	movt	r0, #0
    275e:	f850 0023 	ldr.w	r0, [r0, r3, lsl #2]
    2762:	f240 4180 	movw	r1, #1152	; 0x480
    2766:	f2c2 0100 	movt	r1, #8192	; 0x2000
    276a:	f851 1023 	ldr.w	r1, [r1, r3, lsl #2]
    276e:	4790      	blx	r2
    2770:	b002      	add	sp, #8
    2772:	bd80      	pop	{r7, pc}

00002774 <FLEXCOMM_PeripheralIsPresent>:
    2774:	b083      	sub	sp, #12
    2776:	9001      	str	r0, [sp, #4]
    2778:	4608      	mov	r0, r1
    277a:	9002      	str	r0, [sp, #8]
    277c:	b919      	cbnz	r1, 2786 <FLEXCOMM_PeripheralIsPresent+0x12>
    277e:	e7ff      	b.n	2780 <FLEXCOMM_PeripheralIsPresent+0xc>
    2780:	2001      	movs	r0, #1
    2782:	9000      	str	r0, [sp, #0]
    2784:	e01f      	b.n	27c6 <FLEXCOMM_PeripheralIsPresent+0x52>
    2786:	9802      	ldr	r0, [sp, #8]
    2788:	b2c0      	uxtb	r0, r0
    278a:	2804      	cmp	r0, #4
    278c:	dc0c      	bgt.n	27a8 <FLEXCOMM_PeripheralIsPresent+0x34>
    278e:	e7ff      	b.n	2790 <FLEXCOMM_PeripheralIsPresent+0x1c>
    2790:	9a02      	ldr	r2, [sp, #8]
    2792:	9801      	ldr	r0, [sp, #4]
    2794:	f8d0 0ff8 	ldr.w	r0, [r0, #4088]	; 0xff8
    2798:	2103      	movs	r1, #3
    279a:	fa51 f182 	uxtab	r1, r1, r2
    279e:	40c8      	lsrs	r0, r1
    27a0:	f000 0001 	and.w	r0, r0, #1
    27a4:	9000      	str	r0, [sp, #0]
    27a6:	e00e      	b.n	27c6 <FLEXCOMM_PeripheralIsPresent+0x52>
    27a8:	9802      	ldr	r0, [sp, #8]
    27aa:	b2c0      	uxtb	r0, r0
    27ac:	2805      	cmp	r0, #5
    27ae:	d107      	bne.n	27c0 <FLEXCOMM_PeripheralIsPresent+0x4c>
    27b0:	e7ff      	b.n	27b2 <FLEXCOMM_PeripheralIsPresent+0x3e>
    27b2:	9801      	ldr	r0, [sp, #4]
    27b4:	f8d0 0ff8 	ldr.w	r0, [r0, #4088]	; 0xff8
    27b8:	b2c0      	uxtb	r0, r0
    27ba:	09c0      	lsrs	r0, r0, #7
    27bc:	9000      	str	r0, [sp, #0]
    27be:	e002      	b.n	27c6 <FLEXCOMM_PeripheralIsPresent+0x52>
    27c0:	2000      	movs	r0, #0
    27c2:	9000      	str	r0, [sp, #0]
    27c4:	e7ff      	b.n	27c6 <FLEXCOMM_PeripheralIsPresent+0x52>
    27c6:	9800      	ldr	r0, [sp, #0]
    27c8:	f000 0001 	and.w	r0, r0, #1
    27cc:	b003      	add	sp, #12
    27ce:	4770      	bx	lr

000027d0 <USART_Init>:
    27d0:	b5d0      	push	{r4, r6, r7, lr}
    27d2:	af02      	add	r7, sp, #8
    27d4:	b086      	sub	sp, #24
    27d6:	9203      	str	r2, [sp, #12]
    27d8:	9104      	str	r1, [sp, #16]
    27da:	9005      	str	r0, [sp, #20]
    27dc:	b138      	cbz	r0, 27ee <USART_Init+0x1e>
    27de:	e7ff      	b.n	27e0 <USART_Init+0x10>
    27e0:	9804      	ldr	r0, [sp, #16]
    27e2:	b120      	cbz	r0, 27ee <USART_Init+0x1e>
    27e4:	e7ff      	b.n	27e6 <USART_Init+0x16>
    27e6:	9803      	ldr	r0, [sp, #12]
    27e8:	b108      	cbz	r0, 27ee <USART_Init+0x1e>
    27ea:	e7ff      	b.n	27ec <USART_Init+0x1c>
    27ec:	e00e      	b.n	280c <USART_Init+0x3c>
    27ee:	f648 2084 	movw	r0, #35460	; 0x8a84
    27f2:	f2c0 0000 	movt	r0, #0
    27f6:	f648 3262 	movw	r2, #35682	; 0x8b62
    27fa:	f2c0 0200 	movt	r2, #0
    27fe:	f648 336d 	movw	r3, #35693	; 0x8b6d
    2802:	f2c0 0300 	movt	r3, #0
    2806:	21c6      	movs	r1, #198	; 0xc6
    2808:	f002 fb9b 	bl	4f42 <__assert_func>
    280c:	9805      	ldr	r0, [sp, #20]
    280e:	b130      	cbz	r0, 281e <USART_Init+0x4e>
    2810:	e7ff      	b.n	2812 <USART_Init+0x42>
    2812:	9804      	ldr	r0, [sp, #16]
    2814:	b118      	cbz	r0, 281e <USART_Init+0x4e>
    2816:	e7ff      	b.n	2818 <USART_Init+0x48>
    2818:	9803      	ldr	r0, [sp, #12]
    281a:	b918      	cbnz	r0, 2824 <USART_Init+0x54>
    281c:	e7ff      	b.n	281e <USART_Init+0x4e>
    281e:	2004      	movs	r0, #4
    2820:	9002      	str	r0, [sp, #8]
    2822:	e0b6      	b.n	2992 <USART_Init+0x1c2>
    2824:	9805      	ldr	r0, [sp, #20]
    2826:	2101      	movs	r1, #1
    2828:	f7ff fd32 	bl	2290 <FLEXCOMM_Init>
    282c:	4601      	mov	r1, r0
    282e:	9101      	str	r1, [sp, #4]
    2830:	b118      	cbz	r0, 283a <USART_Init+0x6a>
    2832:	e7ff      	b.n	2834 <USART_Init+0x64>
    2834:	9801      	ldr	r0, [sp, #4]
    2836:	9002      	str	r0, [sp, #8]
    2838:	e0ab      	b.n	2992 <USART_Init+0x1c2>
    283a:	9804      	ldr	r0, [sp, #16]
    283c:	7a40      	ldrb	r0, [r0, #9]
    283e:	07c0      	lsls	r0, r0, #31
    2840:	b1f0      	cbz	r0, 2880 <USART_Init+0xb0>
    2842:	e7ff      	b.n	2844 <USART_Init+0x74>
    2844:	9905      	ldr	r1, [sp, #20]
    2846:	9804      	ldr	r0, [sp, #16]
    2848:	f8d1 2e00 	ldr.w	r2, [r1, #3584]	; 0xe00
    284c:	f042 1201 	orr.w	r2, r2, #65537	; 0x10001
    2850:	f8c1 2e00 	str.w	r2, [r1, #3584]	; 0xe00
    2854:	f8d1 2e08 	ldr.w	r2, [r1, #3592]	; 0xe08
    2858:	f422 6270 	bic.w	r2, r2, #3840	; 0xf00
    285c:	f8c1 2e08 	str.w	r2, [r1, #3592]	; 0xe08
    2860:	7b40      	ldrb	r0, [r0, #13]
    2862:	f000 020f 	and.w	r2, r0, #15
    2866:	f8d1 0e08 	ldr.w	r0, [r1, #3592]	; 0xe08
    286a:	ea40 2002 	orr.w	r0, r0, r2, lsl #8
    286e:	f8c1 0e08 	str.w	r0, [r1, #3592]	; 0xe08
    2872:	f8d1 0e08 	ldr.w	r0, [r1, #3592]	; 0xe08
    2876:	f040 0001 	orr.w	r0, r0, #1
    287a:	f8c1 0e08 	str.w	r0, [r1, #3592]	; 0xe08
    287e:	e7ff      	b.n	2880 <USART_Init+0xb0>
    2880:	9804      	ldr	r0, [sp, #16]
    2882:	7a00      	ldrb	r0, [r0, #8]
    2884:	07c0      	lsls	r0, r0, #31
    2886:	b1f0      	cbz	r0, 28c6 <USART_Init+0xf6>
    2888:	e7ff      	b.n	288a <USART_Init+0xba>
    288a:	9905      	ldr	r1, [sp, #20]
    288c:	9804      	ldr	r0, [sp, #16]
    288e:	f8d1 2e00 	ldr.w	r2, [r1, #3584]	; 0xe00
    2892:	f042 1202 	orr.w	r2, r2, #131074	; 0x20002
    2896:	f8c1 2e00 	str.w	r2, [r1, #3584]	; 0xe00
    289a:	f8d1 2e08 	ldr.w	r2, [r1, #3592]	; 0xe08
    289e:	f422 2270 	bic.w	r2, r2, #983040	; 0xf0000
    28a2:	f8c1 2e08 	str.w	r2, [r1, #3592]	; 0xe08
    28a6:	7b80      	ldrb	r0, [r0, #14]
    28a8:	f000 020f 	and.w	r2, r0, #15
    28ac:	f8d1 0e08 	ldr.w	r0, [r1, #3592]	; 0xe08
    28b0:	ea40 4002 	orr.w	r0, r0, r2, lsl #16
    28b4:	f8c1 0e08 	str.w	r0, [r1, #3592]	; 0xe08
    28b8:	f8d1 0e08 	ldr.w	r0, [r1, #3592]	; 0xe08
    28bc:	f040 0002 	orr.w	r0, r0, #2
    28c0:	f8c1 0e08 	str.w	r0, [r1, #3592]	; 0xe08
    28c4:	e7ff      	b.n	28c6 <USART_Init+0xf6>
    28c6:	9804      	ldr	r0, [sp, #16]
    28c8:	9a05      	ldr	r2, [sp, #20]
    28ca:	f890 e004 	ldrb.w	lr, [r0, #4]
    28ce:	7944      	ldrb	r4, [r0, #5]
    28d0:	f890 c006 	ldrb.w	ip, [r0, #6]
    28d4:	79c3      	ldrb	r3, [r0, #7]
    28d6:	2140      	movs	r1, #64	; 0x40
    28d8:	ea01 1184 	and.w	r1, r1, r4, lsl #6
    28dc:	f36e 1105 	bfi	r1, lr, #4, #2
    28e0:	f00c 0c03 	and.w	ip, ip, #3
    28e4:	ea41 018c 	orr.w	r1, r1, ip, lsl #2
    28e8:	f003 0301 	and.w	r3, r3, #1
    28ec:	ea41 31c3 	orr.w	r1, r1, r3, lsl #15
    28f0:	7bc3      	ldrb	r3, [r0, #15]
    28f2:	f003 0c02 	and.w	ip, r3, #2
    28f6:	ea41 218c 	orr.w	r1, r1, ip, lsl #10
    28fa:	f003 0301 	and.w	r3, r3, #1
    28fe:	ea41 3183 	orr.w	r1, r1, r3, lsl #14
    2902:	7c03      	ldrb	r3, [r0, #16]
    2904:	f003 0301 	and.w	r3, r3, #1
    2908:	ea41 3103 	orr.w	r1, r1, r3, lsl #12
    290c:	7ac3      	ldrb	r3, [r0, #11]
    290e:	f003 0301 	and.w	r3, r3, #1
    2912:	ea41 11c3 	orr.w	r1, r1, r3, lsl #7
    2916:	7b03      	ldrb	r3, [r0, #12]
    2918:	f003 0301 	and.w	r3, r3, #1
    291c:	ea41 2143 	orr.w	r1, r1, r3, lsl #9
    2920:	f041 0101 	orr.w	r1, r1, #1
    2924:	6011      	str	r1, [r2, #0]
    2926:	7ac0      	ldrb	r0, [r0, #11]
    2928:	07c0      	lsls	r0, r0, #31
    292a:	b1d0      	cbz	r0, 2962 <USART_Init+0x192>
    292c:	e7ff      	b.n	292e <USART_Init+0x15e>
    292e:	9804      	ldr	r0, [sp, #16]
    2930:	6801      	ldr	r1, [r0, #0]
    2932:	f44f 5016 	mov.w	r0, #9600	; 0x2580
    2936:	fbb0 f0f1 	udiv	r0, r0, r1
    293a:	4348      	muls	r0, r1
    293c:	f5c0 5016 	rsb	r0, r0, #9600	; 0x2580
    2940:	b950      	cbnz	r0, 2958 <USART_Init+0x188>
    2942:	e7ff      	b.n	2944 <USART_Init+0x174>
    2944:	9905      	ldr	r1, [sp, #20]
    2946:	9804      	ldr	r0, [sp, #16]
    2948:	6802      	ldr	r2, [r0, #0]
    294a:	f44f 5016 	mov.w	r0, #9600	; 0x2580
    294e:	fbb0 f0f2 	udiv	r0, r0, r2
    2952:	3801      	subs	r0, #1
    2954:	6208      	str	r0, [r1, #32]
    2956:	e003      	b.n	2960 <USART_Init+0x190>
    2958:	f241 6051 	movw	r0, #5713	; 0x1651
    295c:	9002      	str	r0, [sp, #8]
    295e:	e018      	b.n	2992 <USART_Init+0x1c2>
    2960:	e00d      	b.n	297e <USART_Init+0x1ae>
    2962:	9a03      	ldr	r2, [sp, #12]
    2964:	9805      	ldr	r0, [sp, #20]
    2966:	9904      	ldr	r1, [sp, #16]
    2968:	6809      	ldr	r1, [r1, #0]
    296a:	f000 f815 	bl	2998 <USART_SetBaudRate>
    296e:	4601      	mov	r1, r0
    2970:	9100      	str	r1, [sp, #0]
    2972:	b118      	cbz	r0, 297c <USART_Init+0x1ac>
    2974:	e7ff      	b.n	2976 <USART_Init+0x1a6>
    2976:	9800      	ldr	r0, [sp, #0]
    2978:	9002      	str	r0, [sp, #8]
    297a:	e00a      	b.n	2992 <USART_Init+0x1c2>
    297c:	e7ff      	b.n	297e <USART_Init+0x1ae>
    297e:	9805      	ldr	r0, [sp, #20]
    2980:	9904      	ldr	r1, [sp, #16]
    2982:	7a89      	ldrb	r1, [r1, #10]
    2984:	f001 0101 	and.w	r1, r1, #1
    2988:	f000 f900 	bl	2b8c <USART_EnableContinuousSCLK>
    298c:	2000      	movs	r0, #0
    298e:	9002      	str	r0, [sp, #8]
    2990:	e7ff      	b.n	2992 <USART_Init+0x1c2>
    2992:	9802      	ldr	r0, [sp, #8]
    2994:	b006      	add	sp, #24
    2996:	bdd0      	pop	{r4, r6, r7, pc}

00002998 <USART_SetBaudRate>:
    2998:	b580      	push	{r7, lr}
    299a:	466f      	mov	r7, sp
    299c:	b09a      	sub	sp, #104	; 0x68
    299e:	9217      	str	r2, [sp, #92]	; 0x5c
    29a0:	9118      	str	r1, [sp, #96]	; 0x60
    29a2:	9019      	str	r0, [sp, #100]	; 0x64
    29a4:	b138      	cbz	r0, 29b6 <USART_SetBaudRate+0x1e>
    29a6:	e7ff      	b.n	29a8 <USART_SetBaudRate+0x10>
    29a8:	9818      	ldr	r0, [sp, #96]	; 0x60
    29aa:	b120      	cbz	r0, 29b6 <USART_SetBaudRate+0x1e>
    29ac:	e7ff      	b.n	29ae <USART_SetBaudRate+0x16>
    29ae:	9817      	ldr	r0, [sp, #92]	; 0x5c
    29b0:	b108      	cbz	r0, 29b6 <USART_SetBaudRate+0x1e>
    29b2:	e7ff      	b.n	29b4 <USART_SetBaudRate+0x1c>
    29b4:	e00f      	b.n	29d6 <USART_SetBaudRate+0x3e>
    29b6:	f648 2084 	movw	r0, #35460	; 0x8a84
    29ba:	f2c0 0000 	movt	r0, #0
    29be:	f648 32dd 	movw	r2, #35805	; 0x8bdd
    29c2:	f2c0 0200 	movt	r2, #0
    29c6:	f648 33ef 	movw	r3, #35823	; 0x8bef
    29ca:	f2c0 0300 	movt	r3, #0
    29ce:	f240 11af 	movw	r1, #431	; 0x1af
    29d2:	f002 fab6 	bl	4f42 <__assert_func>
    29d6:	9819      	ldr	r0, [sp, #100]	; 0x64
    29d8:	b130      	cbz	r0, 29e8 <USART_SetBaudRate+0x50>
    29da:	e7ff      	b.n	29dc <USART_SetBaudRate+0x44>
    29dc:	9818      	ldr	r0, [sp, #96]	; 0x60
    29de:	b118      	cbz	r0, 29e8 <USART_SetBaudRate+0x50>
    29e0:	e7ff      	b.n	29e2 <USART_SetBaudRate+0x4a>
    29e2:	9817      	ldr	r0, [sp, #92]	; 0x5c
    29e4:	b918      	cbnz	r0, 29ee <USART_SetBaudRate+0x56>
    29e6:	e7ff      	b.n	29e8 <USART_SetBaudRate+0x50>
    29e8:	2004      	movs	r0, #4
    29ea:	9016      	str	r0, [sp, #88]	; 0x58
    29ec:	e0cb      	b.n	2b86 <USART_SetBaudRate+0x1ee>
    29ee:	9819      	ldr	r0, [sp, #100]	; 0x64
    29f0:	6800      	ldr	r0, [r0, #0]
    29f2:	0500      	lsls	r0, r0, #20
    29f4:	2800      	cmp	r0, #0
    29f6:	d50f      	bpl.n	2a18 <USART_SetBaudRate+0x80>
    29f8:	e7ff      	b.n	29fa <USART_SetBaudRate+0x62>
    29fa:	9819      	ldr	r0, [sp, #100]	; 0x64
    29fc:	6800      	ldr	r0, [r0, #0]
    29fe:	0440      	lsls	r0, r0, #17
    2a00:	2800      	cmp	r0, #0
    2a02:	d508      	bpl.n	2a16 <USART_SetBaudRate+0x7e>
    2a04:	e7ff      	b.n	2a06 <USART_SetBaudRate+0x6e>
    2a06:	9919      	ldr	r1, [sp, #100]	; 0x64
    2a08:	9817      	ldr	r0, [sp, #92]	; 0x5c
    2a0a:	9a18      	ldr	r2, [sp, #96]	; 0x60
    2a0c:	fbb0 f0f2 	udiv	r0, r0, r2
    2a10:	3801      	subs	r0, #1
    2a12:	6208      	str	r0, [r1, #32]
    2a14:	e7ff      	b.n	2a16 <USART_SetBaudRate+0x7e>
    2a16:	e0b3      	b.n	2b80 <USART_SetBaudRate+0x1e8>
    2a18:	9818      	ldr	r0, [sp, #96]	; 0x60
    2a1a:	f248 511f 	movw	r1, #34079	; 0x851f
    2a1e:	f2c5 11eb 	movt	r1, #20971	; 0x51eb
    2a22:	fba0 1001 	umull	r1, r0, r0, r1
    2a26:	0940      	lsrs	r0, r0, #5
    2a28:	eb00 0240 	add.w	r2, r0, r0, lsl #1
    2a2c:	f04f 30ff 	mov.w	r0, #4294967295	; 0xffffffff
    2a30:	210f      	movs	r1, #15
    2a32:	9211      	str	r2, [sp, #68]	; 0x44
    2a34:	460a      	mov	r2, r1
    2a36:	9212      	str	r2, [sp, #72]	; 0x48
    2a38:	4602      	mov	r2, r0
    2a3a:	9213      	str	r2, [sp, #76]	; 0x4c
    2a3c:	9114      	str	r1, [sp, #80]	; 0x50
    2a3e:	9015      	str	r0, [sp, #84]	; 0x54
    2a40:	e7ff      	b.n	2a42 <USART_SetBaudRate+0xaa>
    2a42:	9812      	ldr	r0, [sp, #72]	; 0x48
    2a44:	9913      	ldr	r1, [sp, #76]	; 0x4c
    2a46:	9a14      	ldr	r2, [sp, #80]	; 0x50
    2a48:	9b15      	ldr	r3, [sp, #84]	; 0x54
    2a4a:	930d      	str	r3, [sp, #52]	; 0x34
    2a4c:	920e      	str	r2, [sp, #56]	; 0x38
    2a4e:	910f      	str	r1, [sp, #60]	; 0x3c
    2a50:	9010      	str	r0, [sp, #64]	; 0x40
    2a52:	2804      	cmp	r0, #4
    2a54:	d364      	bcc.n	2b20 <USART_SetBaudRate+0x188>
    2a56:	e7ff      	b.n	2a58 <USART_SetBaudRate+0xc0>
    2a58:	9810      	ldr	r0, [sp, #64]	; 0x40
    2a5a:	2808      	cmp	r0, #8
    2a5c:	d806      	bhi.n	2a6c <USART_SetBaudRate+0xd4>
    2a5e:	e7ff      	b.n	2a60 <USART_SetBaudRate+0xc8>
    2a60:	980d      	ldr	r0, [sp, #52]	; 0x34
    2a62:	9911      	ldr	r1, [sp, #68]	; 0x44
    2a64:	4288      	cmp	r0, r1
    2a66:	d801      	bhi.n	2a6c <USART_SetBaudRate+0xd4>
    2a68:	e7ff      	b.n	2a6a <USART_SetBaudRate+0xd2>
    2a6a:	e059      	b.n	2b20 <USART_SetBaudRate+0x188>
    2a6c:	9a18      	ldr	r2, [sp, #96]	; 0x60
    2a6e:	9910      	ldr	r1, [sp, #64]	; 0x40
    2a70:	9817      	ldr	r0, [sp, #92]	; 0x5c
    2a72:	eb00 0080 	add.w	r0, r0, r0, lsl #2
    2a76:	0040      	lsls	r0, r0, #1
    2a78:	3101      	adds	r1, #1
    2a7a:	4351      	muls	r1, r2
    2a7c:	fbb0 f0f1 	udiv	r0, r0, r1
    2a80:	3805      	subs	r0, #5
    2a82:	f64c 41cd 	movw	r1, #52429	; 0xcccd
    2a86:	f6cc 41cc 	movt	r1, #52428	; 0xcccc
    2a8a:	fba0 1001 	umull	r1, r0, r0, r1
    2a8e:	08c0      	lsrs	r0, r0, #3
    2a90:	4601      	mov	r1, r0
    2a92:	910c      	str	r1, [sp, #48]	; 0x30
    2a94:	f5b0 3f80 	cmp.w	r0, #65536	; 0x10000
    2a98:	d307      	bcc.n	2aaa <USART_SetBaudRate+0x112>
    2a9a:	e7ff      	b.n	2a9c <USART_SetBaudRate+0x104>
    2a9c:	980d      	ldr	r0, [sp, #52]	; 0x34
    2a9e:	990e      	ldr	r1, [sp, #56]	; 0x38
    2aa0:	9a0f      	ldr	r2, [sp, #60]	; 0x3c
    2aa2:	9209      	str	r2, [sp, #36]	; 0x24
    2aa4:	910a      	str	r1, [sp, #40]	; 0x28
    2aa6:	900b      	str	r0, [sp, #44]	; 0x2c
    2aa8:	e030      	b.n	2b0c <USART_SetBaudRate+0x174>
    2aaa:	9818      	ldr	r0, [sp, #96]	; 0x60
    2aac:	9917      	ldr	r1, [sp, #92]	; 0x5c
    2aae:	9b0c      	ldr	r3, [sp, #48]	; 0x30
    2ab0:	9a10      	ldr	r2, [sp, #64]	; 0x40
    2ab2:	3201      	adds	r2, #1
    2ab4:	3301      	adds	r3, #1
    2ab6:	435a      	muls	r2, r3
    2ab8:	fbb1 f1f2 	udiv	r1, r1, r2
    2abc:	460a      	mov	r2, r1
    2abe:	9208      	str	r2, [sp, #32]
    2ac0:	4288      	cmp	r0, r1
    2ac2:	d205      	bcs.n	2ad0 <USART_SetBaudRate+0x138>
    2ac4:	e7ff      	b.n	2ac6 <USART_SetBaudRate+0x12e>
    2ac6:	9808      	ldr	r0, [sp, #32]
    2ac8:	9918      	ldr	r1, [sp, #96]	; 0x60
    2aca:	1a40      	subs	r0, r0, r1
    2acc:	9007      	str	r0, [sp, #28]
    2ace:	e004      	b.n	2ada <USART_SetBaudRate+0x142>
    2ad0:	9818      	ldr	r0, [sp, #96]	; 0x60
    2ad2:	9908      	ldr	r1, [sp, #32]
    2ad4:	1a40      	subs	r0, r0, r1
    2ad6:	9007      	str	r0, [sp, #28]
    2ad8:	e7ff      	b.n	2ada <USART_SetBaudRate+0x142>
    2ada:	980d      	ldr	r0, [sp, #52]	; 0x34
    2adc:	990e      	ldr	r1, [sp, #56]	; 0x38
    2ade:	9a0f      	ldr	r2, [sp, #60]	; 0x3c
    2ae0:	9b07      	ldr	r3, [sp, #28]
    2ae2:	9303      	str	r3, [sp, #12]
    2ae4:	4283      	cmp	r3, r0
    2ae6:	9204      	str	r2, [sp, #16]
    2ae8:	9105      	str	r1, [sp, #20]
    2aea:	9006      	str	r0, [sp, #24]
    2aec:	d207      	bcs.n	2afe <USART_SetBaudRate+0x166>
    2aee:	e7ff      	b.n	2af0 <USART_SetBaudRate+0x158>
    2af0:	9803      	ldr	r0, [sp, #12]
    2af2:	9910      	ldr	r1, [sp, #64]	; 0x40
    2af4:	9a0c      	ldr	r2, [sp, #48]	; 0x30
    2af6:	9204      	str	r2, [sp, #16]
    2af8:	9105      	str	r1, [sp, #20]
    2afa:	9006      	str	r0, [sp, #24]
    2afc:	e7ff      	b.n	2afe <USART_SetBaudRate+0x166>
    2afe:	9a04      	ldr	r2, [sp, #16]
    2b00:	9905      	ldr	r1, [sp, #20]
    2b02:	9806      	ldr	r0, [sp, #24]
    2b04:	9209      	str	r2, [sp, #36]	; 0x24
    2b06:	910a      	str	r1, [sp, #40]	; 0x28
    2b08:	900b      	str	r0, [sp, #44]	; 0x2c
    2b0a:	e7ff      	b.n	2b0c <USART_SetBaudRate+0x174>
    2b0c:	9b10      	ldr	r3, [sp, #64]	; 0x40
    2b0e:	9a09      	ldr	r2, [sp, #36]	; 0x24
    2b10:	990a      	ldr	r1, [sp, #40]	; 0x28
    2b12:	980b      	ldr	r0, [sp, #44]	; 0x2c
    2b14:	3b01      	subs	r3, #1
    2b16:	9312      	str	r3, [sp, #72]	; 0x48
    2b18:	9213      	str	r2, [sp, #76]	; 0x4c
    2b1a:	9114      	str	r1, [sp, #80]	; 0x50
    2b1c:	9015      	str	r0, [sp, #84]	; 0x54
    2b1e:	e790      	b.n	2a42 <USART_SetBaudRate+0xaa>
    2b20:	9818      	ldr	r0, [sp, #96]	; 0x60
    2b22:	9917      	ldr	r1, [sp, #92]	; 0x5c
    2b24:	9b0f      	ldr	r3, [sp, #60]	; 0x3c
    2b26:	9a0e      	ldr	r2, [sp, #56]	; 0x38
    2b28:	3201      	adds	r2, #1
    2b2a:	3301      	adds	r3, #1
    2b2c:	435a      	muls	r2, r3
    2b2e:	fbb1 f1f2 	udiv	r1, r1, r2
    2b32:	460a      	mov	r2, r1
    2b34:	9202      	str	r2, [sp, #8]
    2b36:	4288      	cmp	r0, r1
    2b38:	d205      	bcs.n	2b46 <USART_SetBaudRate+0x1ae>
    2b3a:	e7ff      	b.n	2b3c <USART_SetBaudRate+0x1a4>
    2b3c:	9802      	ldr	r0, [sp, #8]
    2b3e:	9918      	ldr	r1, [sp, #96]	; 0x60
    2b40:	1a40      	subs	r0, r0, r1
    2b42:	9001      	str	r0, [sp, #4]
    2b44:	e004      	b.n	2b50 <USART_SetBaudRate+0x1b8>
    2b46:	9818      	ldr	r0, [sp, #96]	; 0x60
    2b48:	9902      	ldr	r1, [sp, #8]
    2b4a:	1a40      	subs	r0, r0, r1
    2b4c:	9001      	str	r0, [sp, #4]
    2b4e:	e7ff      	b.n	2b50 <USART_SetBaudRate+0x1b8>
    2b50:	9911      	ldr	r1, [sp, #68]	; 0x44
    2b52:	9801      	ldr	r0, [sp, #4]
    2b54:	4288      	cmp	r0, r1
    2b56:	d904      	bls.n	2b62 <USART_SetBaudRate+0x1ca>
    2b58:	e7ff      	b.n	2b5a <USART_SetBaudRate+0x1c2>
    2b5a:	f241 6051 	movw	r0, #5713	; 0x1651
    2b5e:	9016      	str	r0, [sp, #88]	; 0x58
    2b60:	e011      	b.n	2b86 <USART_SetBaudRate+0x1ee>
    2b62:	980f      	ldr	r0, [sp, #60]	; 0x3c
    2b64:	f5b0 3f80 	cmp.w	r0, #65536	; 0x10000
    2b68:	d304      	bcc.n	2b74 <USART_SetBaudRate+0x1dc>
    2b6a:	e7ff      	b.n	2b6c <USART_SetBaudRate+0x1d4>
    2b6c:	f241 6051 	movw	r0, #5713	; 0x1651
    2b70:	9016      	str	r0, [sp, #88]	; 0x58
    2b72:	e008      	b.n	2b86 <USART_SetBaudRate+0x1ee>
    2b74:	980f      	ldr	r0, [sp, #60]	; 0x3c
    2b76:	9919      	ldr	r1, [sp, #100]	; 0x64
    2b78:	9a0e      	ldr	r2, [sp, #56]	; 0x38
    2b7a:	628a      	str	r2, [r1, #40]	; 0x28
    2b7c:	6208      	str	r0, [r1, #32]
    2b7e:	e7ff      	b.n	2b80 <USART_SetBaudRate+0x1e8>
    2b80:	2000      	movs	r0, #0
    2b82:	9016      	str	r0, [sp, #88]	; 0x58
    2b84:	e7ff      	b.n	2b86 <USART_SetBaudRate+0x1ee>
    2b86:	9816      	ldr	r0, [sp, #88]	; 0x58
    2b88:	b01a      	add	sp, #104	; 0x68
    2b8a:	bd80      	pop	{r7, pc}

00002b8c <USART_EnableContinuousSCLK>:
    2b8c:	b081      	sub	sp, #4
    2b8e:	9000      	str	r0, [sp, #0]
    2b90:	b131      	cbz	r1, 2ba0 <USART_EnableContinuousSCLK+0x14>
    2b92:	e7ff      	b.n	2b94 <USART_EnableContinuousSCLK+0x8>
    2b94:	9900      	ldr	r1, [sp, #0]
    2b96:	6848      	ldr	r0, [r1, #4]
    2b98:	f440 7080 	orr.w	r0, r0, #256	; 0x100
    2b9c:	6048      	str	r0, [r1, #4]
    2b9e:	e005      	b.n	2bac <USART_EnableContinuousSCLK+0x20>
    2ba0:	9900      	ldr	r1, [sp, #0]
    2ba2:	6848      	ldr	r0, [r1, #4]
    2ba4:	f420 7080 	bic.w	r0, r0, #256	; 0x100
    2ba8:	6048      	str	r0, [r1, #4]
    2baa:	e7ff      	b.n	2bac <USART_EnableContinuousSCLK+0x20>
    2bac:	b001      	add	sp, #4
    2bae:	4770      	bx	lr

00002bb0 <USART_GetDefaultConfig>:
    2bb0:	b580      	push	{r7, lr}
    2bb2:	466f      	mov	r7, sp
    2bb4:	b082      	sub	sp, #8
    2bb6:	9001      	str	r0, [sp, #4]
    2bb8:	b108      	cbz	r0, 2bbe <USART_GetDefaultConfig+0xe>
    2bba:	e7ff      	b.n	2bbc <USART_GetDefaultConfig+0xc>
    2bbc:	e00f      	b.n	2bde <USART_GetDefaultConfig+0x2e>
    2bbe:	f648 2084 	movw	r0, #35460	; 0x8a84
    2bc2:	f2c0 0000 	movt	r0, #0
    2bc6:	f648 32b7 	movw	r2, #35767	; 0x8bb7
    2bca:	f2c0 0200 	movt	r2, #0
    2bce:	f648 33ce 	movw	r3, #35790	; 0x8bce
    2bd2:	f2c0 0300 	movt	r3, #0
    2bd6:	f44f 719b 	mov.w	r1, #310	; 0x136
    2bda:	f002 f9b2 	bl	4f42 <__assert_func>
    2bde:	9801      	ldr	r0, [sp, #4]
    2be0:	2100      	movs	r1, #0
    2be2:	9100      	str	r1, [sp, #0]
    2be4:	2214      	movs	r2, #20
    2be6:	f005 fc79 	bl	84dc <memset>
    2bea:	9901      	ldr	r1, [sp, #4]
    2bec:	9800      	ldr	r0, [sp, #0]
    2bee:	f44f 32e1 	mov.w	r2, #115200	; 0x1c200
    2bf2:	600a      	str	r2, [r1, #0]
    2bf4:	7108      	strb	r0, [r1, #4]
    2bf6:	7148      	strb	r0, [r1, #5]
    2bf8:	2201      	movs	r2, #1
    2bfa:	718a      	strb	r2, [r1, #6]
    2bfc:	71c8      	strb	r0, [r1, #7]
    2bfe:	7208      	strb	r0, [r1, #8]
    2c00:	7248      	strb	r0, [r1, #9]
    2c02:	72c8      	strb	r0, [r1, #11]
    2c04:	7348      	strb	r0, [r1, #13]
    2c06:	7388      	strb	r0, [r1, #14]
    2c08:	73c8      	strb	r0, [r1, #15]
    2c0a:	7288      	strb	r0, [r1, #10]
    2c0c:	7408      	strb	r0, [r1, #16]
    2c0e:	7308      	strb	r0, [r1, #12]
    2c10:	b002      	add	sp, #8
    2c12:	bd80      	pop	{r7, pc}

00002c14 <USART_WriteBlocking>:
    2c14:	b580      	push	{r7, lr}
    2c16:	466f      	mov	r7, sp
    2c18:	b08a      	sub	sp, #40	; 0x28
    2c1a:	9207      	str	r2, [sp, #28]
    2c1c:	9108      	str	r1, [sp, #32]
    2c1e:	9009      	str	r0, [sp, #36]	; 0x24
    2c20:	b120      	cbz	r0, 2c2c <USART_WriteBlocking+0x18>
    2c22:	e7ff      	b.n	2c24 <USART_WriteBlocking+0x10>
    2c24:	9808      	ldr	r0, [sp, #32]
    2c26:	b108      	cbz	r0, 2c2c <USART_WriteBlocking+0x18>
    2c28:	e7ff      	b.n	2c2a <USART_WriteBlocking+0x16>
    2c2a:	e00f      	b.n	2c4c <USART_WriteBlocking+0x38>
    2c2c:	f648 2084 	movw	r0, #35460	; 0x8a84
    2c30:	f2c0 0000 	movt	r0, #0
    2c34:	f648 4264 	movw	r2, #35940	; 0x8c64
    2c38:	f2c0 0200 	movt	r2, #0
    2c3c:	f648 4378 	movw	r3, #35960	; 0x8c78
    2c40:	f2c0 0300 	movt	r3, #0
    2c44:	f240 215b 	movw	r1, #603	; 0x25b
    2c48:	f002 f97b 	bl	4f42 <__assert_func>
    2c4c:	9809      	ldr	r0, [sp, #36]	; 0x24
    2c4e:	b118      	cbz	r0, 2c58 <USART_WriteBlocking+0x44>
    2c50:	e7ff      	b.n	2c52 <USART_WriteBlocking+0x3e>
    2c52:	9808      	ldr	r0, [sp, #32]
    2c54:	b918      	cbnz	r0, 2c5e <USART_WriteBlocking+0x4a>
    2c56:	e7ff      	b.n	2c58 <USART_WriteBlocking+0x44>
    2c58:	2004      	movs	r0, #4
    2c5a:	9006      	str	r0, [sp, #24]
    2c5c:	e035      	b.n	2cca <USART_WriteBlocking+0xb6>
    2c5e:	9809      	ldr	r0, [sp, #36]	; 0x24
    2c60:	f8d0 0e00 	ldr.w	r0, [r0, #3584]	; 0xe00
    2c64:	07c0      	lsls	r0, r0, #31
    2c66:	b918      	cbnz	r0, 2c70 <USART_WriteBlocking+0x5c>
    2c68:	e7ff      	b.n	2c6a <USART_WriteBlocking+0x56>
    2c6a:	2004      	movs	r0, #4
    2c6c:	9006      	str	r0, [sp, #24]
    2c6e:	e02c      	b.n	2cca <USART_WriteBlocking+0xb6>
    2c70:	9807      	ldr	r0, [sp, #28]
    2c72:	9908      	ldr	r1, [sp, #32]
    2c74:	9104      	str	r1, [sp, #16]
    2c76:	9005      	str	r0, [sp, #20]
    2c78:	e7ff      	b.n	2c7a <USART_WriteBlocking+0x66>
    2c7a:	9904      	ldr	r1, [sp, #16]
    2c7c:	9805      	ldr	r0, [sp, #20]
    2c7e:	9002      	str	r0, [sp, #8]
    2c80:	9103      	str	r1, [sp, #12]
    2c82:	b1b8      	cbz	r0, 2cb4 <USART_WriteBlocking+0xa0>
    2c84:	e7ff      	b.n	2c86 <USART_WriteBlocking+0x72>
    2c86:	e7ff      	b.n	2c88 <USART_WriteBlocking+0x74>
    2c88:	9809      	ldr	r0, [sp, #36]	; 0x24
    2c8a:	f8d0 0e04 	ldr.w	r0, [r0, #3588]	; 0xe04
    2c8e:	0680      	lsls	r0, r0, #26
    2c90:	2800      	cmp	r0, #0
    2c92:	d401      	bmi.n	2c98 <USART_WriteBlocking+0x84>
    2c94:	e7ff      	b.n	2c96 <USART_WriteBlocking+0x82>
    2c96:	e7f7      	b.n	2c88 <USART_WriteBlocking+0x74>
    2c98:	9909      	ldr	r1, [sp, #36]	; 0x24
    2c9a:	9a03      	ldr	r2, [sp, #12]
    2c9c:	f812 0b01 	ldrb.w	r0, [r2], #1
    2ca0:	9201      	str	r2, [sp, #4]
    2ca2:	f8c1 0e20 	str.w	r0, [r1, #3616]	; 0xe20
    2ca6:	e7ff      	b.n	2ca8 <USART_WriteBlocking+0x94>
    2ca8:	9901      	ldr	r1, [sp, #4]
    2caa:	9802      	ldr	r0, [sp, #8]
    2cac:	3801      	subs	r0, #1
    2cae:	9104      	str	r1, [sp, #16]
    2cb0:	9005      	str	r0, [sp, #20]
    2cb2:	e7e2      	b.n	2c7a <USART_WriteBlocking+0x66>
    2cb4:	e7ff      	b.n	2cb6 <USART_WriteBlocking+0xa2>
    2cb6:	9809      	ldr	r0, [sp, #36]	; 0x24
    2cb8:	6880      	ldr	r0, [r0, #8]
    2cba:	0700      	lsls	r0, r0, #28
    2cbc:	2800      	cmp	r0, #0
    2cbe:	d401      	bmi.n	2cc4 <USART_WriteBlocking+0xb0>
    2cc0:	e7ff      	b.n	2cc2 <USART_WriteBlocking+0xae>
    2cc2:	e7f8      	b.n	2cb6 <USART_WriteBlocking+0xa2>
    2cc4:	2000      	movs	r0, #0
    2cc6:	9006      	str	r0, [sp, #24]
    2cc8:	e7ff      	b.n	2cca <USART_WriteBlocking+0xb6>
    2cca:	9806      	ldr	r0, [sp, #24]
    2ccc:	b00a      	add	sp, #40	; 0x28
    2cce:	bd80      	pop	{r7, pc}

00002cd0 <I2C_MasterInit>:
    2cd0:	b580      	push	{r7, lr}
    2cd2:	466f      	mov	r7, sp
    2cd4:	b084      	sub	sp, #16
    2cd6:	9202      	str	r2, [sp, #8]
    2cd8:	9103      	str	r1, [sp, #12]
    2cda:	9001      	str	r0, [sp, #4]
    2cdc:	2103      	movs	r1, #3
    2cde:	f7ff fad7 	bl	2290 <FLEXCOMM_Init>
    2ce2:	9903      	ldr	r1, [sp, #12]
    2ce4:	9801      	ldr	r0, [sp, #4]
    2ce6:	7809      	ldrb	r1, [r1, #0]
    2ce8:	f001 0101 	and.w	r1, r1, #1
    2cec:	f000 f823 	bl	2d36 <I2C_MasterEnable>
    2cf0:	9801      	ldr	r0, [sp, #4]
    2cf2:	9a02      	ldr	r2, [sp, #8]
    2cf4:	9903      	ldr	r1, [sp, #12]
    2cf6:	6849      	ldr	r1, [r1, #4]
    2cf8:	f000 f835 	bl	2d66 <I2C_MasterSetBaudRate>
    2cfc:	9903      	ldr	r1, [sp, #12]
    2cfe:	7a08      	ldrb	r0, [r1, #8]
    2d00:	07c0      	lsls	r0, r0, #31
    2d02:	b140      	cbz	r0, 2d16 <I2C_MasterInit+0x46>
    2d04:	e7ff      	b.n	2d06 <I2C_MasterInit+0x36>
    2d06:	9901      	ldr	r1, [sp, #4]
    2d08:	f8d1 0800 	ldr.w	r0, [r1, #2048]	; 0x800
    2d0c:	f040 0008 	orr.w	r0, r0, #8
    2d10:	f8c1 0800 	str.w	r0, [r1, #2048]	; 0x800
    2d14:	e007      	b.n	2d26 <I2C_MasterInit+0x56>
    2d16:	9901      	ldr	r1, [sp, #4]
    2d18:	f8d1 0800 	ldr.w	r0, [r1, #2048]	; 0x800
    2d1c:	f020 0008 	bic.w	r0, r0, #8
    2d20:	f8c1 0800 	str.w	r0, [r1, #2048]	; 0x800
    2d24:	e7ff      	b.n	2d26 <I2C_MasterInit+0x56>
    2d26:	9a02      	ldr	r2, [sp, #8]
    2d28:	9801      	ldr	r0, [sp, #4]
    2d2a:	9903      	ldr	r1, [sp, #12]
    2d2c:	7a49      	ldrb	r1, [r1, #9]
    2d2e:	f000 f8e0 	bl	2ef2 <I2C_MasterSetTimeoutValue>
    2d32:	b004      	add	sp, #16
    2d34:	bd80      	pop	{r7, pc}

00002d36 <I2C_MasterEnable>:
    2d36:	b081      	sub	sp, #4
    2d38:	9000      	str	r0, [sp, #0]
    2d3a:	b151      	cbz	r1, 2d52 <I2C_MasterEnable+0x1c>
    2d3c:	e7ff      	b.n	2d3e <I2C_MasterEnable+0x8>
    2d3e:	9900      	ldr	r1, [sp, #0]
    2d40:	f8d1 0800 	ldr.w	r0, [r1, #2048]	; 0x800
    2d44:	f040 0001 	orr.w	r0, r0, #1
    2d48:	f000 001f 	and.w	r0, r0, #31
    2d4c:	f8c1 0800 	str.w	r0, [r1, #2048]	; 0x800
    2d50:	e007      	b.n	2d62 <I2C_MasterEnable+0x2c>
    2d52:	9900      	ldr	r1, [sp, #0]
    2d54:	f8d1 0800 	ldr.w	r0, [r1, #2048]	; 0x800
    2d58:	f000 001e 	and.w	r0, r0, #30
    2d5c:	f8c1 0800 	str.w	r0, [r1, #2048]	; 0x800
    2d60:	e7ff      	b.n	2d62 <I2C_MasterEnable+0x2c>
    2d62:	b001      	add	sp, #4
    2d64:	4770      	bx	lr

00002d66 <I2C_MasterSetBaudRate>:
    2d66:	b099      	sub	sp, #100	; 0x64
    2d68:	9215      	str	r2, [sp, #84]	; 0x54
    2d6a:	460a      	mov	r2, r1
    2d6c:	9915      	ldr	r1, [sp, #84]	; 0x54
    2d6e:	9216      	str	r2, [sp, #88]	; 0x58
    2d70:	9017      	str	r0, [sp, #92]	; 0x5c
    2d72:	eb01 0081 	add.w	r0, r1, r1, lsl #2
    2d76:	0040      	lsls	r0, r0, #1
    2d78:	f64d 6383 	movw	r3, #56963	; 0xde83
    2d7c:	f2c4 331b 	movt	r3, #17179	; 0x431b
    2d80:	fba0 0303 	umull	r0, r3, r0, r3
    2d84:	2005      	movs	r0, #5
    2d86:	eb00 40d3 	add.w	r0, r0, r3, lsr #19
    2d8a:	f64c 43cd 	movw	r3, #52429	; 0xcccd
    2d8e:	f6cc 43cc 	movt	r3, #52428	; 0xcccc
    2d92:	fba0 3003 	umull	r3, r0, r0, r3
    2d96:	08c3      	lsrs	r3, r0, #3
    2d98:	4618      	mov	r0, r3
    2d9a:	fbb1 f1f3 	udiv	r1, r1, r3
    2d9e:	fbb1 f1f2 	udiv	r1, r1, r2
    2da2:	2903      	cmp	r1, #3
    2da4:	9018      	str	r0, [sp, #96]	; 0x60
    2da6:	d807      	bhi.n	2db8 <I2C_MasterSetBaudRate+0x52>
    2da8:	e7ff      	b.n	2daa <I2C_MasterSetBaudRate+0x44>
    2daa:	9916      	ldr	r1, [sp, #88]	; 0x58
    2dac:	9815      	ldr	r0, [sp, #84]	; 0x54
    2dae:	0880      	lsrs	r0, r0, #2
    2db0:	fbb0 f0f1 	udiv	r0, r0, r1
    2db4:	9018      	str	r0, [sp, #96]	; 0x60
    2db6:	e7ff      	b.n	2db8 <I2C_MasterSetBaudRate+0x52>
    2db8:	9918      	ldr	r1, [sp, #96]	; 0x60
    2dba:	2000      	movs	r0, #0
    2dbc:	9111      	str	r1, [sp, #68]	; 0x44
    2dbe:	4601      	mov	r1, r0
    2dc0:	9112      	str	r1, [sp, #72]	; 0x48
    2dc2:	4601      	mov	r1, r0
    2dc4:	9113      	str	r1, [sp, #76]	; 0x4c
    2dc6:	9014      	str	r0, [sp, #80]	; 0x50
    2dc8:	e7ff      	b.n	2dca <I2C_MasterSetBaudRate+0x64>
    2dca:	9a11      	ldr	r2, [sp, #68]	; 0x44
    2dcc:	9b12      	ldr	r3, [sp, #72]	; 0x48
    2dce:	9913      	ldr	r1, [sp, #76]	; 0x4c
    2dd0:	9814      	ldr	r0, [sp, #80]	; 0x50
    2dd2:	900b      	str	r0, [sp, #44]	; 0x2c
    2dd4:	910c      	str	r1, [sp, #48]	; 0x30
    2dd6:	930d      	str	r3, [sp, #52]	; 0x34
    2dd8:	920e      	str	r2, [sp, #56]	; 0x38
    2dda:	f5b2 3f80 	cmp.w	r2, #65536	; 0x10000
    2dde:	910f      	str	r1, [sp, #60]	; 0x3c
    2de0:	9010      	str	r0, [sp, #64]	; 0x40
    2de2:	d859      	bhi.n	2e98 <I2C_MasterSetBaudRate+0x132>
    2de4:	e7ff      	b.n	2de6 <I2C_MasterSetBaudRate+0x80>
    2de6:	990e      	ldr	r1, [sp, #56]	; 0x38
    2de8:	9a16      	ldr	r2, [sp, #88]	; 0x58
    2dea:	9815      	ldr	r0, [sp, #84]	; 0x54
    2dec:	eb00 0080 	add.w	r0, r0, r0, lsl #2
    2df0:	0040      	lsls	r0, r0, #1
    2df2:	4351      	muls	r1, r2
    2df4:	fbb0 f0f1 	udiv	r0, r0, r1
    2df8:	3005      	adds	r0, #5
    2dfa:	f64c 41cd 	movw	r1, #52429	; 0xcccd
    2dfe:	f6cc 41cc 	movt	r1, #52428	; 0xcccc
    2e02:	fba0 1001 	umull	r1, r0, r0, r1
    2e06:	08c0      	lsrs	r0, r0, #3
    2e08:	4601      	mov	r1, r0
    2e0a:	910a      	str	r1, [sp, #40]	; 0x28
    2e0c:	2813      	cmp	r0, #19
    2e0e:	d303      	bcc.n	2e18 <I2C_MasterSetBaudRate+0xb2>
    2e10:	e7ff      	b.n	2e12 <I2C_MasterSetBaudRate+0xac>
    2e12:	2012      	movs	r0, #18
    2e14:	9009      	str	r0, [sp, #36]	; 0x24
    2e16:	e002      	b.n	2e1e <I2C_MasterSetBaudRate+0xb8>
    2e18:	980a      	ldr	r0, [sp, #40]	; 0x28
    2e1a:	9009      	str	r0, [sp, #36]	; 0x24
    2e1c:	e7ff      	b.n	2e1e <I2C_MasterSetBaudRate+0xb8>
    2e1e:	990d      	ldr	r1, [sp, #52]	; 0x34
    2e20:	9a0e      	ldr	r2, [sp, #56]	; 0x38
    2e22:	9b15      	ldr	r3, [sp, #84]	; 0x54
    2e24:	9816      	ldr	r0, [sp, #88]	; 0x58
    2e26:	f8dd c024 	ldr.w	ip, [sp, #36]	; 0x24
    2e2a:	f8cd c01c 	str.w	ip, [sp, #28]
    2e2e:	fb00 f00c 	mul.w	r0, r0, ip
    2e32:	fb00 3012 	mls	r0, r0, r2, r3
    2e36:	4602      	mov	r2, r0
    2e38:	9208      	str	r2, [sp, #32]
    2e3a:	4288      	cmp	r0, r1
    2e3c:	d308      	bcc.n	2e50 <I2C_MasterSetBaudRate+0xea>
    2e3e:	e7ff      	b.n	2e40 <I2C_MasterSetBaudRate+0xda>
    2e40:	980b      	ldr	r0, [sp, #44]	; 0x2c
    2e42:	990c      	ldr	r1, [sp, #48]	; 0x30
    2e44:	9a0d      	ldr	r2, [sp, #52]	; 0x34
    2e46:	9204      	str	r2, [sp, #16]
    2e48:	9105      	str	r1, [sp, #20]
    2e4a:	9006      	str	r0, [sp, #24]
    2e4c:	b93a      	cbnz	r2, 2e5e <I2C_MasterSetBaudRate+0xf8>
    2e4e:	e7ff      	b.n	2e50 <I2C_MasterSetBaudRate+0xea>
    2e50:	980e      	ldr	r0, [sp, #56]	; 0x38
    2e52:	9907      	ldr	r1, [sp, #28]
    2e54:	9a08      	ldr	r2, [sp, #32]
    2e56:	9204      	str	r2, [sp, #16]
    2e58:	9105      	str	r1, [sp, #20]
    2e5a:	9006      	str	r0, [sp, #24]
    2e5c:	e7ff      	b.n	2e5e <I2C_MasterSetBaudRate+0xf8>
    2e5e:	9808      	ldr	r0, [sp, #32]
    2e60:	9904      	ldr	r1, [sp, #16]
    2e62:	9a05      	ldr	r2, [sp, #20]
    2e64:	9b06      	ldr	r3, [sp, #24]
    2e66:	9301      	str	r3, [sp, #4]
    2e68:	9202      	str	r2, [sp, #8]
    2e6a:	9103      	str	r1, [sp, #12]
    2e6c:	b120      	cbz	r0, 2e78 <I2C_MasterSetBaudRate+0x112>
    2e6e:	e7ff      	b.n	2e70 <I2C_MasterSetBaudRate+0x10a>
    2e70:	9807      	ldr	r0, [sp, #28]
    2e72:	2804      	cmp	r0, #4
    2e74:	d805      	bhi.n	2e82 <I2C_MasterSetBaudRate+0x11c>
    2e76:	e7ff      	b.n	2e78 <I2C_MasterSetBaudRate+0x112>
    2e78:	9801      	ldr	r0, [sp, #4]
    2e7a:	9902      	ldr	r1, [sp, #8]
    2e7c:	910f      	str	r1, [sp, #60]	; 0x3c
    2e7e:	9010      	str	r0, [sp, #64]	; 0x40
    2e80:	e00a      	b.n	2e98 <I2C_MasterSetBaudRate+0x132>
    2e82:	e7ff      	b.n	2e84 <I2C_MasterSetBaudRate+0x11e>
    2e84:	9801      	ldr	r0, [sp, #4]
    2e86:	9902      	ldr	r1, [sp, #8]
    2e88:	9a03      	ldr	r2, [sp, #12]
    2e8a:	9b0e      	ldr	r3, [sp, #56]	; 0x38
    2e8c:	3301      	adds	r3, #1
    2e8e:	9311      	str	r3, [sp, #68]	; 0x44
    2e90:	9212      	str	r2, [sp, #72]	; 0x48
    2e92:	9113      	str	r1, [sp, #76]	; 0x4c
    2e94:	9014      	str	r0, [sp, #80]	; 0x50
    2e96:	e798      	b.n	2dca <I2C_MasterSetBaudRate+0x64>
    2e98:	9a17      	ldr	r2, [sp, #92]	; 0x5c
    2e9a:	980f      	ldr	r0, [sp, #60]	; 0x3c
    2e9c:	9910      	ldr	r1, [sp, #64]	; 0x40
    2e9e:	9000      	str	r0, [sp, #0]
    2ea0:	3901      	subs	r1, #1
    2ea2:	b289      	uxth	r1, r1
    2ea4:	f8c2 1814 	str.w	r1, [r2, #2068]	; 0x814
    2ea8:	07c0      	lsls	r0, r0, #31
    2eaa:	b968      	cbnz	r0, 2ec8 <I2C_MasterSetBaudRate+0x162>
    2eac:	e7ff      	b.n	2eae <I2C_MasterSetBaudRate+0x148>
    2eae:	9917      	ldr	r1, [sp, #92]	; 0x5c
    2eb0:	9a00      	ldr	r2, [sp, #0]
    2eb2:	f06f 0001 	mvn.w	r0, #1
    2eb6:	eb00 0052 	add.w	r0, r0, r2, lsr #1
    2eba:	f000 0007 	and.w	r0, r0, #7
    2ebe:	ea40 1000 	orr.w	r0, r0, r0, lsl #4
    2ec2:	f8c1 0824 	str.w	r0, [r1, #2084]	; 0x824
    2ec6:	e012      	b.n	2eee <I2C_MasterSetBaudRate+0x188>
    2ec8:	9917      	ldr	r1, [sp, #92]	; 0x5c
    2eca:	9a00      	ldr	r2, [sp, #0]
    2ecc:	0853      	lsrs	r3, r2, #1
    2ece:	f04f 30ff 	mov.w	r0, #4294967295	; 0xffffffff
    2ed2:	eb00 0052 	add.w	r0, r0, r2, lsr #1
    2ed6:	f000 0007 	and.w	r0, r0, #7
    2eda:	f06f 021f 	mvn.w	r2, #31
    2ede:	eb02 1203 	add.w	r2, r2, r3, lsl #4
    2ee2:	f002 0270 	and.w	r2, r2, #112	; 0x70
    2ee6:	4410      	add	r0, r2
    2ee8:	f8c1 0824 	str.w	r0, [r1, #2084]	; 0x824
    2eec:	e7ff      	b.n	2eee <I2C_MasterSetBaudRate+0x188>
    2eee:	b019      	add	sp, #100	; 0x64
    2ef0:	4770      	bx	lr

00002ef2 <I2C_MasterSetTimeoutValue>:
    2ef2:	b580      	push	{r7, lr}
    2ef4:	466f      	mov	r7, sp
    2ef6:	b084      	sub	sp, #16
    2ef8:	9201      	str	r2, [sp, #4]
    2efa:	9002      	str	r0, [sp, #8]
    2efc:	4608      	mov	r0, r1
    2efe:	9003      	str	r0, [sp, #12]
    2f00:	b121      	cbz	r1, 2f0c <I2C_MasterSetTimeoutValue+0x1a>
    2f02:	e7ff      	b.n	2f04 <I2C_MasterSetTimeoutValue+0x12>
    2f04:	9801      	ldr	r0, [sp, #4]
    2f06:	b108      	cbz	r0, 2f0c <I2C_MasterSetTimeoutValue+0x1a>
    2f08:	e7ff      	b.n	2f0a <I2C_MasterSetTimeoutValue+0x18>
    2f0a:	e00f      	b.n	2f2c <I2C_MasterSetTimeoutValue+0x3a>
    2f0c:	f648 60a5 	movw	r0, #36517	; 0x8ea5
    2f10:	f2c0 0000 	movt	r0, #0
    2f14:	f648 62ef 	movw	r2, #36591	; 0x8eef
    2f18:	f2c0 0200 	movt	r2, #0
    2f1c:	f648 7309 	movw	r3, #36617	; 0x8f09
    2f20:	f2c0 0300 	movt	r3, #0
    2f24:	f240 1199 	movw	r1, #409	; 0x199
    2f28:	f002 f80b 	bl	4f42 <__assert_func>
    2f2c:	9901      	ldr	r1, [sp, #4]
    2f2e:	9803      	ldr	r0, [sp, #12]
    2f30:	9a02      	ldr	r2, [sp, #8]
    2f32:	f8d2 3814 	ldr.w	r3, [r2, #2068]	; 0x814
    2f36:	b2c0      	uxtb	r0, r0
    2f38:	2201      	movs	r2, #1
    2f3a:	fa12 f283 	uxtah	r2, r2, r3
    2f3e:	fbb1 f1f2 	udiv	r1, r1, r2
    2f42:	4348      	muls	r0, r1
    2f44:	0900      	lsrs	r0, r0, #4
    2f46:	f248 511f 	movw	r1, #34079	; 0x851f
    2f4a:	f2c5 11eb 	movt	r1, #20971	; 0x51eb
    2f4e:	fba0 0101 	umull	r0, r1, r0, r1
    2f52:	2005      	movs	r0, #5
    2f54:	eb00 1051 	add.w	r0, r0, r1, lsr #5
    2f58:	f64c 41cd 	movw	r1, #52429	; 0xcccd
    2f5c:	f6cc 41cc 	movt	r1, #52428	; 0xcccc
    2f60:	fba0 1001 	umull	r1, r0, r0, r1
    2f64:	08c1      	lsrs	r1, r0, #3
    2f66:	4608      	mov	r0, r1
    2f68:	f5b1 5f80 	cmp.w	r1, #4096	; 0x1000
    2f6c:	9000      	str	r0, [sp, #0]
    2f6e:	d904      	bls.n	2f7a <I2C_MasterSetTimeoutValue+0x88>
    2f70:	e7ff      	b.n	2f72 <I2C_MasterSetTimeoutValue+0x80>
    2f72:	f44f 5080 	mov.w	r0, #4096	; 0x1000
    2f76:	9000      	str	r0, [sp, #0]
    2f78:	e7ff      	b.n	2f7a <I2C_MasterSetTimeoutValue+0x88>
    2f7a:	9902      	ldr	r1, [sp, #8]
    2f7c:	9a00      	ldr	r2, [sp, #0]
    2f7e:	f04f 30ff 	mov.w	r0, #4294967295	; 0xffffffff
    2f82:	eb00 1002 	add.w	r0, r0, r2, lsl #4
    2f86:	f8c1 0810 	str.w	r0, [r1, #2064]	; 0x810
    2f8a:	b004      	add	sp, #16
    2f8c:	bd80      	pop	{r7, pc}

00002f8e <I2C_GetStatusFlags>:
    2f8e:	b08a      	sub	sp, #40	; 0x28
    2f90:	f8d0 0804 	ldr.w	r0, [r0, #2052]	; 0x804
    2f94:	9008      	str	r0, [sp, #32]
    2f96:	f010 0f0e 	tst.w	r0, #14
    2f9a:	9009      	str	r0, [sp, #36]	; 0x24
    2f9c:	d105      	bne.n	2faa <I2C_GetStatusFlags+0x1c>
    2f9e:	e7ff      	b.n	2fa0 <I2C_GetStatusFlags+0x12>
    2fa0:	9808      	ldr	r0, [sp, #32]
    2fa2:	f040 0020 	orr.w	r0, r0, #32
    2fa6:	9009      	str	r0, [sp, #36]	; 0x24
    2fa8:	e7ff      	b.n	2faa <I2C_GetStatusFlags+0x1c>
    2faa:	9809      	ldr	r0, [sp, #36]	; 0x24
    2fac:	9006      	str	r0, [sp, #24]
    2fae:	f000 020e 	and.w	r2, r0, #14
    2fb2:	2103      	movs	r1, #3
    2fb4:	ebb1 0f52 	cmp.w	r1, r2, lsr #1
    2fb8:	9007      	str	r0, [sp, #28]
    2fba:	d107      	bne.n	2fcc <I2C_GetStatusFlags+0x3e>
    2fbc:	e7ff      	b.n	2fbe <I2C_GetStatusFlags+0x30>
    2fbe:	9806      	ldr	r0, [sp, #24]
    2fc0:	f040 0080 	orr.w	r0, r0, #128	; 0x80
    2fc4:	f020 000e 	bic.w	r0, r0, #14
    2fc8:	9007      	str	r0, [sp, #28]
    2fca:	e7ff      	b.n	2fcc <I2C_GetStatusFlags+0x3e>
    2fcc:	9807      	ldr	r0, [sp, #28]
    2fce:	9004      	str	r0, [sp, #16]
    2fd0:	f410 6fc0 	tst.w	r0, #1536	; 0x600
    2fd4:	9005      	str	r0, [sp, #20]
    2fd6:	d105      	bne.n	2fe4 <I2C_GetStatusFlags+0x56>
    2fd8:	e7ff      	b.n	2fda <I2C_GetStatusFlags+0x4c>
    2fda:	9804      	ldr	r0, [sp, #16]
    2fdc:	f440 0080 	orr.w	r0, r0, #4194304	; 0x400000
    2fe0:	9005      	str	r0, [sp, #20]
    2fe2:	e7ff      	b.n	2fe4 <I2C_GetStatusFlags+0x56>
    2fe4:	9805      	ldr	r0, [sp, #20]
    2fe6:	9002      	str	r0, [sp, #8]
    2fe8:	f410 5f40 	tst.w	r0, #12288	; 0x3000
    2fec:	9003      	str	r0, [sp, #12]
    2fee:	d105      	bne.n	2ffc <I2C_GetStatusFlags+0x6e>
    2ff0:	e7ff      	b.n	2ff2 <I2C_GetStatusFlags+0x64>
    2ff2:	9802      	ldr	r0, [sp, #8]
    2ff4:	f440 1080 	orr.w	r0, r0, #1048576	; 0x100000
    2ff8:	9003      	str	r0, [sp, #12]
    2ffa:	e7ff      	b.n	2ffc <I2C_GetStatusFlags+0x6e>
    2ffc:	9803      	ldr	r0, [sp, #12]
    2ffe:	9000      	str	r0, [sp, #0]
    3000:	f400 5240 	and.w	r2, r0, #12288	; 0x3000
    3004:	2103      	movs	r1, #3
    3006:	ebb1 3f12 	cmp.w	r1, r2, lsr #12
    300a:	9001      	str	r0, [sp, #4]
    300c:	d107      	bne.n	301e <I2C_GetStatusFlags+0x90>
    300e:	e7ff      	b.n	3010 <I2C_GetStatusFlags+0x82>
    3010:	9800      	ldr	r0, [sp, #0]
    3012:	f440 1000 	orr.w	r0, r0, #2097152	; 0x200000
    3016:	f420 5040 	bic.w	r0, r0, #12288	; 0x3000
    301a:	9001      	str	r0, [sp, #4]
    301c:	e7ff      	b.n	301e <I2C_GetStatusFlags+0x90>
    301e:	9801      	ldr	r0, [sp, #4]
    3020:	b00a      	add	sp, #40	; 0x28
    3022:	4770      	bx	lr

00003024 <I2C_MasterStart>:
    3024:	b580      	push	{r7, lr}
    3026:	466f      	mov	r7, sp
    3028:	b086      	sub	sp, #24
    302a:	9002      	str	r0, [sp, #8]
    302c:	9203      	str	r2, [sp, #12]
    302e:	9104      	str	r1, [sp, #16]
    3030:	f000 f81a 	bl	3068 <I2C_PendingStatusWait>
    3034:	4601      	mov	r1, r0
    3036:	9105      	str	r1, [sp, #20]
    3038:	b118      	cbz	r0, 3042 <I2C_MasterStart+0x1e>
    303a:	e7ff      	b.n	303c <I2C_MasterStart+0x18>
    303c:	9805      	ldr	r0, [sp, #20]
    303e:	9001      	str	r0, [sp, #4]
    3040:	e00f      	b.n	3062 <I2C_MasterStart+0x3e>
    3042:	9902      	ldr	r1, [sp, #8]
    3044:	9803      	ldr	r0, [sp, #12]
    3046:	9a04      	ldr	r2, [sp, #16]
    3048:	b2d2      	uxtb	r2, r2
    304a:	f000 0001 	and.w	r0, r0, #1
    304e:	ea40 0042 	orr.w	r0, r0, r2, lsl #1
    3052:	f8c1 0828 	str.w	r0, [r1, #2088]	; 0x828
    3056:	2002      	movs	r0, #2
    3058:	f8c1 0820 	str.w	r0, [r1, #2080]	; 0x820
    305c:	2000      	movs	r0, #0
    305e:	9001      	str	r0, [sp, #4]
    3060:	e7ff      	b.n	3062 <I2C_MasterStart+0x3e>
    3062:	9801      	ldr	r0, [sp, #4]
    3064:	b006      	add	sp, #24
    3066:	bd80      	pop	{r7, pc}

00003068 <I2C_PendingStatusWait>:
    3068:	b580      	push	{r7, lr}
    306a:	466f      	mov	r7, sp
    306c:	b08a      	sub	sp, #40	; 0x28
    306e:	9008      	str	r0, [sp, #32]
    3070:	2000      	movs	r0, #0
    3072:	9009      	str	r0, [sp, #36]	; 0x24
    3074:	e7ff      	b.n	3076 <I2C_PendingStatusWait+0xe>
    3076:	9808      	ldr	r0, [sp, #32]
    3078:	9909      	ldr	r1, [sp, #36]	; 0x24
    307a:	9105      	str	r1, [sp, #20]
    307c:	f7ff ff87 	bl	2f8e <I2C_GetStatusFlags>
    3080:	4601      	mov	r1, r0
    3082:	9805      	ldr	r0, [sp, #20]
    3084:	460a      	mov	r2, r1
    3086:	9206      	str	r2, [sp, #24]
    3088:	01c9      	lsls	r1, r1, #7
    308a:	2900      	cmp	r1, #0
    308c:	9007      	str	r0, [sp, #28]
    308e:	d504      	bpl.n	309a <I2C_PendingStatusWait+0x32>
    3090:	e7ff      	b.n	3092 <I2C_PendingStatusWait+0x2a>
    3092:	f640 2034 	movw	r0, #2612	; 0xa34
    3096:	9007      	str	r0, [sp, #28]
    3098:	e7ff      	b.n	309a <I2C_PendingStatusWait+0x32>
    309a:	9906      	ldr	r1, [sp, #24]
    309c:	9807      	ldr	r0, [sp, #28]
    309e:	0189      	lsls	r1, r1, #6
    30a0:	2900      	cmp	r1, #0
    30a2:	9004      	str	r0, [sp, #16]
    30a4:	d504      	bpl.n	30b0 <I2C_PendingStatusWait+0x48>
    30a6:	e7ff      	b.n	30a8 <I2C_PendingStatusWait+0x40>
    30a8:	f640 2035 	movw	r0, #2613	; 0xa35
    30ac:	9004      	str	r0, [sp, #16]
    30ae:	e7ff      	b.n	30b0 <I2C_PendingStatusWait+0x48>
    30b0:	9804      	ldr	r0, [sp, #16]
    30b2:	9003      	str	r0, [sp, #12]
    30b4:	e7ff      	b.n	30b6 <I2C_PendingStatusWait+0x4e>
    30b6:	9803      	ldr	r0, [sp, #12]
    30b8:	9906      	ldr	r1, [sp, #24]
    30ba:	07c9      	lsls	r1, r1, #31
    30bc:	2900      	cmp	r1, #0
    30be:	9009      	str	r0, [sp, #36]	; 0x24
    30c0:	d0d9      	beq.n	3076 <I2C_PendingStatusWait+0xe>
    30c2:	e7ff      	b.n	30c4 <I2C_PendingStatusWait+0x5c>
    30c4:	9803      	ldr	r0, [sp, #12]
    30c6:	9906      	ldr	r1, [sp, #24]
    30c8:	06c9      	lsls	r1, r1, #27
    30ca:	2900      	cmp	r1, #0
    30cc:	9002      	str	r0, [sp, #8]
    30ce:	d504      	bpl.n	30da <I2C_PendingStatusWait+0x72>
    30d0:	e7ff      	b.n	30d2 <I2C_PendingStatusWait+0x6a>
    30d2:	f640 202d 	movw	r0, #2605	; 0xa2d
    30d6:	9002      	str	r0, [sp, #8]
    30d8:	e7ff      	b.n	30da <I2C_PendingStatusWait+0x72>
    30da:	9906      	ldr	r1, [sp, #24]
    30dc:	9802      	ldr	r0, [sp, #8]
    30de:	0649      	lsls	r1, r1, #25
    30e0:	2900      	cmp	r1, #0
    30e2:	9001      	str	r0, [sp, #4]
    30e4:	d504      	bpl.n	30f0 <I2C_PendingStatusWait+0x88>
    30e6:	e7ff      	b.n	30e8 <I2C_PendingStatusWait+0x80>
    30e8:	f44f 6023 	mov.w	r0, #2608	; 0xa30
    30ec:	9001      	str	r0, [sp, #4]
    30ee:	e7ff      	b.n	30f0 <I2C_PendingStatusWait+0x88>
    30f0:	9808      	ldr	r0, [sp, #32]
    30f2:	9901      	ldr	r1, [sp, #4]
    30f4:	9100      	str	r1, [sp, #0]
    30f6:	2150      	movs	r1, #80	; 0x50
    30f8:	f2c0 3100 	movt	r1, #768	; 0x300
    30fc:	f000 fa7e 	bl	35fc <I2C_ClearStatusFlags>
    3100:	9800      	ldr	r0, [sp, #0]
    3102:	b00a      	add	sp, #40	; 0x28
    3104:	bd80      	pop	{r7, pc}

00003106 <I2C_MasterStop>:
    3106:	b580      	push	{r7, lr}
    3108:	466f      	mov	r7, sp
    310a:	b084      	sub	sp, #16
    310c:	9002      	str	r0, [sp, #8]
    310e:	f7ff ffab 	bl	3068 <I2C_PendingStatusWait>
    3112:	4601      	mov	r1, r0
    3114:	9103      	str	r1, [sp, #12]
    3116:	b118      	cbz	r0, 3120 <I2C_MasterStop+0x1a>
    3118:	e7ff      	b.n	311a <I2C_MasterStop+0x14>
    311a:	9803      	ldr	r0, [sp, #12]
    311c:	9001      	str	r0, [sp, #4]
    311e:	e006      	b.n	312e <I2C_MasterStop+0x28>
    3120:	9902      	ldr	r1, [sp, #8]
    3122:	2004      	movs	r0, #4
    3124:	f8c1 0820 	str.w	r0, [r1, #2080]	; 0x820
    3128:	2000      	movs	r0, #0
    312a:	9001      	str	r0, [sp, #4]
    312c:	e7ff      	b.n	312e <I2C_MasterStop+0x28>
    312e:	9801      	ldr	r0, [sp, #4]
    3130:	b004      	add	sp, #16
    3132:	bd80      	pop	{r7, pc}

00003134 <I2C_MasterWriteBlocking>:
    3134:	b580      	push	{r7, lr}
    3136:	466f      	mov	r7, sp
    3138:	b094      	sub	sp, #80	; 0x50
    313a:	9310      	str	r3, [sp, #64]	; 0x40
    313c:	9211      	str	r2, [sp, #68]	; 0x44
    313e:	9112      	str	r1, [sp, #72]	; 0x48
    3140:	9013      	str	r0, [sp, #76]	; 0x4c
    3142:	b109      	cbz	r1, 3148 <I2C_MasterWriteBlocking+0x14>
    3144:	e7ff      	b.n	3146 <I2C_MasterWriteBlocking+0x12>
    3146:	e00f      	b.n	3168 <I2C_MasterWriteBlocking+0x34>
    3148:	f648 60a5 	movw	r0, #36517	; 0x8ea5
    314c:	f2c0 0000 	movt	r0, #0
    3150:	f648 7233 	movw	r2, #36659	; 0x8f33
    3154:	f2c0 0200 	movt	r2, #0
    3158:	f648 734b 	movw	r3, #36683	; 0x8f4b
    315c:	f2c0 0300 	movt	r3, #0
    3160:	f44f 710b 	mov.w	r1, #556	; 0x22c
    3164:	f001 feed 	bl	4f42 <__assert_func>
    3168:	9812      	ldr	r0, [sp, #72]	; 0x48
    316a:	9911      	ldr	r1, [sp, #68]	; 0x44
    316c:	910e      	str	r1, [sp, #56]	; 0x38
    316e:	900f      	str	r0, [sp, #60]	; 0x3c
    3170:	e7ff      	b.n	3172 <I2C_MasterWriteBlocking+0x3e>
    3172:	980e      	ldr	r0, [sp, #56]	; 0x38
    3174:	990f      	ldr	r1, [sp, #60]	; 0x3c
    3176:	910c      	str	r1, [sp, #48]	; 0x30
    3178:	900d      	str	r0, [sp, #52]	; 0x34
    317a:	2800      	cmp	r0, #0
    317c:	d04d      	beq.n	321a <I2C_MasterWriteBlocking+0xe6>
    317e:	e7ff      	b.n	3180 <I2C_MasterWriteBlocking+0x4c>
    3180:	9813      	ldr	r0, [sp, #76]	; 0x4c
    3182:	f7ff ff71 	bl	3068 <I2C_PendingStatusWait>
    3186:	4601      	mov	r1, r0
    3188:	910b      	str	r1, [sp, #44]	; 0x2c
    318a:	b118      	cbz	r0, 3194 <I2C_MasterWriteBlocking+0x60>
    318c:	e7ff      	b.n	318e <I2C_MasterWriteBlocking+0x5a>
    318e:	980b      	ldr	r0, [sp, #44]	; 0x2c
    3190:	900a      	str	r0, [sp, #40]	; 0x28
    3192:	e062      	b.n	325a <I2C_MasterWriteBlocking+0x126>
    3194:	9813      	ldr	r0, [sp, #76]	; 0x4c
    3196:	f8d0 0804 	ldr.w	r0, [r0, #2052]	; 0x804
    319a:	f3c0 0042 	ubfx	r0, r0, #1, #3
    319e:	4601      	mov	r1, r0
    31a0:	9109      	str	r1, [sp, #36]	; 0x24
    31a2:	2802      	cmp	r0, #2
    31a4:	d005      	beq.n	31b2 <I2C_MasterWriteBlocking+0x7e>
    31a6:	e7ff      	b.n	31a8 <I2C_MasterWriteBlocking+0x74>
    31a8:	9809      	ldr	r0, [sp, #36]	; 0x24
    31aa:	3803      	subs	r0, #3
    31ac:	2802      	cmp	r0, #2
    31ae:	d311      	bcc.n	31d4 <I2C_MasterWriteBlocking+0xa0>
    31b0:	e01b      	b.n	31ea <I2C_MasterWriteBlocking+0xb6>
    31b2:	990b      	ldr	r1, [sp, #44]	; 0x2c
    31b4:	f8dd c04c 	ldr.w	ip, [sp, #76]	; 0x4c
    31b8:	9a0d      	ldr	r2, [sp, #52]	; 0x34
    31ba:	980c      	ldr	r0, [sp, #48]	; 0x30
    31bc:	f810 3b01 	ldrb.w	r3, [r0], #1
    31c0:	f8cc 3828 	str.w	r3, [ip, #2088]	; 0x828
    31c4:	3a01      	subs	r2, #1
    31c6:	2301      	movs	r3, #1
    31c8:	f8cc 3820 	str.w	r3, [ip, #2080]	; 0x820
    31cc:	9206      	str	r2, [sp, #24]
    31ce:	9107      	str	r1, [sp, #28]
    31d0:	9008      	str	r0, [sp, #32]
    31d2:	e012      	b.n	31fa <I2C_MasterWriteBlocking+0xc6>
    31d4:	9813      	ldr	r0, [sp, #76]	; 0x4c
    31d6:	f7ff ff96 	bl	3106 <I2C_MasterStop>
    31da:	9a0d      	ldr	r2, [sp, #52]	; 0x34
    31dc:	980c      	ldr	r0, [sp, #48]	; 0x30
    31de:	f640 212a 	movw	r1, #2602	; 0xa2a
    31e2:	9206      	str	r2, [sp, #24]
    31e4:	9107      	str	r1, [sp, #28]
    31e6:	9008      	str	r0, [sp, #32]
    31e8:	e007      	b.n	31fa <I2C_MasterWriteBlocking+0xc6>
    31ea:	980c      	ldr	r0, [sp, #48]	; 0x30
    31ec:	9a0d      	ldr	r2, [sp, #52]	; 0x34
    31ee:	f640 2131 	movw	r1, #2609	; 0xa31
    31f2:	9206      	str	r2, [sp, #24]
    31f4:	9107      	str	r1, [sp, #28]
    31f6:	9008      	str	r0, [sp, #32]
    31f8:	e7ff      	b.n	31fa <I2C_MasterWriteBlocking+0xc6>
    31fa:	9906      	ldr	r1, [sp, #24]
    31fc:	9807      	ldr	r0, [sp, #28]
    31fe:	9a08      	ldr	r2, [sp, #32]
    3200:	9203      	str	r2, [sp, #12]
    3202:	9004      	str	r0, [sp, #16]
    3204:	9105      	str	r1, [sp, #20]
    3206:	b118      	cbz	r0, 3210 <I2C_MasterWriteBlocking+0xdc>
    3208:	e7ff      	b.n	320a <I2C_MasterWriteBlocking+0xd6>
    320a:	9804      	ldr	r0, [sp, #16]
    320c:	900a      	str	r0, [sp, #40]	; 0x28
    320e:	e024      	b.n	325a <I2C_MasterWriteBlocking+0x126>
    3210:	9803      	ldr	r0, [sp, #12]
    3212:	9905      	ldr	r1, [sp, #20]
    3214:	910e      	str	r1, [sp, #56]	; 0x38
    3216:	900f      	str	r0, [sp, #60]	; 0x3c
    3218:	e7ab      	b.n	3172 <I2C_MasterWriteBlocking+0x3e>
    321a:	9813      	ldr	r0, [sp, #76]	; 0x4c
    321c:	f7ff ff24 	bl	3068 <I2C_PendingStatusWait>
    3220:	4601      	mov	r1, r0
    3222:	9102      	str	r1, [sp, #8]
    3224:	b118      	cbz	r0, 322e <I2C_MasterWriteBlocking+0xfa>
    3226:	e7ff      	b.n	3228 <I2C_MasterWriteBlocking+0xf4>
    3228:	9802      	ldr	r0, [sp, #8]
    322a:	900a      	str	r0, [sp, #40]	; 0x28
    322c:	e015      	b.n	325a <I2C_MasterWriteBlocking+0x126>
    322e:	9810      	ldr	r0, [sp, #64]	; 0x40
    3230:	0740      	lsls	r0, r0, #29
    3232:	2800      	cmp	r0, #0
    3234:	d40e      	bmi.n	3254 <I2C_MasterWriteBlocking+0x120>
    3236:	e7ff      	b.n	3238 <I2C_MasterWriteBlocking+0x104>
    3238:	9813      	ldr	r0, [sp, #76]	; 0x4c
    323a:	2104      	movs	r1, #4
    323c:	f8c0 1820 	str.w	r1, [r0, #2080]	; 0x820
    3240:	f7ff ff12 	bl	3068 <I2C_PendingStatusWait>
    3244:	4601      	mov	r1, r0
    3246:	9101      	str	r1, [sp, #4]
    3248:	b118      	cbz	r0, 3252 <I2C_MasterWriteBlocking+0x11e>
    324a:	e7ff      	b.n	324c <I2C_MasterWriteBlocking+0x118>
    324c:	9801      	ldr	r0, [sp, #4]
    324e:	900a      	str	r0, [sp, #40]	; 0x28
    3250:	e003      	b.n	325a <I2C_MasterWriteBlocking+0x126>
    3252:	e7ff      	b.n	3254 <I2C_MasterWriteBlocking+0x120>
    3254:	2000      	movs	r0, #0
    3256:	900a      	str	r0, [sp, #40]	; 0x28
    3258:	e7ff      	b.n	325a <I2C_MasterWriteBlocking+0x126>
    325a:	980a      	ldr	r0, [sp, #40]	; 0x28
    325c:	b014      	add	sp, #80	; 0x50
    325e:	bd80      	pop	{r7, pc}

00003260 <I2C_MasterReadBlocking>:
    3260:	b580      	push	{r7, lr}
    3262:	466f      	mov	r7, sp
    3264:	b096      	sub	sp, #88	; 0x58
    3266:	9312      	str	r3, [sp, #72]	; 0x48
    3268:	9213      	str	r2, [sp, #76]	; 0x4c
    326a:	9114      	str	r1, [sp, #80]	; 0x50
    326c:	9015      	str	r0, [sp, #84]	; 0x54
    326e:	b109      	cbz	r1, 3274 <I2C_MasterReadBlocking+0x14>
    3270:	e7ff      	b.n	3272 <I2C_MasterReadBlocking+0x12>
    3272:	e00f      	b.n	3294 <I2C_MasterReadBlocking+0x34>
    3274:	f648 60a5 	movw	r0, #36517	; 0x8ea5
    3278:	f2c0 0000 	movt	r0, #0
    327c:	f648 725a 	movw	r2, #36698	; 0x8f5a
    3280:	f2c0 0200 	movt	r2, #0
    3284:	f648 7371 	movw	r3, #36721	; 0x8f71
    3288:	f2c0 0300 	movt	r3, #0
    328c:	f240 2187 	movw	r1, #647	; 0x287
    3290:	f001 fe57 	bl	4f42 <__assert_func>
    3294:	9814      	ldr	r0, [sp, #80]	; 0x50
    3296:	9913      	ldr	r1, [sp, #76]	; 0x4c
    3298:	9110      	str	r1, [sp, #64]	; 0x40
    329a:	9011      	str	r0, [sp, #68]	; 0x44
    329c:	e7ff      	b.n	329e <I2C_MasterReadBlocking+0x3e>
    329e:	9810      	ldr	r0, [sp, #64]	; 0x40
    32a0:	9911      	ldr	r1, [sp, #68]	; 0x44
    32a2:	910e      	str	r1, [sp, #56]	; 0x38
    32a4:	900f      	str	r0, [sp, #60]	; 0x3c
    32a6:	2800      	cmp	r0, #0
    32a8:	d066      	beq.n	3378 <I2C_MasterReadBlocking+0x118>
    32aa:	e7ff      	b.n	32ac <I2C_MasterReadBlocking+0x4c>
    32ac:	9815      	ldr	r0, [sp, #84]	; 0x54
    32ae:	f7ff fedb 	bl	3068 <I2C_PendingStatusWait>
    32b2:	4601      	mov	r1, r0
    32b4:	910d      	str	r1, [sp, #52]	; 0x34
    32b6:	b118      	cbz	r0, 32c0 <I2C_MasterReadBlocking+0x60>
    32b8:	e7ff      	b.n	32ba <I2C_MasterReadBlocking+0x5a>
    32ba:	980d      	ldr	r0, [sp, #52]	; 0x34
    32bc:	900c      	str	r0, [sp, #48]	; 0x30
    32be:	e05e      	b.n	337e <I2C_MasterReadBlocking+0x11e>
    32c0:	9815      	ldr	r0, [sp, #84]	; 0x54
    32c2:	f8d0 0804 	ldr.w	r0, [r0, #2052]	; 0x804
    32c6:	f3c0 0042 	ubfx	r0, r0, #1, #3
    32ca:	4601      	mov	r1, r0
    32cc:	910b      	str	r1, [sp, #44]	; 0x2c
    32ce:	2801      	cmp	r0, #1
    32d0:	d005      	beq.n	32de <I2C_MasterReadBlocking+0x7e>
    32d2:	e7ff      	b.n	32d4 <I2C_MasterReadBlocking+0x74>
    32d4:	980b      	ldr	r0, [sp, #44]	; 0x2c
    32d6:	3803      	subs	r0, #3
    32d8:	2802      	cmp	r0, #2
    32da:	d32d      	bcc.n	3338 <I2C_MasterReadBlocking+0xd8>
    32dc:	e034      	b.n	3348 <I2C_MasterReadBlocking+0xe8>
    32de:	980f      	ldr	r0, [sp, #60]	; 0x3c
    32e0:	990e      	ldr	r1, [sp, #56]	; 0x38
    32e2:	9a15      	ldr	r2, [sp, #84]	; 0x54
    32e4:	f8d2 2828 	ldr.w	r2, [r2, #2088]	; 0x828
    32e8:	f801 2b01 	strb.w	r2, [r1], #1
    32ec:	9109      	str	r1, [sp, #36]	; 0x24
    32ee:	3801      	subs	r0, #1
    32f0:	4601      	mov	r1, r0
    32f2:	910a      	str	r1, [sp, #40]	; 0x28
    32f4:	b138      	cbz	r0, 3306 <I2C_MasterReadBlocking+0xa6>
    32f6:	e7ff      	b.n	32f8 <I2C_MasterReadBlocking+0x98>
    32f8:	980d      	ldr	r0, [sp, #52]	; 0x34
    32fa:	9a15      	ldr	r2, [sp, #84]	; 0x54
    32fc:	2101      	movs	r1, #1
    32fe:	f8c2 1820 	str.w	r1, [r2, #2080]	; 0x820
    3302:	9008      	str	r0, [sp, #32]
    3304:	e011      	b.n	332a <I2C_MasterReadBlocking+0xca>
    3306:	980d      	ldr	r0, [sp, #52]	; 0x34
    3308:	9912      	ldr	r1, [sp, #72]	; 0x48
    330a:	0749      	lsls	r1, r1, #29
    330c:	2900      	cmp	r1, #0
    330e:	9007      	str	r0, [sp, #28]
    3310:	d408      	bmi.n	3324 <I2C_MasterReadBlocking+0xc4>
    3312:	e7ff      	b.n	3314 <I2C_MasterReadBlocking+0xb4>
    3314:	9815      	ldr	r0, [sp, #84]	; 0x54
    3316:	2104      	movs	r1, #4
    3318:	f8c0 1820 	str.w	r1, [r0, #2080]	; 0x820
    331c:	f7ff fea4 	bl	3068 <I2C_PendingStatusWait>
    3320:	9007      	str	r0, [sp, #28]
    3322:	e7ff      	b.n	3324 <I2C_MasterReadBlocking+0xc4>
    3324:	9807      	ldr	r0, [sp, #28]
    3326:	9008      	str	r0, [sp, #32]
    3328:	e7ff      	b.n	332a <I2C_MasterReadBlocking+0xca>
    332a:	9809      	ldr	r0, [sp, #36]	; 0x24
    332c:	9a0a      	ldr	r2, [sp, #40]	; 0x28
    332e:	9908      	ldr	r1, [sp, #32]
    3330:	9204      	str	r2, [sp, #16]
    3332:	9105      	str	r1, [sp, #20]
    3334:	9006      	str	r0, [sp, #24]
    3336:	e00f      	b.n	3358 <I2C_MasterReadBlocking+0xf8>
    3338:	980e      	ldr	r0, [sp, #56]	; 0x38
    333a:	9a0f      	ldr	r2, [sp, #60]	; 0x3c
    333c:	f640 212a 	movw	r1, #2602	; 0xa2a
    3340:	9204      	str	r2, [sp, #16]
    3342:	9105      	str	r1, [sp, #20]
    3344:	9006      	str	r0, [sp, #24]
    3346:	e007      	b.n	3358 <I2C_MasterReadBlocking+0xf8>
    3348:	980e      	ldr	r0, [sp, #56]	; 0x38
    334a:	9a0f      	ldr	r2, [sp, #60]	; 0x3c
    334c:	f640 2131 	movw	r1, #2609	; 0xa31
    3350:	9204      	str	r2, [sp, #16]
    3352:	9105      	str	r1, [sp, #20]
    3354:	9006      	str	r0, [sp, #24]
    3356:	e7ff      	b.n	3358 <I2C_MasterReadBlocking+0xf8>
    3358:	9904      	ldr	r1, [sp, #16]
    335a:	9805      	ldr	r0, [sp, #20]
    335c:	9a06      	ldr	r2, [sp, #24]
    335e:	9201      	str	r2, [sp, #4]
    3360:	9002      	str	r0, [sp, #8]
    3362:	9103      	str	r1, [sp, #12]
    3364:	b118      	cbz	r0, 336e <I2C_MasterReadBlocking+0x10e>
    3366:	e7ff      	b.n	3368 <I2C_MasterReadBlocking+0x108>
    3368:	9802      	ldr	r0, [sp, #8]
    336a:	900c      	str	r0, [sp, #48]	; 0x30
    336c:	e007      	b.n	337e <I2C_MasterReadBlocking+0x11e>
    336e:	9801      	ldr	r0, [sp, #4]
    3370:	9903      	ldr	r1, [sp, #12]
    3372:	9110      	str	r1, [sp, #64]	; 0x40
    3374:	9011      	str	r0, [sp, #68]	; 0x44
    3376:	e792      	b.n	329e <I2C_MasterReadBlocking+0x3e>
    3378:	2000      	movs	r0, #0
    337a:	900c      	str	r0, [sp, #48]	; 0x30
    337c:	e7ff      	b.n	337e <I2C_MasterReadBlocking+0x11e>
    337e:	980c      	ldr	r0, [sp, #48]	; 0x30
    3380:	b016      	add	sp, #88	; 0x58
    3382:	bd80      	pop	{r7, pc}

00003384 <I2C_MasterTransferBlocking>:
    3384:	b580      	push	{r7, lr}
    3386:	466f      	mov	r7, sp
    3388:	b09a      	sub	sp, #104	; 0x68
    338a:	9117      	str	r1, [sp, #92]	; 0x5c
    338c:	9018      	str	r0, [sp, #96]	; 0x60
    338e:	b109      	cbz	r1, 3394 <I2C_MasterTransferBlocking+0x10>
    3390:	e7ff      	b.n	3392 <I2C_MasterTransferBlocking+0xe>
    3392:	e00f      	b.n	33b4 <I2C_MasterTransferBlocking+0x30>
    3394:	f648 60a5 	movw	r0, #36517	; 0x8ea5
    3398:	f2c0 0000 	movt	r0, #0
    339c:	f648 7280 	movw	r2, #36736	; 0x8f80
    33a0:	f2c0 0200 	movt	r2, #0
    33a4:	f648 739b 	movw	r3, #36763	; 0x8f9b
    33a8:	f2c0 0300 	movt	r3, #0
    33ac:	f240 21e6 	movw	r1, #742	; 0x2e6
    33b0:	f001 fdc7 	bl	4f42 <__assert_func>
    33b4:	9818      	ldr	r0, [sp, #96]	; 0x60
    33b6:	2101      	movs	r1, #1
    33b8:	f7ff fcbd 	bl	2d36 <I2C_MasterEnable>
    33bc:	9818      	ldr	r0, [sp, #96]	; 0x60
    33be:	2100      	movs	r1, #0
    33c0:	9115      	str	r1, [sp, #84]	; 0x54
    33c2:	f000 f8da 	bl	357a <I2C_SlaveEnable>
    33c6:	9815      	ldr	r0, [sp, #84]	; 0x54
    33c8:	9917      	ldr	r1, [sp, #92]	; 0x5c
    33ca:	7809      	ldrb	r1, [r1, #0]
    33cc:	07c9      	lsls	r1, r1, #31
    33ce:	2900      	cmp	r1, #0
    33d0:	9016      	str	r0, [sp, #88]	; 0x58
    33d2:	f040 808f 	bne.w	34f4 <I2C_MasterTransferBlocking+0x170>
    33d6:	e7ff      	b.n	33d8 <I2C_MasterTransferBlocking+0x54>
    33d8:	9817      	ldr	r0, [sp, #92]	; 0x5c
    33da:	68c0      	ldr	r0, [r0, #12]
    33dc:	b118      	cbz	r0, 33e6 <I2C_MasterTransferBlocking+0x62>
    33de:	e7ff      	b.n	33e0 <I2C_MasterTransferBlocking+0x5c>
    33e0:	2000      	movs	r0, #0
    33e2:	9014      	str	r0, [sp, #80]	; 0x50
    33e4:	e003      	b.n	33ee <I2C_MasterTransferBlocking+0x6a>
    33e6:	9817      	ldr	r0, [sp, #92]	; 0x5c
    33e8:	7940      	ldrb	r0, [r0, #5]
    33ea:	9014      	str	r0, [sp, #80]	; 0x50
    33ec:	e7ff      	b.n	33ee <I2C_MasterTransferBlocking+0x6a>
    33ee:	9818      	ldr	r0, [sp, #96]	; 0x60
    33f0:	9917      	ldr	r1, [sp, #92]	; 0x5c
    33f2:	9a14      	ldr	r2, [sp, #80]	; 0x50
    33f4:	7909      	ldrb	r1, [r1, #4]
    33f6:	b2d2      	uxtb	r2, r2
    33f8:	f7ff fe14 	bl	3024 <I2C_MasterStart>
    33fc:	4601      	mov	r1, r0
    33fe:	4608      	mov	r0, r1
    3400:	2900      	cmp	r1, #0
    3402:	9013      	str	r0, [sp, #76]	; 0x4c
    3404:	d173      	bne.n	34ee <I2C_MasterTransferBlocking+0x16a>
    3406:	e7ff      	b.n	3408 <I2C_MasterTransferBlocking+0x84>
    3408:	9818      	ldr	r0, [sp, #96]	; 0x60
    340a:	f000 f8ce 	bl	35aa <I2C_MasterCheckStartResponse>
    340e:	4601      	mov	r1, r0
    3410:	9112      	str	r1, [sp, #72]	; 0x48
    3412:	b118      	cbz	r0, 341c <I2C_MasterTransferBlocking+0x98>
    3414:	e7ff      	b.n	3416 <I2C_MasterTransferBlocking+0x92>
    3416:	9812      	ldr	r0, [sp, #72]	; 0x48
    3418:	9011      	str	r0, [sp, #68]	; 0x44
    341a:	e0ab      	b.n	3574 <I2C_MasterTransferBlocking+0x1f0>
    341c:	9812      	ldr	r0, [sp, #72]	; 0x48
    341e:	9917      	ldr	r1, [sp, #92]	; 0x5c
    3420:	68c9      	ldr	r1, [r1, #12]
    3422:	2900      	cmp	r1, #0
    3424:	9010      	str	r0, [sp, #64]	; 0x40
    3426:	d05f      	beq.n	34e8 <I2C_MasterTransferBlocking+0x164>
    3428:	e7ff      	b.n	342a <I2C_MasterTransferBlocking+0xa6>
    342a:	9817      	ldr	r0, [sp, #92]	; 0x5c
    342c:	6881      	ldr	r1, [r0, #8]
    342e:	68c0      	ldr	r0, [r0, #12]
    3430:	3801      	subs	r0, #1
    3432:	910e      	str	r1, [sp, #56]	; 0x38
    3434:	900f      	str	r0, [sp, #60]	; 0x3c
    3436:	e7ff      	b.n	3438 <I2C_MasterTransferBlocking+0xb4>
    3438:	990e      	ldr	r1, [sp, #56]	; 0x38
    343a:	980f      	ldr	r0, [sp, #60]	; 0x3c
    343c:	900c      	str	r0, [sp, #48]	; 0x30
    343e:	910d      	str	r1, [sp, #52]	; 0x34
    3440:	2800      	cmp	r0, #0
    3442:	d40d      	bmi.n	3460 <I2C_MasterTransferBlocking+0xdc>
    3444:	e7ff      	b.n	3446 <I2C_MasterTransferBlocking+0xc2>
    3446:	980d      	ldr	r0, [sp, #52]	; 0x34
    3448:	9a0c      	ldr	r2, [sp, #48]	; 0x30
    344a:	a919      	add	r1, sp, #100	; 0x64
    344c:	5488      	strb	r0, [r1, r2]
    344e:	0a00      	lsrs	r0, r0, #8
    3450:	900b      	str	r0, [sp, #44]	; 0x2c
    3452:	e7ff      	b.n	3454 <I2C_MasterTransferBlocking+0xd0>
    3454:	990b      	ldr	r1, [sp, #44]	; 0x2c
    3456:	980c      	ldr	r0, [sp, #48]	; 0x30
    3458:	3801      	subs	r0, #1
    345a:	910e      	str	r1, [sp, #56]	; 0x38
    345c:	900f      	str	r0, [sp, #60]	; 0x3c
    345e:	e7eb      	b.n	3438 <I2C_MasterTransferBlocking+0xb4>
    3460:	9818      	ldr	r0, [sp, #96]	; 0x60
    3462:	9917      	ldr	r1, [sp, #92]	; 0x5c
    3464:	68ca      	ldr	r2, [r1, #12]
    3466:	a919      	add	r1, sp, #100	; 0x64
    3468:	2304      	movs	r3, #4
    346a:	f7ff fe63 	bl	3134 <I2C_MasterWriteBlocking>
    346e:	4601      	mov	r1, r0
    3470:	910a      	str	r1, [sp, #40]	; 0x28
    3472:	b180      	cbz	r0, 3496 <I2C_MasterTransferBlocking+0x112>
    3474:	e7ff      	b.n	3476 <I2C_MasterTransferBlocking+0xf2>
    3476:	980a      	ldr	r0, [sp, #40]	; 0x28
    3478:	f640 212a 	movw	r1, #2602	; 0xa2a
    347c:	4288      	cmp	r0, r1
    347e:	d107      	bne.n	3490 <I2C_MasterTransferBlocking+0x10c>
    3480:	e7ff      	b.n	3482 <I2C_MasterTransferBlocking+0xfe>
    3482:	9818      	ldr	r0, [sp, #96]	; 0x60
    3484:	f7ff fe3f 	bl	3106 <I2C_MasterStop>
    3488:	f640 2033 	movw	r0, #2611	; 0xa33
    348c:	9011      	str	r0, [sp, #68]	; 0x44
    348e:	e071      	b.n	3574 <I2C_MasterTransferBlocking+0x1f0>
    3490:	980a      	ldr	r0, [sp, #40]	; 0x28
    3492:	9009      	str	r0, [sp, #36]	; 0x24
    3494:	e025      	b.n	34e2 <I2C_MasterTransferBlocking+0x15e>
    3496:	9817      	ldr	r0, [sp, #92]	; 0x5c
    3498:	7940      	ldrb	r0, [r0, #5]
    349a:	2801      	cmp	r0, #1
    349c:	d11b      	bne.n	34d6 <I2C_MasterTransferBlocking+0x152>
    349e:	e7ff      	b.n	34a0 <I2C_MasterTransferBlocking+0x11c>
    34a0:	9818      	ldr	r0, [sp, #96]	; 0x60
    34a2:	9a17      	ldr	r2, [sp, #92]	; 0x5c
    34a4:	7911      	ldrb	r1, [r2, #4]
    34a6:	7952      	ldrb	r2, [r2, #5]
    34a8:	f000 f8a3 	bl	35f2 <I2C_MasterRepeatedStart>
    34ac:	4601      	mov	r1, r0
    34ae:	4608      	mov	r0, r1
    34b0:	9008      	str	r0, [sp, #32]
    34b2:	b969      	cbnz	r1, 34d0 <I2C_MasterTransferBlocking+0x14c>
    34b4:	e7ff      	b.n	34b6 <I2C_MasterTransferBlocking+0x132>
    34b6:	9818      	ldr	r0, [sp, #96]	; 0x60
    34b8:	f000 f877 	bl	35aa <I2C_MasterCheckStartResponse>
    34bc:	4601      	mov	r1, r0
    34be:	9107      	str	r1, [sp, #28]
    34c0:	b118      	cbz	r0, 34ca <I2C_MasterTransferBlocking+0x146>
    34c2:	e7ff      	b.n	34c4 <I2C_MasterTransferBlocking+0x140>
    34c4:	9807      	ldr	r0, [sp, #28]
    34c6:	9011      	str	r0, [sp, #68]	; 0x44
    34c8:	e054      	b.n	3574 <I2C_MasterTransferBlocking+0x1f0>
    34ca:	9807      	ldr	r0, [sp, #28]
    34cc:	9008      	str	r0, [sp, #32]
    34ce:	e7ff      	b.n	34d0 <I2C_MasterTransferBlocking+0x14c>
    34d0:	9808      	ldr	r0, [sp, #32]
    34d2:	9006      	str	r0, [sp, #24]
    34d4:	e002      	b.n	34dc <I2C_MasterTransferBlocking+0x158>
    34d6:	980a      	ldr	r0, [sp, #40]	; 0x28
    34d8:	9006      	str	r0, [sp, #24]
    34da:	e7ff      	b.n	34dc <I2C_MasterTransferBlocking+0x158>
    34dc:	9806      	ldr	r0, [sp, #24]
    34de:	9009      	str	r0, [sp, #36]	; 0x24
    34e0:	e7ff      	b.n	34e2 <I2C_MasterTransferBlocking+0x15e>
    34e2:	9809      	ldr	r0, [sp, #36]	; 0x24
    34e4:	9010      	str	r0, [sp, #64]	; 0x40
    34e6:	e7ff      	b.n	34e8 <I2C_MasterTransferBlocking+0x164>
    34e8:	9810      	ldr	r0, [sp, #64]	; 0x40
    34ea:	9013      	str	r0, [sp, #76]	; 0x4c
    34ec:	e7ff      	b.n	34ee <I2C_MasterTransferBlocking+0x16a>
    34ee:	9813      	ldr	r0, [sp, #76]	; 0x4c
    34f0:	9016      	str	r0, [sp, #88]	; 0x58
    34f2:	e7ff      	b.n	34f4 <I2C_MasterTransferBlocking+0x170>
    34f4:	9816      	ldr	r0, [sp, #88]	; 0x58
    34f6:	9004      	str	r0, [sp, #16]
    34f8:	9005      	str	r0, [sp, #20]
    34fa:	bb68      	cbnz	r0, 3558 <I2C_MasterTransferBlocking+0x1d4>
    34fc:	e7ff      	b.n	34fe <I2C_MasterTransferBlocking+0x17a>
    34fe:	9817      	ldr	r0, [sp, #92]	; 0x5c
    3500:	7940      	ldrb	r0, [r0, #5]
    3502:	b968      	cbnz	r0, 3520 <I2C_MasterTransferBlocking+0x19c>
    3504:	e7ff      	b.n	3506 <I2C_MasterTransferBlocking+0x182>
    3506:	9817      	ldr	r0, [sp, #92]	; 0x5c
    3508:	6940      	ldr	r0, [r0, #20]
    350a:	b148      	cbz	r0, 3520 <I2C_MasterTransferBlocking+0x19c>
    350c:	e7ff      	b.n	350e <I2C_MasterTransferBlocking+0x18a>
    350e:	9818      	ldr	r0, [sp, #96]	; 0x60
    3510:	9a17      	ldr	r2, [sp, #92]	; 0x5c
    3512:	6813      	ldr	r3, [r2, #0]
    3514:	6911      	ldr	r1, [r2, #16]
    3516:	6952      	ldr	r2, [r2, #20]
    3518:	f7ff fe0c 	bl	3134 <I2C_MasterWriteBlocking>
    351c:	9003      	str	r0, [sp, #12]
    351e:	e018      	b.n	3552 <I2C_MasterTransferBlocking+0x1ce>
    3520:	9804      	ldr	r0, [sp, #16]
    3522:	9917      	ldr	r1, [sp, #92]	; 0x5c
    3524:	7949      	ldrb	r1, [r1, #5]
    3526:	2901      	cmp	r1, #1
    3528:	9002      	str	r0, [sp, #8]
    352a:	d10f      	bne.n	354c <I2C_MasterTransferBlocking+0x1c8>
    352c:	e7ff      	b.n	352e <I2C_MasterTransferBlocking+0x1aa>
    352e:	9804      	ldr	r0, [sp, #16]
    3530:	9917      	ldr	r1, [sp, #92]	; 0x5c
    3532:	6949      	ldr	r1, [r1, #20]
    3534:	9002      	str	r0, [sp, #8]
    3536:	b149      	cbz	r1, 354c <I2C_MasterTransferBlocking+0x1c8>
    3538:	e7ff      	b.n	353a <I2C_MasterTransferBlocking+0x1b6>
    353a:	9818      	ldr	r0, [sp, #96]	; 0x60
    353c:	9a17      	ldr	r2, [sp, #92]	; 0x5c
    353e:	6813      	ldr	r3, [r2, #0]
    3540:	6911      	ldr	r1, [r2, #16]
    3542:	6952      	ldr	r2, [r2, #20]
    3544:	f7ff fe8c 	bl	3260 <I2C_MasterReadBlocking>
    3548:	9002      	str	r0, [sp, #8]
    354a:	e7ff      	b.n	354c <I2C_MasterTransferBlocking+0x1c8>
    354c:	9802      	ldr	r0, [sp, #8]
    354e:	9003      	str	r0, [sp, #12]
    3550:	e7ff      	b.n	3552 <I2C_MasterTransferBlocking+0x1ce>
    3552:	9803      	ldr	r0, [sp, #12]
    3554:	9005      	str	r0, [sp, #20]
    3556:	e7ff      	b.n	3558 <I2C_MasterTransferBlocking+0x1d4>
    3558:	9805      	ldr	r0, [sp, #20]
    355a:	9001      	str	r0, [sp, #4]
    355c:	f640 212a 	movw	r1, #2602	; 0xa2a
    3560:	4288      	cmp	r0, r1
    3562:	d104      	bne.n	356e <I2C_MasterTransferBlocking+0x1ea>
    3564:	e7ff      	b.n	3566 <I2C_MasterTransferBlocking+0x1e2>
    3566:	9818      	ldr	r0, [sp, #96]	; 0x60
    3568:	f7ff fdcd 	bl	3106 <I2C_MasterStop>
    356c:	e7ff      	b.n	356e <I2C_MasterTransferBlocking+0x1ea>
    356e:	9801      	ldr	r0, [sp, #4]
    3570:	9011      	str	r0, [sp, #68]	; 0x44
    3572:	e7ff      	b.n	3574 <I2C_MasterTransferBlocking+0x1f0>
    3574:	9811      	ldr	r0, [sp, #68]	; 0x44
    3576:	b01a      	add	sp, #104	; 0x68
    3578:	bd80      	pop	{r7, pc}

0000357a <I2C_SlaveEnable>:
    357a:	b081      	sub	sp, #4
    357c:	9000      	str	r0, [sp, #0]
    357e:	b151      	cbz	r1, 3596 <I2C_SlaveEnable+0x1c>
    3580:	e7ff      	b.n	3582 <I2C_SlaveEnable+0x8>
    3582:	9900      	ldr	r1, [sp, #0]
    3584:	f8d1 0800 	ldr.w	r0, [r1, #2048]	; 0x800
    3588:	f040 0002 	orr.w	r0, r0, #2
    358c:	f000 001f 	and.w	r0, r0, #31
    3590:	f8c1 0800 	str.w	r0, [r1, #2048]	; 0x800
    3594:	e007      	b.n	35a6 <I2C_SlaveEnable+0x2c>
    3596:	9900      	ldr	r1, [sp, #0]
    3598:	f8d1 0800 	ldr.w	r0, [r1, #2048]	; 0x800
    359c:	f000 001d 	and.w	r0, r0, #29
    35a0:	f8c1 0800 	str.w	r0, [r1, #2048]	; 0x800
    35a4:	e7ff      	b.n	35a6 <I2C_SlaveEnable+0x2c>
    35a6:	b001      	add	sp, #4
    35a8:	4770      	bx	lr

000035aa <I2C_MasterCheckStartResponse>:
    35aa:	b580      	push	{r7, lr}
    35ac:	466f      	mov	r7, sp
    35ae:	b084      	sub	sp, #16
    35b0:	9002      	str	r0, [sp, #8]
    35b2:	f7ff fd59 	bl	3068 <I2C_PendingStatusWait>
    35b6:	4601      	mov	r1, r0
    35b8:	9103      	str	r1, [sp, #12]
    35ba:	b118      	cbz	r0, 35c4 <I2C_MasterCheckStartResponse+0x1a>
    35bc:	e7ff      	b.n	35be <I2C_MasterCheckStartResponse+0x14>
    35be:	9803      	ldr	r0, [sp, #12]
    35c0:	9001      	str	r0, [sp, #4]
    35c2:	e013      	b.n	35ec <I2C_MasterCheckStartResponse+0x42>
    35c4:	9802      	ldr	r0, [sp, #8]
    35c6:	f8d0 0804 	ldr.w	r0, [r0, #2052]	; 0x804
    35ca:	f000 010e 	and.w	r1, r0, #14
    35ce:	2003      	movs	r0, #3
    35d0:	ebb0 0f51 	cmp.w	r0, r1, lsr #1
    35d4:	d107      	bne.n	35e6 <I2C_MasterCheckStartResponse+0x3c>
    35d6:	e7ff      	b.n	35d8 <I2C_MasterCheckStartResponse+0x2e>
    35d8:	9802      	ldr	r0, [sp, #8]
    35da:	f7ff fd94 	bl	3106 <I2C_MasterStop>
    35de:	f640 2033 	movw	r0, #2611	; 0xa33
    35e2:	9001      	str	r0, [sp, #4]
    35e4:	e002      	b.n	35ec <I2C_MasterCheckStartResponse+0x42>
    35e6:	2000      	movs	r0, #0
    35e8:	9001      	str	r0, [sp, #4]
    35ea:	e7ff      	b.n	35ec <I2C_MasterCheckStartResponse+0x42>
    35ec:	9801      	ldr	r0, [sp, #4]
    35ee:	b004      	add	sp, #16
    35f0:	bd80      	pop	{r7, pc}

000035f2 <I2C_MasterRepeatedStart>:
    35f2:	b580      	push	{r7, lr}
    35f4:	466f      	mov	r7, sp
    35f6:	f7ff fd15 	bl	3024 <I2C_MasterStart>
    35fa:	bd80      	pop	{r7, pc}

000035fc <I2C_ClearStatusFlags>:
    35fc:	b081      	sub	sp, #4
    35fe:	9100      	str	r1, [sp, #0]
    3600:	4601      	mov	r1, r0
    3602:	9800      	ldr	r0, [sp, #0]
    3604:	f248 0250 	movw	r2, #32848	; 0x8050
    3608:	f2c0 320a 	movt	r2, #778	; 0x30a
    360c:	4010      	ands	r0, r2
    360e:	f8c1 0804 	str.w	r0, [r1, #2052]	; 0x804
    3612:	b001      	add	sp, #4
    3614:	4770      	bx	lr

00003616 <HAL_UartInit>:
    3616:	b580      	push	{r7, lr}
    3618:	466f      	mov	r7, sp
    361a:	b084      	sub	sp, #16
    361c:	9101      	str	r1, [sp, #4]
    361e:	9002      	str	r0, [sp, #8]
    3620:	f000 f812 	bl	3648 <HAL_UartInitCommon>
    3624:	4601      	mov	r1, r0
    3626:	9103      	str	r1, [sp, #12]
    3628:	b118      	cbz	r0, 3632 <HAL_UartInit+0x1c>
    362a:	e7ff      	b.n	362c <HAL_UartInit+0x16>
    362c:	9803      	ldr	r0, [sp, #12]
    362e:	9000      	str	r0, [sp, #0]
    3630:	e006      	b.n	3640 <HAL_UartInit+0x2a>
    3632:	9902      	ldr	r1, [sp, #8]
    3634:	9801      	ldr	r0, [sp, #4]
    3636:	7b80      	ldrb	r0, [r0, #14]
    3638:	7008      	strb	r0, [r1, #0]
    363a:	2000      	movs	r0, #0
    363c:	9000      	str	r0, [sp, #0]
    363e:	e7ff      	b.n	3640 <HAL_UartInit+0x2a>
    3640:	9800      	ldr	r0, [sp, #0]
    3642:	b280      	uxth	r0, r0
    3644:	b004      	add	sp, #16
    3646:	bd80      	pop	{r7, pc}

00003648 <HAL_UartInitCommon>:
    3648:	b580      	push	{r7, lr}
    364a:	466f      	mov	r7, sp
    364c:	b088      	sub	sp, #32
    364e:	9102      	str	r1, [sp, #8]
    3650:	b108      	cbz	r0, 3656 <HAL_UartInitCommon+0xe>
    3652:	e7ff      	b.n	3654 <HAL_UartInitCommon+0xc>
    3654:	e00f      	b.n	3676 <HAL_UartInitCommon+0x2e>
    3656:	f249 00cb 	movw	r0, #37067	; 0x90cb
    365a:	f2c0 0000 	movt	r0, #0
    365e:	f249 124d 	movw	r2, #37197	; 0x914d
    3662:	f2c0 0200 	movt	r2, #0
    3666:	f648 3300 	movw	r3, #35584	; 0x8b00
    366a:	f2c0 0300 	movt	r3, #0
    366e:	f44f 718c 	mov.w	r1, #280	; 0x118
    3672:	f001 fc66 	bl	4f42 <__assert_func>
    3676:	9802      	ldr	r0, [sp, #8]
    3678:	b108      	cbz	r0, 367e <HAL_UartInitCommon+0x36>
    367a:	e7ff      	b.n	367c <HAL_UartInitCommon+0x34>
    367c:	e00f      	b.n	369e <HAL_UartInitCommon+0x56>
    367e:	f249 00cb 	movw	r0, #37067	; 0x90cb
    3682:	f2c0 0000 	movt	r0, #0
    3686:	f249 124d 	movw	r2, #37197	; 0x914d
    368a:	f2c0 0200 	movt	r2, #0
    368e:	f648 33d6 	movw	r3, #35798	; 0x8bd6
    3692:	f2c0 0300 	movt	r3, #0
    3696:	f240 1119 	movw	r1, #281	; 0x119
    369a:	f001 fc52 	bl	4f42 <__assert_func>
    369e:	9802      	ldr	r0, [sp, #8]
    36a0:	7b80      	ldrb	r0, [r0, #14]
    36a2:	2807      	cmp	r0, #7
    36a4:	d801      	bhi.n	36aa <HAL_UartInitCommon+0x62>
    36a6:	e7ff      	b.n	36a8 <HAL_UartInitCommon+0x60>
    36a8:	e00f      	b.n	36ca <HAL_UartInitCommon+0x82>
    36aa:	f249 00cb 	movw	r0, #37067	; 0x90cb
    36ae:	f2c0 0000 	movt	r0, #0
    36b2:	f249 124d 	movw	r2, #37197	; 0x914d
    36b6:	f2c0 0200 	movt	r2, #0
    36ba:	f249 1360 	movw	r3, #37216	; 0x9160
    36be:	f2c0 0300 	movt	r3, #0
    36c2:	f44f 718d 	mov.w	r1, #282	; 0x11a
    36c6:	f001 fc3c 	bl	4f42 <__assert_func>
    36ca:	9802      	ldr	r0, [sp, #8]
    36cc:	7b81      	ldrb	r1, [r0, #14]
    36ce:	f249 10cc 	movw	r0, #37324	; 0x91cc
    36d2:	f2c0 0000 	movt	r0, #0
    36d6:	f850 0021 	ldr.w	r0, [r0, r1, lsl #2]
    36da:	b108      	cbz	r0, 36e0 <HAL_UartInitCommon+0x98>
    36dc:	e7ff      	b.n	36de <HAL_UartInitCommon+0x96>
    36de:	e00f      	b.n	3700 <HAL_UartInitCommon+0xb8>
    36e0:	f249 00cb 	movw	r0, #37067	; 0x90cb
    36e4:	f2c0 0000 	movt	r0, #0
    36e8:	f249 124d 	movw	r2, #37197	; 0x914d
    36ec:	f2c0 0200 	movt	r2, #0
    36f0:	f249 13a7 	movw	r3, #37287	; 0x91a7
    36f4:	f2c0 0300 	movt	r3, #0
    36f8:	f240 111b 	movw	r1, #283	; 0x11b
    36fc:	f001 fc21 	bl	4f42 <__assert_func>
    3700:	a803      	add	r0, sp, #12
    3702:	f7ff fa55 	bl	2bb0 <USART_GetDefaultConfig>
    3706:	9802      	ldr	r0, [sp, #8]
    3708:	6841      	ldr	r1, [r0, #4]
    370a:	9103      	str	r1, [sp, #12]
    370c:	7b00      	ldrb	r0, [r0, #12]
    370e:	b920      	cbnz	r0, 371a <HAL_UartInitCommon+0xd2>
    3710:	e7ff      	b.n	3712 <HAL_UartInitCommon+0xca>
    3712:	9802      	ldr	r0, [sp, #8]
    3714:	7b40      	ldrb	r0, [r0, #13]
    3716:	b120      	cbz	r0, 3722 <HAL_UartInitCommon+0xda>
    3718:	e7ff      	b.n	371a <HAL_UartInitCommon+0xd2>
    371a:	2001      	movs	r0, #1
    371c:	f88d 0018 	strb.w	r0, [sp, #24]
    3720:	e7ff      	b.n	3722 <HAL_UartInitCommon+0xda>
    3722:	9802      	ldr	r0, [sp, #8]
    3724:	7a00      	ldrb	r0, [r0, #8]
    3726:	2802      	cmp	r0, #2
    3728:	d104      	bne.n	3734 <HAL_UartInitCommon+0xec>
    372a:	e7ff      	b.n	372c <HAL_UartInitCommon+0xe4>
    372c:	2002      	movs	r0, #2
    372e:	f88d 0010 	strb.w	r0, [sp, #16]
    3732:	e00d      	b.n	3750 <HAL_UartInitCommon+0x108>
    3734:	9802      	ldr	r0, [sp, #8]
    3736:	7a00      	ldrb	r0, [r0, #8]
    3738:	2803      	cmp	r0, #3
    373a:	d104      	bne.n	3746 <HAL_UartInitCommon+0xfe>
    373c:	e7ff      	b.n	373e <HAL_UartInitCommon+0xf6>
    373e:	2003      	movs	r0, #3
    3740:	f88d 0010 	strb.w	r0, [sp, #16]
    3744:	e003      	b.n	374e <HAL_UartInitCommon+0x106>
    3746:	2000      	movs	r0, #0
    3748:	f88d 0010 	strb.w	r0, [sp, #16]
    374c:	e7ff      	b.n	374e <HAL_UartInitCommon+0x106>
    374e:	e7ff      	b.n	3750 <HAL_UartInitCommon+0x108>
    3750:	9802      	ldr	r0, [sp, #8]
    3752:	7a40      	ldrb	r0, [r0, #9]
    3754:	2801      	cmp	r0, #1
    3756:	d104      	bne.n	3762 <HAL_UartInitCommon+0x11a>
    3758:	e7ff      	b.n	375a <HAL_UartInitCommon+0x112>
    375a:	2001      	movs	r0, #1
    375c:	f88d 0011 	strb.w	r0, [sp, #17]
    3760:	e003      	b.n	376a <HAL_UartInitCommon+0x122>
    3762:	2000      	movs	r0, #0
    3764:	f88d 0011 	strb.w	r0, [sp, #17]
    3768:	e7ff      	b.n	376a <HAL_UartInitCommon+0x122>
    376a:	9902      	ldr	r1, [sp, #8]
    376c:	7a88      	ldrb	r0, [r1, #10]
    376e:	2800      	cmp	r0, #0
    3770:	bf18      	it	ne
    3772:	2001      	movne	r0, #1
    3774:	f88d 0014 	strb.w	r0, [sp, #20]
    3778:	7ac8      	ldrb	r0, [r1, #11]
    377a:	2800      	cmp	r0, #0
    377c:	bf18      	it	ne
    377e:	2001      	movne	r0, #1
    3780:	f88d 0015 	strb.w	r0, [sp, #21]
    3784:	2000      	movs	r0, #0
    3786:	f88d 0019 	strb.w	r0, [sp, #25]
    378a:	f88d 001a 	strb.w	r0, [sp, #26]
    378e:	7b8a      	ldrb	r2, [r1, #14]
    3790:	f249 10cc 	movw	r0, #37324	; 0x91cc
    3794:	f2c0 0000 	movt	r0, #0
    3798:	f850 0022 	ldr.w	r0, [r0, r2, lsl #2]
    379c:	680a      	ldr	r2, [r1, #0]
    379e:	a903      	add	r1, sp, #12
    37a0:	f7ff f816 	bl	27d0 <USART_Init>
    37a4:	4601      	mov	r1, r0
    37a6:	9101      	str	r1, [sp, #4]
    37a8:	b128      	cbz	r0, 37b6 <HAL_UartInitCommon+0x16e>
    37aa:	e7ff      	b.n	37ac <HAL_UartInitCommon+0x164>
    37ac:	9801      	ldr	r0, [sp, #4]
    37ae:	f000 f809 	bl	37c4 <HAL_UartGetStatus>
    37b2:	9000      	str	r0, [sp, #0]
    37b4:	e002      	b.n	37bc <HAL_UartInitCommon+0x174>
    37b6:	2000      	movs	r0, #0
    37b8:	9000      	str	r0, [sp, #0]
    37ba:	e7ff      	b.n	37bc <HAL_UartInitCommon+0x174>
    37bc:	9800      	ldr	r0, [sp, #0]
    37be:	b280      	uxth	r0, r0
    37c0:	b008      	add	sp, #32
    37c2:	bd80      	pop	{r7, pc}

000037c4 <HAL_UartGetStatus>:
    37c4:	b081      	sub	sp, #4
    37c6:	b918      	cbnz	r0, 37d0 <HAL_UartGetStatus+0xc>
    37c8:	e7ff      	b.n	37ca <HAL_UartGetStatus+0x6>
    37ca:	2000      	movs	r0, #0
    37cc:	9000      	str	r0, [sp, #0]
    37ce:	e003      	b.n	37d8 <HAL_UartGetStatus+0x14>
    37d0:	f642 70af 	movw	r0, #12207	; 0x2faf
    37d4:	9000      	str	r0, [sp, #0]
    37d6:	e7ff      	b.n	37d8 <HAL_UartGetStatus+0x14>
    37d8:	9800      	ldr	r0, [sp, #0]
    37da:	b280      	uxth	r0, r0
    37dc:	b001      	add	sp, #4
    37de:	4770      	bx	lr

000037e0 <HAL_UartSendBlocking>:
    37e0:	b580      	push	{r7, lr}
    37e2:	466f      	mov	r7, sp
    37e4:	b084      	sub	sp, #16
    37e6:	9201      	str	r2, [sp, #4]
    37e8:	9102      	str	r1, [sp, #8]
    37ea:	9003      	str	r0, [sp, #12]
    37ec:	b108      	cbz	r0, 37f2 <HAL_UartSendBlocking+0x12>
    37ee:	e7ff      	b.n	37f0 <HAL_UartSendBlocking+0x10>
    37f0:	e00f      	b.n	3812 <HAL_UartSendBlocking+0x32>
    37f2:	f249 00cb 	movw	r0, #37067	; 0x90cb
    37f6:	f2c0 0000 	movt	r0, #0
    37fa:	f249 1222 	movw	r2, #37154	; 0x9122
    37fe:	f2c0 0200 	movt	r2, #0
    3802:	f648 3300 	movw	r3, #35584	; 0x8b00
    3806:	f2c0 0300 	movt	r3, #0
    380a:	f44f 71cb 	mov.w	r1, #406	; 0x196
    380e:	f001 fb98 	bl	4f42 <__assert_func>
    3812:	9802      	ldr	r0, [sp, #8]
    3814:	b108      	cbz	r0, 381a <HAL_UartSendBlocking+0x3a>
    3816:	e7ff      	b.n	3818 <HAL_UartSendBlocking+0x38>
    3818:	e00f      	b.n	383a <HAL_UartSendBlocking+0x5a>
    381a:	f249 00cb 	movw	r0, #37067	; 0x90cb
    381e:	f2c0 0000 	movt	r0, #0
    3822:	f249 1222 	movw	r2, #37154	; 0x9122
    3826:	f2c0 0200 	movt	r2, #0
    382a:	f249 1316 	movw	r3, #37142	; 0x9116
    382e:	f2c0 0300 	movt	r3, #0
    3832:	f240 1197 	movw	r1, #407	; 0x197
    3836:	f001 fb84 	bl	4f42 <__assert_func>
    383a:	9801      	ldr	r0, [sp, #4]
    383c:	b108      	cbz	r0, 3842 <HAL_UartSendBlocking+0x62>
    383e:	e7ff      	b.n	3840 <HAL_UartSendBlocking+0x60>
    3840:	e00f      	b.n	3862 <HAL_UartSendBlocking+0x82>
    3842:	f249 00cb 	movw	r0, #37067	; 0x90cb
    3846:	f2c0 0000 	movt	r0, #0
    384a:	f249 1222 	movw	r2, #37154	; 0x9122
    384e:	f2c0 0200 	movt	r2, #0
    3852:	f249 131b 	movw	r3, #37147	; 0x911b
    3856:	f2c0 0300 	movt	r3, #0
    385a:	f44f 71cc 	mov.w	r1, #408	; 0x198
    385e:	f001 fb70 	bl	4f42 <__assert_func>
    3862:	9a01      	ldr	r2, [sp, #4]
    3864:	9902      	ldr	r1, [sp, #8]
    3866:	9803      	ldr	r0, [sp, #12]
    3868:	7803      	ldrb	r3, [r0, #0]
    386a:	f249 10cc 	movw	r0, #37324	; 0x91cc
    386e:	f2c0 0000 	movt	r0, #0
    3872:	f850 0023 	ldr.w	r0, [r0, r3, lsl #2]
    3876:	f7ff f9cd 	bl	2c14 <USART_WriteBlocking>
    387a:	2000      	movs	r0, #0
    387c:	b004      	add	sp, #16
    387e:	bd80      	pop	{r7, pc}

00003880 <Serial_UartInit>:
    3880:	b580      	push	{r7, lr}
    3882:	466f      	mov	r7, sp
    3884:	b084      	sub	sp, #16
    3886:	9102      	str	r1, [sp, #8]
    3888:	9003      	str	r0, [sp, #12]
    388a:	e7ff      	b.n	388c <Serial_UartInit+0xc>
    388c:	9802      	ldr	r0, [sp, #8]
    388e:	b908      	cbnz	r0, 3894 <Serial_UartInit+0x14>
    3890:	e7ff      	b.n	3892 <Serial_UartInit+0x12>
    3892:	e7fb      	b.n	388c <Serial_UartInit+0xc>
    3894:	e7ff      	b.n	3896 <Serial_UartInit+0x16>
    3896:	9803      	ldr	r0, [sp, #12]
    3898:	b908      	cbnz	r0, 389e <Serial_UartInit+0x1e>
    389a:	e7ff      	b.n	389c <Serial_UartInit+0x1c>
    389c:	e7fb      	b.n	3896 <Serial_UartInit+0x16>
    389e:	e7ff      	b.n	38a0 <Serial_UartInit+0x20>
    38a0:	2001      	movs	r0, #1
    38a2:	b908      	cbnz	r0, 38a8 <Serial_UartInit+0x28>
    38a4:	e7ff      	b.n	38a6 <Serial_UartInit+0x26>
    38a6:	e7fb      	b.n	38a0 <Serial_UartInit+0x20>
    38a8:	9902      	ldr	r1, [sp, #8]
    38aa:	9803      	ldr	r0, [sp, #12]
    38ac:	f7ff feb3 	bl	3616 <HAL_UartInit>
    38b0:	9001      	str	r0, [sp, #4]
    38b2:	e7ff      	b.n	38b4 <Serial_UartInit+0x34>
    38b4:	9801      	ldr	r0, [sp, #4]
    38b6:	0400      	lsls	r0, r0, #16
    38b8:	b108      	cbz	r0, 38be <Serial_UartInit+0x3e>
    38ba:	e7ff      	b.n	38bc <Serial_UartInit+0x3c>
    38bc:	e7fa      	b.n	38b4 <Serial_UartInit+0x34>
    38be:	9801      	ldr	r0, [sp, #4]
    38c0:	b280      	uxth	r0, r0
    38c2:	b004      	add	sp, #16
    38c4:	bd80      	pop	{r7, pc}

000038c6 <Serial_UartWrite>:
    38c6:	b580      	push	{r7, lr}
    38c8:	466f      	mov	r7, sp
    38ca:	b084      	sub	sp, #16
    38cc:	9201      	str	r2, [sp, #4]
    38ce:	9102      	str	r1, [sp, #8]
    38d0:	9003      	str	r0, [sp, #12]
    38d2:	e7ff      	b.n	38d4 <Serial_UartWrite+0xe>
    38d4:	9803      	ldr	r0, [sp, #12]
    38d6:	b908      	cbnz	r0, 38dc <Serial_UartWrite+0x16>
    38d8:	e7ff      	b.n	38da <Serial_UartWrite+0x14>
    38da:	e7fb      	b.n	38d4 <Serial_UartWrite+0xe>
    38dc:	e7ff      	b.n	38de <Serial_UartWrite+0x18>
    38de:	9802      	ldr	r0, [sp, #8]
    38e0:	b908      	cbnz	r0, 38e6 <Serial_UartWrite+0x20>
    38e2:	e7ff      	b.n	38e4 <Serial_UartWrite+0x1e>
    38e4:	e7fb      	b.n	38de <Serial_UartWrite+0x18>
    38e6:	e7ff      	b.n	38e8 <Serial_UartWrite+0x22>
    38e8:	9801      	ldr	r0, [sp, #4]
    38ea:	b908      	cbnz	r0, 38f0 <Serial_UartWrite+0x2a>
    38ec:	e7ff      	b.n	38ee <Serial_UartWrite+0x28>
    38ee:	e7fb      	b.n	38e8 <Serial_UartWrite+0x22>
    38f0:	9a01      	ldr	r2, [sp, #4]
    38f2:	9902      	ldr	r1, [sp, #8]
    38f4:	9803      	ldr	r0, [sp, #12]
    38f6:	f7ff ff73 	bl	37e0 <HAL_UartSendBlocking>
    38fa:	b004      	add	sp, #16
    38fc:	bd80      	pop	{r7, pc}

000038fe <SerialManager_Init>:
    38fe:	b580      	push	{r7, lr}
    3900:	466f      	mov	r7, sp
    3902:	b084      	sub	sp, #16
    3904:	9102      	str	r1, [sp, #8]
    3906:	9003      	str	r0, [sp, #12]
    3908:	e7ff      	b.n	390a <SerialManager_Init+0xc>
    390a:	9802      	ldr	r0, [sp, #8]
    390c:	b908      	cbnz	r0, 3912 <SerialManager_Init+0x14>
    390e:	e7ff      	b.n	3910 <SerialManager_Init+0x12>
    3910:	e7fb      	b.n	390a <SerialManager_Init+0xc>
    3912:	e7ff      	b.n	3914 <SerialManager_Init+0x16>
    3914:	9803      	ldr	r0, [sp, #12]
    3916:	b908      	cbnz	r0, 391c <SerialManager_Init+0x1e>
    3918:	e7ff      	b.n	391a <SerialManager_Init+0x1c>
    391a:	e7fb      	b.n	3914 <SerialManager_Init+0x16>
    391c:	e7ff      	b.n	391e <SerialManager_Init+0x20>
    391e:	2001      	movs	r0, #1
    3920:	b908      	cbnz	r0, 3926 <SerialManager_Init+0x28>
    3922:	e7ff      	b.n	3924 <SerialManager_Init+0x26>
    3924:	e7fb      	b.n	391e <SerialManager_Init+0x20>
    3926:	9803      	ldr	r0, [sp, #12]
    3928:	4601      	mov	r1, r0
    392a:	9101      	str	r1, [sp, #4]
    392c:	2100      	movs	r1, #0
    392e:	2214      	movs	r2, #20
    3930:	f004 fdd4 	bl	84dc <memset>
    3934:	9a03      	ldr	r2, [sp, #12]
    3936:	9802      	ldr	r0, [sp, #8]
    3938:	7a01      	ldrb	r1, [r0, #8]
    393a:	7011      	strb	r1, [r2, #0]
    393c:	7a00      	ldrb	r0, [r0, #8]
    393e:	2801      	cmp	r0, #1
    3940:	d108      	bne.n	3954 <SerialManager_Init+0x56>
    3942:	e7ff      	b.n	3944 <SerialManager_Init+0x46>
    3944:	9902      	ldr	r1, [sp, #8]
    3946:	9801      	ldr	r0, [sp, #4]
    3948:	300c      	adds	r0, #12
    394a:	68c9      	ldr	r1, [r1, #12]
    394c:	f7ff ff98 	bl	3880 <Serial_UartInit>
    3950:	9000      	str	r0, [sp, #0]
    3952:	e003      	b.n	395c <SerialManager_Init+0x5e>
    3954:	f243 5021 	movw	r0, #13601	; 0x3521
    3958:	9000      	str	r0, [sp, #0]
    395a:	e7ff      	b.n	395c <SerialManager_Init+0x5e>
    395c:	9800      	ldr	r0, [sp, #0]
    395e:	b280      	uxth	r0, r0
    3960:	b004      	add	sp, #16
    3962:	bd80      	pop	{r7, pc}

00003964 <SerialManager_OpenWriteHandle>:
    3964:	b580      	push	{r7, lr}
    3966:	466f      	mov	r7, sp
    3968:	b084      	sub	sp, #16
    396a:	9102      	str	r1, [sp, #8]
    396c:	9003      	str	r0, [sp, #12]
    396e:	e7ff      	b.n	3970 <SerialManager_OpenWriteHandle+0xc>
    3970:	9803      	ldr	r0, [sp, #12]
    3972:	b908      	cbnz	r0, 3978 <SerialManager_OpenWriteHandle+0x14>
    3974:	e7ff      	b.n	3976 <SerialManager_OpenWriteHandle+0x12>
    3976:	e7fb      	b.n	3970 <SerialManager_OpenWriteHandle+0xc>
    3978:	e7ff      	b.n	397a <SerialManager_OpenWriteHandle+0x16>
    397a:	9802      	ldr	r0, [sp, #8]
    397c:	b908      	cbnz	r0, 3982 <SerialManager_OpenWriteHandle+0x1e>
    397e:	e7ff      	b.n	3980 <SerialManager_OpenWriteHandle+0x1c>
    3980:	e7fb      	b.n	397a <SerialManager_OpenWriteHandle+0x16>
    3982:	e7ff      	b.n	3984 <SerialManager_OpenWriteHandle+0x20>
    3984:	2001      	movs	r0, #1
    3986:	b908      	cbnz	r0, 398c <SerialManager_OpenWriteHandle+0x28>
    3988:	e7ff      	b.n	398a <SerialManager_OpenWriteHandle+0x26>
    398a:	e7fb      	b.n	3984 <SerialManager_OpenWriteHandle+0x20>
    398c:	f000 f812 	bl	39b4 <DisableGlobalIRQ>
    3990:	9a03      	ldr	r2, [sp, #12]
    3992:	6891      	ldr	r1, [r2, #8]
    3994:	3101      	adds	r1, #1
    3996:	6091      	str	r1, [r2, #8]
    3998:	f000 f810 	bl	39bc <EnableGlobalIRQ>
    399c:	9802      	ldr	r0, [sp, #8]
    399e:	2100      	movs	r1, #0
    39a0:	9101      	str	r1, [sp, #4]
    39a2:	2204      	movs	r2, #4
    39a4:	f004 fd9a 	bl	84dc <memset>
    39a8:	9a02      	ldr	r2, [sp, #8]
    39aa:	9903      	ldr	r1, [sp, #12]
    39ac:	9801      	ldr	r0, [sp, #4]
    39ae:	6011      	str	r1, [r2, #0]
    39b0:	b004      	add	sp, #16
    39b2:	bd80      	pop	{r7, pc}

000039b4 <DisableGlobalIRQ>:
    39b4:	f3ef 8010 	mrs	r0, PRIMASK
    39b8:	b672      	cpsid	i
    39ba:	4770      	bx	lr

000039bc <EnableGlobalIRQ>:
    39bc:	f380 8810 	msr	PRIMASK, r0
    39c0:	4770      	bx	lr

000039c2 <SerialManager_OpenReadHandle>:
    39c2:	b580      	push	{r7, lr}
    39c4:	466f      	mov	r7, sp
    39c6:	b088      	sub	sp, #32
    39c8:	9106      	str	r1, [sp, #24]
    39ca:	9007      	str	r0, [sp, #28]
    39cc:	e7ff      	b.n	39ce <SerialManager_OpenReadHandle+0xc>
    39ce:	9807      	ldr	r0, [sp, #28]
    39d0:	b908      	cbnz	r0, 39d6 <SerialManager_OpenReadHandle+0x14>
    39d2:	e7ff      	b.n	39d4 <SerialManager_OpenReadHandle+0x12>
    39d4:	e7fb      	b.n	39ce <SerialManager_OpenReadHandle+0xc>
    39d6:	e7ff      	b.n	39d8 <SerialManager_OpenReadHandle+0x16>
    39d8:	9806      	ldr	r0, [sp, #24]
    39da:	b908      	cbnz	r0, 39e0 <SerialManager_OpenReadHandle+0x1e>
    39dc:	e7ff      	b.n	39de <SerialManager_OpenReadHandle+0x1c>
    39de:	e7fb      	b.n	39d8 <SerialManager_OpenReadHandle+0x16>
    39e0:	e7ff      	b.n	39e2 <SerialManager_OpenReadHandle+0x20>
    39e2:	2001      	movs	r0, #1
    39e4:	b908      	cbnz	r0, 39ea <SerialManager_OpenReadHandle+0x28>
    39e6:	e7ff      	b.n	39e8 <SerialManager_OpenReadHandle+0x26>
    39e8:	e7fb      	b.n	39e2 <SerialManager_OpenReadHandle+0x20>
    39ea:	9907      	ldr	r1, [sp, #28]
    39ec:	9806      	ldr	r0, [sp, #24]
    39ee:	9103      	str	r1, [sp, #12]
    39f0:	9004      	str	r0, [sp, #16]
    39f2:	f7ff ffdf 	bl	39b4 <DisableGlobalIRQ>
    39f6:	4601      	mov	r1, r0
    39f8:	9807      	ldr	r0, [sp, #28]
    39fa:	9105      	str	r1, [sp, #20]
    39fc:	6840      	ldr	r0, [r0, #4]
    39fe:	b120      	cbz	r0, 3a0a <SerialManager_OpenReadHandle+0x48>
    3a00:	e7ff      	b.n	3a02 <SerialManager_OpenReadHandle+0x40>
    3a02:	f243 5022 	movw	r0, #13602	; 0x3522
    3a06:	9002      	str	r0, [sp, #8]
    3a08:	e00e      	b.n	3a28 <SerialManager_OpenReadHandle+0x66>
    3a0a:	9a03      	ldr	r2, [sp, #12]
    3a0c:	9904      	ldr	r1, [sp, #16]
    3a0e:	9806      	ldr	r0, [sp, #24]
    3a10:	6051      	str	r1, [r2, #4]
    3a12:	2100      	movs	r1, #0
    3a14:	9101      	str	r1, [sp, #4]
    3a16:	2204      	movs	r2, #4
    3a18:	f004 fd60 	bl	84dc <memset>
    3a1c:	9a04      	ldr	r2, [sp, #16]
    3a1e:	9903      	ldr	r1, [sp, #12]
    3a20:	9801      	ldr	r0, [sp, #4]
    3a22:	6011      	str	r1, [r2, #0]
    3a24:	9002      	str	r0, [sp, #8]
    3a26:	e7ff      	b.n	3a28 <SerialManager_OpenReadHandle+0x66>
    3a28:	9805      	ldr	r0, [sp, #20]
    3a2a:	9902      	ldr	r1, [sp, #8]
    3a2c:	9100      	str	r1, [sp, #0]
    3a2e:	f7ff ffc5 	bl	39bc <EnableGlobalIRQ>
    3a32:	9800      	ldr	r0, [sp, #0]
    3a34:	b280      	uxth	r0, r0
    3a36:	b008      	add	sp, #32
    3a38:	bd80      	pop	{r7, pc}

00003a3a <SerialManager_WriteBlocking>:
    3a3a:	b580      	push	{r7, lr}
    3a3c:	466f      	mov	r7, sp
    3a3e:	f000 f801 	bl	3a44 <SerialManager_Write>
    3a42:	bd80      	pop	{r7, pc}

00003a44 <SerialManager_Write>:
    3a44:	b580      	push	{r7, lr}
    3a46:	466f      	mov	r7, sp
    3a48:	b086      	sub	sp, #24
    3a4a:	9203      	str	r2, [sp, #12]
    3a4c:	9104      	str	r1, [sp, #16]
    3a4e:	9005      	str	r0, [sp, #20]
    3a50:	e7ff      	b.n	3a52 <SerialManager_Write+0xe>
    3a52:	9805      	ldr	r0, [sp, #20]
    3a54:	b908      	cbnz	r0, 3a5a <SerialManager_Write+0x16>
    3a56:	e7ff      	b.n	3a58 <SerialManager_Write+0x14>
    3a58:	e7fb      	b.n	3a52 <SerialManager_Write+0xe>
    3a5a:	e7ff      	b.n	3a5c <SerialManager_Write+0x18>
    3a5c:	9804      	ldr	r0, [sp, #16]
    3a5e:	b908      	cbnz	r0, 3a64 <SerialManager_Write+0x20>
    3a60:	e7ff      	b.n	3a62 <SerialManager_Write+0x1e>
    3a62:	e7fb      	b.n	3a5c <SerialManager_Write+0x18>
    3a64:	e7ff      	b.n	3a66 <SerialManager_Write+0x22>
    3a66:	9803      	ldr	r0, [sp, #12]
    3a68:	b908      	cbnz	r0, 3a6e <SerialManager_Write+0x2a>
    3a6a:	e7ff      	b.n	3a6c <SerialManager_Write+0x28>
    3a6c:	e7fb      	b.n	3a66 <SerialManager_Write+0x22>
    3a6e:	9805      	ldr	r0, [sp, #20]
    3a70:	4601      	mov	r1, r0
    3a72:	9101      	str	r1, [sp, #4]
    3a74:	6800      	ldr	r0, [r0, #0]
    3a76:	9002      	str	r0, [sp, #8]
    3a78:	e7ff      	b.n	3a7a <SerialManager_Write+0x36>
    3a7a:	9802      	ldr	r0, [sp, #8]
    3a7c:	b908      	cbnz	r0, 3a82 <SerialManager_Write+0x3e>
    3a7e:	e7ff      	b.n	3a80 <SerialManager_Write+0x3c>
    3a80:	e7fb      	b.n	3a7a <SerialManager_Write+0x36>
    3a82:	9b03      	ldr	r3, [sp, #12]
    3a84:	9a04      	ldr	r2, [sp, #16]
    3a86:	9901      	ldr	r1, [sp, #4]
    3a88:	9802      	ldr	r0, [sp, #8]
    3a8a:	f000 f802 	bl	3a92 <SerialManager_StartWriting>
    3a8e:	b006      	add	sp, #24
    3a90:	bd80      	pop	{r7, pc}

00003a92 <SerialManager_StartWriting>:
    3a92:	b580      	push	{r7, lr}
    3a94:	466f      	mov	r7, sp
    3a96:	b084      	sub	sp, #16
    3a98:	9301      	str	r3, [sp, #4]
    3a9a:	9202      	str	r2, [sp, #8]
    3a9c:	9003      	str	r0, [sp, #12]
    3a9e:	7800      	ldrb	r0, [r0, #0]
    3aa0:	2801      	cmp	r0, #1
    3aa2:	d108      	bne.n	3ab6 <SerialManager_StartWriting+0x24>
    3aa4:	e7ff      	b.n	3aa6 <SerialManager_StartWriting+0x14>
    3aa6:	9a01      	ldr	r2, [sp, #4]
    3aa8:	9902      	ldr	r1, [sp, #8]
    3aaa:	9803      	ldr	r0, [sp, #12]
    3aac:	300c      	adds	r0, #12
    3aae:	f7ff ff0a 	bl	38c6 <Serial_UartWrite>
    3ab2:	9000      	str	r0, [sp, #0]
    3ab4:	e003      	b.n	3abe <SerialManager_StartWriting+0x2c>
    3ab6:	f243 5021 	movw	r0, #13601	; 0x3521
    3aba:	9000      	str	r0, [sp, #0]
    3abc:	e7ff      	b.n	3abe <SerialManager_StartWriting+0x2c>
    3abe:	9800      	ldr	r0, [sp, #0]
    3ac0:	b280      	uxth	r0, r0
    3ac2:	b004      	add	sp, #16
    3ac4:	bd80      	pop	{r7, pc}
	...

00003ac8 <StrFormatPrintf>:
    3ac8:	b5f0      	push	{r4, r5, r6, r7, lr}
    3aca:	af03      	add	r7, sp, #12
    3acc:	f84d bd04 	str.w	fp, [sp, #-4]!
    3ad0:	b0c0      	sub	sp, #256	; 0x100
    3ad2:	9327      	str	r3, [sp, #156]	; 0x9c
    3ad4:	9228      	str	r2, [sp, #160]	; 0xa0
    3ad6:	913f      	str	r1, [sp, #252]	; 0xfc
    3ad8:	2100      	movs	r1, #0
    3ada:	9134      	str	r1, [sp, #208]	; 0xd0
    3adc:	912f      	str	r1, [sp, #188]	; 0xbc
    3ade:	912e      	str	r1, [sp, #184]	; 0xb8
    3ae0:	903e      	str	r0, [sp, #248]	; 0xf8
    3ae2:	e7ff      	b.n	3ae4 <StrFormatPrintf+0x1c>
    3ae4:	983e      	ldr	r0, [sp, #248]	; 0xf8
    3ae6:	7800      	ldrb	r0, [r0, #0]
    3ae8:	b908      	cbnz	r0, 3aee <StrFormatPrintf+0x26>
    3aea:	e7ff      	b.n	3aec <StrFormatPrintf+0x24>
    3aec:	e1e8      	b.n	3ec0 <StrFormatPrintf+0x3f8>
    3aee:	983e      	ldr	r0, [sp, #248]	; 0xf8
    3af0:	7800      	ldrb	r0, [r0, #0]
    3af2:	4601      	mov	r1, r0
    3af4:	9126      	str	r1, [sp, #152]	; 0x98
    3af6:	2825      	cmp	r0, #37	; 0x25
    3af8:	d00c      	beq.n	3b14 <StrFormatPrintf+0x4c>
    3afa:	e7ff      	b.n	3afc <StrFormatPrintf+0x34>
    3afc:	f8dd c09c 	ldr.w	ip, [sp, #156]	; 0x9c
    3b00:	9828      	ldr	r0, [sp, #160]	; 0xa0
    3b02:	9926      	ldr	r1, [sp, #152]	; 0x98
    3b04:	b2ca      	uxtb	r2, r1
    3b06:	a934      	add	r1, sp, #208	; 0xd0
    3b08:	2301      	movs	r3, #1
    3b0a:	47e0      	blx	ip
    3b0c:	983e      	ldr	r0, [sp, #248]	; 0xf8
    3b0e:	3001      	adds	r0, #1
    3b10:	903e      	str	r0, [sp, #248]	; 0xf8
    3b12:	e7e7      	b.n	3ae4 <StrFormatPrintf+0x1c>
    3b14:	a83e      	add	r0, sp, #248	; 0xf8
    3b16:	9023      	str	r0, [sp, #140]	; 0x8c
    3b18:	f000 f9de 	bl	3ed8 <PrintCheckFlags>
    3b1c:	4601      	mov	r1, r0
    3b1e:	9823      	ldr	r0, [sp, #140]	; 0x8c
    3b20:	9133      	str	r1, [sp, #204]	; 0xcc
    3b22:	a93f      	add	r1, sp, #252	; 0xfc
    3b24:	9121      	str	r1, [sp, #132]	; 0x84
    3b26:	f000 fa41 	bl	3fac <PrintGetWidth>
    3b2a:	9921      	ldr	r1, [sp, #132]	; 0x84
    3b2c:	4602      	mov	r2, r0
    3b2e:	9823      	ldr	r0, [sp, #140]	; 0x8c
    3b30:	9222      	str	r2, [sp, #136]	; 0x88
    3b32:	f1a7 0259 	sub.w	r2, r7, #89	; 0x59
    3b36:	f000 fa87 	bl	4048 <PrintGetPrecision>
    3b3a:	4601      	mov	r1, r0
    3b3c:	9823      	ldr	r0, [sp, #140]	; 0x8c
    3b3e:	9124      	str	r1, [sp, #144]	; 0x90
    3b40:	f000 fb0a 	bl	4158 <PrintGetLengthFlag>
    3b44:	4601      	mov	r1, r0
    3b46:	9833      	ldr	r0, [sp, #204]	; 0xcc
    3b48:	4308      	orrs	r0, r1
    3b4a:	9033      	str	r0, [sp, #204]	; 0xcc
    3b4c:	983e      	ldr	r0, [sp, #248]	; 0xf8
    3b4e:	1c41      	adds	r1, r0, #1
    3b50:	913e      	str	r1, [sp, #248]	; 0xf8
    3b52:	7840      	ldrb	r0, [r0, #1]
    3b54:	4601      	mov	r1, r0
    3b56:	9125      	str	r1, [sp, #148]	; 0x94
    3b58:	f000 fb50 	bl	41fc <PrintIsdi>
    3b5c:	2801      	cmp	r0, #1
    3b5e:	d134      	bne.n	3bca <StrFormatPrintf+0x102>
    3b60:	e7ff      	b.n	3b62 <StrFormatPrintf+0x9a>
    3b62:	9c27      	ldr	r4, [sp, #156]	; 0x9c
    3b64:	9d28      	ldr	r5, [sp, #160]	; 0xa0
    3b66:	a833      	add	r0, sp, #204	; 0xcc
    3b68:	a930      	add	r1, sp, #192	; 0xc0
    3b6a:	911d      	str	r1, [sp, #116]	; 0x74
    3b6c:	aa3f      	add	r2, sp, #252	; 0xfc
    3b6e:	f000 fb58 	bl	4222 <StrFormatExaminedi>
    3b72:	991d      	ldr	r1, [sp, #116]	; 0x74
    3b74:	4668      	mov	r0, sp
    3b76:	2201      	movs	r2, #1
    3b78:	6002      	str	r2, [r0, #0]
    3b7a:	f1a7 0039 	sub.w	r0, r7, #57	; 0x39
    3b7e:	901e      	str	r0, [sp, #120]	; 0x78
    3b80:	230a      	movs	r3, #10
    3b82:	f000 fb81 	bl	4288 <ConvertRadixNumToString>
    3b86:	4601      	mov	r1, r0
    3b88:	981e      	ldr	r0, [sp, #120]	; 0x78
    3b8a:	9120      	str	r1, [sp, #128]	; 0x80
    3b8c:	4408      	add	r0, r1
    3b8e:	901f      	str	r0, [sp, #124]	; 0x7c
    3b90:	9830      	ldr	r0, [sp, #192]	; 0xc0
    3b92:	9931      	ldr	r1, [sp, #196]	; 0xc4
    3b94:	9a33      	ldr	r2, [sp, #204]	; 0xcc
    3b96:	f1a7 0345 	sub.w	r3, r7, #69	; 0x45
    3b9a:	f000 fc61 	bl	4460 <PrintGetSignChar>
    3b9e:	f8dd c07c 	ldr.w	ip, [sp, #124]	; 0x7c
    3ba2:	9922      	ldr	r1, [sp, #136]	; 0x88
    3ba4:	4602      	mov	r2, r0
    3ba6:	9820      	ldr	r0, [sp, #128]	; 0x80
    3ba8:	4402      	add	r2, r0
    3baa:	9833      	ldr	r0, [sp, #204]	; 0xcc
    3bac:	f817 3c45 	ldrb.w	r3, [r7, #-69]
    3bb0:	46ee      	mov	lr, sp
    3bb2:	ae34      	add	r6, sp, #208	; 0xd0
    3bb4:	f8ce 600c 	str.w	r6, [lr, #12]
    3bb8:	f8ce 5008 	str.w	r5, [lr, #8]
    3bbc:	f8ce 4004 	str.w	r4, [lr, #4]
    3bc0:	f8ce c000 	str.w	ip, [lr]
    3bc4:	f000 fc7e 	bl	44c4 <PrintOutputdifFobpu>
    3bc8:	e176      	b.n	3eb8 <StrFormatPrintf+0x3f0>
    3bca:	9825      	ldr	r0, [sp, #148]	; 0x94
    3bcc:	b2c0      	uxtb	r0, r0
    3bce:	f000 fd0a 	bl	45e6 <PrintIsfF>
    3bd2:	2801      	cmp	r0, #1
    3bd4:	d14f      	bne.n	3c76 <StrFormatPrintf+0x1ae>
    3bd6:	e7ff      	b.n	3bd8 <StrFormatPrintf+0x110>
    3bd8:	9b24      	ldr	r3, [sp, #144]	; 0x90
    3bda:	983f      	ldr	r0, [sp, #252]	; 0xfc
    3bdc:	3007      	adds	r0, #7
    3bde:	f020 0007 	bic.w	r0, r0, #7
    3be2:	f100 0108 	add.w	r1, r0, #8
    3be6:	913f      	str	r1, [sp, #252]	; 0xfc
    3be8:	ed90 0b00 	vldr	d0, [r0]
    3bec:	ed8d 0b2a 	vstr	d0, [sp, #168]	; 0xa8
    3bf0:	f1a7 0039 	sub.w	r0, r7, #57	; 0x39
    3bf4:	901a      	str	r0, [sp, #104]	; 0x68
    3bf6:	a92a      	add	r1, sp, #168	; 0xa8
    3bf8:	220a      	movs	r2, #10
    3bfa:	f000 fd09 	bl	4610 <ConvertFloatRadixNumToString>
    3bfe:	4601      	mov	r1, r0
    3c00:	981a      	ldr	r0, [sp, #104]	; 0x68
    3c02:	460a      	mov	r2, r1
    3c04:	921b      	str	r2, [sp, #108]	; 0x6c
    3c06:	4408      	add	r0, r1
    3c08:	901c      	str	r0, [sp, #112]	; 0x70
    3c0a:	982a      	ldr	r0, [sp, #168]	; 0xa8
    3c0c:	992b      	ldr	r1, [sp, #172]	; 0xac
    3c0e:	ed9f 0bb0 	vldr	d0, [pc, #704]	; 3ed0 <StrFormatPrintf+0x408>
    3c12:	ec53 2b10 	vmov	r2, r3, d0
    3c16:	f7fd f8d1 	bl	dbc <__aeabi_dcmplt>
    3c1a:	b130      	cbz	r0, 3c2a <StrFormatPrintf+0x162>
    3c1c:	e7ff      	b.n	3c1e <StrFormatPrintf+0x156>
    3c1e:	f04f 30ff 	mov.w	r0, #4294967295	; 0xffffffff
    3c22:	4601      	mov	r1, r0
    3c24:	9018      	str	r0, [sp, #96]	; 0x60
    3c26:	9119      	str	r1, [sp, #100]	; 0x64
    3c28:	e006      	b.n	3c38 <StrFormatPrintf+0x170>
    3c2a:	982a      	ldr	r0, [sp, #168]	; 0xa8
    3c2c:	992b      	ldr	r1, [sp, #172]	; 0xac
    3c2e:	f7fd f993 	bl	f58 <__aeabi_d2lz>
    3c32:	9018      	str	r0, [sp, #96]	; 0x60
    3c34:	9119      	str	r1, [sp, #100]	; 0x64
    3c36:	e7ff      	b.n	3c38 <StrFormatPrintf+0x170>
    3c38:	9c27      	ldr	r4, [sp, #156]	; 0x9c
    3c3a:	9d28      	ldr	r5, [sp, #160]	; 0xa0
    3c3c:	9818      	ldr	r0, [sp, #96]	; 0x60
    3c3e:	9919      	ldr	r1, [sp, #100]	; 0x64
    3c40:	9a33      	ldr	r2, [sp, #204]	; 0xcc
    3c42:	f1a7 0345 	sub.w	r3, r7, #69	; 0x45
    3c46:	f000 fc0b 	bl	4460 <PrintGetSignChar>
    3c4a:	f8dd c070 	ldr.w	ip, [sp, #112]	; 0x70
    3c4e:	9922      	ldr	r1, [sp, #136]	; 0x88
    3c50:	4602      	mov	r2, r0
    3c52:	981b      	ldr	r0, [sp, #108]	; 0x6c
    3c54:	4402      	add	r2, r0
    3c56:	9833      	ldr	r0, [sp, #204]	; 0xcc
    3c58:	f817 3c45 	ldrb.w	r3, [r7, #-69]
    3c5c:	46ee      	mov	lr, sp
    3c5e:	ae34      	add	r6, sp, #208	; 0xd0
    3c60:	f8ce 600c 	str.w	r6, [lr, #12]
    3c64:	f8ce 5008 	str.w	r5, [lr, #8]
    3c68:	f8ce 4004 	str.w	r4, [lr, #4]
    3c6c:	f8ce c000 	str.w	ip, [lr]
    3c70:	f000 fc28 	bl	44c4 <PrintOutputdifFobpu>
    3c74:	e11f      	b.n	3eb6 <StrFormatPrintf+0x3ee>
    3c76:	9825      	ldr	r0, [sp, #148]	; 0x94
    3c78:	b2c0      	uxtb	r0, r0
    3c7a:	f000 fe79 	bl	4970 <PrintIsxX>
    3c7e:	2801      	cmp	r0, #1
    3c80:	d136      	bne.n	3cf0 <StrFormatPrintf+0x228>
    3c82:	e7ff      	b.n	3c84 <StrFormatPrintf+0x1bc>
    3c84:	9825      	ldr	r0, [sp, #148]	; 0x94
    3c86:	b2c1      	uxtb	r1, r0
    3c88:	2001      	movs	r0, #1
    3c8a:	2978      	cmp	r1, #120	; 0x78
    3c8c:	9017      	str	r0, [sp, #92]	; 0x5c
    3c8e:	d103      	bne.n	3c98 <StrFormatPrintf+0x1d0>
    3c90:	e7ff      	b.n	3c92 <StrFormatPrintf+0x1ca>
    3c92:	2000      	movs	r0, #0
    3c94:	9017      	str	r0, [sp, #92]	; 0x5c
    3c96:	e7ff      	b.n	3c98 <StrFormatPrintf+0x1d0>
    3c98:	9c27      	ldr	r4, [sp, #156]	; 0x9c
    3c9a:	9d28      	ldr	r5, [sp, #160]	; 0xa0
    3c9c:	9817      	ldr	r0, [sp, #92]	; 0x5c
    3c9e:	9013      	str	r0, [sp, #76]	; 0x4c
    3ca0:	a833      	add	r0, sp, #204	; 0xcc
    3ca2:	a92e      	add	r1, sp, #184	; 0xb8
    3ca4:	9114      	str	r1, [sp, #80]	; 0x50
    3ca6:	aa3f      	add	r2, sp, #252	; 0xfc
    3ca8:	f000 fe75 	bl	4996 <StrFormatExaminexX>
    3cac:	9813      	ldr	r0, [sp, #76]	; 0x4c
    3cae:	9914      	ldr	r1, [sp, #80]	; 0x50
    3cb0:	f000 0001 	and.w	r0, r0, #1
    3cb4:	9015      	str	r0, [sp, #84]	; 0x54
    3cb6:	466a      	mov	r2, sp
    3cb8:	6010      	str	r0, [r2, #0]
    3cba:	f1a7 0039 	sub.w	r0, r7, #57	; 0x39
    3cbe:	9016      	str	r0, [sp, #88]	; 0x58
    3cc0:	2200      	movs	r2, #0
    3cc2:	2310      	movs	r3, #16
    3cc4:	f000 fae0 	bl	4288 <ConvertRadixNumToString>
    3cc8:	9922      	ldr	r1, [sp, #136]	; 0x88
    3cca:	9b15      	ldr	r3, [sp, #84]	; 0x54
    3ccc:	4602      	mov	r2, r0
    3cce:	9816      	ldr	r0, [sp, #88]	; 0x58
    3cd0:	eb00 0c02 	add.w	ip, r0, r2
    3cd4:	9833      	ldr	r0, [sp, #204]	; 0xcc
    3cd6:	46ee      	mov	lr, sp
    3cd8:	ae34      	add	r6, sp, #208	; 0xd0
    3cda:	f8ce 600c 	str.w	r6, [lr, #12]
    3cde:	f8ce 5008 	str.w	r5, [lr, #8]
    3ce2:	f8ce 4004 	str.w	r4, [lr, #4]
    3ce6:	f8ce c000 	str.w	ip, [lr]
    3cea:	f000 fe87 	bl	49fc <PrintOutputxX>
    3cee:	e0e1      	b.n	3eb4 <StrFormatPrintf+0x3ec>
    3cf0:	9825      	ldr	r0, [sp, #148]	; 0x94
    3cf2:	b2c0      	uxtb	r0, r0
    3cf4:	f000 ff5f 	bl	4bb6 <PrintIsobpu>
    3cf8:	2801      	cmp	r0, #1
    3cfa:	d13c      	bne.n	3d76 <StrFormatPrintf+0x2ae>
    3cfc:	e7ff      	b.n	3cfe <StrFormatPrintf+0x236>
    3cfe:	9825      	ldr	r0, [sp, #148]	; 0x94
    3d00:	b2c0      	uxtb	r0, r0
    3d02:	2870      	cmp	r0, #112	; 0x70
    3d04:	d10b      	bne.n	3d1e <StrFormatPrintf+0x256>
    3d06:	e7ff      	b.n	3d08 <StrFormatPrintf+0x240>
    3d08:	983f      	ldr	r0, [sp, #252]	; 0xfc
    3d0a:	1d01      	adds	r1, r0, #4
    3d0c:	913f      	str	r1, [sp, #252]	; 0xfc
    3d0e:	6800      	ldr	r0, [r0, #0]
    3d10:	9029      	str	r0, [sp, #164]	; 0xa4
    3d12:	a82e      	add	r0, sp, #184	; 0xb8
    3d14:	a929      	add	r1, sp, #164	; 0xa4
    3d16:	2204      	movs	r2, #4
    3d18:	f7fd fb3a 	bl	1390 <memcpy>
    3d1c:	e005      	b.n	3d2a <StrFormatPrintf+0x262>
    3d1e:	a833      	add	r0, sp, #204	; 0xcc
    3d20:	a92e      	add	r1, sp, #184	; 0xb8
    3d22:	aa3f      	add	r2, sp, #252	; 0xfc
    3d24:	f000 ff64 	bl	4bf0 <StrFormatExamineobpu>
    3d28:	e7ff      	b.n	3d2a <StrFormatPrintf+0x262>
    3d2a:	9c27      	ldr	r4, [sp, #156]	; 0x9c
    3d2c:	9d28      	ldr	r5, [sp, #160]	; 0xa0
    3d2e:	9825      	ldr	r0, [sp, #148]	; 0x94
    3d30:	b2c0      	uxtb	r0, r0
    3d32:	f000 ff90 	bl	4c56 <PrintGetRadixFromobpu>
    3d36:	4603      	mov	r3, r0
    3d38:	4669      	mov	r1, sp
    3d3a:	2001      	movs	r0, #1
    3d3c:	6008      	str	r0, [r1, #0]
    3d3e:	f1a7 0039 	sub.w	r0, r7, #57	; 0x39
    3d42:	9012      	str	r0, [sp, #72]	; 0x48
    3d44:	a92e      	add	r1, sp, #184	; 0xb8
    3d46:	2200      	movs	r2, #0
    3d48:	9211      	str	r2, [sp, #68]	; 0x44
    3d4a:	f000 fa9d 	bl	4288 <ConvertRadixNumToString>
    3d4e:	9922      	ldr	r1, [sp, #136]	; 0x88
    3d50:	9b11      	ldr	r3, [sp, #68]	; 0x44
    3d52:	4602      	mov	r2, r0
    3d54:	9812      	ldr	r0, [sp, #72]	; 0x48
    3d56:	eb00 0c02 	add.w	ip, r0, r2
    3d5a:	9833      	ldr	r0, [sp, #204]	; 0xcc
    3d5c:	46ee      	mov	lr, sp
    3d5e:	ae34      	add	r6, sp, #208	; 0xd0
    3d60:	f8ce 600c 	str.w	r6, [lr, #12]
    3d64:	f8ce 5008 	str.w	r5, [lr, #8]
    3d68:	f8ce 4004 	str.w	r4, [lr, #4]
    3d6c:	f8ce c000 	str.w	ip, [lr]
    3d70:	f000 fba8 	bl	44c4 <PrintOutputdifFobpu>
    3d74:	e09d      	b.n	3eb2 <StrFormatPrintf+0x3ea>
    3d76:	9825      	ldr	r0, [sp, #148]	; 0x94
    3d78:	b2c0      	uxtb	r0, r0
    3d7a:	2863      	cmp	r0, #99	; 0x63
    3d7c:	d10b      	bne.n	3d96 <StrFormatPrintf+0x2ce>
    3d7e:	e7ff      	b.n	3d80 <StrFormatPrintf+0x2b8>
    3d80:	f8dd c09c 	ldr.w	ip, [sp, #156]	; 0x9c
    3d84:	9828      	ldr	r0, [sp, #160]	; 0xa0
    3d86:	993f      	ldr	r1, [sp, #252]	; 0xfc
    3d88:	1d0a      	adds	r2, r1, #4
    3d8a:	923f      	str	r2, [sp, #252]	; 0xfc
    3d8c:	780a      	ldrb	r2, [r1, #0]
    3d8e:	a934      	add	r1, sp, #208	; 0xd0
    3d90:	2301      	movs	r3, #1
    3d92:	47e0      	blx	ip
    3d94:	e08c      	b.n	3eb0 <StrFormatPrintf+0x3e8>
    3d96:	9825      	ldr	r0, [sp, #148]	; 0x94
    3d98:	b2c0      	uxtb	r0, r0
    3d9a:	2873      	cmp	r0, #115	; 0x73
    3d9c:	d17e      	bne.n	3e9c <StrFormatPrintf+0x3d4>
    3d9e:	e7ff      	b.n	3da0 <StrFormatPrintf+0x2d8>
    3da0:	983f      	ldr	r0, [sp, #252]	; 0xfc
    3da2:	1d01      	adds	r1, r0, #4
    3da4:	913f      	str	r1, [sp, #252]	; 0xfc
    3da6:	6800      	ldr	r0, [r0, #0]
    3da8:	9010      	str	r0, [sp, #64]	; 0x40
    3daa:	2800      	cmp	r0, #0
    3dac:	d075      	beq.n	3e9a <StrFormatPrintf+0x3d2>
    3dae:	e7ff      	b.n	3db0 <StrFormatPrintf+0x2e8>
    3db0:	9a10      	ldr	r2, [sp, #64]	; 0x40
    3db2:	9924      	ldr	r1, [sp, #144]	; 0x90
    3db4:	f817 0c59 	ldrb.w	r0, [r7, #-89]
    3db8:	f000 0001 	and.w	r0, r0, #1
    3dbc:	f000 ff71 	bl	4ca2 <ConvertPrecisionWidthToLength>
    3dc0:	900f      	str	r0, [sp, #60]	; 0x3c
    3dc2:	f89d 00cc 	ldrb.w	r0, [sp, #204]	; 0xcc
    3dc6:	07c0      	lsls	r0, r0, #31
    3dc8:	b950      	cbnz	r0, 3de0 <StrFormatPrintf+0x318>
    3dca:	e7ff      	b.n	3dcc <StrFormatPrintf+0x304>
    3dcc:	f8dd c09c 	ldr.w	ip, [sp, #156]	; 0x9c
    3dd0:	9828      	ldr	r0, [sp, #160]	; 0xa0
    3dd2:	9922      	ldr	r1, [sp, #136]	; 0x88
    3dd4:	9a0f      	ldr	r2, [sp, #60]	; 0x3c
    3dd6:	1a8b      	subs	r3, r1, r2
    3dd8:	a934      	add	r1, sp, #208	; 0xd0
    3dda:	2220      	movs	r2, #32
    3ddc:	47e0      	blx	ip
    3dde:	e7ff      	b.n	3de0 <StrFormatPrintf+0x318>
    3de0:	f817 0c59 	ldrb.w	r0, [r7, #-89]
    3de4:	07c0      	lsls	r0, r0, #31
    3de6:	b370      	cbz	r0, 3e46 <StrFormatPrintf+0x37e>
    3de8:	e7ff      	b.n	3dea <StrFormatPrintf+0x322>
    3dea:	9810      	ldr	r0, [sp, #64]	; 0x40
    3dec:	990f      	ldr	r1, [sp, #60]	; 0x3c
    3dee:	910d      	str	r1, [sp, #52]	; 0x34
    3df0:	900e      	str	r0, [sp, #56]	; 0x38
    3df2:	e7ff      	b.n	3df4 <StrFormatPrintf+0x32c>
    3df4:	990d      	ldr	r1, [sp, #52]	; 0x34
    3df6:	980e      	ldr	r0, [sp, #56]	; 0x38
    3df8:	900a      	str	r0, [sp, #40]	; 0x28
    3dfa:	910b      	str	r1, [sp, #44]	; 0x2c
    3dfc:	7801      	ldrb	r1, [r0, #0]
    3dfe:	2000      	movs	r0, #0
    3e00:	900c      	str	r0, [sp, #48]	; 0x30
    3e02:	b139      	cbz	r1, 3e14 <StrFormatPrintf+0x34c>
    3e04:	e7ff      	b.n	3e06 <StrFormatPrintf+0x33e>
    3e06:	990b      	ldr	r1, [sp, #44]	; 0x2c
    3e08:	2000      	movs	r0, #0
    3e0a:	2900      	cmp	r1, #0
    3e0c:	bfc8      	it	gt
    3e0e:	2001      	movgt	r0, #1
    3e10:	900c      	str	r0, [sp, #48]	; 0x30
    3e12:	e7ff      	b.n	3e14 <StrFormatPrintf+0x34c>
    3e14:	980c      	ldr	r0, [sp, #48]	; 0x30
    3e16:	07c0      	lsls	r0, r0, #31
    3e18:	b180      	cbz	r0, 3e3c <StrFormatPrintf+0x374>
    3e1a:	e7ff      	b.n	3e1c <StrFormatPrintf+0x354>
    3e1c:	f8dd c09c 	ldr.w	ip, [sp, #156]	; 0x9c
    3e20:	9828      	ldr	r0, [sp, #160]	; 0xa0
    3e22:	990a      	ldr	r1, [sp, #40]	; 0x28
    3e24:	f811 2b01 	ldrb.w	r2, [r1], #1
    3e28:	9109      	str	r1, [sp, #36]	; 0x24
    3e2a:	a934      	add	r1, sp, #208	; 0xd0
    3e2c:	2301      	movs	r3, #1
    3e2e:	47e0      	blx	ip
    3e30:	990b      	ldr	r1, [sp, #44]	; 0x2c
    3e32:	9809      	ldr	r0, [sp, #36]	; 0x24
    3e34:	3901      	subs	r1, #1
    3e36:	910d      	str	r1, [sp, #52]	; 0x34
    3e38:	900e      	str	r0, [sp, #56]	; 0x38
    3e3a:	e7db      	b.n	3df4 <StrFormatPrintf+0x32c>
    3e3c:	9824      	ldr	r0, [sp, #144]	; 0x90
    3e3e:	990b      	ldr	r1, [sp, #44]	; 0x2c
    3e40:	1a40      	subs	r0, r0, r1
    3e42:	9008      	str	r0, [sp, #32]
    3e44:	e017      	b.n	3e76 <StrFormatPrintf+0x3ae>
    3e46:	9810      	ldr	r0, [sp, #64]	; 0x40
    3e48:	9007      	str	r0, [sp, #28]
    3e4a:	e7ff      	b.n	3e4c <StrFormatPrintf+0x384>
    3e4c:	9807      	ldr	r0, [sp, #28]
    3e4e:	9006      	str	r0, [sp, #24]
    3e50:	7800      	ldrb	r0, [r0, #0]
    3e52:	b168      	cbz	r0, 3e70 <StrFormatPrintf+0x3a8>
    3e54:	e7ff      	b.n	3e56 <StrFormatPrintf+0x38e>
    3e56:	f8dd c09c 	ldr.w	ip, [sp, #156]	; 0x9c
    3e5a:	9828      	ldr	r0, [sp, #160]	; 0xa0
    3e5c:	9906      	ldr	r1, [sp, #24]
    3e5e:	f811 2b01 	ldrb.w	r2, [r1], #1
    3e62:	9105      	str	r1, [sp, #20]
    3e64:	a934      	add	r1, sp, #208	; 0xd0
    3e66:	2301      	movs	r3, #1
    3e68:	47e0      	blx	ip
    3e6a:	9805      	ldr	r0, [sp, #20]
    3e6c:	9007      	str	r0, [sp, #28]
    3e6e:	e7ed      	b.n	3e4c <StrFormatPrintf+0x384>
    3e70:	980f      	ldr	r0, [sp, #60]	; 0x3c
    3e72:	9008      	str	r0, [sp, #32]
    3e74:	e7ff      	b.n	3e76 <StrFormatPrintf+0x3ae>
    3e76:	9808      	ldr	r0, [sp, #32]
    3e78:	9004      	str	r0, [sp, #16]
    3e7a:	f89d 00cc 	ldrb.w	r0, [sp, #204]	; 0xcc
    3e7e:	07c0      	lsls	r0, r0, #31
    3e80:	b150      	cbz	r0, 3e98 <StrFormatPrintf+0x3d0>
    3e82:	e7ff      	b.n	3e84 <StrFormatPrintf+0x3bc>
    3e84:	f8dd c09c 	ldr.w	ip, [sp, #156]	; 0x9c
    3e88:	9828      	ldr	r0, [sp, #160]	; 0xa0
    3e8a:	9922      	ldr	r1, [sp, #136]	; 0x88
    3e8c:	9a04      	ldr	r2, [sp, #16]
    3e8e:	1a8b      	subs	r3, r1, r2
    3e90:	a934      	add	r1, sp, #208	; 0xd0
    3e92:	2220      	movs	r2, #32
    3e94:	47e0      	blx	ip
    3e96:	e7ff      	b.n	3e98 <StrFormatPrintf+0x3d0>
    3e98:	e7ff      	b.n	3e9a <StrFormatPrintf+0x3d2>
    3e9a:	e008      	b.n	3eae <StrFormatPrintf+0x3e6>
    3e9c:	f8dd c09c 	ldr.w	ip, [sp, #156]	; 0x9c
    3ea0:	9828      	ldr	r0, [sp, #160]	; 0xa0
    3ea2:	9925      	ldr	r1, [sp, #148]	; 0x94
    3ea4:	b2ca      	uxtb	r2, r1
    3ea6:	a934      	add	r1, sp, #208	; 0xd0
    3ea8:	2301      	movs	r3, #1
    3eaa:	47e0      	blx	ip
    3eac:	e7ff      	b.n	3eae <StrFormatPrintf+0x3e6>
    3eae:	e7ff      	b.n	3eb0 <StrFormatPrintf+0x3e8>
    3eb0:	e7ff      	b.n	3eb2 <StrFormatPrintf+0x3ea>
    3eb2:	e7ff      	b.n	3eb4 <StrFormatPrintf+0x3ec>
    3eb4:	e7ff      	b.n	3eb6 <StrFormatPrintf+0x3ee>
    3eb6:	e7ff      	b.n	3eb8 <StrFormatPrintf+0x3f0>
    3eb8:	983e      	ldr	r0, [sp, #248]	; 0xf8
    3eba:	3001      	adds	r0, #1
    3ebc:	903e      	str	r0, [sp, #248]	; 0xf8
    3ebe:	e611      	b.n	3ae4 <StrFormatPrintf+0x1c>
    3ec0:	9834      	ldr	r0, [sp, #208]	; 0xd0
    3ec2:	b040      	add	sp, #256	; 0x100
    3ec4:	f85d bb04 	ldr.w	fp, [sp], #4
    3ec8:	bdf0      	pop	{r4, r5, r6, r7, pc}
    3eca:	bf00      	nop
    3ecc:	bf00      	nop
    3ece:	bf00      	nop
	...

00003ed8 <PrintCheckFlags>:
    3ed8:	b08c      	sub	sp, #48	; 0x30
    3eda:	9008      	str	r0, [sp, #32]
    3edc:	6801      	ldr	r1, [r0, #0]
    3ede:	2200      	movs	r2, #0
    3ee0:	4610      	mov	r0, r2
    3ee2:	9209      	str	r2, [sp, #36]	; 0x24
    3ee4:	910a      	str	r1, [sp, #40]	; 0x28
    3ee6:	900b      	str	r0, [sp, #44]	; 0x2c
    3ee8:	e7ff      	b.n	3eea <PrintCheckFlags+0x12>
    3eea:	9909      	ldr	r1, [sp, #36]	; 0x24
    3eec:	9a0a      	ldr	r2, [sp, #40]	; 0x28
    3eee:	980b      	ldr	r0, [sp, #44]	; 0x2c
    3ef0:	9005      	str	r0, [sp, #20]
    3ef2:	9206      	str	r2, [sp, #24]
    3ef4:	9107      	str	r1, [sp, #28]
    3ef6:	07c0      	lsls	r0, r0, #31
    3ef8:	2800      	cmp	r0, #0
    3efa:	d151      	bne.n	3fa0 <PrintCheckFlags+0xc8>
    3efc:	e7ff      	b.n	3efe <PrintCheckFlags+0x26>
    3efe:	9906      	ldr	r1, [sp, #24]
    3f00:	f811 0f01 	ldrb.w	r0, [r1, #1]!
    3f04:	9103      	str	r1, [sp, #12]
    3f06:	3820      	subs	r0, #32
    3f08:	4601      	mov	r1, r0
    3f0a:	9104      	str	r1, [sp, #16]
    3f0c:	2810      	cmp	r0, #16
    3f0e:	d838      	bhi.n	3f82 <PrintCheckFlags+0xaa>
    3f10:	9904      	ldr	r1, [sp, #16]
    3f12:	e8df f001 	tbb	[pc, r1]
    3f16:	361b      	.short	0x361b
    3f18:	36362d36 	.word	0x36362d36
    3f1c:	36363636 	.word	0x36363636
    3f20:	09361236 	.word	0x09361236
    3f24:	00243636 	.word	0x00243636
    3f28:	9805      	ldr	r0, [sp, #20]
    3f2a:	9903      	ldr	r1, [sp, #12]
    3f2c:	9a07      	ldr	r2, [sp, #28]
    3f2e:	f042 0201 	orr.w	r2, r2, #1
    3f32:	9200      	str	r2, [sp, #0]
    3f34:	9101      	str	r1, [sp, #4]
    3f36:	9002      	str	r0, [sp, #8]
    3f38:	e02b      	b.n	3f92 <PrintCheckFlags+0xba>
    3f3a:	9805      	ldr	r0, [sp, #20]
    3f3c:	9903      	ldr	r1, [sp, #12]
    3f3e:	9a07      	ldr	r2, [sp, #28]
    3f40:	f042 0202 	orr.w	r2, r2, #2
    3f44:	9200      	str	r2, [sp, #0]
    3f46:	9101      	str	r1, [sp, #4]
    3f48:	9002      	str	r0, [sp, #8]
    3f4a:	e022      	b.n	3f92 <PrintCheckFlags+0xba>
    3f4c:	9805      	ldr	r0, [sp, #20]
    3f4e:	9903      	ldr	r1, [sp, #12]
    3f50:	9a07      	ldr	r2, [sp, #28]
    3f52:	f042 0204 	orr.w	r2, r2, #4
    3f56:	9200      	str	r2, [sp, #0]
    3f58:	9101      	str	r1, [sp, #4]
    3f5a:	9002      	str	r0, [sp, #8]
    3f5c:	e019      	b.n	3f92 <PrintCheckFlags+0xba>
    3f5e:	9805      	ldr	r0, [sp, #20]
    3f60:	9903      	ldr	r1, [sp, #12]
    3f62:	9a07      	ldr	r2, [sp, #28]
    3f64:	f042 0208 	orr.w	r2, r2, #8
    3f68:	9200      	str	r2, [sp, #0]
    3f6a:	9101      	str	r1, [sp, #4]
    3f6c:	9002      	str	r0, [sp, #8]
    3f6e:	e010      	b.n	3f92 <PrintCheckFlags+0xba>
    3f70:	9805      	ldr	r0, [sp, #20]
    3f72:	9903      	ldr	r1, [sp, #12]
    3f74:	9a07      	ldr	r2, [sp, #28]
    3f76:	f042 0210 	orr.w	r2, r2, #16
    3f7a:	9200      	str	r2, [sp, #0]
    3f7c:	9101      	str	r1, [sp, #4]
    3f7e:	9002      	str	r0, [sp, #8]
    3f80:	e007      	b.n	3f92 <PrintCheckFlags+0xba>
    3f82:	9a07      	ldr	r2, [sp, #28]
    3f84:	9803      	ldr	r0, [sp, #12]
    3f86:	1e41      	subs	r1, r0, #1
    3f88:	2001      	movs	r0, #1
    3f8a:	9200      	str	r2, [sp, #0]
    3f8c:	9101      	str	r1, [sp, #4]
    3f8e:	9002      	str	r0, [sp, #8]
    3f90:	e7ff      	b.n	3f92 <PrintCheckFlags+0xba>
    3f92:	9a00      	ldr	r2, [sp, #0]
    3f94:	9901      	ldr	r1, [sp, #4]
    3f96:	9802      	ldr	r0, [sp, #8]
    3f98:	9209      	str	r2, [sp, #36]	; 0x24
    3f9a:	910a      	str	r1, [sp, #40]	; 0x28
    3f9c:	900b      	str	r0, [sp, #44]	; 0x2c
    3f9e:	e7a4      	b.n	3eea <PrintCheckFlags+0x12>
    3fa0:	9807      	ldr	r0, [sp, #28]
    3fa2:	9906      	ldr	r1, [sp, #24]
    3fa4:	9a08      	ldr	r2, [sp, #32]
    3fa6:	6011      	str	r1, [r2, #0]
    3fa8:	b00c      	add	sp, #48	; 0x30
    3faa:	4770      	bx	lr

00003fac <PrintGetWidth>:
    3fac:	b08b      	sub	sp, #44	; 0x2c
    3fae:	9107      	str	r1, [sp, #28]
    3fb0:	9008      	str	r0, [sp, #32]
    3fb2:	2100      	movs	r1, #0
    3fb4:	4608      	mov	r0, r1
    3fb6:	9109      	str	r1, [sp, #36]	; 0x24
    3fb8:	900a      	str	r0, [sp, #40]	; 0x28
    3fba:	e7ff      	b.n	3fbc <PrintGetWidth+0x10>
    3fbc:	9909      	ldr	r1, [sp, #36]	; 0x24
    3fbe:	980a      	ldr	r0, [sp, #40]	; 0x28
    3fc0:	9005      	str	r0, [sp, #20]
    3fc2:	9106      	str	r1, [sp, #24]
    3fc4:	0600      	lsls	r0, r0, #24
    3fc6:	bbe0      	cbnz	r0, 4042 <PrintGetWidth+0x96>
    3fc8:	e7ff      	b.n	3fca <PrintGetWidth+0x1e>
    3fca:	9a08      	ldr	r2, [sp, #32]
    3fcc:	6810      	ldr	r0, [r2, #0]
    3fce:	1c41      	adds	r1, r0, #1
    3fd0:	6011      	str	r1, [r2, #0]
    3fd2:	7840      	ldrb	r0, [r0, #1]
    3fd4:	4601      	mov	r1, r0
    3fd6:	9104      	str	r1, [sp, #16]
    3fd8:	2830      	cmp	r0, #48	; 0x30
    3fda:	db11      	blt.n	4000 <PrintGetWidth+0x54>
    3fdc:	e7ff      	b.n	3fde <PrintGetWidth+0x32>
    3fde:	9804      	ldr	r0, [sp, #16]
    3fe0:	b2c0      	uxtb	r0, r0
    3fe2:	2839      	cmp	r0, #57	; 0x39
    3fe4:	dc0c      	bgt.n	4000 <PrintGetWidth+0x54>
    3fe6:	e7ff      	b.n	3fe8 <PrintGetWidth+0x3c>
    3fe8:	9805      	ldr	r0, [sp, #20]
    3fea:	9a04      	ldr	r2, [sp, #16]
    3fec:	9906      	ldr	r1, [sp, #24]
    3fee:	eb01 0181 	add.w	r1, r1, r1, lsl #2
    3ff2:	0049      	lsls	r1, r1, #1
    3ff4:	fa51 f182 	uxtab	r1, r1, r2
    3ff8:	3930      	subs	r1, #48	; 0x30
    3ffa:	9102      	str	r1, [sp, #8]
    3ffc:	9003      	str	r0, [sp, #12]
    3ffe:	e01b      	b.n	4038 <PrintGetWidth+0x8c>
    4000:	9804      	ldr	r0, [sp, #16]
    4002:	b2c0      	uxtb	r0, r0
    4004:	282a      	cmp	r0, #42	; 0x2a
    4006:	d109      	bne.n	401c <PrintGetWidth+0x70>
    4008:	e7ff      	b.n	400a <PrintGetWidth+0x5e>
    400a:	9805      	ldr	r0, [sp, #20]
    400c:	9b07      	ldr	r3, [sp, #28]
    400e:	6819      	ldr	r1, [r3, #0]
    4010:	1d0a      	adds	r2, r1, #4
    4012:	601a      	str	r2, [r3, #0]
    4014:	6809      	ldr	r1, [r1, #0]
    4016:	9100      	str	r1, [sp, #0]
    4018:	9001      	str	r0, [sp, #4]
    401a:	e008      	b.n	402e <PrintGetWidth+0x82>
    401c:	9906      	ldr	r1, [sp, #24]
    401e:	9a08      	ldr	r2, [sp, #32]
    4020:	6810      	ldr	r0, [r2, #0]
    4022:	3801      	subs	r0, #1
    4024:	6010      	str	r0, [r2, #0]
    4026:	2001      	movs	r0, #1
    4028:	9100      	str	r1, [sp, #0]
    402a:	9001      	str	r0, [sp, #4]
    402c:	e7ff      	b.n	402e <PrintGetWidth+0x82>
    402e:	9900      	ldr	r1, [sp, #0]
    4030:	9801      	ldr	r0, [sp, #4]
    4032:	9102      	str	r1, [sp, #8]
    4034:	9003      	str	r0, [sp, #12]
    4036:	e7ff      	b.n	4038 <PrintGetWidth+0x8c>
    4038:	9902      	ldr	r1, [sp, #8]
    403a:	9803      	ldr	r0, [sp, #12]
    403c:	9109      	str	r1, [sp, #36]	; 0x24
    403e:	900a      	str	r0, [sp, #40]	; 0x28
    4040:	e7bc      	b.n	3fbc <PrintGetWidth+0x10>
    4042:	9806      	ldr	r0, [sp, #24]
    4044:	b00b      	add	sp, #44	; 0x2c
    4046:	4770      	bx	lr

00004048 <PrintGetPrecision>:
    4048:	b097      	sub	sp, #92	; 0x5c
    404a:	9213      	str	r2, [sp, #76]	; 0x4c
    404c:	9114      	str	r1, [sp, #80]	; 0x50
    404e:	9015      	str	r0, [sp, #84]	; 0x54
    4050:	6800      	ldr	r0, [r0, #0]
    4052:	9016      	str	r0, [sp, #88]	; 0x58
    4054:	b122      	cbz	r2, 4060 <PrintGetPrecision+0x18>
    4056:	e7ff      	b.n	4058 <PrintGetPrecision+0x10>
    4058:	9913      	ldr	r1, [sp, #76]	; 0x4c
    405a:	2000      	movs	r0, #0
    405c:	7008      	strb	r0, [r1, #0]
    405e:	e7ff      	b.n	4060 <PrintGetPrecision+0x18>
    4060:	9916      	ldr	r1, [sp, #88]	; 0x58
    4062:	f811 0f01 	ldrb.w	r0, [r1, #1]!
    4066:	9112      	str	r1, [sp, #72]	; 0x48
    4068:	282e      	cmp	r0, #46	; 0x2e
    406a:	d169      	bne.n	4140 <PrintGetPrecision+0xf8>
    406c:	e7ff      	b.n	406e <PrintGetPrecision+0x26>
    406e:	9a12      	ldr	r2, [sp, #72]	; 0x48
    4070:	2100      	movs	r1, #0
    4072:	4608      	mov	r0, r1
    4074:	920f      	str	r2, [sp, #60]	; 0x3c
    4076:	9110      	str	r1, [sp, #64]	; 0x40
    4078:	9011      	str	r0, [sp, #68]	; 0x44
    407a:	e7ff      	b.n	407c <PrintGetPrecision+0x34>
    407c:	990f      	ldr	r1, [sp, #60]	; 0x3c
    407e:	9a10      	ldr	r2, [sp, #64]	; 0x40
    4080:	9811      	ldr	r0, [sp, #68]	; 0x44
    4082:	900c      	str	r0, [sp, #48]	; 0x30
    4084:	920d      	str	r2, [sp, #52]	; 0x34
    4086:	910e      	str	r1, [sp, #56]	; 0x38
    4088:	0600      	lsls	r0, r0, #24
    408a:	2800      	cmp	r0, #0
    408c:	d153      	bne.n	4136 <PrintGetPrecision+0xee>
    408e:	e7ff      	b.n	4090 <PrintGetPrecision+0x48>
    4090:	990e      	ldr	r1, [sp, #56]	; 0x38
    4092:	f811 0f01 	ldrb.w	r0, [r1, #1]!
    4096:	910a      	str	r1, [sp, #40]	; 0x28
    4098:	900b      	str	r0, [sp, #44]	; 0x2c
    409a:	2830      	cmp	r0, #48	; 0x30
    409c:	db1c      	blt.n	40d8 <PrintGetPrecision+0x90>
    409e:	e7ff      	b.n	40a0 <PrintGetPrecision+0x58>
    40a0:	980b      	ldr	r0, [sp, #44]	; 0x2c
    40a2:	b2c0      	uxtb	r0, r0
    40a4:	2839      	cmp	r0, #57	; 0x39
    40a6:	dc17      	bgt.n	40d8 <PrintGetPrecision+0x90>
    40a8:	e7ff      	b.n	40aa <PrintGetPrecision+0x62>
    40aa:	9813      	ldr	r0, [sp, #76]	; 0x4c
    40ac:	9a0b      	ldr	r2, [sp, #44]	; 0x2c
    40ae:	990d      	ldr	r1, [sp, #52]	; 0x34
    40b0:	eb01 0181 	add.w	r1, r1, r1, lsl #2
    40b4:	0049      	lsls	r1, r1, #1
    40b6:	fa51 f182 	uxtab	r1, r1, r2
    40ba:	3930      	subs	r1, #48	; 0x30
    40bc:	9109      	str	r1, [sp, #36]	; 0x24
    40be:	b120      	cbz	r0, 40ca <PrintGetPrecision+0x82>
    40c0:	e7ff      	b.n	40c2 <PrintGetPrecision+0x7a>
    40c2:	9913      	ldr	r1, [sp, #76]	; 0x4c
    40c4:	2001      	movs	r0, #1
    40c6:	7008      	strb	r0, [r1, #0]
    40c8:	e7ff      	b.n	40ca <PrintGetPrecision+0x82>
    40ca:	980c      	ldr	r0, [sp, #48]	; 0x30
    40cc:	9909      	ldr	r1, [sp, #36]	; 0x24
    40ce:	9a0a      	ldr	r2, [sp, #40]	; 0x28
    40d0:	9206      	str	r2, [sp, #24]
    40d2:	9107      	str	r1, [sp, #28]
    40d4:	9008      	str	r0, [sp, #32]
    40d6:	e027      	b.n	4128 <PrintGetPrecision+0xe0>
    40d8:	980b      	ldr	r0, [sp, #44]	; 0x2c
    40da:	b2c0      	uxtb	r0, r0
    40dc:	282a      	cmp	r0, #42	; 0x2a
    40de:	d114      	bne.n	410a <PrintGetPrecision+0xc2>
    40e0:	e7ff      	b.n	40e2 <PrintGetPrecision+0x9a>
    40e2:	9813      	ldr	r0, [sp, #76]	; 0x4c
    40e4:	9b14      	ldr	r3, [sp, #80]	; 0x50
    40e6:	6819      	ldr	r1, [r3, #0]
    40e8:	1d0a      	adds	r2, r1, #4
    40ea:	601a      	str	r2, [r3, #0]
    40ec:	6809      	ldr	r1, [r1, #0]
    40ee:	9105      	str	r1, [sp, #20]
    40f0:	b120      	cbz	r0, 40fc <PrintGetPrecision+0xb4>
    40f2:	e7ff      	b.n	40f4 <PrintGetPrecision+0xac>
    40f4:	9913      	ldr	r1, [sp, #76]	; 0x4c
    40f6:	2001      	movs	r0, #1
    40f8:	7008      	strb	r0, [r1, #0]
    40fa:	e7ff      	b.n	40fc <PrintGetPrecision+0xb4>
    40fc:	980c      	ldr	r0, [sp, #48]	; 0x30
    40fe:	9905      	ldr	r1, [sp, #20]
    4100:	9a0a      	ldr	r2, [sp, #40]	; 0x28
    4102:	9202      	str	r2, [sp, #8]
    4104:	9103      	str	r1, [sp, #12]
    4106:	9004      	str	r0, [sp, #16]
    4108:	e007      	b.n	411a <PrintGetPrecision+0xd2>
    410a:	990d      	ldr	r1, [sp, #52]	; 0x34
    410c:	980a      	ldr	r0, [sp, #40]	; 0x28
    410e:	1e42      	subs	r2, r0, #1
    4110:	2001      	movs	r0, #1
    4112:	9202      	str	r2, [sp, #8]
    4114:	9103      	str	r1, [sp, #12]
    4116:	9004      	str	r0, [sp, #16]
    4118:	e7ff      	b.n	411a <PrintGetPrecision+0xd2>
    411a:	9a02      	ldr	r2, [sp, #8]
    411c:	9903      	ldr	r1, [sp, #12]
    411e:	9804      	ldr	r0, [sp, #16]
    4120:	9206      	str	r2, [sp, #24]
    4122:	9107      	str	r1, [sp, #28]
    4124:	9008      	str	r0, [sp, #32]
    4126:	e7ff      	b.n	4128 <PrintGetPrecision+0xe0>
    4128:	9a06      	ldr	r2, [sp, #24]
    412a:	9907      	ldr	r1, [sp, #28]
    412c:	9808      	ldr	r0, [sp, #32]
    412e:	920f      	str	r2, [sp, #60]	; 0x3c
    4130:	9110      	str	r1, [sp, #64]	; 0x40
    4132:	9011      	str	r0, [sp, #68]	; 0x44
    4134:	e7a2      	b.n	407c <PrintGetPrecision+0x34>
    4136:	980d      	ldr	r0, [sp, #52]	; 0x34
    4138:	990e      	ldr	r1, [sp, #56]	; 0x38
    413a:	9100      	str	r1, [sp, #0]
    413c:	9001      	str	r0, [sp, #4]
    413e:	e005      	b.n	414c <PrintGetPrecision+0x104>
    4140:	9812      	ldr	r0, [sp, #72]	; 0x48
    4142:	1e41      	subs	r1, r0, #1
    4144:	2006      	movs	r0, #6
    4146:	9100      	str	r1, [sp, #0]
    4148:	9001      	str	r0, [sp, #4]
    414a:	e7ff      	b.n	414c <PrintGetPrecision+0x104>
    414c:	9a15      	ldr	r2, [sp, #84]	; 0x54
    414e:	9900      	ldr	r1, [sp, #0]
    4150:	9801      	ldr	r0, [sp, #4]
    4152:	6011      	str	r1, [r2, #0]
    4154:	b017      	add	sp, #92	; 0x5c
    4156:	4770      	bx	lr

00004158 <PrintGetLengthFlag>:
    4158:	b08b      	sub	sp, #44	; 0x2c
    415a:	9008      	str	r0, [sp, #32]
    415c:	6801      	ldr	r1, [r0, #0]
    415e:	f811 0f01 	ldrb.w	r0, [r1, #1]!
    4162:	9109      	str	r1, [sp, #36]	; 0x24
    4164:	900a      	str	r0, [sp, #40]	; 0x28
    4166:	2868      	cmp	r0, #104	; 0x68
    4168:	d008      	beq.n	417c <PrintGetLengthFlag+0x24>
    416a:	e7ff      	b.n	416c <PrintGetLengthFlag+0x14>
    416c:	980a      	ldr	r0, [sp, #40]	; 0x28
    416e:	286c      	cmp	r0, #108	; 0x6c
    4170:	d01b      	beq.n	41aa <PrintGetLengthFlag+0x52>
    4172:	e7ff      	b.n	4174 <PrintGetLengthFlag+0x1c>
    4174:	980a      	ldr	r0, [sp, #40]	; 0x28
    4176:	287a      	cmp	r0, #122	; 0x7a
    4178:	d02f      	beq.n	41da <PrintGetLengthFlag+0x82>
    417a:	e033      	b.n	41e4 <PrintGetLengthFlag+0x8c>
    417c:	9909      	ldr	r1, [sp, #36]	; 0x24
    417e:	f811 0f01 	ldrb.w	r0, [r1, #1]!
    4182:	9107      	str	r1, [sp, #28]
    4184:	2868      	cmp	r0, #104	; 0x68
    4186:	d006      	beq.n	4196 <PrintGetLengthFlag+0x3e>
    4188:	e7ff      	b.n	418a <PrintGetLengthFlag+0x32>
    418a:	9907      	ldr	r1, [sp, #28]
    418c:	2040      	movs	r0, #64	; 0x40
    418e:	3901      	subs	r1, #1
    4190:	9105      	str	r1, [sp, #20]
    4192:	9006      	str	r0, [sp, #24]
    4194:	e004      	b.n	41a0 <PrintGetLengthFlag+0x48>
    4196:	9907      	ldr	r1, [sp, #28]
    4198:	2020      	movs	r0, #32
    419a:	9105      	str	r1, [sp, #20]
    419c:	9006      	str	r0, [sp, #24]
    419e:	e7ff      	b.n	41a0 <PrintGetLengthFlag+0x48>
    41a0:	9905      	ldr	r1, [sp, #20]
    41a2:	9806      	ldr	r0, [sp, #24]
    41a4:	9103      	str	r1, [sp, #12]
    41a6:	9004      	str	r0, [sp, #16]
    41a8:	e022      	b.n	41f0 <PrintGetLengthFlag+0x98>
    41aa:	9909      	ldr	r1, [sp, #36]	; 0x24
    41ac:	f811 0f01 	ldrb.w	r0, [r1, #1]!
    41b0:	9102      	str	r1, [sp, #8]
    41b2:	286c      	cmp	r0, #108	; 0x6c
    41b4:	d006      	beq.n	41c4 <PrintGetLengthFlag+0x6c>
    41b6:	e7ff      	b.n	41b8 <PrintGetLengthFlag+0x60>
    41b8:	9902      	ldr	r1, [sp, #8]
    41ba:	2080      	movs	r0, #128	; 0x80
    41bc:	3901      	subs	r1, #1
    41be:	9100      	str	r1, [sp, #0]
    41c0:	9001      	str	r0, [sp, #4]
    41c2:	e005      	b.n	41d0 <PrintGetLengthFlag+0x78>
    41c4:	9902      	ldr	r1, [sp, #8]
    41c6:	f44f 7080 	mov.w	r0, #256	; 0x100
    41ca:	9100      	str	r1, [sp, #0]
    41cc:	9001      	str	r0, [sp, #4]
    41ce:	e7ff      	b.n	41d0 <PrintGetLengthFlag+0x78>
    41d0:	9900      	ldr	r1, [sp, #0]
    41d2:	9801      	ldr	r0, [sp, #4]
    41d4:	9103      	str	r1, [sp, #12]
    41d6:	9004      	str	r0, [sp, #16]
    41d8:	e00a      	b.n	41f0 <PrintGetLengthFlag+0x98>
    41da:	9909      	ldr	r1, [sp, #36]	; 0x24
    41dc:	2080      	movs	r0, #128	; 0x80
    41de:	9103      	str	r1, [sp, #12]
    41e0:	9004      	str	r0, [sp, #16]
    41e2:	e005      	b.n	41f0 <PrintGetLengthFlag+0x98>
    41e4:	9809      	ldr	r0, [sp, #36]	; 0x24
    41e6:	1e41      	subs	r1, r0, #1
    41e8:	2000      	movs	r0, #0
    41ea:	9103      	str	r1, [sp, #12]
    41ec:	9004      	str	r0, [sp, #16]
    41ee:	e7ff      	b.n	41f0 <PrintGetLengthFlag+0x98>
    41f0:	9a08      	ldr	r2, [sp, #32]
    41f2:	9903      	ldr	r1, [sp, #12]
    41f4:	9804      	ldr	r0, [sp, #16]
    41f6:	6011      	str	r1, [r2, #0]
    41f8:	b00b      	add	sp, #44	; 0x2c
    41fa:	4770      	bx	lr

000041fc <PrintIsdi>:
    41fc:	b082      	sub	sp, #8
    41fe:	4601      	mov	r1, r0
    4200:	9101      	str	r1, [sp, #4]
    4202:	2864      	cmp	r0, #100	; 0x64
    4204:	d007      	beq.n	4216 <PrintIsdi+0x1a>
    4206:	e7ff      	b.n	4208 <PrintIsdi+0xc>
    4208:	9801      	ldr	r0, [sp, #4]
    420a:	b2c1      	uxtb	r1, r0
    420c:	2000      	movs	r0, #0
    420e:	2969      	cmp	r1, #105	; 0x69
    4210:	9000      	str	r0, [sp, #0]
    4212:	d103      	bne.n	421c <PrintIsdi+0x20>
    4214:	e7ff      	b.n	4216 <PrintIsdi+0x1a>
    4216:	2001      	movs	r0, #1
    4218:	9000      	str	r0, [sp, #0]
    421a:	e7ff      	b.n	421c <PrintIsdi+0x20>
    421c:	9800      	ldr	r0, [sp, #0]
    421e:	b002      	add	sp, #8
    4220:	4770      	bx	lr

00004222 <StrFormatExaminedi>:
    4222:	b083      	sub	sp, #12
    4224:	9200      	str	r2, [sp, #0]
    4226:	9101      	str	r1, [sp, #4]
    4228:	9002      	str	r0, [sp, #8]
    422a:	7840      	ldrb	r0, [r0, #1]
    422c:	07c0      	lsls	r0, r0, #31
    422e:	b170      	cbz	r0, 424e <StrFormatExaminedi+0x2c>
    4230:	e7ff      	b.n	4232 <StrFormatExaminedi+0x10>
    4232:	9901      	ldr	r1, [sp, #4]
    4234:	9b00      	ldr	r3, [sp, #0]
    4236:	6818      	ldr	r0, [r3, #0]
    4238:	3007      	adds	r0, #7
    423a:	f020 0207 	bic.w	r2, r0, #7
    423e:	f102 0008 	add.w	r0, r2, #8
    4242:	6018      	str	r0, [r3, #0]
    4244:	6810      	ldr	r0, [r2, #0]
    4246:	6852      	ldr	r2, [r2, #4]
    4248:	604a      	str	r2, [r1, #4]
    424a:	6008      	str	r0, [r1, #0]
    424c:	e01a      	b.n	4284 <StrFormatExaminedi+0x62>
    424e:	9802      	ldr	r0, [sp, #8]
    4250:	7800      	ldrb	r0, [r0, #0]
    4252:	0600      	lsls	r0, r0, #24
    4254:	2800      	cmp	r0, #0
    4256:	d50a      	bpl.n	426e <StrFormatExaminedi+0x4c>
    4258:	e7ff      	b.n	425a <StrFormatExaminedi+0x38>
    425a:	9901      	ldr	r1, [sp, #4]
    425c:	9b00      	ldr	r3, [sp, #0]
    425e:	6818      	ldr	r0, [r3, #0]
    4260:	1d02      	adds	r2, r0, #4
    4262:	601a      	str	r2, [r3, #0]
    4264:	6802      	ldr	r2, [r0, #0]
    4266:	17d0      	asrs	r0, r2, #31
    4268:	600a      	str	r2, [r1, #0]
    426a:	6048      	str	r0, [r1, #4]
    426c:	e009      	b.n	4282 <StrFormatExaminedi+0x60>
    426e:	9901      	ldr	r1, [sp, #4]
    4270:	9b00      	ldr	r3, [sp, #0]
    4272:	6818      	ldr	r0, [r3, #0]
    4274:	1d02      	adds	r2, r0, #4
    4276:	601a      	str	r2, [r3, #0]
    4278:	6802      	ldr	r2, [r0, #0]
    427a:	17d0      	asrs	r0, r2, #31
    427c:	600a      	str	r2, [r1, #0]
    427e:	6048      	str	r0, [r1, #4]
    4280:	e7ff      	b.n	4282 <StrFormatExaminedi+0x60>
    4282:	e7ff      	b.n	4284 <StrFormatExaminedi+0x62>
    4284:	b003      	add	sp, #12
    4286:	4770      	bx	lr

00004288 <ConvertRadixNumToString>:
    4288:	b5d0      	push	{r4, r6, r7, lr}
    428a:	af02      	add	r7, sp, #8
    428c:	b0a8      	sub	sp, #160	; 0xa0
    428e:	9324      	str	r3, [sp, #144]	; 0x90
    4290:	9125      	str	r1, [sp, #148]	; 0x94
    4292:	68b9      	ldr	r1, [r7, #8]
    4294:	9126      	str	r1, [sp, #152]	; 0x98
    4296:	2100      	movs	r1, #0
    4298:	f800 1b01 	strb.w	r1, [r0], #1
    429c:	9027      	str	r0, [sp, #156]	; 0x9c
    429e:	2a00      	cmp	r2, #0
    42a0:	d067      	beq.n	4372 <ConvertRadixNumToString+0xea>
    42a2:	e7ff      	b.n	42a4 <ConvertRadixNumToString+0x1c>
    42a4:	9925      	ldr	r1, [sp, #148]	; 0x94
    42a6:	6808      	ldr	r0, [r1, #0]
    42a8:	9022      	str	r0, [sp, #136]	; 0x88
    42aa:	6849      	ldr	r1, [r1, #4]
    42ac:	9123      	str	r1, [sp, #140]	; 0x8c
    42ae:	4308      	orrs	r0, r1
    42b0:	b930      	cbnz	r0, 42c0 <ConvertRadixNumToString+0x38>
    42b2:	e7ff      	b.n	42b4 <ConvertRadixNumToString+0x2c>
    42b4:	9927      	ldr	r1, [sp, #156]	; 0x9c
    42b6:	2030      	movs	r0, #48	; 0x30
    42b8:	7008      	strb	r0, [r1, #0]
    42ba:	2001      	movs	r0, #1
    42bc:	9021      	str	r0, [sp, #132]	; 0x84
    42be:	e0cc      	b.n	445a <ConvertRadixNumToString+0x1d2>
    42c0:	9827      	ldr	r0, [sp, #156]	; 0x9c
    42c2:	9a23      	ldr	r2, [sp, #140]	; 0x8c
    42c4:	9b22      	ldr	r3, [sp, #136]	; 0x88
    42c6:	2100      	movs	r1, #0
    42c8:	931d      	str	r3, [sp, #116]	; 0x74
    42ca:	921e      	str	r2, [sp, #120]	; 0x78
    42cc:	911f      	str	r1, [sp, #124]	; 0x7c
    42ce:	9020      	str	r0, [sp, #128]	; 0x80
    42d0:	e7ff      	b.n	42d2 <ConvertRadixNumToString+0x4a>
    42d2:	981d      	ldr	r0, [sp, #116]	; 0x74
    42d4:	991e      	ldr	r1, [sp, #120]	; 0x78
    42d6:	9a1f      	ldr	r2, [sp, #124]	; 0x7c
    42d8:	9b20      	ldr	r3, [sp, #128]	; 0x80
    42da:	9319      	str	r3, [sp, #100]	; 0x64
    42dc:	921a      	str	r2, [sp, #104]	; 0x68
    42de:	911b      	str	r1, [sp, #108]	; 0x6c
    42e0:	901c      	str	r0, [sp, #112]	; 0x70
    42e2:	4308      	orrs	r0, r1
    42e4:	2800      	cmp	r0, #0
    42e6:	d041      	beq.n	436c <ConvertRadixNumToString+0xe4>
    42e8:	e7ff      	b.n	42ea <ConvertRadixNumToString+0x62>
    42ea:	991b      	ldr	r1, [sp, #108]	; 0x6c
    42ec:	981c      	ldr	r0, [sp, #112]	; 0x70
    42ee:	9a24      	ldr	r2, [sp, #144]	; 0x90
    42f0:	2300      	movs	r3, #0
    42f2:	f7fc fdc9 	bl	e88 <__aeabi_ldivmod>
    42f6:	f8dd c090 	ldr.w	ip, [sp, #144]	; 0x90
    42fa:	4603      	mov	r3, r0
    42fc:	981b      	ldr	r0, [sp, #108]	; 0x6c
    42fe:	460a      	mov	r2, r1
    4300:	991c      	ldr	r1, [sp, #112]	; 0x70
    4302:	4696      	mov	lr, r2
    4304:	f8cd e054 	str.w	lr, [sp, #84]	; 0x54
    4308:	469e      	mov	lr, r3
    430a:	f8cd e058 	str.w	lr, [sp, #88]	; 0x58
    430e:	fba3 3e0c 	umull	r3, lr, r3, ip
    4312:	fb02 e20c 	mla	r2, r2, ip, lr
    4316:	1ac9      	subs	r1, r1, r3
    4318:	4190      	sbcs	r0, r2
    431a:	9117      	str	r1, [sp, #92]	; 0x5c
    431c:	4601      	mov	r1, r0
    431e:	9118      	str	r1, [sp, #96]	; 0x60
    4320:	f1b0 3fff 	cmp.w	r0, #4294967295	; 0xffffffff
    4324:	dc0a      	bgt.n	433c <ConvertRadixNumToString+0xb4>
    4326:	e7ff      	b.n	4328 <ConvertRadixNumToString+0xa0>
    4328:	9917      	ldr	r1, [sp, #92]	; 0x5c
    432a:	9818      	ldr	r0, [sp, #96]	; 0x60
    432c:	43c0      	mvns	r0, r0
    432e:	43c9      	mvns	r1, r1
    4330:	3131      	adds	r1, #49	; 0x31
    4332:	f140 0000 	adc.w	r0, r0, #0
    4336:	9113      	str	r1, [sp, #76]	; 0x4c
    4338:	9014      	str	r0, [sp, #80]	; 0x50
    433a:	e007      	b.n	434c <ConvertRadixNumToString+0xc4>
    433c:	9818      	ldr	r0, [sp, #96]	; 0x60
    433e:	9917      	ldr	r1, [sp, #92]	; 0x5c
    4340:	3130      	adds	r1, #48	; 0x30
    4342:	f140 0000 	adc.w	r0, r0, #0
    4346:	9113      	str	r1, [sp, #76]	; 0x4c
    4348:	9014      	str	r0, [sp, #80]	; 0x50
    434a:	e7ff      	b.n	434c <ConvertRadixNumToString+0xc4>
    434c:	9a15      	ldr	r2, [sp, #84]	; 0x54
    434e:	9b16      	ldr	r3, [sp, #88]	; 0x58
    4350:	991a      	ldr	r1, [sp, #104]	; 0x68
    4352:	9819      	ldr	r0, [sp, #100]	; 0x64
    4354:	f8dd c04c 	ldr.w	ip, [sp, #76]	; 0x4c
    4358:	f8dd e050 	ldr.w	lr, [sp, #80]	; 0x50
    435c:	f800 cb01 	strb.w	ip, [r0], #1
    4360:	3101      	adds	r1, #1
    4362:	931d      	str	r3, [sp, #116]	; 0x74
    4364:	921e      	str	r2, [sp, #120]	; 0x78
    4366:	911f      	str	r1, [sp, #124]	; 0x7c
    4368:	9020      	str	r0, [sp, #128]	; 0x80
    436a:	e7b2      	b.n	42d2 <ConvertRadixNumToString+0x4a>
    436c:	981a      	ldr	r0, [sp, #104]	; 0x68
    436e:	9012      	str	r0, [sp, #72]	; 0x48
    4370:	e070      	b.n	4454 <ConvertRadixNumToString+0x1cc>
    4372:	9925      	ldr	r1, [sp, #148]	; 0x94
    4374:	6808      	ldr	r0, [r1, #0]
    4376:	9010      	str	r0, [sp, #64]	; 0x40
    4378:	6849      	ldr	r1, [r1, #4]
    437a:	9111      	str	r1, [sp, #68]	; 0x44
    437c:	4308      	orrs	r0, r1
    437e:	b930      	cbnz	r0, 438e <ConvertRadixNumToString+0x106>
    4380:	e7ff      	b.n	4382 <ConvertRadixNumToString+0xfa>
    4382:	9927      	ldr	r1, [sp, #156]	; 0x9c
    4384:	2030      	movs	r0, #48	; 0x30
    4386:	7008      	strb	r0, [r1, #0]
    4388:	2001      	movs	r0, #1
    438a:	9021      	str	r0, [sp, #132]	; 0x84
    438c:	e065      	b.n	445a <ConvertRadixNumToString+0x1d2>
    438e:	9827      	ldr	r0, [sp, #156]	; 0x9c
    4390:	9a11      	ldr	r2, [sp, #68]	; 0x44
    4392:	9b10      	ldr	r3, [sp, #64]	; 0x40
    4394:	2100      	movs	r1, #0
    4396:	930c      	str	r3, [sp, #48]	; 0x30
    4398:	920d      	str	r2, [sp, #52]	; 0x34
    439a:	910e      	str	r1, [sp, #56]	; 0x38
    439c:	900f      	str	r0, [sp, #60]	; 0x3c
    439e:	e7ff      	b.n	43a0 <ConvertRadixNumToString+0x118>
    43a0:	980c      	ldr	r0, [sp, #48]	; 0x30
    43a2:	990d      	ldr	r1, [sp, #52]	; 0x34
    43a4:	9a0e      	ldr	r2, [sp, #56]	; 0x38
    43a6:	9b0f      	ldr	r3, [sp, #60]	; 0x3c
    43a8:	9308      	str	r3, [sp, #32]
    43aa:	9209      	str	r2, [sp, #36]	; 0x24
    43ac:	910a      	str	r1, [sp, #40]	; 0x28
    43ae:	900b      	str	r0, [sp, #44]	; 0x2c
    43b0:	4308      	orrs	r0, r1
    43b2:	2800      	cmp	r0, #0
    43b4:	d04b      	beq.n	444e <ConvertRadixNumToString+0x1c6>
    43b6:	e7ff      	b.n	43b8 <ConvertRadixNumToString+0x130>
    43b8:	990a      	ldr	r1, [sp, #40]	; 0x28
    43ba:	980b      	ldr	r0, [sp, #44]	; 0x2c
    43bc:	9a24      	ldr	r2, [sp, #144]	; 0x90
    43be:	2300      	movs	r3, #0
    43c0:	9303      	str	r3, [sp, #12]
    43c2:	f7fc fdb1 	bl	f28 <__aeabi_uldivmod>
    43c6:	9a0b      	ldr	r2, [sp, #44]	; 0x2c
    43c8:	f8dd e090 	ldr.w	lr, [sp, #144]	; 0x90
    43cc:	4684      	mov	ip, r0
    43ce:	9803      	ldr	r0, [sp, #12]
    43d0:	460b      	mov	r3, r1
    43d2:	990a      	ldr	r1, [sp, #40]	; 0x28
    43d4:	461c      	mov	r4, r3
    43d6:	9404      	str	r4, [sp, #16]
    43d8:	4664      	mov	r4, ip
    43da:	9405      	str	r4, [sp, #20]
    43dc:	fbac c40e 	umull	ip, r4, ip, lr
    43e0:	fb03 430e 	mla	r3, r3, lr, r4
    43e4:	ebb2 020c 	subs.w	r2, r2, ip
    43e8:	4199      	sbcs	r1, r3
    43ea:	4613      	mov	r3, r2
    43ec:	9306      	str	r3, [sp, #24]
    43ee:	460b      	mov	r3, r1
    43f0:	9307      	str	r3, [sp, #28]
    43f2:	f1d2 0209 	rsbs	r2, r2, #9
    43f6:	4188      	sbcs	r0, r1
    43f8:	d308      	bcc.n	440c <ConvertRadixNumToString+0x184>
    43fa:	e7ff      	b.n	43fc <ConvertRadixNumToString+0x174>
    43fc:	9807      	ldr	r0, [sp, #28]
    43fe:	9906      	ldr	r1, [sp, #24]
    4400:	3130      	adds	r1, #48	; 0x30
    4402:	f140 0000 	adc.w	r0, r0, #0
    4406:	9101      	str	r1, [sp, #4]
    4408:	9002      	str	r0, [sp, #8]
    440a:	e010      	b.n	442e <ConvertRadixNumToString+0x1a6>
    440c:	9807      	ldr	r0, [sp, #28]
    440e:	9906      	ldr	r1, [sp, #24]
    4410:	9a26      	ldr	r2, [sp, #152]	; 0x98
    4412:	07d3      	lsls	r3, r2, #31
    4414:	2261      	movs	r2, #97	; 0x61
    4416:	2b00      	cmp	r3, #0
    4418:	bf18      	it	ne
    441a:	2241      	movne	r2, #65	; 0x41
    441c:	1889      	adds	r1, r1, r2
    441e:	f140 0000 	adc.w	r0, r0, #0
    4422:	390a      	subs	r1, #10
    4424:	f160 0000 	sbc.w	r0, r0, #0
    4428:	9101      	str	r1, [sp, #4]
    442a:	9002      	str	r0, [sp, #8]
    442c:	e7ff      	b.n	442e <ConvertRadixNumToString+0x1a6>
    442e:	9a04      	ldr	r2, [sp, #16]
    4430:	9b05      	ldr	r3, [sp, #20]
    4432:	9909      	ldr	r1, [sp, #36]	; 0x24
    4434:	9808      	ldr	r0, [sp, #32]
    4436:	f8dd c004 	ldr.w	ip, [sp, #4]
    443a:	f8dd e008 	ldr.w	lr, [sp, #8]
    443e:	f800 cb01 	strb.w	ip, [r0], #1
    4442:	3101      	adds	r1, #1
    4444:	930c      	str	r3, [sp, #48]	; 0x30
    4446:	920d      	str	r2, [sp, #52]	; 0x34
    4448:	910e      	str	r1, [sp, #56]	; 0x38
    444a:	900f      	str	r0, [sp, #60]	; 0x3c
    444c:	e7a8      	b.n	43a0 <ConvertRadixNumToString+0x118>
    444e:	9809      	ldr	r0, [sp, #36]	; 0x24
    4450:	9012      	str	r0, [sp, #72]	; 0x48
    4452:	e7ff      	b.n	4454 <ConvertRadixNumToString+0x1cc>
    4454:	9812      	ldr	r0, [sp, #72]	; 0x48
    4456:	9021      	str	r0, [sp, #132]	; 0x84
    4458:	e7ff      	b.n	445a <ConvertRadixNumToString+0x1d2>
    445a:	9821      	ldr	r0, [sp, #132]	; 0x84
    445c:	b028      	add	sp, #160	; 0xa0
    445e:	bdd0      	pop	{r4, r6, r7, pc}

00004460 <PrintGetSignChar>:
    4460:	b085      	sub	sp, #20
    4462:	9303      	str	r3, [sp, #12]
    4464:	9204      	str	r2, [sp, #16]
    4466:	f1b1 3fff 	cmp.w	r1, #4294967295	; 0xffffffff
    446a:	dc06      	bgt.n	447a <PrintGetSignChar+0x1a>
    446c:	e7ff      	b.n	446e <PrintGetSignChar+0xe>
    446e:	9903      	ldr	r1, [sp, #12]
    4470:	202d      	movs	r0, #45	; 0x2d
    4472:	7008      	strb	r0, [r1, #0]
    4474:	2001      	movs	r0, #1
    4476:	9002      	str	r0, [sp, #8]
    4478:	e020      	b.n	44bc <PrintGetSignChar+0x5c>
    447a:	9804      	ldr	r0, [sp, #16]
    447c:	0780      	lsls	r0, r0, #30
    447e:	2800      	cmp	r0, #0
    4480:	d506      	bpl.n	4490 <PrintGetSignChar+0x30>
    4482:	e7ff      	b.n	4484 <PrintGetSignChar+0x24>
    4484:	9903      	ldr	r1, [sp, #12]
    4486:	202b      	movs	r0, #43	; 0x2b
    4488:	7008      	strb	r0, [r1, #0]
    448a:	2001      	movs	r0, #1
    448c:	9001      	str	r0, [sp, #4]
    448e:	e012      	b.n	44b6 <PrintGetSignChar+0x56>
    4490:	9804      	ldr	r0, [sp, #16]
    4492:	0740      	lsls	r0, r0, #29
    4494:	2800      	cmp	r0, #0
    4496:	d506      	bpl.n	44a6 <PrintGetSignChar+0x46>
    4498:	e7ff      	b.n	449a <PrintGetSignChar+0x3a>
    449a:	9903      	ldr	r1, [sp, #12]
    449c:	2020      	movs	r0, #32
    449e:	7008      	strb	r0, [r1, #0]
    44a0:	2001      	movs	r0, #1
    44a2:	9000      	str	r0, [sp, #0]
    44a4:	e004      	b.n	44b0 <PrintGetSignChar+0x50>
    44a6:	9903      	ldr	r1, [sp, #12]
    44a8:	2000      	movs	r0, #0
    44aa:	7008      	strb	r0, [r1, #0]
    44ac:	9000      	str	r0, [sp, #0]
    44ae:	e7ff      	b.n	44b0 <PrintGetSignChar+0x50>
    44b0:	9800      	ldr	r0, [sp, #0]
    44b2:	9001      	str	r0, [sp, #4]
    44b4:	e7ff      	b.n	44b6 <PrintGetSignChar+0x56>
    44b6:	9801      	ldr	r0, [sp, #4]
    44b8:	9002      	str	r0, [sp, #8]
    44ba:	e7ff      	b.n	44bc <PrintGetSignChar+0x5c>
    44bc:	9802      	ldr	r0, [sp, #8]
    44be:	b2c0      	uxtb	r0, r0
    44c0:	b005      	add	sp, #20
    44c2:	4770      	bx	lr

000044c4 <PrintOutputdifFobpu>:
    44c4:	b580      	push	{r7, lr}
    44c6:	466f      	mov	r7, sp
    44c8:	b094      	sub	sp, #80	; 0x50
    44ca:	920c      	str	r2, [sp, #48]	; 0x30
    44cc:	910d      	str	r1, [sp, #52]	; 0x34
    44ce:	900e      	str	r0, [sp, #56]	; 0x38
    44d0:	6979      	ldr	r1, [r7, #20]
    44d2:	910f      	str	r1, [sp, #60]	; 0x3c
    44d4:	6939      	ldr	r1, [r7, #16]
    44d6:	9110      	str	r1, [sp, #64]	; 0x40
    44d8:	68f9      	ldr	r1, [r7, #12]
    44da:	9111      	str	r1, [sp, #68]	; 0x44
    44dc:	68b9      	ldr	r1, [r7, #8]
    44de:	9112      	str	r1, [sp, #72]	; 0x48
    44e0:	9313      	str	r3, [sp, #76]	; 0x4c
    44e2:	0700      	lsls	r0, r0, #28
    44e4:	2800      	cmp	r0, #0
    44e6:	d522      	bpl.n	452e <PrintOutputdifFobpu+0x6a>
    44e8:	e7ff      	b.n	44ea <PrintOutputdifFobpu+0x26>
    44ea:	9813      	ldr	r0, [sp, #76]	; 0x4c
    44ec:	0601      	lsls	r1, r0, #24
    44ee:	900b      	str	r0, [sp, #44]	; 0x2c
    44f0:	b159      	cbz	r1, 450a <PrintOutputdifFobpu+0x46>
    44f2:	e7ff      	b.n	44f4 <PrintOutputdifFobpu+0x30>
    44f4:	f8dd c044 	ldr.w	ip, [sp, #68]	; 0x44
    44f8:	990f      	ldr	r1, [sp, #60]	; 0x3c
    44fa:	9810      	ldr	r0, [sp, #64]	; 0x40
    44fc:	9a13      	ldr	r2, [sp, #76]	; 0x4c
    44fe:	b2d2      	uxtb	r2, r2
    4500:	2301      	movs	r3, #1
    4502:	47e0      	blx	ip
    4504:	2000      	movs	r0, #0
    4506:	900b      	str	r0, [sp, #44]	; 0x2c
    4508:	e7ff      	b.n	450a <PrintOutputdifFobpu+0x46>
    450a:	9a0d      	ldr	r2, [sp, #52]	; 0x34
    450c:	f8dd c044 	ldr.w	ip, [sp, #68]	; 0x44
    4510:	990f      	ldr	r1, [sp, #60]	; 0x3c
    4512:	9810      	ldr	r0, [sp, #64]	; 0x40
    4514:	9b0c      	ldr	r3, [sp, #48]	; 0x30
    4516:	f8dd e02c 	ldr.w	lr, [sp, #44]	; 0x2c
    451a:	f8cd e020 	str.w	lr, [sp, #32]
    451e:	1ad3      	subs	r3, r2, r3
    4520:	2230      	movs	r2, #48	; 0x30
    4522:	47e0      	blx	ip
    4524:	990d      	ldr	r1, [sp, #52]	; 0x34
    4526:	9808      	ldr	r0, [sp, #32]
    4528:	9109      	str	r1, [sp, #36]	; 0x24
    452a:	900a      	str	r0, [sp, #40]	; 0x28
    452c:	e026      	b.n	457c <PrintOutputdifFobpu+0xb8>
    452e:	9813      	ldr	r0, [sp, #76]	; 0x4c
    4530:	990e      	ldr	r1, [sp, #56]	; 0x38
    4532:	07c9      	lsls	r1, r1, #31
    4534:	9007      	str	r0, [sp, #28]
    4536:	b9e1      	cbnz	r1, 4572 <PrintOutputdifFobpu+0xae>
    4538:	e7ff      	b.n	453a <PrintOutputdifFobpu+0x76>
    453a:	f8dd c044 	ldr.w	ip, [sp, #68]	; 0x44
    453e:	990f      	ldr	r1, [sp, #60]	; 0x3c
    4540:	9810      	ldr	r0, [sp, #64]	; 0x40
    4542:	9a0d      	ldr	r2, [sp, #52]	; 0x34
    4544:	9b0c      	ldr	r3, [sp, #48]	; 0x30
    4546:	1ad3      	subs	r3, r2, r3
    4548:	2220      	movs	r2, #32
    454a:	47e0      	blx	ip
    454c:	9813      	ldr	r0, [sp, #76]	; 0x4c
    454e:	0601      	lsls	r1, r0, #24
    4550:	9006      	str	r0, [sp, #24]
    4552:	b159      	cbz	r1, 456c <PrintOutputdifFobpu+0xa8>
    4554:	e7ff      	b.n	4556 <PrintOutputdifFobpu+0x92>
    4556:	f8dd c044 	ldr.w	ip, [sp, #68]	; 0x44
    455a:	990f      	ldr	r1, [sp, #60]	; 0x3c
    455c:	9810      	ldr	r0, [sp, #64]	; 0x40
    455e:	9a13      	ldr	r2, [sp, #76]	; 0x4c
    4560:	b2d2      	uxtb	r2, r2
    4562:	2301      	movs	r3, #1
    4564:	47e0      	blx	ip
    4566:	2000      	movs	r0, #0
    4568:	9006      	str	r0, [sp, #24]
    456a:	e7ff      	b.n	456c <PrintOutputdifFobpu+0xa8>
    456c:	9806      	ldr	r0, [sp, #24]
    456e:	9007      	str	r0, [sp, #28]
    4570:	e7ff      	b.n	4572 <PrintOutputdifFobpu+0xae>
    4572:	990c      	ldr	r1, [sp, #48]	; 0x30
    4574:	9807      	ldr	r0, [sp, #28]
    4576:	9109      	str	r1, [sp, #36]	; 0x24
    4578:	900a      	str	r0, [sp, #40]	; 0x28
    457a:	e7ff      	b.n	457c <PrintOutputdifFobpu+0xb8>
    457c:	9909      	ldr	r1, [sp, #36]	; 0x24
    457e:	980a      	ldr	r0, [sp, #40]	; 0x28
    4580:	9004      	str	r0, [sp, #16]
    4582:	9105      	str	r1, [sp, #20]
    4584:	0600      	lsls	r0, r0, #24
    4586:	b148      	cbz	r0, 459c <PrintOutputdifFobpu+0xd8>
    4588:	e7ff      	b.n	458a <PrintOutputdifFobpu+0xc6>
    458a:	f8dd c044 	ldr.w	ip, [sp, #68]	; 0x44
    458e:	990f      	ldr	r1, [sp, #60]	; 0x3c
    4590:	9810      	ldr	r0, [sp, #64]	; 0x40
    4592:	9a04      	ldr	r2, [sp, #16]
    4594:	b2d2      	uxtb	r2, r2
    4596:	2301      	movs	r3, #1
    4598:	47e0      	blx	ip
    459a:	e7ff      	b.n	459c <PrintOutputdifFobpu+0xd8>
    459c:	9812      	ldr	r0, [sp, #72]	; 0x48
    459e:	9003      	str	r0, [sp, #12]
    45a0:	e7ff      	b.n	45a2 <PrintOutputdifFobpu+0xde>
    45a2:	9803      	ldr	r0, [sp, #12]
    45a4:	9002      	str	r0, [sp, #8]
    45a6:	7800      	ldrb	r0, [r0, #0]
    45a8:	b168      	cbz	r0, 45c6 <PrintOutputdifFobpu+0x102>
    45aa:	e7ff      	b.n	45ac <PrintOutputdifFobpu+0xe8>
    45ac:	f8dd c044 	ldr.w	ip, [sp, #68]	; 0x44
    45b0:	990f      	ldr	r1, [sp, #60]	; 0x3c
    45b2:	9810      	ldr	r0, [sp, #64]	; 0x40
    45b4:	9b02      	ldr	r3, [sp, #8]
    45b6:	f813 2901 	ldrb.w	r2, [r3], #-1
    45ba:	9301      	str	r3, [sp, #4]
    45bc:	2301      	movs	r3, #1
    45be:	47e0      	blx	ip
    45c0:	9801      	ldr	r0, [sp, #4]
    45c2:	9003      	str	r0, [sp, #12]
    45c4:	e7ed      	b.n	45a2 <PrintOutputdifFobpu+0xde>
    45c6:	980e      	ldr	r0, [sp, #56]	; 0x38
    45c8:	07c0      	lsls	r0, r0, #31
    45ca:	b150      	cbz	r0, 45e2 <PrintOutputdifFobpu+0x11e>
    45cc:	e7ff      	b.n	45ce <PrintOutputdifFobpu+0x10a>
    45ce:	f8dd c044 	ldr.w	ip, [sp, #68]	; 0x44
    45d2:	990f      	ldr	r1, [sp, #60]	; 0x3c
    45d4:	9810      	ldr	r0, [sp, #64]	; 0x40
    45d6:	9a0d      	ldr	r2, [sp, #52]	; 0x34
    45d8:	9b05      	ldr	r3, [sp, #20]
    45da:	1ad3      	subs	r3, r2, r3
    45dc:	2220      	movs	r2, #32
    45de:	47e0      	blx	ip
    45e0:	e7ff      	b.n	45e2 <PrintOutputdifFobpu+0x11e>
    45e2:	b014      	add	sp, #80	; 0x50
    45e4:	bd80      	pop	{r7, pc}

000045e6 <PrintIsfF>:
    45e6:	b082      	sub	sp, #8
    45e8:	4601      	mov	r1, r0
    45ea:	9101      	str	r1, [sp, #4]
    45ec:	2866      	cmp	r0, #102	; 0x66
    45ee:	d007      	beq.n	4600 <PrintIsfF+0x1a>
    45f0:	e7ff      	b.n	45f2 <PrintIsfF+0xc>
    45f2:	9801      	ldr	r0, [sp, #4]
    45f4:	b2c1      	uxtb	r1, r0
    45f6:	2000      	movs	r0, #0
    45f8:	2946      	cmp	r1, #70	; 0x46
    45fa:	9000      	str	r0, [sp, #0]
    45fc:	d103      	bne.n	4606 <PrintIsfF+0x20>
    45fe:	e7ff      	b.n	4600 <PrintIsfF+0x1a>
    4600:	2001      	movs	r0, #1
    4602:	9000      	str	r0, [sp, #0]
    4604:	e7ff      	b.n	4606 <PrintIsfF+0x20>
    4606:	9800      	ldr	r0, [sp, #0]
    4608:	b002      	add	sp, #8
    460a:	4770      	bx	lr
    460c:	0000      	movs	r0, r0
	...

00004610 <ConvertFloatRadixNumToString>:
    4610:	b580      	push	{r7, lr}
    4612:	466f      	mov	r7, sp
    4614:	b0be      	sub	sp, #248	; 0xf8
    4616:	9335      	str	r3, [sp, #212]	; 0xd4
    4618:	9236      	str	r2, [sp, #216]	; 0xd8
    461a:	2200      	movs	r2, #0
    461c:	f800 2b01 	strb.w	r2, [r0], #1
    4620:	9037      	str	r0, [sp, #220]	; 0xdc
    4622:	ed91 0b00 	vldr	d0, [r1]
    4626:	ed8d 0b38 	vstr	d0, [sp, #224]	; 0xe0
    462a:	ed9f 1bc5 	vldr	d1, [pc, #788]	; 4940 <ConvertFloatRadixNumToString+0x330>
    462e:	ec53 2b11 	vmov	r2, r3, d1
    4632:	ec51 0b10 	vmov	r0, r1, d0
    4636:	f7fc fbb7 	bl	da8 <__aeabi_dcmpeq>
    463a:	b130      	cbz	r0, 464a <ConvertFloatRadixNumToString+0x3a>
    463c:	e7ff      	b.n	463e <ConvertFloatRadixNumToString+0x2e>
    463e:	9937      	ldr	r1, [sp, #220]	; 0xdc
    4640:	2030      	movs	r0, #48	; 0x30
    4642:	7008      	strb	r0, [r1, #0]
    4644:	2001      	movs	r0, #1
    4646:	9034      	str	r0, [sp, #208]	; 0xd0
    4648:	e175      	b.n	4936 <ConvertFloatRadixNumToString+0x326>
    464a:	ed9d 0b38 	vldr	d0, [sp, #224]	; 0xe0
    464e:	a83c      	add	r0, sp, #240	; 0xf0
    4650:	f002 feda 	bl	7408 <modf>
    4654:	2000      	movs	r0, #0
    4656:	9031      	str	r0, [sp, #196]	; 0xc4
    4658:	ed8d 0b32 	vstr	d0, [sp, #200]	; 0xc8
    465c:	e7ff      	b.n	465e <ConvertFloatRadixNumToString+0x4e>
    465e:	9935      	ldr	r1, [sp, #212]	; 0xd4
    4660:	9831      	ldr	r0, [sp, #196]	; 0xc4
    4662:	ed9d 0b32 	vldr	d0, [sp, #200]	; 0xc8
    4666:	ed8d 0b2e 	vstr	d0, [sp, #184]	; 0xb8
    466a:	9030      	str	r0, [sp, #192]	; 0xc0
    466c:	4288      	cmp	r0, r1
    466e:	da1a      	bge.n	46a6 <ConvertFloatRadixNumToString+0x96>
    4670:	e7ff      	b.n	4672 <ConvertFloatRadixNumToString+0x62>
    4672:	9836      	ldr	r0, [sp, #216]	; 0xd8
    4674:	f7fc f8c6 	bl	804 <__aeabi_i2d>
    4678:	ed9d 1b2e 	vldr	d1, [sp, #184]	; 0xb8
    467c:	ec41 0b10 	vmov	d0, r0, r1
    4680:	ec51 0b11 	vmov	r0, r1, d1
    4684:	ec53 2b10 	vmov	r2, r3, d0
    4688:	f7fc f926 	bl	8d8 <__aeabi_dmul>
    468c:	ec41 0b10 	vmov	d0, r0, r1
    4690:	ed8d 0b2c 	vstr	d0, [sp, #176]	; 0xb0
    4694:	e7ff      	b.n	4696 <ConvertFloatRadixNumToString+0x86>
    4696:	ed9d 0b2c 	vldr	d0, [sp, #176]	; 0xb0
    469a:	9830      	ldr	r0, [sp, #192]	; 0xc0
    469c:	3001      	adds	r0, #1
    469e:	9031      	str	r0, [sp, #196]	; 0xc4
    46a0:	ed8d 0b32 	vstr	d0, [sp, #200]	; 0xc8
    46a4:	e7db      	b.n	465e <ConvertFloatRadixNumToString+0x4e>
    46a6:	ed9d 0b38 	vldr	d0, [sp, #224]	; 0xe0
    46aa:	ec51 0b10 	vmov	r0, r1, d0
    46ae:	ed9f 0ba4 	vldr	d0, [pc, #656]	; 4940 <ConvertFloatRadixNumToString+0x330>
    46b2:	ec53 2b10 	vmov	r2, r3, d0
    46b6:	f7fc fb95 	bl	de4 <__aeabi_dcmpge>
    46ba:	b3c8      	cbz	r0, 4730 <ConvertFloatRadixNumToString+0x120>
    46bc:	e7ff      	b.n	46be <ConvertFloatRadixNumToString+0xae>
    46be:	ed9d 0b2e 	vldr	d0, [sp, #184]	; 0xb8
    46c2:	ec51 0b10 	vmov	r0, r1, d0
    46c6:	ed9f 0ba6 	vldr	d0, [pc, #664]	; 4960 <ConvertFloatRadixNumToString+0x350>
    46ca:	ec53 2b10 	vmov	r2, r3, d0
    46ce:	f7fb ff4d 	bl	56c <__adddf3>
    46d2:	4602      	mov	r2, r0
    46d4:	9835      	ldr	r0, [sp, #212]	; 0xd4
    46d6:	9229      	str	r2, [sp, #164]	; 0xa4
    46d8:	460a      	mov	r2, r1
    46da:	9929      	ldr	r1, [sp, #164]	; 0xa4
    46dc:	ec42 1b10 	vmov	d0, r1, r2
    46e0:	ed8d 0b2a 	vstr	d0, [sp, #168]	; 0xa8
    46e4:	f7fc f87e 	bl	7e4 <__aeabi_ui2d>
    46e8:	ec41 0b11 	vmov	d1, r0, r1
    46ec:	ed9f 0b98 	vldr	d0, [pc, #608]	; 4950 <ConvertFloatRadixNumToString+0x340>
    46f0:	f002 fee6 	bl	74c0 <pow>
    46f4:	ed9d 1b2a 	vldr	d1, [sp, #168]	; 0xa8
    46f8:	ec51 0b11 	vmov	r0, r1, d1
    46fc:	ec53 2b10 	vmov	r2, r3, d0
    4700:	f7fc fb70 	bl	de4 <__aeabi_dcmpge>
    4704:	b178      	cbz	r0, 4726 <ConvertFloatRadixNumToString+0x116>
    4706:	e7ff      	b.n	4708 <ConvertFloatRadixNumToString+0xf8>
    4708:	ed9d 0b3c 	vldr	d0, [sp, #240]	; 0xf0
    470c:	ec51 0b10 	vmov	r0, r1, d0
    4710:	ed9f 0b95 	vldr	d0, [pc, #596]	; 4968 <ConvertFloatRadixNumToString+0x358>
    4714:	ec53 2b10 	vmov	r2, r3, d0
    4718:	f7fb ff28 	bl	56c <__adddf3>
    471c:	ec41 0b10 	vmov	d0, r0, r1
    4720:	ed8d 0b3c 	vstr	d0, [sp, #240]	; 0xf0
    4724:	e7ff      	b.n	4726 <ConvertFloatRadixNumToString+0x116>
    4726:	ed9d 0b2a 	vldr	d0, [sp, #168]	; 0xa8
    472a:	ed8d 0b26 	vstr	d0, [sp, #152]	; 0x98
    472e:	e044      	b.n	47ba <ConvertFloatRadixNumToString+0x1aa>
    4730:	ed9d 0b2e 	vldr	d0, [sp, #184]	; 0xb8
    4734:	ec51 0b10 	vmov	r0, r1, d0
    4738:	ed9f 0b83 	vldr	d0, [pc, #524]	; 4948 <ConvertFloatRadixNumToString+0x338>
    473c:	ec53 2b10 	vmov	r2, r3, d0
    4740:	f7fb ff14 	bl	56c <__adddf3>
    4744:	4602      	mov	r2, r0
    4746:	9835      	ldr	r0, [sp, #212]	; 0xd4
    4748:	9223      	str	r2, [sp, #140]	; 0x8c
    474a:	460a      	mov	r2, r1
    474c:	9923      	ldr	r1, [sp, #140]	; 0x8c
    474e:	ec42 1b10 	vmov	d0, r1, r2
    4752:	ed8d 0b24 	vstr	d0, [sp, #144]	; 0x90
    4756:	f7fc f845 	bl	7e4 <__aeabi_ui2d>
    475a:	ec41 0b11 	vmov	d1, r0, r1
    475e:	ed9f 0b7c 	vldr	d0, [pc, #496]	; 4950 <ConvertFloatRadixNumToString+0x340>
    4762:	f002 fead 	bl	74c0 <pow>
    4766:	eeb0 1a40 	vmov.f32	s2, s0
    476a:	eef0 1a60 	vmov.f32	s3, s1
    476e:	ed9d 0b24 	vldr	d0, [sp, #144]	; 0x90
    4772:	ed8d 1b3a 	vstr	d1, [sp, #232]	; 0xe8
    4776:	f89d 00ef 	ldrb.w	r0, [sp, #239]	; 0xef
    477a:	f080 0080 	eor.w	r0, r0, #128	; 0x80
    477e:	f88d 00ef 	strb.w	r0, [sp, #239]	; 0xef
    4782:	9a3a      	ldr	r2, [sp, #232]	; 0xe8
    4784:	9b3b      	ldr	r3, [sp, #236]	; 0xec
    4786:	ec51 0b10 	vmov	r0, r1, d0
    478a:	f7fc fb21 	bl	dd0 <__aeabi_dcmple>
    478e:	b178      	cbz	r0, 47b0 <ConvertFloatRadixNumToString+0x1a0>
    4790:	e7ff      	b.n	4792 <ConvertFloatRadixNumToString+0x182>
    4792:	ed9d 0b3c 	vldr	d0, [sp, #240]	; 0xf0
    4796:	ec51 0b10 	vmov	r0, r1, d0
    479a:	ed9f 0b6f 	vldr	d0, [pc, #444]	; 4958 <ConvertFloatRadixNumToString+0x348>
    479e:	ec53 2b10 	vmov	r2, r3, d0
    47a2:	f7fb fee3 	bl	56c <__adddf3>
    47a6:	ec41 0b10 	vmov	d0, r0, r1
    47aa:	ed8d 0b3c 	vstr	d0, [sp, #240]	; 0xf0
    47ae:	e7ff      	b.n	47b0 <ConvertFloatRadixNumToString+0x1a0>
    47b0:	ed9d 0b24 	vldr	d0, [sp, #144]	; 0x90
    47b4:	ed8d 0b26 	vstr	d0, [sp, #152]	; 0x98
    47b8:	e7ff      	b.n	47ba <ConvertFloatRadixNumToString+0x1aa>
    47ba:	9837      	ldr	r0, [sp, #220]	; 0xdc
    47bc:	ed9d 0b26 	vldr	d0, [sp, #152]	; 0x98
    47c0:	2100      	movs	r1, #0
    47c2:	460a      	mov	r2, r1
    47c4:	921d      	str	r2, [sp, #116]	; 0x74
    47c6:	ed8d 0b1e 	vstr	d0, [sp, #120]	; 0x78
    47ca:	9121      	str	r1, [sp, #132]	; 0x84
    47cc:	9022      	str	r0, [sp, #136]	; 0x88
    47ce:	e7ff      	b.n	47d0 <ConvertFloatRadixNumToString+0x1c0>
    47d0:	9935      	ldr	r1, [sp, #212]	; 0xd4
    47d2:	981d      	ldr	r0, [sp, #116]	; 0x74
    47d4:	ed9d 0b1e 	vldr	d0, [sp, #120]	; 0x78
    47d8:	9a21      	ldr	r2, [sp, #132]	; 0x84
    47da:	9b22      	ldr	r3, [sp, #136]	; 0x88
    47dc:	9318      	str	r3, [sp, #96]	; 0x60
    47de:	9219      	str	r2, [sp, #100]	; 0x64
    47e0:	ed8d 0b1a 	vstr	d0, [sp, #104]	; 0x68
    47e4:	901c      	str	r0, [sp, #112]	; 0x70
    47e6:	4288      	cmp	r0, r1
    47e8:	da57      	bge.n	489a <ConvertFloatRadixNumToString+0x28a>
    47ea:	e7ff      	b.n	47ec <ConvertFloatRadixNumToString+0x1dc>
    47ec:	9836      	ldr	r0, [sp, #216]	; 0xd8
    47ee:	f7fc f809 	bl	804 <__aeabi_i2d>
    47f2:	ed9d 1b1a 	vldr	d1, [sp, #104]	; 0x68
    47f6:	ec41 0b10 	vmov	d0, r0, r1
    47fa:	ec51 0b11 	vmov	r0, r1, d1
    47fe:	9116      	str	r1, [sp, #88]	; 0x58
    4800:	9015      	str	r0, [sp, #84]	; 0x54
    4802:	ec53 2b10 	vmov	r2, r3, d0
    4806:	9314      	str	r3, [sp, #80]	; 0x50
    4808:	9213      	str	r2, [sp, #76]	; 0x4c
    480a:	f7fc f98f 	bl	b2c <__aeabi_ddiv>
    480e:	ec41 0b10 	vmov	d0, r0, r1
    4812:	ed8d 0b10 	vstr	d0, [sp, #64]	; 0x40
    4816:	ec51 0b10 	vmov	r0, r1, d0
    481a:	f7fc fb9d 	bl	f58 <__aeabi_d2lz>
    481e:	f7fc f82d 	bl	87c <__aeabi_l2d>
    4822:	9a13      	ldr	r2, [sp, #76]	; 0x4c
    4824:	9b14      	ldr	r3, [sp, #80]	; 0x50
    4826:	ec41 0b10 	vmov	d0, r0, r1
    482a:	ec51 0b10 	vmov	r0, r1, d0
    482e:	f7fc f853 	bl	8d8 <__aeabi_dmul>
    4832:	4602      	mov	r2, r0
    4834:	9815      	ldr	r0, [sp, #84]	; 0x54
    4836:	460b      	mov	r3, r1
    4838:	9916      	ldr	r1, [sp, #88]	; 0x58
    483a:	ec43 2b10 	vmov	d0, r2, r3
    483e:	ec53 2b10 	vmov	r2, r3, d0
    4842:	f7fb fe91 	bl	568 <__aeabi_dsub>
    4846:	ec41 0b10 	vmov	d0, r0, r1
    484a:	ec51 0b10 	vmov	r0, r1, d0
    484e:	f7fc faf3 	bl	e38 <__aeabi_d2iz>
    4852:	4601      	mov	r1, r0
    4854:	9117      	str	r1, [sp, #92]	; 0x5c
    4856:	f1b0 3fff 	cmp.w	r0, #4294967295	; 0xffffffff
    485a:	dc05      	bgt.n	4868 <ConvertFloatRadixNumToString+0x258>
    485c:	e7ff      	b.n	485e <ConvertFloatRadixNumToString+0x24e>
    485e:	9817      	ldr	r0, [sp, #92]	; 0x5c
    4860:	43c0      	mvns	r0, r0
    4862:	3031      	adds	r0, #49	; 0x31
    4864:	900f      	str	r0, [sp, #60]	; 0x3c
    4866:	e003      	b.n	4870 <ConvertFloatRadixNumToString+0x260>
    4868:	9817      	ldr	r0, [sp, #92]	; 0x5c
    486a:	3030      	adds	r0, #48	; 0x30
    486c:	900f      	str	r0, [sp, #60]	; 0x3c
    486e:	e7ff      	b.n	4870 <ConvertFloatRadixNumToString+0x260>
    4870:	9819      	ldr	r0, [sp, #100]	; 0x64
    4872:	9918      	ldr	r1, [sp, #96]	; 0x60
    4874:	9a0f      	ldr	r2, [sp, #60]	; 0x3c
    4876:	f801 2b01 	strb.w	r2, [r1], #1
    487a:	910d      	str	r1, [sp, #52]	; 0x34
    487c:	3001      	adds	r0, #1
    487e:	900e      	str	r0, [sp, #56]	; 0x38
    4880:	e7ff      	b.n	4882 <ConvertFloatRadixNumToString+0x272>
    4882:	980d      	ldr	r0, [sp, #52]	; 0x34
    4884:	990e      	ldr	r1, [sp, #56]	; 0x38
    4886:	ed9d 0b10 	vldr	d0, [sp, #64]	; 0x40
    488a:	9a1c      	ldr	r2, [sp, #112]	; 0x70
    488c:	3201      	adds	r2, #1
    488e:	921d      	str	r2, [sp, #116]	; 0x74
    4890:	ed8d 0b1e 	vstr	d0, [sp, #120]	; 0x78
    4894:	9121      	str	r1, [sp, #132]	; 0x84
    4896:	9022      	str	r0, [sp, #136]	; 0x88
    4898:	e79a      	b.n	47d0 <ConvertFloatRadixNumToString+0x1c0>
    489a:	9819      	ldr	r0, [sp, #100]	; 0x64
    489c:	9918      	ldr	r1, [sp, #96]	; 0x60
    489e:	222e      	movs	r2, #46	; 0x2e
    48a0:	f801 2b01 	strb.w	r2, [r1], #1
    48a4:	910a      	str	r1, [sp, #40]	; 0x28
    48a6:	3001      	adds	r0, #1
    48a8:	900b      	str	r0, [sp, #44]	; 0x2c
    48aa:	983c      	ldr	r0, [sp, #240]	; 0xf0
    48ac:	993d      	ldr	r1, [sp, #244]	; 0xf4
    48ae:	f7fc fac3 	bl	e38 <__aeabi_d2iz>
    48b2:	4601      	mov	r1, r0
    48b4:	910c      	str	r1, [sp, #48]	; 0x30
    48b6:	b938      	cbnz	r0, 48c8 <ConvertFloatRadixNumToString+0x2b8>
    48b8:	e7ff      	b.n	48ba <ConvertFloatRadixNumToString+0x2aa>
    48ba:	980b      	ldr	r0, [sp, #44]	; 0x2c
    48bc:	9a0a      	ldr	r2, [sp, #40]	; 0x28
    48be:	2130      	movs	r1, #48	; 0x30
    48c0:	7011      	strb	r1, [r2, #0]
    48c2:	3001      	adds	r0, #1
    48c4:	9009      	str	r0, [sp, #36]	; 0x24
    48c6:	e033      	b.n	4930 <ConvertFloatRadixNumToString+0x320>
    48c8:	980a      	ldr	r0, [sp, #40]	; 0x28
    48ca:	990b      	ldr	r1, [sp, #44]	; 0x2c
    48cc:	9a0c      	ldr	r2, [sp, #48]	; 0x30
    48ce:	9206      	str	r2, [sp, #24]
    48d0:	9107      	str	r1, [sp, #28]
    48d2:	9008      	str	r0, [sp, #32]
    48d4:	e7ff      	b.n	48d6 <ConvertFloatRadixNumToString+0x2c6>
    48d6:	9806      	ldr	r0, [sp, #24]
    48d8:	9907      	ldr	r1, [sp, #28]
    48da:	9a08      	ldr	r2, [sp, #32]
    48dc:	9203      	str	r2, [sp, #12]
    48de:	9104      	str	r1, [sp, #16]
    48e0:	9005      	str	r0, [sp, #20]
    48e2:	b310      	cbz	r0, 492a <ConvertFloatRadixNumToString+0x31a>
    48e4:	e7ff      	b.n	48e6 <ConvertFloatRadixNumToString+0x2d6>
    48e6:	9936      	ldr	r1, [sp, #216]	; 0xd8
    48e8:	9a05      	ldr	r2, [sp, #20]
    48ea:	fb92 f0f1 	sdiv	r0, r2, r1
    48ee:	4603      	mov	r3, r0
    48f0:	9301      	str	r3, [sp, #4]
    48f2:	fb00 2011 	mls	r0, r0, r1, r2
    48f6:	4601      	mov	r1, r0
    48f8:	9102      	str	r1, [sp, #8]
    48fa:	f1b0 3fff 	cmp.w	r0, #4294967295	; 0xffffffff
    48fe:	dc05      	bgt.n	490c <ConvertFloatRadixNumToString+0x2fc>
    4900:	e7ff      	b.n	4902 <ConvertFloatRadixNumToString+0x2f2>
    4902:	9802      	ldr	r0, [sp, #8]
    4904:	43c0      	mvns	r0, r0
    4906:	3031      	adds	r0, #49	; 0x31
    4908:	9000      	str	r0, [sp, #0]
    490a:	e003      	b.n	4914 <ConvertFloatRadixNumToString+0x304>
    490c:	9802      	ldr	r0, [sp, #8]
    490e:	3030      	adds	r0, #48	; 0x30
    4910:	9000      	str	r0, [sp, #0]
    4912:	e7ff      	b.n	4914 <ConvertFloatRadixNumToString+0x304>
    4914:	9a01      	ldr	r2, [sp, #4]
    4916:	9904      	ldr	r1, [sp, #16]
    4918:	9803      	ldr	r0, [sp, #12]
    491a:	9b00      	ldr	r3, [sp, #0]
    491c:	f800 3b01 	strb.w	r3, [r0], #1
    4920:	3101      	adds	r1, #1
    4922:	9206      	str	r2, [sp, #24]
    4924:	9107      	str	r1, [sp, #28]
    4926:	9008      	str	r0, [sp, #32]
    4928:	e7d5      	b.n	48d6 <ConvertFloatRadixNumToString+0x2c6>
    492a:	9804      	ldr	r0, [sp, #16]
    492c:	9009      	str	r0, [sp, #36]	; 0x24
    492e:	e7ff      	b.n	4930 <ConvertFloatRadixNumToString+0x320>
    4930:	9809      	ldr	r0, [sp, #36]	; 0x24
    4932:	9034      	str	r0, [sp, #208]	; 0xd0
    4934:	e7ff      	b.n	4936 <ConvertFloatRadixNumToString+0x326>
    4936:	9834      	ldr	r0, [sp, #208]	; 0xd0
    4938:	b03e      	add	sp, #248	; 0xf8
    493a:	bd80      	pop	{r7, pc}
    493c:	bf00      	nop
    493e:	bf00      	nop
	...
    494c:	bfe00000 	.word	0xbfe00000
    4950:	00000000 	.word	0x00000000
    4954:	40240000 	.word	0x40240000
    4958:	00000000 	.word	0x00000000
    495c:	bff00000 	.word	0xbff00000
    4960:	00000000 	.word	0x00000000
    4964:	3fe00000 	.word	0x3fe00000
    4968:	00000000 	.word	0x00000000
    496c:	3ff00000 	.word	0x3ff00000

00004970 <PrintIsxX>:
    4970:	b082      	sub	sp, #8
    4972:	4601      	mov	r1, r0
    4974:	9101      	str	r1, [sp, #4]
    4976:	2878      	cmp	r0, #120	; 0x78
    4978:	d007      	beq.n	498a <PrintIsxX+0x1a>
    497a:	e7ff      	b.n	497c <PrintIsxX+0xc>
    497c:	9801      	ldr	r0, [sp, #4]
    497e:	b2c1      	uxtb	r1, r0
    4980:	2000      	movs	r0, #0
    4982:	2958      	cmp	r1, #88	; 0x58
    4984:	9000      	str	r0, [sp, #0]
    4986:	d103      	bne.n	4990 <PrintIsxX+0x20>
    4988:	e7ff      	b.n	498a <PrintIsxX+0x1a>
    498a:	2001      	movs	r0, #1
    498c:	9000      	str	r0, [sp, #0]
    498e:	e7ff      	b.n	4990 <PrintIsxX+0x20>
    4990:	9800      	ldr	r0, [sp, #0]
    4992:	b002      	add	sp, #8
    4994:	4770      	bx	lr

00004996 <StrFormatExaminexX>:
    4996:	b083      	sub	sp, #12
    4998:	9200      	str	r2, [sp, #0]
    499a:	9101      	str	r1, [sp, #4]
    499c:	9002      	str	r0, [sp, #8]
    499e:	7840      	ldrb	r0, [r0, #1]
    49a0:	07c0      	lsls	r0, r0, #31
    49a2:	b170      	cbz	r0, 49c2 <StrFormatExaminexX+0x2c>
    49a4:	e7ff      	b.n	49a6 <StrFormatExaminexX+0x10>
    49a6:	9901      	ldr	r1, [sp, #4]
    49a8:	9b00      	ldr	r3, [sp, #0]
    49aa:	6818      	ldr	r0, [r3, #0]
    49ac:	3007      	adds	r0, #7
    49ae:	f020 0207 	bic.w	r2, r0, #7
    49b2:	f102 0008 	add.w	r0, r2, #8
    49b6:	6018      	str	r0, [r3, #0]
    49b8:	6810      	ldr	r0, [r2, #0]
    49ba:	6852      	ldr	r2, [r2, #4]
    49bc:	604a      	str	r2, [r1, #4]
    49be:	6008      	str	r0, [r1, #0]
    49c0:	e01a      	b.n	49f8 <StrFormatExaminexX+0x62>
    49c2:	9802      	ldr	r0, [sp, #8]
    49c4:	7800      	ldrb	r0, [r0, #0]
    49c6:	0600      	lsls	r0, r0, #24
    49c8:	2800      	cmp	r0, #0
    49ca:	d50a      	bpl.n	49e2 <StrFormatExaminexX+0x4c>
    49cc:	e7ff      	b.n	49ce <StrFormatExaminexX+0x38>
    49ce:	9901      	ldr	r1, [sp, #4]
    49d0:	9b00      	ldr	r3, [sp, #0]
    49d2:	6818      	ldr	r0, [r3, #0]
    49d4:	1d02      	adds	r2, r0, #4
    49d6:	601a      	str	r2, [r3, #0]
    49d8:	6800      	ldr	r0, [r0, #0]
    49da:	2200      	movs	r2, #0
    49dc:	604a      	str	r2, [r1, #4]
    49de:	6008      	str	r0, [r1, #0]
    49e0:	e009      	b.n	49f6 <StrFormatExaminexX+0x60>
    49e2:	9901      	ldr	r1, [sp, #4]
    49e4:	9b00      	ldr	r3, [sp, #0]
    49e6:	6818      	ldr	r0, [r3, #0]
    49e8:	1d02      	adds	r2, r0, #4
    49ea:	601a      	str	r2, [r3, #0]
    49ec:	6800      	ldr	r0, [r0, #0]
    49ee:	2200      	movs	r2, #0
    49f0:	604a      	str	r2, [r1, #4]
    49f2:	6008      	str	r0, [r1, #0]
    49f4:	e7ff      	b.n	49f6 <StrFormatExaminexX+0x60>
    49f6:	e7ff      	b.n	49f8 <StrFormatExaminexX+0x62>
    49f8:	b003      	add	sp, #12
    49fa:	4770      	bx	lr

000049fc <PrintOutputxX>:
    49fc:	b580      	push	{r7, lr}
    49fe:	466f      	mov	r7, sp
    4a00:	b09c      	sub	sp, #112	; 0x70
    4a02:	9214      	str	r2, [sp, #80]	; 0x50
    4a04:	9115      	str	r1, [sp, #84]	; 0x54
    4a06:	9016      	str	r0, [sp, #88]	; 0x58
    4a08:	6979      	ldr	r1, [r7, #20]
    4a0a:	9117      	str	r1, [sp, #92]	; 0x5c
    4a0c:	6939      	ldr	r1, [r7, #16]
    4a0e:	9118      	str	r1, [sp, #96]	; 0x60
    4a10:	68f9      	ldr	r1, [r7, #12]
    4a12:	9119      	str	r1, [sp, #100]	; 0x64
    4a14:	68b9      	ldr	r1, [r7, #8]
    4a16:	911a      	str	r1, [sp, #104]	; 0x68
    4a18:	931b      	str	r3, [sp, #108]	; 0x6c
    4a1a:	0700      	lsls	r0, r0, #28
    4a1c:	2800      	cmp	r0, #0
    4a1e:	d532      	bpl.n	4a86 <PrintOutputxX+0x8a>
    4a20:	e7ff      	b.n	4a22 <PrintOutputxX+0x26>
    4a22:	9916      	ldr	r1, [sp, #88]	; 0x58
    4a24:	2000      	movs	r0, #0
    4a26:	06c9      	lsls	r1, r1, #27
    4a28:	2900      	cmp	r1, #0
    4a2a:	9013      	str	r0, [sp, #76]	; 0x4c
    4a2c:	d519      	bpl.n	4a62 <PrintOutputxX+0x66>
    4a2e:	e7ff      	b.n	4a30 <PrintOutputxX+0x34>
    4a30:	f8dd c064 	ldr.w	ip, [sp, #100]	; 0x64
    4a34:	9917      	ldr	r1, [sp, #92]	; 0x5c
    4a36:	9818      	ldr	r0, [sp, #96]	; 0x60
    4a38:	2230      	movs	r2, #48	; 0x30
    4a3a:	2301      	movs	r3, #1
    4a3c:	9312      	str	r3, [sp, #72]	; 0x48
    4a3e:	47e0      	blx	ip
    4a40:	9a1b      	ldr	r2, [sp, #108]	; 0x6c
    4a42:	9818      	ldr	r0, [sp, #96]	; 0x60
    4a44:	9917      	ldr	r1, [sp, #92]	; 0x5c
    4a46:	f8dd c064 	ldr.w	ip, [sp, #100]	; 0x64
    4a4a:	9b12      	ldr	r3, [sp, #72]	; 0x48
    4a4c:	ea4f 7ec2 	mov.w	lr, r2, lsl #31
    4a50:	2278      	movs	r2, #120	; 0x78
    4a52:	f1be 0f00 	cmp.w	lr, #0
    4a56:	bf18      	it	ne
    4a58:	2258      	movne	r2, #88	; 0x58
    4a5a:	47e0      	blx	ip
    4a5c:	9812      	ldr	r0, [sp, #72]	; 0x48
    4a5e:	9013      	str	r0, [sp, #76]	; 0x4c
    4a60:	e7ff      	b.n	4a62 <PrintOutputxX+0x66>
    4a62:	9a15      	ldr	r2, [sp, #84]	; 0x54
    4a64:	f8dd c064 	ldr.w	ip, [sp, #100]	; 0x64
    4a68:	9917      	ldr	r1, [sp, #92]	; 0x5c
    4a6a:	9818      	ldr	r0, [sp, #96]	; 0x60
    4a6c:	9b14      	ldr	r3, [sp, #80]	; 0x50
    4a6e:	f8dd e04c 	ldr.w	lr, [sp, #76]	; 0x4c
    4a72:	f8cd e03c 	str.w	lr, [sp, #60]	; 0x3c
    4a76:	1ad3      	subs	r3, r2, r3
    4a78:	2230      	movs	r2, #48	; 0x30
    4a7a:	47e0      	blx	ip
    4a7c:	9915      	ldr	r1, [sp, #84]	; 0x54
    4a7e:	980f      	ldr	r0, [sp, #60]	; 0x3c
    4a80:	9110      	str	r1, [sp, #64]	; 0x40
    4a82:	9011      	str	r0, [sp, #68]	; 0x44
    4a84:	e046      	b.n	4b14 <PrintOutputxX+0x118>
    4a86:	9914      	ldr	r1, [sp, #80]	; 0x50
    4a88:	9a16      	ldr	r2, [sp, #88]	; 0x58
    4a8a:	2000      	movs	r0, #0
    4a8c:	07d2      	lsls	r2, r2, #31
    4a8e:	910d      	str	r1, [sp, #52]	; 0x34
    4a90:	900e      	str	r0, [sp, #56]	; 0x38
    4a92:	bbd2      	cbnz	r2, 4b0a <PrintOutputxX+0x10e>
    4a94:	e7ff      	b.n	4a96 <PrintOutputxX+0x9a>
    4a96:	9814      	ldr	r0, [sp, #80]	; 0x50
    4a98:	9916      	ldr	r1, [sp, #88]	; 0x58
    4a9a:	06c9      	lsls	r1, r1, #27
    4a9c:	2900      	cmp	r1, #0
    4a9e:	900c      	str	r0, [sp, #48]	; 0x30
    4aa0:	d504      	bpl.n	4aac <PrintOutputxX+0xb0>
    4aa2:	e7ff      	b.n	4aa4 <PrintOutputxX+0xa8>
    4aa4:	9814      	ldr	r0, [sp, #80]	; 0x50
    4aa6:	3002      	adds	r0, #2
    4aa8:	900c      	str	r0, [sp, #48]	; 0x30
    4aaa:	e7ff      	b.n	4aac <PrintOutputxX+0xb0>
    4aac:	f8dd c064 	ldr.w	ip, [sp, #100]	; 0x64
    4ab0:	9917      	ldr	r1, [sp, #92]	; 0x5c
    4ab2:	9818      	ldr	r0, [sp, #96]	; 0x60
    4ab4:	9a15      	ldr	r2, [sp, #84]	; 0x54
    4ab6:	9b0c      	ldr	r3, [sp, #48]	; 0x30
    4ab8:	930a      	str	r3, [sp, #40]	; 0x28
    4aba:	1ad3      	subs	r3, r2, r3
    4abc:	2220      	movs	r2, #32
    4abe:	47e0      	blx	ip
    4ac0:	9916      	ldr	r1, [sp, #88]	; 0x58
    4ac2:	2000      	movs	r0, #0
    4ac4:	06c9      	lsls	r1, r1, #27
    4ac6:	2900      	cmp	r1, #0
    4ac8:	900b      	str	r0, [sp, #44]	; 0x2c
    4aca:	d519      	bpl.n	4b00 <PrintOutputxX+0x104>
    4acc:	e7ff      	b.n	4ace <PrintOutputxX+0xd2>
    4ace:	f8dd c064 	ldr.w	ip, [sp, #100]	; 0x64
    4ad2:	9917      	ldr	r1, [sp, #92]	; 0x5c
    4ad4:	9818      	ldr	r0, [sp, #96]	; 0x60
    4ad6:	2230      	movs	r2, #48	; 0x30
    4ad8:	2301      	movs	r3, #1
    4ada:	9309      	str	r3, [sp, #36]	; 0x24
    4adc:	47e0      	blx	ip
    4ade:	9a1b      	ldr	r2, [sp, #108]	; 0x6c
    4ae0:	9818      	ldr	r0, [sp, #96]	; 0x60
    4ae2:	9917      	ldr	r1, [sp, #92]	; 0x5c
    4ae4:	f8dd c064 	ldr.w	ip, [sp, #100]	; 0x64
    4ae8:	9b09      	ldr	r3, [sp, #36]	; 0x24
    4aea:	ea4f 7ec2 	mov.w	lr, r2, lsl #31
    4aee:	2278      	movs	r2, #120	; 0x78
    4af0:	f1be 0f00 	cmp.w	lr, #0
    4af4:	bf18      	it	ne
    4af6:	2258      	movne	r2, #88	; 0x58
    4af8:	47e0      	blx	ip
    4afa:	9809      	ldr	r0, [sp, #36]	; 0x24
    4afc:	900b      	str	r0, [sp, #44]	; 0x2c
    4afe:	e7ff      	b.n	4b00 <PrintOutputxX+0x104>
    4b00:	990a      	ldr	r1, [sp, #40]	; 0x28
    4b02:	980b      	ldr	r0, [sp, #44]	; 0x2c
    4b04:	910d      	str	r1, [sp, #52]	; 0x34
    4b06:	900e      	str	r0, [sp, #56]	; 0x38
    4b08:	e7ff      	b.n	4b0a <PrintOutputxX+0x10e>
    4b0a:	990d      	ldr	r1, [sp, #52]	; 0x34
    4b0c:	980e      	ldr	r0, [sp, #56]	; 0x38
    4b0e:	9110      	str	r1, [sp, #64]	; 0x40
    4b10:	9011      	str	r0, [sp, #68]	; 0x44
    4b12:	e7ff      	b.n	4b14 <PrintOutputxX+0x118>
    4b14:	9916      	ldr	r1, [sp, #88]	; 0x58
    4b16:	9810      	ldr	r0, [sp, #64]	; 0x40
    4b18:	9a11      	ldr	r2, [sp, #68]	; 0x44
    4b1a:	9206      	str	r2, [sp, #24]
    4b1c:	9007      	str	r0, [sp, #28]
    4b1e:	06c9      	lsls	r1, r1, #27
    4b20:	2900      	cmp	r1, #0
    4b22:	9008      	str	r0, [sp, #32]
    4b24:	d520      	bpl.n	4b68 <PrintOutputxX+0x16c>
    4b26:	e7ff      	b.n	4b28 <PrintOutputxX+0x12c>
    4b28:	9807      	ldr	r0, [sp, #28]
    4b2a:	9906      	ldr	r1, [sp, #24]
    4b2c:	0609      	lsls	r1, r1, #24
    4b2e:	9008      	str	r0, [sp, #32]
    4b30:	b9d1      	cbnz	r1, 4b68 <PrintOutputxX+0x16c>
    4b32:	e7ff      	b.n	4b34 <PrintOutputxX+0x138>
    4b34:	f8dd c064 	ldr.w	ip, [sp, #100]	; 0x64
    4b38:	9917      	ldr	r1, [sp, #92]	; 0x5c
    4b3a:	9818      	ldr	r0, [sp, #96]	; 0x60
    4b3c:	2230      	movs	r2, #48	; 0x30
    4b3e:	2301      	movs	r3, #1
    4b40:	9305      	str	r3, [sp, #20]
    4b42:	47e0      	blx	ip
    4b44:	9a1b      	ldr	r2, [sp, #108]	; 0x6c
    4b46:	9818      	ldr	r0, [sp, #96]	; 0x60
    4b48:	9917      	ldr	r1, [sp, #92]	; 0x5c
    4b4a:	9b05      	ldr	r3, [sp, #20]
    4b4c:	f8dd c064 	ldr.w	ip, [sp, #100]	; 0x64
    4b50:	ea4f 7ec2 	mov.w	lr, r2, lsl #31
    4b54:	2278      	movs	r2, #120	; 0x78
    4b56:	f1be 0f00 	cmp.w	lr, #0
    4b5a:	bf18      	it	ne
    4b5c:	2258      	movne	r2, #88	; 0x58
    4b5e:	47e0      	blx	ip
    4b60:	9807      	ldr	r0, [sp, #28]
    4b62:	3002      	adds	r0, #2
    4b64:	9008      	str	r0, [sp, #32]
    4b66:	e7ff      	b.n	4b68 <PrintOutputxX+0x16c>
    4b68:	981a      	ldr	r0, [sp, #104]	; 0x68
    4b6a:	9908      	ldr	r1, [sp, #32]
    4b6c:	9103      	str	r1, [sp, #12]
    4b6e:	9004      	str	r0, [sp, #16]
    4b70:	e7ff      	b.n	4b72 <PrintOutputxX+0x176>
    4b72:	9804      	ldr	r0, [sp, #16]
    4b74:	9002      	str	r0, [sp, #8]
    4b76:	7800      	ldrb	r0, [r0, #0]
    4b78:	b168      	cbz	r0, 4b96 <PrintOutputxX+0x19a>
    4b7a:	e7ff      	b.n	4b7c <PrintOutputxX+0x180>
    4b7c:	f8dd c064 	ldr.w	ip, [sp, #100]	; 0x64
    4b80:	9917      	ldr	r1, [sp, #92]	; 0x5c
    4b82:	9818      	ldr	r0, [sp, #96]	; 0x60
    4b84:	9b02      	ldr	r3, [sp, #8]
    4b86:	f813 2901 	ldrb.w	r2, [r3], #-1
    4b8a:	9301      	str	r3, [sp, #4]
    4b8c:	2301      	movs	r3, #1
    4b8e:	47e0      	blx	ip
    4b90:	9801      	ldr	r0, [sp, #4]
    4b92:	9004      	str	r0, [sp, #16]
    4b94:	e7ed      	b.n	4b72 <PrintOutputxX+0x176>
    4b96:	9816      	ldr	r0, [sp, #88]	; 0x58
    4b98:	07c0      	lsls	r0, r0, #31
    4b9a:	b150      	cbz	r0, 4bb2 <PrintOutputxX+0x1b6>
    4b9c:	e7ff      	b.n	4b9e <PrintOutputxX+0x1a2>
    4b9e:	f8dd c064 	ldr.w	ip, [sp, #100]	; 0x64
    4ba2:	9917      	ldr	r1, [sp, #92]	; 0x5c
    4ba4:	9818      	ldr	r0, [sp, #96]	; 0x60
    4ba6:	9a15      	ldr	r2, [sp, #84]	; 0x54
    4ba8:	9b03      	ldr	r3, [sp, #12]
    4baa:	1ad3      	subs	r3, r2, r3
    4bac:	2220      	movs	r2, #32
    4bae:	47e0      	blx	ip
    4bb0:	e7ff      	b.n	4bb2 <PrintOutputxX+0x1b6>
    4bb2:	b01c      	add	sp, #112	; 0x70
    4bb4:	bd80      	pop	{r7, pc}

00004bb6 <PrintIsobpu>:
    4bb6:	b082      	sub	sp, #8
    4bb8:	4601      	mov	r1, r0
    4bba:	9101      	str	r1, [sp, #4]
    4bbc:	286f      	cmp	r0, #111	; 0x6f
    4bbe:	d011      	beq.n	4be4 <PrintIsobpu+0x2e>
    4bc0:	e7ff      	b.n	4bc2 <PrintIsobpu+0xc>
    4bc2:	9801      	ldr	r0, [sp, #4]
    4bc4:	b2c0      	uxtb	r0, r0
    4bc6:	2862      	cmp	r0, #98	; 0x62
    4bc8:	d00c      	beq.n	4be4 <PrintIsobpu+0x2e>
    4bca:	e7ff      	b.n	4bcc <PrintIsobpu+0x16>
    4bcc:	9801      	ldr	r0, [sp, #4]
    4bce:	b2c0      	uxtb	r0, r0
    4bd0:	2870      	cmp	r0, #112	; 0x70
    4bd2:	d007      	beq.n	4be4 <PrintIsobpu+0x2e>
    4bd4:	e7ff      	b.n	4bd6 <PrintIsobpu+0x20>
    4bd6:	9801      	ldr	r0, [sp, #4]
    4bd8:	b2c1      	uxtb	r1, r0
    4bda:	2000      	movs	r0, #0
    4bdc:	2975      	cmp	r1, #117	; 0x75
    4bde:	9000      	str	r0, [sp, #0]
    4be0:	d103      	bne.n	4bea <PrintIsobpu+0x34>
    4be2:	e7ff      	b.n	4be4 <PrintIsobpu+0x2e>
    4be4:	2001      	movs	r0, #1
    4be6:	9000      	str	r0, [sp, #0]
    4be8:	e7ff      	b.n	4bea <PrintIsobpu+0x34>
    4bea:	9800      	ldr	r0, [sp, #0]
    4bec:	b002      	add	sp, #8
    4bee:	4770      	bx	lr

00004bf0 <StrFormatExamineobpu>:
    4bf0:	b083      	sub	sp, #12
    4bf2:	9200      	str	r2, [sp, #0]
    4bf4:	9101      	str	r1, [sp, #4]
    4bf6:	9002      	str	r0, [sp, #8]
    4bf8:	7840      	ldrb	r0, [r0, #1]
    4bfa:	07c0      	lsls	r0, r0, #31
    4bfc:	b170      	cbz	r0, 4c1c <StrFormatExamineobpu+0x2c>
    4bfe:	e7ff      	b.n	4c00 <StrFormatExamineobpu+0x10>
    4c00:	9901      	ldr	r1, [sp, #4]
    4c02:	9b00      	ldr	r3, [sp, #0]
    4c04:	6818      	ldr	r0, [r3, #0]
    4c06:	3007      	adds	r0, #7
    4c08:	f020 0207 	bic.w	r2, r0, #7
    4c0c:	f102 0008 	add.w	r0, r2, #8
    4c10:	6018      	str	r0, [r3, #0]
    4c12:	6810      	ldr	r0, [r2, #0]
    4c14:	6852      	ldr	r2, [r2, #4]
    4c16:	604a      	str	r2, [r1, #4]
    4c18:	6008      	str	r0, [r1, #0]
    4c1a:	e01a      	b.n	4c52 <StrFormatExamineobpu+0x62>
    4c1c:	9802      	ldr	r0, [sp, #8]
    4c1e:	7800      	ldrb	r0, [r0, #0]
    4c20:	0600      	lsls	r0, r0, #24
    4c22:	2800      	cmp	r0, #0
    4c24:	d50a      	bpl.n	4c3c <StrFormatExamineobpu+0x4c>
    4c26:	e7ff      	b.n	4c28 <StrFormatExamineobpu+0x38>
    4c28:	9901      	ldr	r1, [sp, #4]
    4c2a:	9b00      	ldr	r3, [sp, #0]
    4c2c:	6818      	ldr	r0, [r3, #0]
    4c2e:	1d02      	adds	r2, r0, #4
    4c30:	601a      	str	r2, [r3, #0]
    4c32:	6800      	ldr	r0, [r0, #0]
    4c34:	2200      	movs	r2, #0
    4c36:	604a      	str	r2, [r1, #4]
    4c38:	6008      	str	r0, [r1, #0]
    4c3a:	e009      	b.n	4c50 <StrFormatExamineobpu+0x60>
    4c3c:	9901      	ldr	r1, [sp, #4]
    4c3e:	9b00      	ldr	r3, [sp, #0]
    4c40:	6818      	ldr	r0, [r3, #0]
    4c42:	1d02      	adds	r2, r0, #4
    4c44:	601a      	str	r2, [r3, #0]
    4c46:	6800      	ldr	r0, [r0, #0]
    4c48:	2200      	movs	r2, #0
    4c4a:	604a      	str	r2, [r1, #4]
    4c4c:	6008      	str	r0, [r1, #0]
    4c4e:	e7ff      	b.n	4c50 <StrFormatExamineobpu+0x60>
    4c50:	e7ff      	b.n	4c52 <StrFormatExamineobpu+0x62>
    4c52:	b003      	add	sp, #12
    4c54:	4770      	bx	lr

00004c56 <PrintGetRadixFromobpu>:
    4c56:	b084      	sub	sp, #16
    4c58:	4601      	mov	r1, r0
    4c5a:	9103      	str	r1, [sp, #12]
    4c5c:	286f      	cmp	r0, #111	; 0x6f
    4c5e:	d103      	bne.n	4c68 <PrintGetRadixFromobpu+0x12>
    4c60:	e7ff      	b.n	4c62 <PrintGetRadixFromobpu+0xc>
    4c62:	2008      	movs	r0, #8
    4c64:	9002      	str	r0, [sp, #8]
    4c66:	e018      	b.n	4c9a <PrintGetRadixFromobpu+0x44>
    4c68:	9803      	ldr	r0, [sp, #12]
    4c6a:	b2c0      	uxtb	r0, r0
    4c6c:	2862      	cmp	r0, #98	; 0x62
    4c6e:	d103      	bne.n	4c78 <PrintGetRadixFromobpu+0x22>
    4c70:	e7ff      	b.n	4c72 <PrintGetRadixFromobpu+0x1c>
    4c72:	2002      	movs	r0, #2
    4c74:	9001      	str	r0, [sp, #4]
    4c76:	e00d      	b.n	4c94 <PrintGetRadixFromobpu+0x3e>
    4c78:	9803      	ldr	r0, [sp, #12]
    4c7a:	b2c0      	uxtb	r0, r0
    4c7c:	2870      	cmp	r0, #112	; 0x70
    4c7e:	d103      	bne.n	4c88 <PrintGetRadixFromobpu+0x32>
    4c80:	e7ff      	b.n	4c82 <PrintGetRadixFromobpu+0x2c>
    4c82:	2010      	movs	r0, #16
    4c84:	9000      	str	r0, [sp, #0]
    4c86:	e002      	b.n	4c8e <PrintGetRadixFromobpu+0x38>
    4c88:	200a      	movs	r0, #10
    4c8a:	9000      	str	r0, [sp, #0]
    4c8c:	e7ff      	b.n	4c8e <PrintGetRadixFromobpu+0x38>
    4c8e:	9800      	ldr	r0, [sp, #0]
    4c90:	9001      	str	r0, [sp, #4]
    4c92:	e7ff      	b.n	4c94 <PrintGetRadixFromobpu+0x3e>
    4c94:	9801      	ldr	r0, [sp, #4]
    4c96:	9002      	str	r0, [sp, #8]
    4c98:	e7ff      	b.n	4c9a <PrintGetRadixFromobpu+0x44>
    4c9a:	9802      	ldr	r0, [sp, #8]
    4c9c:	b2c0      	uxtb	r0, r0
    4c9e:	b004      	add	sp, #16
    4ca0:	4770      	bx	lr

00004ca2 <ConvertPrecisionWidthToLength>:
    4ca2:	b580      	push	{r7, lr}
    4ca4:	466f      	mov	r7, sp
    4ca6:	b084      	sub	sp, #16
    4ca8:	9202      	str	r2, [sp, #8]
    4caa:	9103      	str	r1, [sp, #12]
    4cac:	b118      	cbz	r0, 4cb6 <ConvertPrecisionWidthToLength+0x14>
    4cae:	e7ff      	b.n	4cb0 <ConvertPrecisionWidthToLength+0xe>
    4cb0:	9803      	ldr	r0, [sp, #12]
    4cb2:	9001      	str	r0, [sp, #4]
    4cb4:	e004      	b.n	4cc0 <ConvertPrecisionWidthToLength+0x1e>
    4cb6:	9802      	ldr	r0, [sp, #8]
    4cb8:	f003 fc62 	bl	8580 <strlen>
    4cbc:	9001      	str	r0, [sp, #4]
    4cbe:	e7ff      	b.n	4cc0 <ConvertPrecisionWidthToLength+0x1e>
    4cc0:	9801      	ldr	r0, [sp, #4]
    4cc2:	b004      	add	sp, #16
    4cc4:	bd80      	pop	{r7, pc}

00004cc6 <DbgConsole_SendDataReliable>:
    4cc6:	b580      	push	{r7, lr}
    4cc8:	466f      	mov	r7, sp
    4cca:	b084      	sub	sp, #16
    4ccc:	9102      	str	r1, [sp, #8]
    4cce:	9003      	str	r0, [sp, #12]
    4cd0:	e7ff      	b.n	4cd2 <DbgConsole_SendDataReliable+0xc>
    4cd2:	9803      	ldr	r0, [sp, #12]
    4cd4:	b908      	cbnz	r0, 4cda <DbgConsole_SendDataReliable+0x14>
    4cd6:	e7ff      	b.n	4cd8 <DbgConsole_SendDataReliable+0x12>
    4cd8:	e7fb      	b.n	4cd2 <DbgConsole_SendDataReliable+0xc>
    4cda:	9802      	ldr	r0, [sp, #8]
    4cdc:	b918      	cbnz	r0, 4ce6 <DbgConsole_SendDataReliable+0x20>
    4cde:	e7ff      	b.n	4ce0 <DbgConsole_SendDataReliable+0x1a>
    4ce0:	2000      	movs	r0, #0
    4ce2:	9001      	str	r0, [sp, #4]
    4ce4:	e01e      	b.n	4d24 <DbgConsole_SendDataReliable+0x5e>
    4ce6:	f240 40c8 	movw	r0, #1224	; 0x4c8
    4cea:	f2c2 0000 	movt	r0, #8192	; 0x2000
    4cee:	6800      	ldr	r0, [r0, #0]
    4cf0:	b918      	cbnz	r0, 4cfa <DbgConsole_SendDataReliable+0x34>
    4cf2:	e7ff      	b.n	4cf4 <DbgConsole_SendDataReliable+0x2e>
    4cf4:	2000      	movs	r0, #0
    4cf6:	9001      	str	r0, [sp, #4]
    4cf8:	e014      	b.n	4d24 <DbgConsole_SendDataReliable+0x5e>
    4cfa:	9a02      	ldr	r2, [sp, #8]
    4cfc:	9903      	ldr	r1, [sp, #12]
    4cfe:	f240 40a4 	movw	r0, #1188	; 0x4a4
    4d02:	f2c2 0000 	movt	r0, #8192	; 0x2000
    4d06:	3018      	adds	r0, #24
    4d08:	f7fe fe97 	bl	3a3a <SerialManager_WriteBlocking>
    4d0c:	b918      	cbnz	r0, 4d16 <DbgConsole_SendDataReliable+0x50>
    4d0e:	e7ff      	b.n	4d10 <DbgConsole_SendDataReliable+0x4a>
    4d10:	9802      	ldr	r0, [sp, #8]
    4d12:	9000      	str	r0, [sp, #0]
    4d14:	e003      	b.n	4d1e <DbgConsole_SendDataReliable+0x58>
    4d16:	f04f 30ff 	mov.w	r0, #4294967295	; 0xffffffff
    4d1a:	9000      	str	r0, [sp, #0]
    4d1c:	e7ff      	b.n	4d1e <DbgConsole_SendDataReliable+0x58>
    4d1e:	9800      	ldr	r0, [sp, #0]
    4d20:	9001      	str	r0, [sp, #4]
    4d22:	e7ff      	b.n	4d24 <DbgConsole_SendDataReliable+0x5e>
    4d24:	9801      	ldr	r0, [sp, #4]
    4d26:	b004      	add	sp, #16
    4d28:	bd80      	pop	{r7, pc}

00004d2a <DbgConsole_Init>:
    4d2a:	b580      	push	{r7, lr}
    4d2c:	466f      	mov	r7, sp
    4d2e:	b092      	sub	sp, #72	; 0x48
    4d30:	469c      	mov	ip, r3
    4d32:	460b      	mov	r3, r1
    4d34:	4601      	mov	r1, r0
    4d36:	4610      	mov	r0, r2
    4d38:	9007      	str	r0, [sp, #28]
    4d3a:	2000      	movs	r0, #0
    4d3c:	9008      	str	r0, [sp, #32]
    4d3e:	9011      	str	r0, [sp, #68]	; 0x44
    4d40:	9010      	str	r0, [sp, #64]	; 0x40
    4d42:	900f      	str	r0, [sp, #60]	; 0x3c
    4d44:	900e      	str	r0, [sp, #56]	; 0x38
    4d46:	f8cd c024 	str.w	ip, [sp, #36]	; 0x24
    4d4a:	930a      	str	r3, [sp, #40]	; 0x28
    4d4c:	f88d 002c 	strb.w	r0, [sp, #44]	; 0x2c
    4d50:	f88d 002d 	strb.w	r0, [sp, #45]	; 0x2d
    4d54:	2301      	movs	r3, #1
    4d56:	f88d 302e 	strb.w	r3, [sp, #46]	; 0x2e
    4d5a:	f88d 302f 	strb.w	r3, [sp, #47]	; 0x2f
    4d5e:	f88d 0030 	strb.w	r0, [sp, #48]	; 0x30
    4d62:	f88d 0031 	strb.w	r0, [sp, #49]	; 0x31
    4d66:	f88d 1032 	strb.w	r1, [sp, #50]	; 0x32
    4d6a:	f88d 0033 	strb.w	r0, [sp, #51]	; 0x33
    4d6e:	f88d 0034 	strb.w	r0, [sp, #52]	; 0x34
    4d72:	f88d 2040 	strb.w	r2, [sp, #64]	; 0x40
    4d76:	f648 7041 	movw	r0, #36673	; 0x8f41
    4d7a:	f8ad 0042 	strh.w	r0, [sp, #66]	; 0x42
    4d7e:	2a01      	cmp	r2, #1
    4d80:	d105      	bne.n	4d8e <DbgConsole_Init+0x64>
    4d82:	e7ff      	b.n	4d84 <DbgConsole_Init+0x5a>
    4d84:	a809      	add	r0, sp, #36	; 0x24
    4d86:	9011      	str	r0, [sp, #68]	; 0x44
    4d88:	2000      	movs	r0, #0
    4d8a:	9006      	str	r0, [sp, #24]
    4d8c:	e01f      	b.n	4dce <DbgConsole_Init+0xa4>
    4d8e:	9807      	ldr	r0, [sp, #28]
    4d90:	b2c0      	uxtb	r0, r0
    4d92:	2802      	cmp	r0, #2
    4d94:	d101      	bne.n	4d9a <DbgConsole_Init+0x70>
    4d96:	e7ff      	b.n	4d98 <DbgConsole_Init+0x6e>
    4d98:	e015      	b.n	4dc6 <DbgConsole_Init+0x9c>
    4d9a:	9807      	ldr	r0, [sp, #28]
    4d9c:	b2c0      	uxtb	r0, r0
    4d9e:	2803      	cmp	r0, #3
    4da0:	d101      	bne.n	4da6 <DbgConsole_Init+0x7c>
    4da2:	e7ff      	b.n	4da4 <DbgConsole_Init+0x7a>
    4da4:	e00e      	b.n	4dc4 <DbgConsole_Init+0x9a>
    4da6:	9807      	ldr	r0, [sp, #28]
    4da8:	b2c0      	uxtb	r0, r0
    4daa:	2804      	cmp	r0, #4
    4dac:	d101      	bne.n	4db2 <DbgConsole_Init+0x88>
    4dae:	e7ff      	b.n	4db0 <DbgConsole_Init+0x86>
    4db0:	e007      	b.n	4dc2 <DbgConsole_Init+0x98>
    4db2:	9807      	ldr	r0, [sp, #28]
    4db4:	b2c0      	uxtb	r0, r0
    4db6:	2809      	cmp	r0, #9
    4db8:	d101      	bne.n	4dbe <DbgConsole_Init+0x94>
    4dba:	e7ff      	b.n	4dbc <DbgConsole_Init+0x92>
    4dbc:	e000      	b.n	4dc0 <DbgConsole_Init+0x96>
    4dbe:	e7ff      	b.n	4dc0 <DbgConsole_Init+0x96>
    4dc0:	e7ff      	b.n	4dc2 <DbgConsole_Init+0x98>
    4dc2:	e7ff      	b.n	4dc4 <DbgConsole_Init+0x9a>
    4dc4:	e7ff      	b.n	4dc6 <DbgConsole_Init+0x9c>
    4dc6:	f243 5021 	movw	r0, #13601	; 0x3521
    4dca:	9006      	str	r0, [sp, #24]
    4dcc:	e7ff      	b.n	4dce <DbgConsole_Init+0xa4>
    4dce:	9806      	ldr	r0, [sp, #24]
    4dd0:	b281      	uxth	r1, r0
    4dd2:	f243 5221 	movw	r2, #13601	; 0x3521
    4dd6:	4291      	cmp	r1, r2
    4dd8:	9005      	str	r0, [sp, #20]
    4dda:	d047      	beq.n	4e6c <DbgConsole_Init+0x142>
    4ddc:	e7ff      	b.n	4dde <DbgConsole_Init+0xb4>
    4dde:	f240 40a4 	movw	r0, #1188	; 0x4a4
    4de2:	f2c2 0000 	movt	r0, #8192	; 0x2000
    4de6:	9003      	str	r0, [sp, #12]
    4de8:	2100      	movs	r1, #0
    4dea:	2220      	movs	r2, #32
    4dec:	f003 fb76 	bl	84dc <memset>
    4df0:	9803      	ldr	r0, [sp, #12]
    4df2:	1d01      	adds	r1, r0, #4
    4df4:	6001      	str	r1, [r0, #0]
    4df6:	6800      	ldr	r0, [r0, #0]
    4df8:	a90e      	add	r1, sp, #56	; 0x38
    4dfa:	f7fe fd80 	bl	38fe <SerialManager_Init>
    4dfe:	9004      	str	r0, [sp, #16]
    4e00:	e7ff      	b.n	4e02 <DbgConsole_Init+0xd8>
    4e02:	9804      	ldr	r0, [sp, #16]
    4e04:	0400      	lsls	r0, r0, #16
    4e06:	b108      	cbz	r0, 4e0c <DbgConsole_Init+0xe2>
    4e08:	e7ff      	b.n	4e0a <DbgConsole_Init+0xe0>
    4e0a:	e7fa      	b.n	4e02 <DbgConsole_Init+0xd8>
    4e0c:	f240 40c4 	movw	r0, #1220	; 0x4c4
    4e10:	f2c2 0000 	movt	r0, #8192	; 0x2000
    4e14:	7800      	ldrb	r0, [r0, #0]
    4e16:	f240 41a4 	movw	r1, #1188	; 0x4a4
    4e1a:	f2c2 0100 	movt	r1, #8192	; 0x2000
    4e1e:	f851 0b18 	ldr.w	r0, [r1], #24
    4e22:	f7fe fd9f 	bl	3964 <SerialManager_OpenWriteHandle>
    4e26:	9002      	str	r0, [sp, #8]
    4e28:	e7ff      	b.n	4e2a <DbgConsole_Init+0x100>
    4e2a:	9802      	ldr	r0, [sp, #8]
    4e2c:	0400      	lsls	r0, r0, #16
    4e2e:	b108      	cbz	r0, 4e34 <DbgConsole_Init+0x10a>
    4e30:	e7ff      	b.n	4e32 <DbgConsole_Init+0x108>
    4e32:	e7fa      	b.n	4e2a <DbgConsole_Init+0x100>
    4e34:	f240 41a4 	movw	r1, #1188	; 0x4a4
    4e38:	f2c2 0100 	movt	r1, #8192	; 0x2000
    4e3c:	f851 0b1c 	ldr.w	r0, [r1], #28
    4e40:	f7fe fdbf 	bl	39c2 <SerialManager_OpenReadHandle>
    4e44:	9001      	str	r0, [sp, #4]
    4e46:	e7ff      	b.n	4e48 <DbgConsole_Init+0x11e>
    4e48:	9801      	ldr	r0, [sp, #4]
    4e4a:	0400      	lsls	r0, r0, #16
    4e4c:	b108      	cbz	r0, 4e52 <DbgConsole_Init+0x128>
    4e4e:	e7ff      	b.n	4e50 <DbgConsole_Init+0x126>
    4e50:	e7fa      	b.n	4e48 <DbgConsole_Init+0x11e>
    4e52:	9801      	ldr	r0, [sp, #4]
    4e54:	f240 41a4 	movw	r1, #1188	; 0x4a4
    4e58:	f2c2 0100 	movt	r1, #8192	; 0x2000
    4e5c:	6809      	ldr	r1, [r1, #0]
    4e5e:	f240 42c8 	movw	r2, #1224	; 0x4c8
    4e62:	f2c2 0200 	movt	r2, #8192	; 0x2000
    4e66:	6011      	str	r1, [r2, #0]
    4e68:	9005      	str	r0, [sp, #20]
    4e6a:	e7ff      	b.n	4e6c <DbgConsole_Init+0x142>
    4e6c:	9805      	ldr	r0, [sp, #20]
    4e6e:	b280      	uxth	r0, r0
    4e70:	b012      	add	sp, #72	; 0x48
    4e72:	bd80      	pop	{r7, pc}

00004e74 <DbgConsole_Printf>:
    4e74:	b083      	sub	sp, #12
    4e76:	b580      	push	{r7, lr}
    4e78:	466f      	mov	r7, sp
    4e7a:	b081      	sub	sp, #4
    4e7c:	613b      	str	r3, [r7, #16]
    4e7e:	60fa      	str	r2, [r7, #12]
    4e80:	60b9      	str	r1, [r7, #8]
    4e82:	f107 0108 	add.w	r1, r7, #8
    4e86:	9100      	str	r1, [sp, #0]
    4e88:	9900      	ldr	r1, [sp, #0]
    4e8a:	f000 f805 	bl	4e98 <DbgConsole_Vprintf>
    4e8e:	b001      	add	sp, #4
    4e90:	e8bd 4080 	ldmia.w	sp!, {r7, lr}
    4e94:	b003      	add	sp, #12
    4e96:	4770      	bx	lr

00004e98 <DbgConsole_Vprintf>:
    4e98:	b580      	push	{r7, lr}
    4e9a:	466f      	mov	r7, sp
    4e9c:	b0a4      	sub	sp, #144	; 0x90
    4e9e:	9001      	str	r0, [sp, #4]
    4ea0:	9123      	str	r1, [sp, #140]	; 0x8c
    4ea2:	a803      	add	r0, sp, #12
    4ea4:	2180      	movs	r1, #128	; 0x80
    4ea6:	f003 fadb 	bl	8460 <__aeabi_memclr>
    4eaa:	f240 40c8 	movw	r0, #1224	; 0x4c8
    4eae:	f2c2 0000 	movt	r0, #8192	; 0x2000
    4eb2:	6801      	ldr	r1, [r0, #0]
    4eb4:	2000      	movs	r0, #0
    4eb6:	9002      	str	r0, [sp, #8]
    4eb8:	b181      	cbz	r1, 4edc <DbgConsole_Vprintf+0x44>
    4eba:	e7ff      	b.n	4ebc <DbgConsole_Vprintf+0x24>
    4ebc:	9801      	ldr	r0, [sp, #4]
    4ebe:	9923      	ldr	r1, [sp, #140]	; 0x8c
    4ec0:	f644 63e3 	movw	r3, #20195	; 0x4ee3
    4ec4:	f2c0 0300 	movt	r3, #0
    4ec8:	aa03      	add	r2, sp, #12
    4eca:	9200      	str	r2, [sp, #0]
    4ecc:	f7fe fdfc 	bl	3ac8 <StrFormatPrintf>
    4ed0:	4601      	mov	r1, r0
    4ed2:	9800      	ldr	r0, [sp, #0]
    4ed4:	f7ff fef7 	bl	4cc6 <DbgConsole_SendDataReliable>
    4ed8:	9002      	str	r0, [sp, #8]
    4eda:	e7ff      	b.n	4edc <DbgConsole_Vprintf+0x44>
    4edc:	9802      	ldr	r0, [sp, #8]
    4ede:	b024      	add	sp, #144	; 0x90
    4ee0:	bd80      	pop	{r7, pc}

00004ee2 <DbgConsole_PrintCallback>:
    4ee2:	b580      	push	{r7, lr}
    4ee4:	466f      	mov	r7, sp
    4ee6:	b086      	sub	sp, #24
    4ee8:	9301      	str	r3, [sp, #4]
    4eea:	9102      	str	r1, [sp, #8]
    4eec:	9003      	str	r0, [sp, #12]
    4eee:	2000      	movs	r0, #0
    4ef0:	9204      	str	r2, [sp, #16]
    4ef2:	9005      	str	r0, [sp, #20]
    4ef4:	e7ff      	b.n	4ef6 <DbgConsole_PrintCallback+0x14>
    4ef6:	9901      	ldr	r1, [sp, #4]
    4ef8:	9805      	ldr	r0, [sp, #20]
    4efa:	9000      	str	r0, [sp, #0]
    4efc:	4288      	cmp	r0, r1
    4efe:	da1c      	bge.n	4f3a <DbgConsole_PrintCallback+0x58>
    4f00:	e7ff      	b.n	4f02 <DbgConsole_PrintCallback+0x20>
    4f02:	9802      	ldr	r0, [sp, #8]
    4f04:	6800      	ldr	r0, [r0, #0]
    4f06:	3001      	adds	r0, #1
    4f08:	2880      	cmp	r0, #128	; 0x80
    4f0a:	d309      	bcc.n	4f20 <DbgConsole_PrintCallback+0x3e>
    4f0c:	e7ff      	b.n	4f0e <DbgConsole_PrintCallback+0x2c>
    4f0e:	9902      	ldr	r1, [sp, #8]
    4f10:	9803      	ldr	r0, [sp, #12]
    4f12:	6809      	ldr	r1, [r1, #0]
    4f14:	f7ff fed7 	bl	4cc6 <DbgConsole_SendDataReliable>
    4f18:	9902      	ldr	r1, [sp, #8]
    4f1a:	2000      	movs	r0, #0
    4f1c:	6008      	str	r0, [r1, #0]
    4f1e:	e7ff      	b.n	4f20 <DbgConsole_PrintCallback+0x3e>
    4f20:	9902      	ldr	r1, [sp, #8]
    4f22:	9804      	ldr	r0, [sp, #16]
    4f24:	9a03      	ldr	r2, [sp, #12]
    4f26:	680b      	ldr	r3, [r1, #0]
    4f28:	54d0      	strb	r0, [r2, r3]
    4f2a:	6808      	ldr	r0, [r1, #0]
    4f2c:	3001      	adds	r0, #1
    4f2e:	6008      	str	r0, [r1, #0]
    4f30:	e7ff      	b.n	4f32 <DbgConsole_PrintCallback+0x50>
    4f32:	9800      	ldr	r0, [sp, #0]
    4f34:	3001      	adds	r0, #1
    4f36:	9005      	str	r0, [sp, #20]
    4f38:	e7dd      	b.n	4ef6 <DbgConsole_PrintCallback+0x14>
    4f3a:	b006      	add	sp, #24
    4f3c:	bd80      	pop	{r7, pc}

00004f3e <fsl_assert_hook>:
    4f3e:	2000      	movs	r0, #0
    4f40:	4770      	bx	lr

00004f42 <__assert_func>:
    4f42:	b580      	push	{r7, lr}
    4f44:	466f      	mov	r7, sp
    4f46:	b086      	sub	sp, #24
    4f48:	9305      	str	r3, [sp, #20]
    4f4a:	9202      	str	r2, [sp, #8]
    4f4c:	460b      	mov	r3, r1
    4f4e:	9905      	ldr	r1, [sp, #20]
    4f50:	9304      	str	r3, [sp, #16]
    4f52:	4602      	mov	r2, r0
    4f54:	9802      	ldr	r0, [sp, #8]
    4f56:	9203      	str	r2, [sp, #12]
    4f58:	46ec      	mov	ip, sp
    4f5a:	f8cc 0000 	str.w	r0, [ip]
    4f5e:	f249 10ec 	movw	r0, #37356	; 0x91ec
    4f62:	f2c0 0000 	movt	r0, #0
    4f66:	f7ff ff85 	bl	4e74 <DbgConsole_Printf>
    4f6a:	9903      	ldr	r1, [sp, #12]
    4f6c:	9a04      	ldr	r2, [sp, #16]
    4f6e:	9805      	ldr	r0, [sp, #20]
    4f70:	f7ff ffe5 	bl	4f3e <fsl_assert_hook>
    4f74:	e7ff      	b.n	4f76 <__assert_func+0x34>
    4f76:	be00      	bkpt	0x0000
    4f78:	e7fd      	b.n	4f76 <__assert_func+0x34>

00004f7a <vPortSetupTimerInterrupt>:
    4f7a:	f24e 0110 	movw	r1, #57360	; 0xe010
    4f7e:	f2ce 0100 	movt	r1, #57344	; 0xe000
    4f82:	2000      	movs	r0, #0
    4f84:	6008      	str	r0, [r1, #0]
    4f86:	f24e 0218 	movw	r2, #57368	; 0xe018
    4f8a:	f2ce 0200 	movt	r2, #57344	; 0xe000
    4f8e:	6010      	str	r0, [r2, #0]
    4f90:	f240 0000 	movw	r0, #0
    4f94:	f2c2 0000 	movt	r0, #8192	; 0x2000
    4f98:	6800      	ldr	r0, [r0, #0]
    4f9a:	f644 52d3 	movw	r2, #19923	; 0x4dd3
    4f9e:	f2c1 0262 	movt	r2, #4194	; 0x1062
    4fa2:	fba0 0202 	umull	r0, r2, r0, r2
    4fa6:	f04f 30ff 	mov.w	r0, #4294967295	; 0xffffffff
    4faa:	eb00 1092 	add.w	r0, r0, r2, lsr #6
    4fae:	f24e 0214 	movw	r2, #57364	; 0xe014
    4fb2:	f2ce 0200 	movt	r2, #57344	; 0xe000
    4fb6:	6010      	str	r0, [r2, #0]
    4fb8:	2007      	movs	r0, #7
    4fba:	6008      	str	r0, [r1, #0]
    4fbc:	4770      	bx	lr

00004fbe <vPortYield>:
    4fbe:	f64e 5104 	movw	r1, #60676	; 0xed04
    4fc2:	f2ce 0100 	movt	r1, #57344	; 0xe000
    4fc6:	f04f 5080 	mov.w	r0, #268435456	; 0x10000000
    4fca:	6008      	str	r0, [r1, #0]
    4fcc:	f3bf 8f4f 	dsb	sy
    4fd0:	f3bf 8f6f 	isb	sy
    4fd4:	4770      	bx	lr

00004fd6 <vPortEnterCritical>:
    4fd6:	b580      	push	{r7, lr}
    4fd8:	466f      	mov	r7, sp
    4fda:	f000 f91b 	bl	5214 <ulSetInterruptMask>
    4fde:	f240 0108 	movw	r1, #8
    4fe2:	f2c2 0100 	movt	r1, #8192	; 0x2000
    4fe6:	6808      	ldr	r0, [r1, #0]
    4fe8:	3001      	adds	r0, #1
    4fea:	6008      	str	r0, [r1, #0]
    4fec:	f3bf 8f4f 	dsb	sy
    4ff0:	f3bf 8f6f 	isb	sy
    4ff4:	bd80      	pop	{r7, pc}

00004ff6 <vPortExitCritical>:
    4ff6:	b580      	push	{r7, lr}
    4ff8:	466f      	mov	r7, sp
    4ffa:	f240 0008 	movw	r0, #8
    4ffe:	f2c2 0000 	movt	r0, #8192	; 0x2000
    5002:	6800      	ldr	r0, [r0, #0]
    5004:	b920      	cbnz	r0, 5010 <vPortExitCritical+0x1a>
    5006:	e7ff      	b.n	5008 <vPortExitCritical+0x12>
    5008:	f000 f904 	bl	5214 <ulSetInterruptMask>
    500c:	e7ff      	b.n	500e <vPortExitCritical+0x18>
    500e:	e7fe      	b.n	500e <vPortExitCritical+0x18>
    5010:	f240 0008 	movw	r0, #8
    5014:	f2c2 0000 	movt	r0, #8192	; 0x2000
    5018:	6801      	ldr	r1, [r0, #0]
    501a:	3901      	subs	r1, #1
    501c:	6001      	str	r1, [r0, #0]
    501e:	6800      	ldr	r0, [r0, #0]
    5020:	b920      	cbnz	r0, 502c <vPortExitCritical+0x36>
    5022:	e7ff      	b.n	5024 <vPortExitCritical+0x2e>
    5024:	2000      	movs	r0, #0
    5026:	f000 f900 	bl	522a <vClearInterruptMask>
    502a:	e7ff      	b.n	502c <vPortExitCritical+0x36>
    502c:	bd80      	pop	{r7, pc}

0000502e <SysTick_Handler>:
    502e:	b580      	push	{r7, lr}
    5030:	466f      	mov	r7, sp
    5032:	b082      	sub	sp, #8
    5034:	f000 f8ee 	bl	5214 <ulSetInterruptMask>
    5038:	9001      	str	r0, [sp, #4]
    503a:	f001 f84c 	bl	60d6 <xTaskIncrementTick>
    503e:	b140      	cbz	r0, 5052 <SysTick_Handler+0x24>
    5040:	e7ff      	b.n	5042 <SysTick_Handler+0x14>
    5042:	f64e 5104 	movw	r1, #60676	; 0xed04
    5046:	f2ce 0100 	movt	r1, #57344	; 0xe000
    504a:	f04f 5080 	mov.w	r0, #268435456	; 0x10000000
    504e:	6008      	str	r0, [r1, #0]
    5050:	e7ff      	b.n	5052 <SysTick_Handler+0x24>
    5052:	9801      	ldr	r0, [sp, #4]
    5054:	f000 f8e9 	bl	522a <vClearInterruptMask>
    5058:	b002      	add	sp, #8
    505a:	bd80      	pop	{r7, pc}

0000505c <vPortSVCHandler_C>:
    505c:	b580      	push	{r7, lr}
    505e:	466f      	mov	r7, sp
    5060:	6980      	ldr	r0, [r0, #24]
    5062:	f810 0c02 	ldrb.w	r0, [r0, #-2]
    5066:	2802      	cmp	r0, #2
    5068:	d105      	bne.n	5076 <vPortSVCHandler_C+0x1a>
    506a:	e7ff      	b.n	506c <vPortSVCHandler_C+0x10>
    506c:	f000 f808 	bl	5080 <prvSetupFPU>
    5070:	f000 f89e 	bl	51b0 <vRestoreContextOfFirstTask>
    5074:	e003      	b.n	507e <vPortSVCHandler_C+0x22>
    5076:	f000 f8cd 	bl	5214 <ulSetInterruptMask>
    507a:	e7ff      	b.n	507c <vPortSVCHandler_C+0x20>
    507c:	e7fe      	b.n	507c <vPortSVCHandler_C+0x20>
    507e:	bd80      	pop	{r7, pc}

00005080 <prvSetupFPU>:
    5080:	f64e 5188 	movw	r1, #60808	; 0xed88
    5084:	f2ce 0100 	movt	r1, #57344	; 0xe000
    5088:	6808      	ldr	r0, [r1, #0]
    508a:	f440 0070 	orr.w	r0, r0, #15728640	; 0xf00000
    508e:	6008      	str	r0, [r1, #0]
    5090:	f64e 7134 	movw	r1, #61236	; 0xef34
    5094:	f2ce 0100 	movt	r1, #57344	; 0xe000
    5098:	6808      	ldr	r0, [r1, #0]
    509a:	f040 4040 	orr.w	r0, r0, #3221225472	; 0xc0000000
    509e:	6008      	str	r0, [r1, #0]
    50a0:	4770      	bx	lr

000050a2 <pxPortInitialiseStack>:
    50a2:	f04f 7c80 	mov.w	ip, #16777216	; 0x1000000
    50a6:	f840 cc04 	str.w	ip, [r0, #-4]
    50aa:	f840 2c08 	str.w	r2, [r0, #-8]
    50ae:	f245 122d 	movw	r2, #20781	; 0x512d
    50b2:	f2c0 0200 	movt	r2, #0
    50b6:	f840 2c0c 	str.w	r2, [r0, #-12]
    50ba:	f04f 3212 	mov.w	r2, #303174162	; 0x12121212
    50be:	f840 2c10 	str.w	r2, [r0, #-16]
    50c2:	f04f 3203 	mov.w	r2, #50529027	; 0x3030303
    50c6:	f840 2c14 	str.w	r2, [r0, #-20]
    50ca:	f04f 3202 	mov.w	r2, #33686018	; 0x2020202
    50ce:	f840 2c18 	str.w	r2, [r0, #-24]
    50d2:	f04f 3201 	mov.w	r2, #16843009	; 0x1010101
    50d6:	f840 2c1c 	str.w	r2, [r0, #-28]
    50da:	f840 3c20 	str.w	r3, [r0, #-32]
    50de:	f04f 3211 	mov.w	r2, #286331153	; 0x11111111
    50e2:	f840 2c24 	str.w	r2, [r0, #-36]
    50e6:	f04f 3210 	mov.w	r2, #269488144	; 0x10101010
    50ea:	f840 2c28 	str.w	r2, [r0, #-40]
    50ee:	f04f 3209 	mov.w	r2, #151587081	; 0x9090909
    50f2:	f840 2c2c 	str.w	r2, [r0, #-44]
    50f6:	f04f 3208 	mov.w	r2, #134744072	; 0x8080808
    50fa:	f840 2c30 	str.w	r2, [r0, #-48]
    50fe:	f04f 3207 	mov.w	r2, #117901063	; 0x7070707
    5102:	f840 2c34 	str.w	r2, [r0, #-52]
    5106:	f04f 3206 	mov.w	r2, #101058054	; 0x6060606
    510a:	f840 2c38 	str.w	r2, [r0, #-56]
    510e:	f04f 3205 	mov.w	r2, #84215045	; 0x5050505
    5112:	f840 2c3c 	str.w	r2, [r0, #-60]
    5116:	f04f 3204 	mov.w	r2, #67372036	; 0x4040404
    511a:	f840 2c40 	str.w	r2, [r0, #-64]
    511e:	f06f 0202 	mvn.w	r2, #2
    5122:	f840 2c44 	str.w	r2, [r0, #-68]
    5126:	f840 1d48 	str.w	r1, [r0, #-72]!
    512a:	4770      	bx	lr

0000512c <prvTaskExitError>:
    512c:	b580      	push	{r7, lr}
    512e:	466f      	mov	r7, sp
    5130:	b082      	sub	sp, #8
    5132:	2000      	movs	r0, #0
    5134:	9001      	str	r0, [sp, #4]
    5136:	f240 0008 	movw	r0, #8
    513a:	f2c2 0000 	movt	r0, #8192	; 0x2000
    513e:	6800      	ldr	r0, [r0, #0]
    5140:	3001      	adds	r0, #1
    5142:	b120      	cbz	r0, 514e <prvTaskExitError+0x22>
    5144:	e7ff      	b.n	5146 <prvTaskExitError+0x1a>
    5146:	f000 f865 	bl	5214 <ulSetInterruptMask>
    514a:	e7ff      	b.n	514c <prvTaskExitError+0x20>
    514c:	e7fe      	b.n	514c <prvTaskExitError+0x20>
    514e:	f000 f861 	bl	5214 <ulSetInterruptMask>
    5152:	e7ff      	b.n	5154 <prvTaskExitError+0x28>
    5154:	9801      	ldr	r0, [sp, #4]
    5156:	b908      	cbnz	r0, 515c <prvTaskExitError+0x30>
    5158:	e7ff      	b.n	515a <prvTaskExitError+0x2e>
    515a:	e7fb      	b.n	5154 <prvTaskExitError+0x28>
    515c:	b002      	add	sp, #8
    515e:	bd80      	pop	{r7, pc}

00005160 <xPortStartScheduler>:
    5160:	b580      	push	{r7, lr}
    5162:	466f      	mov	r7, sp
    5164:	b082      	sub	sp, #8
    5166:	f64e 5120 	movw	r1, #60704	; 0xed20
    516a:	f2ce 0100 	movt	r1, #57344	; 0xe000
    516e:	6808      	ldr	r0, [r1, #0]
    5170:	f440 007f 	orr.w	r0, r0, #16711680	; 0xff0000
    5174:	6008      	str	r0, [r1, #0]
    5176:	6808      	ldr	r0, [r1, #0]
    5178:	f040 407f 	orr.w	r0, r0, #4278190080	; 0xff000000
    517c:	6008      	str	r0, [r1, #0]
    517e:	f7ff fefc 	bl	4f7a <vPortSetupTimerInterrupt>
    5182:	f240 0108 	movw	r1, #8
    5186:	f2c2 0100 	movt	r1, #8192	; 0x2000
    518a:	2000      	movs	r0, #0
    518c:	9001      	str	r0, [sp, #4]
    518e:	6008      	str	r0, [r1, #0]
    5190:	f000 f82e 	bl	51f0 <vStartFirstTask>
    5194:	f000 fee0 	bl	5f58 <vTaskSwitchContext>
    5198:	f7ff ffc8 	bl	512c <prvTaskExitError>
    519c:	9801      	ldr	r0, [sp, #4]
    519e:	b002      	add	sp, #8
    51a0:	bd80      	pop	{r7, pc}
	...

000051b0 <vRestoreContextOfFirstTask>:
    51b0:	4a0b      	ldr	r2, [pc, #44]	; (51e0 <pxCurrentTCBConst2>)
    51b2:	6811      	ldr	r1, [r2, #0]
    51b4:	6808      	ldr	r0, [r1, #0]
    51b6:	c806      	ldmia	r0!, {r1, r2}
    51b8:	f381 880b 	msr	PSPLIM, r1
    51bc:	2102      	movs	r1, #2
    51be:	f381 8814 	msr	CONTROL, r1
    51c2:	3020      	adds	r0, #32
    51c4:	f380 8809 	msr	PSP, r0
    51c8:	f3bf 8f6f 	isb	sy
    51cc:	f04f 0000 	mov.w	r0, #0
    51d0:	f380 8811 	msr	BASEPRI, r0
    51d4:	4710      	bx	r2
    51d6:	bf00      	nop
    51d8:	bf00      	nop
    51da:	bf00      	nop
    51dc:	bf00      	nop
    51de:	bf00      	nop

000051e0 <pxCurrentTCBConst2>:
    51e0:	2000050c 	.word	0x2000050c
	...

000051f0 <vStartFirstTask>:
    51f0:	4807      	ldr	r0, [pc, #28]	; (5210 <xVTORConst>)
    51f2:	6800      	ldr	r0, [r0, #0]
    51f4:	6800      	ldr	r0, [r0, #0]
    51f6:	f380 8808 	msr	MSP, r0
    51fa:	b662      	cpsie	i
    51fc:	b661      	cpsie	f
    51fe:	f3bf 8f4f 	dsb	sy
    5202:	f3bf 8f6f 	isb	sy
    5206:	df02      	svc	2
    5208:	bf00      	nop
    520a:	bf00      	nop
    520c:	bf00      	nop
    520e:	bf00      	nop

00005210 <xVTORConst>:
    5210:	e000ed08 	.word	0xe000ed08

00005214 <ulSetInterruptMask>:
    5214:	f3ef 8011 	mrs	r0, BASEPRI
    5218:	f04f 0140 	mov.w	r1, #64	; 0x40
    521c:	f381 8811 	msr	BASEPRI, r1
    5220:	f3bf 8f4f 	dsb	sy
    5224:	f3bf 8f6f 	isb	sy
    5228:	4770      	bx	lr

0000522a <vClearInterruptMask>:
    522a:	f380 8811 	msr	BASEPRI, r0
    522e:	f3bf 8f4f 	dsb	sy
    5232:	f3bf 8f6f 	isb	sy
    5236:	4770      	bx	lr
	...

00005240 <PendSV_Handler>:
    5240:	f3ef 8009 	mrs	r0, PSP
    5244:	f01e 0f10 	tst.w	lr, #16
    5248:	bf08      	it	eq
    524a:	ed20 8a10 	vstmdbeq	r0!, {s16-s31}
    524e:	f3ef 820b 	mrs	r2, PSPLIM
    5252:	4673      	mov	r3, lr
    5254:	e920 0ffc 	stmdb	r0!, {r2, r3, r4, r5, r6, r7, r8, r9, sl, fp}
    5258:	4a11      	ldr	r2, [pc, #68]	; (52a0 <pxCurrentTCBConst>)
    525a:	6811      	ldr	r1, [r2, #0]
    525c:	6008      	str	r0, [r1, #0]
    525e:	f04f 0040 	mov.w	r0, #64	; 0x40
    5262:	f380 8811 	msr	BASEPRI, r0
    5266:	f3bf 8f4f 	dsb	sy
    526a:	f3bf 8f6f 	isb	sy
    526e:	f000 fe73 	bl	5f58 <vTaskSwitchContext>
    5272:	f04f 0000 	mov.w	r0, #0
    5276:	f380 8811 	msr	BASEPRI, r0
    527a:	4a09      	ldr	r2, [pc, #36]	; (52a0 <pxCurrentTCBConst>)
    527c:	6811      	ldr	r1, [r2, #0]
    527e:	6808      	ldr	r0, [r1, #0]
    5280:	e8b0 0ffc 	ldmia.w	r0!, {r2, r3, r4, r5, r6, r7, r8, r9, sl, fp}
    5284:	f013 0f10 	tst.w	r3, #16
    5288:	bf08      	it	eq
    528a:	ecb0 8a10 	vldmiaeq	r0!, {s16-s31}
    528e:	f382 880b 	msr	PSPLIM, r2
    5292:	f380 8809 	msr	PSP, r0
    5296:	4718      	bx	r3
    5298:	bf00      	nop
    529a:	bf00      	nop
    529c:	bf00      	nop
    529e:	bf00      	nop

000052a0 <pxCurrentTCBConst>:
    52a0:	2000050c 	.word	0x2000050c
	...

000052b0 <SVC_Handler>:
    52b0:	f01e 0f04 	tst.w	lr, #4
    52b4:	bf0c      	ite	eq
    52b6:	f3ef 8008 	mrseq	r0, MSP
    52ba:	f3ef 8009 	mrsne	r0, PSP
    52be:	4904      	ldr	r1, [pc, #16]	; (52d0 <svchandler_address_const>)
    52c0:	4708      	bx	r1
    52c2:	bf00      	nop
    52c4:	bf00      	nop
    52c6:	bf00      	nop
    52c8:	bf00      	nop
    52ca:	bf00      	nop
    52cc:	bf00      	nop
    52ce:	bf00      	nop

000052d0 <svchandler_address_const>:
    52d0:	0000505d 	.word	0x0000505d

000052d4 <vListInitialise>:
    52d4:	4601      	mov	r1, r0
    52d6:	f101 0008 	add.w	r0, r1, #8
    52da:	6048      	str	r0, [r1, #4]
    52dc:	f04f 32ff 	mov.w	r2, #4294967295	; 0xffffffff
    52e0:	608a      	str	r2, [r1, #8]
    52e2:	60c8      	str	r0, [r1, #12]
    52e4:	6108      	str	r0, [r1, #16]
    52e6:	2000      	movs	r0, #0
    52e8:	6008      	str	r0, [r1, #0]
    52ea:	4770      	bx	lr

000052ec <vListInitialiseItem>:
    52ec:	4601      	mov	r1, r0
    52ee:	2000      	movs	r0, #0
    52f0:	6108      	str	r0, [r1, #16]
    52f2:	4770      	bx	lr

000052f4 <vListInsert>:
    52f4:	b086      	sub	sp, #24
    52f6:	9103      	str	r1, [sp, #12]
    52f8:	9004      	str	r0, [sp, #16]
    52fa:	6808      	ldr	r0, [r1, #0]
    52fc:	9005      	str	r0, [sp, #20]
    52fe:	3001      	adds	r0, #1
    5300:	b920      	cbnz	r0, 530c <vListInsert+0x18>
    5302:	e7ff      	b.n	5304 <vListInsert+0x10>
    5304:	9804      	ldr	r0, [sp, #16]
    5306:	6900      	ldr	r0, [r0, #16]
    5308:	9002      	str	r0, [sp, #8]
    530a:	e013      	b.n	5334 <vListInsert+0x40>
    530c:	9804      	ldr	r0, [sp, #16]
    530e:	3008      	adds	r0, #8
    5310:	9001      	str	r0, [sp, #4]
    5312:	e7ff      	b.n	5314 <vListInsert+0x20>
    5314:	9905      	ldr	r1, [sp, #20]
    5316:	9801      	ldr	r0, [sp, #4]
    5318:	9000      	str	r0, [sp, #0]
    531a:	6840      	ldr	r0, [r0, #4]
    531c:	6800      	ldr	r0, [r0, #0]
    531e:	4288      	cmp	r0, r1
    5320:	d805      	bhi.n	532e <vListInsert+0x3a>
    5322:	e7ff      	b.n	5324 <vListInsert+0x30>
    5324:	e7ff      	b.n	5326 <vListInsert+0x32>
    5326:	9800      	ldr	r0, [sp, #0]
    5328:	6840      	ldr	r0, [r0, #4]
    532a:	9001      	str	r0, [sp, #4]
    532c:	e7f2      	b.n	5314 <vListInsert+0x20>
    532e:	9800      	ldr	r0, [sp, #0]
    5330:	9002      	str	r0, [sp, #8]
    5332:	e7ff      	b.n	5334 <vListInsert+0x40>
    5334:	9904      	ldr	r1, [sp, #16]
    5336:	9803      	ldr	r0, [sp, #12]
    5338:	9a02      	ldr	r2, [sp, #8]
    533a:	6853      	ldr	r3, [r2, #4]
    533c:	6043      	str	r3, [r0, #4]
    533e:	6843      	ldr	r3, [r0, #4]
    5340:	6098      	str	r0, [r3, #8]
    5342:	6082      	str	r2, [r0, #8]
    5344:	6050      	str	r0, [r2, #4]
    5346:	6101      	str	r1, [r0, #16]
    5348:	6808      	ldr	r0, [r1, #0]
    534a:	3001      	adds	r0, #1
    534c:	6008      	str	r0, [r1, #0]
    534e:	b006      	add	sp, #24
    5350:	4770      	bx	lr

00005352 <uxListRemove>:
    5352:	b082      	sub	sp, #8
    5354:	4601      	mov	r1, r0
    5356:	9100      	str	r1, [sp, #0]
    5358:	684b      	ldr	r3, [r1, #4]
    535a:	688a      	ldr	r2, [r1, #8]
    535c:	6908      	ldr	r0, [r1, #16]
    535e:	9001      	str	r0, [sp, #4]
    5360:	609a      	str	r2, [r3, #8]
    5362:	684a      	ldr	r2, [r1, #4]
    5364:	688b      	ldr	r3, [r1, #8]
    5366:	605a      	str	r2, [r3, #4]
    5368:	6840      	ldr	r0, [r0, #4]
    536a:	4288      	cmp	r0, r1
    536c:	d105      	bne.n	537a <uxListRemove+0x28>
    536e:	e7ff      	b.n	5370 <uxListRemove+0x1e>
    5370:	9901      	ldr	r1, [sp, #4]
    5372:	9800      	ldr	r0, [sp, #0]
    5374:	6880      	ldr	r0, [r0, #8]
    5376:	6048      	str	r0, [r1, #4]
    5378:	e000      	b.n	537c <uxListRemove+0x2a>
    537a:	e7ff      	b.n	537c <uxListRemove+0x2a>
    537c:	9801      	ldr	r0, [sp, #4]
    537e:	9a00      	ldr	r2, [sp, #0]
    5380:	2100      	movs	r1, #0
    5382:	6111      	str	r1, [r2, #16]
    5384:	6801      	ldr	r1, [r0, #0]
    5386:	3901      	subs	r1, #1
    5388:	6001      	str	r1, [r0, #0]
    538a:	6800      	ldr	r0, [r0, #0]
    538c:	b002      	add	sp, #8
    538e:	4770      	bx	lr

00005390 <xQueueGenericReset>:
    5390:	b580      	push	{r7, lr}
    5392:	466f      	mov	r7, sp
    5394:	b084      	sub	sp, #16
    5396:	9102      	str	r1, [sp, #8]
    5398:	9003      	str	r0, [sp, #12]
    539a:	b920      	cbnz	r0, 53a6 <xQueueGenericReset+0x16>
    539c:	e7ff      	b.n	539e <xQueueGenericReset+0xe>
    539e:	f7ff ff39 	bl	5214 <ulSetInterruptMask>
    53a2:	e7ff      	b.n	53a4 <xQueueGenericReset+0x14>
    53a4:	e7fe      	b.n	53a4 <xQueueGenericReset+0x14>
    53a6:	9803      	ldr	r0, [sp, #12]
    53a8:	2800      	cmp	r0, #0
    53aa:	d04c      	beq.n	5446 <xQueueGenericReset+0xb6>
    53ac:	e7ff      	b.n	53ae <xQueueGenericReset+0x1e>
    53ae:	9803      	ldr	r0, [sp, #12]
    53b0:	6bc0      	ldr	r0, [r0, #60]	; 0x3c
    53b2:	2800      	cmp	r0, #0
    53b4:	d047      	beq.n	5446 <xQueueGenericReset+0xb6>
    53b6:	e7ff      	b.n	53b8 <xQueueGenericReset+0x28>
    53b8:	9803      	ldr	r0, [sp, #12]
    53ba:	6bc2      	ldr	r2, [r0, #60]	; 0x3c
    53bc:	6c01      	ldr	r1, [r0, #64]	; 0x40
    53be:	f04f 30ff 	mov.w	r0, #4294967295	; 0xffffffff
    53c2:	fbb0 f0f2 	udiv	r0, r0, r2
    53c6:	4288      	cmp	r0, r1
    53c8:	d33d      	bcc.n	5446 <xQueueGenericReset+0xb6>
    53ca:	e7ff      	b.n	53cc <xQueueGenericReset+0x3c>
    53cc:	f7ff fe03 	bl	4fd6 <vPortEnterCritical>
    53d0:	9a03      	ldr	r2, [sp, #12]
    53d2:	9802      	ldr	r0, [sp, #8]
    53d4:	f8d2 c000 	ldr.w	ip, [r2]
    53d8:	6bd1      	ldr	r1, [r2, #60]	; 0x3c
    53da:	6c13      	ldr	r3, [r2, #64]	; 0x40
    53dc:	fb01 c103 	mla	r1, r1, r3, ip
    53e0:	6091      	str	r1, [r2, #8]
    53e2:	2100      	movs	r1, #0
    53e4:	6391      	str	r1, [r2, #56]	; 0x38
    53e6:	6811      	ldr	r1, [r2, #0]
    53e8:	6051      	str	r1, [r2, #4]
    53ea:	f8d2 c000 	ldr.w	ip, [r2]
    53ee:	6bd1      	ldr	r1, [r2, #60]	; 0x3c
    53f0:	6c13      	ldr	r3, [r2, #64]	; 0x40
    53f2:	3901      	subs	r1, #1
    53f4:	fb01 c103 	mla	r1, r1, r3, ip
    53f8:	60d1      	str	r1, [r2, #12]
    53fa:	21ff      	movs	r1, #255	; 0xff
    53fc:	f882 1044 	strb.w	r1, [r2, #68]	; 0x44
    5400:	f882 1045 	strb.w	r1, [r2, #69]	; 0x45
    5404:	b988      	cbnz	r0, 542a <xQueueGenericReset+0x9a>
    5406:	e7ff      	b.n	5408 <xQueueGenericReset+0x78>
    5408:	9803      	ldr	r0, [sp, #12]
    540a:	6900      	ldr	r0, [r0, #16]
    540c:	b158      	cbz	r0, 5426 <xQueueGenericReset+0x96>
    540e:	e7ff      	b.n	5410 <xQueueGenericReset+0x80>
    5410:	9803      	ldr	r0, [sp, #12]
    5412:	3010      	adds	r0, #16
    5414:	f000 ffda 	bl	63cc <xTaskRemoveFromEventList>
    5418:	b118      	cbz	r0, 5422 <xQueueGenericReset+0x92>
    541a:	e7ff      	b.n	541c <xQueueGenericReset+0x8c>
    541c:	f7ff fdcf 	bl	4fbe <vPortYield>
    5420:	e000      	b.n	5424 <xQueueGenericReset+0x94>
    5422:	e7ff      	b.n	5424 <xQueueGenericReset+0x94>
    5424:	e000      	b.n	5428 <xQueueGenericReset+0x98>
    5426:	e7ff      	b.n	5428 <xQueueGenericReset+0x98>
    5428:	e008      	b.n	543c <xQueueGenericReset+0xac>
    542a:	9803      	ldr	r0, [sp, #12]
    542c:	3010      	adds	r0, #16
    542e:	f7ff ff51 	bl	52d4 <vListInitialise>
    5432:	9803      	ldr	r0, [sp, #12]
    5434:	3024      	adds	r0, #36	; 0x24
    5436:	f7ff ff4d 	bl	52d4 <vListInitialise>
    543a:	e7ff      	b.n	543c <xQueueGenericReset+0xac>
    543c:	f7ff fddb 	bl	4ff6 <vPortExitCritical>
    5440:	2001      	movs	r0, #1
    5442:	9001      	str	r0, [sp, #4]
    5444:	e002      	b.n	544c <xQueueGenericReset+0xbc>
    5446:	2000      	movs	r0, #0
    5448:	9001      	str	r0, [sp, #4]
    544a:	e7ff      	b.n	544c <xQueueGenericReset+0xbc>
    544c:	9801      	ldr	r0, [sp, #4]
    544e:	9000      	str	r0, [sp, #0]
    5450:	b920      	cbnz	r0, 545c <xQueueGenericReset+0xcc>
    5452:	e7ff      	b.n	5454 <xQueueGenericReset+0xc4>
    5454:	f7ff fede 	bl	5214 <ulSetInterruptMask>
    5458:	e7ff      	b.n	545a <xQueueGenericReset+0xca>
    545a:	e7fe      	b.n	545a <xQueueGenericReset+0xca>
    545c:	9800      	ldr	r0, [sp, #0]
    545e:	b004      	add	sp, #16
    5460:	bd80      	pop	{r7, pc}

00005462 <xQueueGenericCreate>:
    5462:	b580      	push	{r7, lr}
    5464:	466f      	mov	r7, sp
    5466:	b086      	sub	sp, #24
    5468:	9103      	str	r1, [sp, #12]
    546a:	9004      	str	r0, [sp, #16]
    546c:	9205      	str	r2, [sp, #20]
    546e:	b360      	cbz	r0, 54ca <xQueueGenericCreate+0x68>
    5470:	e7ff      	b.n	5472 <xQueueGenericCreate+0x10>
    5472:	9903      	ldr	r1, [sp, #12]
    5474:	9a04      	ldr	r2, [sp, #16]
    5476:	f04f 30ff 	mov.w	r0, #4294967295	; 0xffffffff
    547a:	fbb0 f0f2 	udiv	r0, r0, r2
    547e:	4288      	cmp	r0, r1
    5480:	d323      	bcc.n	54ca <xQueueGenericCreate+0x68>
    5482:	e7ff      	b.n	5484 <xQueueGenericCreate+0x22>
    5484:	9804      	ldr	r0, [sp, #16]
    5486:	9903      	ldr	r1, [sp, #12]
    5488:	4348      	muls	r0, r1
    548a:	f110 0f51 	cmn.w	r0, #81	; 0x51
    548e:	d81c      	bhi.n	54ca <xQueueGenericCreate+0x68>
    5490:	e7ff      	b.n	5492 <xQueueGenericCreate+0x30>
    5492:	9804      	ldr	r0, [sp, #16]
    5494:	9903      	ldr	r1, [sp, #12]
    5496:	4348      	muls	r0, r1
    5498:	3050      	adds	r0, #80	; 0x50
    549a:	f001 fbbb 	bl	6c14 <pvPortMalloc>
    549e:	4601      	mov	r1, r0
    54a0:	9102      	str	r1, [sp, #8]
    54a2:	b170      	cbz	r0, 54c2 <xQueueGenericCreate+0x60>
    54a4:	e7ff      	b.n	54a6 <xQueueGenericCreate+0x44>
    54a6:	9903      	ldr	r1, [sp, #12]
    54a8:	9804      	ldr	r0, [sp, #16]
    54aa:	9b05      	ldr	r3, [sp, #20]
    54ac:	f8dd c008 	ldr.w	ip, [sp, #8]
    54b0:	f10c 0250 	add.w	r2, ip, #80	; 0x50
    54b4:	46ee      	mov	lr, sp
    54b6:	f8ce c000 	str.w	ip, [lr]
    54ba:	b2db      	uxtb	r3, r3
    54bc:	f000 f812 	bl	54e4 <prvInitialiseNewQueue>
    54c0:	e000      	b.n	54c4 <xQueueGenericCreate+0x62>
    54c2:	e7ff      	b.n	54c4 <xQueueGenericCreate+0x62>
    54c4:	9802      	ldr	r0, [sp, #8]
    54c6:	9001      	str	r0, [sp, #4]
    54c8:	e009      	b.n	54de <xQueueGenericCreate+0x7c>
    54ca:	2000      	movs	r0, #0
    54cc:	b920      	cbnz	r0, 54d8 <xQueueGenericCreate+0x76>
    54ce:	e7ff      	b.n	54d0 <xQueueGenericCreate+0x6e>
    54d0:	f7ff fea0 	bl	5214 <ulSetInterruptMask>
    54d4:	e7ff      	b.n	54d6 <xQueueGenericCreate+0x74>
    54d6:	e7fe      	b.n	54d6 <xQueueGenericCreate+0x74>
    54d8:	2000      	movs	r0, #0
    54da:	9001      	str	r0, [sp, #4]
    54dc:	e7ff      	b.n	54de <xQueueGenericCreate+0x7c>
    54de:	9801      	ldr	r0, [sp, #4]
    54e0:	b006      	add	sp, #24
    54e2:	bd80      	pop	{r7, pc}

000054e4 <prvInitialiseNewQueue>:
    54e4:	b580      	push	{r7, lr}
    54e6:	466f      	mov	r7, sp
    54e8:	b086      	sub	sp, #24
    54ea:	9201      	str	r2, [sp, #4]
    54ec:	9102      	str	r1, [sp, #8]
    54ee:	9003      	str	r0, [sp, #12]
    54f0:	68b8      	ldr	r0, [r7, #8]
    54f2:	9004      	str	r0, [sp, #16]
    54f4:	9305      	str	r3, [sp, #20]
    54f6:	b919      	cbnz	r1, 5500 <prvInitialiseNewQueue+0x1c>
    54f8:	e7ff      	b.n	54fa <prvInitialiseNewQueue+0x16>
    54fa:	9804      	ldr	r0, [sp, #16]
    54fc:	6000      	str	r0, [r0, #0]
    54fe:	e003      	b.n	5508 <prvInitialiseNewQueue+0x24>
    5500:	9801      	ldr	r0, [sp, #4]
    5502:	9904      	ldr	r1, [sp, #16]
    5504:	6008      	str	r0, [r1, #0]
    5506:	e7ff      	b.n	5508 <prvInitialiseNewQueue+0x24>
    5508:	9804      	ldr	r0, [sp, #16]
    550a:	9902      	ldr	r1, [sp, #8]
    550c:	9a03      	ldr	r2, [sp, #12]
    550e:	63c2      	str	r2, [r0, #60]	; 0x3c
    5510:	6401      	str	r1, [r0, #64]	; 0x40
    5512:	2101      	movs	r1, #1
    5514:	f7ff ff3c 	bl	5390 <xQueueGenericReset>
    5518:	9904      	ldr	r1, [sp, #16]
    551a:	9805      	ldr	r0, [sp, #20]
    551c:	f881 004c 	strb.w	r0, [r1, #76]	; 0x4c
    5520:	b006      	add	sp, #24
    5522:	bd80      	pop	{r7, pc}

00005524 <prvUnlockQueue>:
    5524:	b580      	push	{r7, lr}
    5526:	466f      	mov	r7, sp
    5528:	b086      	sub	sp, #24
    552a:	9004      	str	r0, [sp, #16]
    552c:	f7ff fd53 	bl	4fd6 <vPortEnterCritical>
    5530:	9804      	ldr	r0, [sp, #16]
    5532:	f890 0045 	ldrb.w	r0, [r0, #69]	; 0x45
    5536:	9005      	str	r0, [sp, #20]
    5538:	e7ff      	b.n	553a <prvUnlockQueue+0x16>
    553a:	9805      	ldr	r0, [sp, #20]
    553c:	9003      	str	r0, [sp, #12]
    553e:	b240      	sxtb	r0, r0
    5540:	2801      	cmp	r0, #1
    5542:	db14      	blt.n	556e <prvUnlockQueue+0x4a>
    5544:	e7ff      	b.n	5546 <prvUnlockQueue+0x22>
    5546:	9804      	ldr	r0, [sp, #16]
    5548:	6a40      	ldr	r0, [r0, #36]	; 0x24
    554a:	b158      	cbz	r0, 5564 <prvUnlockQueue+0x40>
    554c:	e7ff      	b.n	554e <prvUnlockQueue+0x2a>
    554e:	9804      	ldr	r0, [sp, #16]
    5550:	3024      	adds	r0, #36	; 0x24
    5552:	f000 ff3b 	bl	63cc <xTaskRemoveFromEventList>
    5556:	b118      	cbz	r0, 5560 <prvUnlockQueue+0x3c>
    5558:	e7ff      	b.n	555a <prvUnlockQueue+0x36>
    555a:	f001 f858 	bl	660e <vTaskMissedYield>
    555e:	e000      	b.n	5562 <prvUnlockQueue+0x3e>
    5560:	e7ff      	b.n	5562 <prvUnlockQueue+0x3e>
    5562:	e000      	b.n	5566 <prvUnlockQueue+0x42>
    5564:	e003      	b.n	556e <prvUnlockQueue+0x4a>
    5566:	9803      	ldr	r0, [sp, #12]
    5568:	3801      	subs	r0, #1
    556a:	9005      	str	r0, [sp, #20]
    556c:	e7e5      	b.n	553a <prvUnlockQueue+0x16>
    556e:	9904      	ldr	r1, [sp, #16]
    5570:	20ff      	movs	r0, #255	; 0xff
    5572:	f881 0045 	strb.w	r0, [r1, #69]	; 0x45
    5576:	f7ff fd3e 	bl	4ff6 <vPortExitCritical>
    557a:	f7ff fd2c 	bl	4fd6 <vPortEnterCritical>
    557e:	9804      	ldr	r0, [sp, #16]
    5580:	f890 0044 	ldrb.w	r0, [r0, #68]	; 0x44
    5584:	9002      	str	r0, [sp, #8]
    5586:	e7ff      	b.n	5588 <prvUnlockQueue+0x64>
    5588:	9802      	ldr	r0, [sp, #8]
    558a:	9001      	str	r0, [sp, #4]
    558c:	b240      	sxtb	r0, r0
    558e:	2801      	cmp	r0, #1
    5590:	db16      	blt.n	55c0 <prvUnlockQueue+0x9c>
    5592:	e7ff      	b.n	5594 <prvUnlockQueue+0x70>
    5594:	9804      	ldr	r0, [sp, #16]
    5596:	6900      	ldr	r0, [r0, #16]
    5598:	b170      	cbz	r0, 55b8 <prvUnlockQueue+0x94>
    559a:	e7ff      	b.n	559c <prvUnlockQueue+0x78>
    559c:	9804      	ldr	r0, [sp, #16]
    559e:	3010      	adds	r0, #16
    55a0:	f000 ff14 	bl	63cc <xTaskRemoveFromEventList>
    55a4:	b118      	cbz	r0, 55ae <prvUnlockQueue+0x8a>
    55a6:	e7ff      	b.n	55a8 <prvUnlockQueue+0x84>
    55a8:	f001 f831 	bl	660e <vTaskMissedYield>
    55ac:	e000      	b.n	55b0 <prvUnlockQueue+0x8c>
    55ae:	e7ff      	b.n	55b0 <prvUnlockQueue+0x8c>
    55b0:	9801      	ldr	r0, [sp, #4]
    55b2:	3801      	subs	r0, #1
    55b4:	9000      	str	r0, [sp, #0]
    55b6:	e000      	b.n	55ba <prvUnlockQueue+0x96>
    55b8:	e002      	b.n	55c0 <prvUnlockQueue+0x9c>
    55ba:	9800      	ldr	r0, [sp, #0]
    55bc:	9002      	str	r0, [sp, #8]
    55be:	e7e3      	b.n	5588 <prvUnlockQueue+0x64>
    55c0:	9904      	ldr	r1, [sp, #16]
    55c2:	20ff      	movs	r0, #255	; 0xff
    55c4:	f881 0044 	strb.w	r0, [r1, #68]	; 0x44
    55c8:	f7ff fd15 	bl	4ff6 <vPortExitCritical>
    55cc:	b006      	add	sp, #24
    55ce:	bd80      	pop	{r7, pc}

000055d0 <xQueueReceive>:
    55d0:	b580      	push	{r7, lr}
    55d2:	466f      	mov	r7, sp
    55d4:	b08e      	sub	sp, #56	; 0x38
    55d6:	9109      	str	r1, [sp, #36]	; 0x24
    55d8:	900a      	str	r0, [sp, #40]	; 0x28
    55da:	920d      	str	r2, [sp, #52]	; 0x34
    55dc:	b920      	cbnz	r0, 55e8 <xQueueReceive+0x18>
    55de:	e7ff      	b.n	55e0 <xQueueReceive+0x10>
    55e0:	f7ff fe18 	bl	5214 <ulSetInterruptMask>
    55e4:	e7ff      	b.n	55e6 <xQueueReceive+0x16>
    55e6:	e7fe      	b.n	55e6 <xQueueReceive+0x16>
    55e8:	9909      	ldr	r1, [sp, #36]	; 0x24
    55ea:	2000      	movs	r0, #0
    55ec:	9008      	str	r0, [sp, #32]
    55ee:	b939      	cbnz	r1, 5600 <xQueueReceive+0x30>
    55f0:	e7ff      	b.n	55f2 <xQueueReceive+0x22>
    55f2:	980a      	ldr	r0, [sp, #40]	; 0x28
    55f4:	6c00      	ldr	r0, [r0, #64]	; 0x40
    55f6:	2800      	cmp	r0, #0
    55f8:	bf18      	it	ne
    55fa:	2001      	movne	r0, #1
    55fc:	9008      	str	r0, [sp, #32]
    55fe:	e7ff      	b.n	5600 <xQueueReceive+0x30>
    5600:	9808      	ldr	r0, [sp, #32]
    5602:	07c0      	lsls	r0, r0, #31
    5604:	b120      	cbz	r0, 5610 <xQueueReceive+0x40>
    5606:	e7ff      	b.n	5608 <xQueueReceive+0x38>
    5608:	f7ff fe04 	bl	5214 <ulSetInterruptMask>
    560c:	e7ff      	b.n	560e <xQueueReceive+0x3e>
    560e:	e7fe      	b.n	560e <xQueueReceive+0x3e>
    5610:	f001 f804 	bl	661c <xTaskGetSchedulerState>
    5614:	4601      	mov	r1, r0
    5616:	2000      	movs	r0, #0
    5618:	9007      	str	r0, [sp, #28]
    561a:	b931      	cbnz	r1, 562a <xQueueReceive+0x5a>
    561c:	e7ff      	b.n	561e <xQueueReceive+0x4e>
    561e:	980d      	ldr	r0, [sp, #52]	; 0x34
    5620:	2800      	cmp	r0, #0
    5622:	bf18      	it	ne
    5624:	2001      	movne	r0, #1
    5626:	9007      	str	r0, [sp, #28]
    5628:	e7ff      	b.n	562a <xQueueReceive+0x5a>
    562a:	9807      	ldr	r0, [sp, #28]
    562c:	07c0      	lsls	r0, r0, #31
    562e:	b120      	cbz	r0, 563a <xQueueReceive+0x6a>
    5630:	e7ff      	b.n	5632 <xQueueReceive+0x62>
    5632:	f7ff fdef 	bl	5214 <ulSetInterruptMask>
    5636:	e7ff      	b.n	5638 <xQueueReceive+0x68>
    5638:	e7fe      	b.n	5638 <xQueueReceive+0x68>
    563a:	2000      	movs	r0, #0
    563c:	9006      	str	r0, [sp, #24]
    563e:	e7ff      	b.n	5640 <xQueueReceive+0x70>
    5640:	9806      	ldr	r0, [sp, #24]
    5642:	9004      	str	r0, [sp, #16]
    5644:	f7ff fcc7 	bl	4fd6 <vPortEnterCritical>
    5648:	980a      	ldr	r0, [sp, #40]	; 0x28
    564a:	6b80      	ldr	r0, [r0, #56]	; 0x38
    564c:	9005      	str	r0, [sp, #20]
    564e:	b1e0      	cbz	r0, 568a <xQueueReceive+0xba>
    5650:	e7ff      	b.n	5652 <xQueueReceive+0x82>
    5652:	980a      	ldr	r0, [sp, #40]	; 0x28
    5654:	9909      	ldr	r1, [sp, #36]	; 0x24
    5656:	f000 f886 	bl	5766 <prvCopyDataFromQueue>
    565a:	9905      	ldr	r1, [sp, #20]
    565c:	980a      	ldr	r0, [sp, #40]	; 0x28
    565e:	3901      	subs	r1, #1
    5660:	6381      	str	r1, [r0, #56]	; 0x38
    5662:	6900      	ldr	r0, [r0, #16]
    5664:	b158      	cbz	r0, 567e <xQueueReceive+0xae>
    5666:	e7ff      	b.n	5668 <xQueueReceive+0x98>
    5668:	980a      	ldr	r0, [sp, #40]	; 0x28
    566a:	3010      	adds	r0, #16
    566c:	f000 feae 	bl	63cc <xTaskRemoveFromEventList>
    5670:	b118      	cbz	r0, 567a <xQueueReceive+0xaa>
    5672:	e7ff      	b.n	5674 <xQueueReceive+0xa4>
    5674:	f7ff fca3 	bl	4fbe <vPortYield>
    5678:	e000      	b.n	567c <xQueueReceive+0xac>
    567a:	e7ff      	b.n	567c <xQueueReceive+0xac>
    567c:	e000      	b.n	5680 <xQueueReceive+0xb0>
    567e:	e7ff      	b.n	5680 <xQueueReceive+0xb0>
    5680:	f7ff fcb9 	bl	4ff6 <vPortExitCritical>
    5684:	2001      	movs	r0, #1
    5686:	9003      	str	r0, [sp, #12]
    5688:	e06a      	b.n	5760 <xQueueReceive+0x190>
    568a:	980d      	ldr	r0, [sp, #52]	; 0x34
    568c:	b928      	cbnz	r0, 569a <xQueueReceive+0xca>
    568e:	e7ff      	b.n	5690 <xQueueReceive+0xc0>
    5690:	f7ff fcb1 	bl	4ff6 <vPortExitCritical>
    5694:	2000      	movs	r0, #0
    5696:	9003      	str	r0, [sp, #12]
    5698:	e062      	b.n	5760 <xQueueReceive+0x190>
    569a:	9804      	ldr	r0, [sp, #16]
    569c:	b930      	cbnz	r0, 56ac <xQueueReceive+0xdc>
    569e:	e7ff      	b.n	56a0 <xQueueReceive+0xd0>
    56a0:	a80b      	add	r0, sp, #44	; 0x2c
    56a2:	f000 ff46 	bl	6532 <vTaskInternalSetTimeOutState>
    56a6:	2001      	movs	r0, #1
    56a8:	9002      	str	r0, [sp, #8]
    56aa:	e002      	b.n	56b2 <xQueueReceive+0xe2>
    56ac:	9804      	ldr	r0, [sp, #16]
    56ae:	9002      	str	r0, [sp, #8]
    56b0:	e7ff      	b.n	56b2 <xQueueReceive+0xe2>
    56b2:	9802      	ldr	r0, [sp, #8]
    56b4:	9001      	str	r0, [sp, #4]
    56b6:	e7ff      	b.n	56b8 <xQueueReceive+0xe8>
    56b8:	e7ff      	b.n	56ba <xQueueReceive+0xea>
    56ba:	f7ff fc9c 	bl	4ff6 <vPortExitCritical>
    56be:	f000 fabc 	bl	5c3a <vTaskSuspendAll>
    56c2:	f7ff fc88 	bl	4fd6 <vPortEnterCritical>
    56c6:	980a      	ldr	r0, [sp, #40]	; 0x28
    56c8:	f990 0044 	ldrsb.w	r0, [r0, #68]	; 0x44
    56cc:	3001      	adds	r0, #1
    56ce:	b928      	cbnz	r0, 56dc <xQueueReceive+0x10c>
    56d0:	e7ff      	b.n	56d2 <xQueueReceive+0x102>
    56d2:	990a      	ldr	r1, [sp, #40]	; 0x28
    56d4:	2000      	movs	r0, #0
    56d6:	f881 0044 	strb.w	r0, [r1, #68]	; 0x44
    56da:	e7ff      	b.n	56dc <xQueueReceive+0x10c>
    56dc:	980a      	ldr	r0, [sp, #40]	; 0x28
    56de:	f990 0045 	ldrsb.w	r0, [r0, #69]	; 0x45
    56e2:	3001      	adds	r0, #1
    56e4:	b928      	cbnz	r0, 56f2 <xQueueReceive+0x122>
    56e6:	e7ff      	b.n	56e8 <xQueueReceive+0x118>
    56e8:	990a      	ldr	r1, [sp, #40]	; 0x28
    56ea:	2000      	movs	r0, #0
    56ec:	f881 0045 	strb.w	r0, [r1, #69]	; 0x45
    56f0:	e7ff      	b.n	56f2 <xQueueReceive+0x122>
    56f2:	f7ff fc80 	bl	4ff6 <vPortExitCritical>
    56f6:	a80b      	add	r0, sp, #44	; 0x2c
    56f8:	a90d      	add	r1, sp, #52	; 0x34
    56fa:	f000 ff28 	bl	654e <xTaskCheckForTimeOut>
    56fe:	b9e8      	cbnz	r0, 573c <xQueueReceive+0x16c>
    5700:	e7ff      	b.n	5702 <xQueueReceive+0x132>
    5702:	980a      	ldr	r0, [sp, #40]	; 0x28
    5704:	f000 f84f 	bl	57a6 <prvIsQueueEmpty>
    5708:	b188      	cbz	r0, 572e <xQueueReceive+0x15e>
    570a:	e7ff      	b.n	570c <xQueueReceive+0x13c>
    570c:	980a      	ldr	r0, [sp, #40]	; 0x28
    570e:	3024      	adds	r0, #36	; 0x24
    5710:	990d      	ldr	r1, [sp, #52]	; 0x34
    5712:	f000 fe03 	bl	631c <vTaskPlaceOnEventList>
    5716:	980a      	ldr	r0, [sp, #40]	; 0x28
    5718:	f7ff ff04 	bl	5524 <prvUnlockQueue>
    571c:	f000 fb10 	bl	5d40 <xTaskResumeAll>
    5720:	b918      	cbnz	r0, 572a <xQueueReceive+0x15a>
    5722:	e7ff      	b.n	5724 <xQueueReceive+0x154>
    5724:	f7ff fc4b 	bl	4fbe <vPortYield>
    5728:	e000      	b.n	572c <xQueueReceive+0x15c>
    572a:	e7ff      	b.n	572c <xQueueReceive+0x15c>
    572c:	e005      	b.n	573a <xQueueReceive+0x16a>
    572e:	980a      	ldr	r0, [sp, #40]	; 0x28
    5730:	f7ff fef8 	bl	5524 <prvUnlockQueue>
    5734:	f000 fb04 	bl	5d40 <xTaskResumeAll>
    5738:	e7ff      	b.n	573a <xQueueReceive+0x16a>
    573a:	e00e      	b.n	575a <xQueueReceive+0x18a>
    573c:	980a      	ldr	r0, [sp, #40]	; 0x28
    573e:	f7ff fef1 	bl	5524 <prvUnlockQueue>
    5742:	f000 fafd 	bl	5d40 <xTaskResumeAll>
    5746:	980a      	ldr	r0, [sp, #40]	; 0x28
    5748:	f000 f82d 	bl	57a6 <prvIsQueueEmpty>
    574c:	b118      	cbz	r0, 5756 <xQueueReceive+0x186>
    574e:	e7ff      	b.n	5750 <xQueueReceive+0x180>
    5750:	2000      	movs	r0, #0
    5752:	9003      	str	r0, [sp, #12]
    5754:	e004      	b.n	5760 <xQueueReceive+0x190>
    5756:	e7ff      	b.n	5758 <xQueueReceive+0x188>
    5758:	e7ff      	b.n	575a <xQueueReceive+0x18a>
    575a:	9801      	ldr	r0, [sp, #4]
    575c:	9006      	str	r0, [sp, #24]
    575e:	e76f      	b.n	5640 <xQueueReceive+0x70>
    5760:	9803      	ldr	r0, [sp, #12]
    5762:	b00e      	add	sp, #56	; 0x38
    5764:	bd80      	pop	{r7, pc}

00005766 <prvCopyDataFromQueue>:
    5766:	b580      	push	{r7, lr}
    5768:	466f      	mov	r7, sp
    576a:	b082      	sub	sp, #8
    576c:	9100      	str	r1, [sp, #0]
    576e:	9001      	str	r0, [sp, #4]
    5770:	6c00      	ldr	r0, [r0, #64]	; 0x40
    5772:	b1b0      	cbz	r0, 57a2 <prvCopyDataFromQueue+0x3c>
    5774:	e7ff      	b.n	5776 <prvCopyDataFromQueue+0x10>
    5776:	9801      	ldr	r0, [sp, #4]
    5778:	68c1      	ldr	r1, [r0, #12]
    577a:	6c02      	ldr	r2, [r0, #64]	; 0x40
    577c:	4411      	add	r1, r2
    577e:	60c1      	str	r1, [r0, #12]
    5780:	6881      	ldr	r1, [r0, #8]
    5782:	68c0      	ldr	r0, [r0, #12]
    5784:	4288      	cmp	r0, r1
    5786:	d304      	bcc.n	5792 <prvCopyDataFromQueue+0x2c>
    5788:	e7ff      	b.n	578a <prvCopyDataFromQueue+0x24>
    578a:	9901      	ldr	r1, [sp, #4]
    578c:	6808      	ldr	r0, [r1, #0]
    578e:	60c8      	str	r0, [r1, #12]
    5790:	e000      	b.n	5794 <prvCopyDataFromQueue+0x2e>
    5792:	e7ff      	b.n	5794 <prvCopyDataFromQueue+0x2e>
    5794:	9800      	ldr	r0, [sp, #0]
    5796:	9a01      	ldr	r2, [sp, #4]
    5798:	68d1      	ldr	r1, [r2, #12]
    579a:	6c12      	ldr	r2, [r2, #64]	; 0x40
    579c:	f7fb fdf8 	bl	1390 <memcpy>
    57a0:	e7ff      	b.n	57a2 <prvCopyDataFromQueue+0x3c>
    57a2:	b002      	add	sp, #8
    57a4:	bd80      	pop	{r7, pc}

000057a6 <prvIsQueueEmpty>:
    57a6:	b580      	push	{r7, lr}
    57a8:	466f      	mov	r7, sp
    57aa:	b084      	sub	sp, #16
    57ac:	9003      	str	r0, [sp, #12]
    57ae:	f7ff fc12 	bl	4fd6 <vPortEnterCritical>
    57b2:	9803      	ldr	r0, [sp, #12]
    57b4:	6b80      	ldr	r0, [r0, #56]	; 0x38
    57b6:	b918      	cbnz	r0, 57c0 <prvIsQueueEmpty+0x1a>
    57b8:	e7ff      	b.n	57ba <prvIsQueueEmpty+0x14>
    57ba:	2001      	movs	r0, #1
    57bc:	9002      	str	r0, [sp, #8]
    57be:	e002      	b.n	57c6 <prvIsQueueEmpty+0x20>
    57c0:	2000      	movs	r0, #0
    57c2:	9002      	str	r0, [sp, #8]
    57c4:	e7ff      	b.n	57c6 <prvIsQueueEmpty+0x20>
    57c6:	9802      	ldr	r0, [sp, #8]
    57c8:	9001      	str	r0, [sp, #4]
    57ca:	f7ff fc14 	bl	4ff6 <vPortExitCritical>
    57ce:	9801      	ldr	r0, [sp, #4]
    57d0:	b004      	add	sp, #16
    57d2:	bd80      	pop	{r7, pc}

000057d4 <vQueueAddToRegistry>:
    57d4:	b580      	push	{r7, lr}
    57d6:	466f      	mov	r7, sp
    57d8:	b08c      	sub	sp, #48	; 0x30
    57da:	910a      	str	r1, [sp, #40]	; 0x28
    57dc:	900b      	str	r0, [sp, #44]	; 0x2c
    57de:	b920      	cbnz	r0, 57ea <vQueueAddToRegistry+0x16>
    57e0:	e7ff      	b.n	57e2 <vQueueAddToRegistry+0xe>
    57e2:	f7ff fd17 	bl	5214 <ulSetInterruptMask>
    57e6:	e7ff      	b.n	57e8 <vQueueAddToRegistry+0x14>
    57e8:	e7fe      	b.n	57e8 <vQueueAddToRegistry+0x14>
    57ea:	990a      	ldr	r1, [sp, #40]	; 0x28
    57ec:	2000      	movs	r0, #0
    57ee:	2900      	cmp	r1, #0
    57f0:	9009      	str	r0, [sp, #36]	; 0x24
    57f2:	d047      	beq.n	5884 <vQueueAddToRegistry+0xb0>
    57f4:	e7ff      	b.n	57f6 <vQueueAddToRegistry+0x22>
    57f6:	2100      	movs	r1, #0
    57f8:	4608      	mov	r0, r1
    57fa:	9107      	str	r1, [sp, #28]
    57fc:	9008      	str	r0, [sp, #32]
    57fe:	e7ff      	b.n	5800 <vQueueAddToRegistry+0x2c>
    5800:	9907      	ldr	r1, [sp, #28]
    5802:	9808      	ldr	r0, [sp, #32]
    5804:	9004      	str	r0, [sp, #16]
    5806:	9105      	str	r1, [sp, #20]
    5808:	2907      	cmp	r1, #7
    580a:	9006      	str	r0, [sp, #24]
    580c:	d837      	bhi.n	587e <vQueueAddToRegistry+0xaa>
    580e:	e7ff      	b.n	5810 <vQueueAddToRegistry+0x3c>
    5810:	980b      	ldr	r0, [sp, #44]	; 0x2c
    5812:	9a05      	ldr	r2, [sp, #20]
    5814:	f240 41cc 	movw	r1, #1228	; 0x4cc
    5818:	f2c2 0100 	movt	r1, #8192	; 0x2000
    581c:	eb01 01c2 	add.w	r1, r1, r2, lsl #3
    5820:	6849      	ldr	r1, [r1, #4]
    5822:	4288      	cmp	r0, r1
    5824:	d109      	bne.n	583a <vQueueAddToRegistry+0x66>
    5826:	e7ff      	b.n	5828 <vQueueAddToRegistry+0x54>
    5828:	9905      	ldr	r1, [sp, #20]
    582a:	f240 40cc 	movw	r0, #1228	; 0x4cc
    582e:	f2c2 0000 	movt	r0, #8192	; 0x2000
    5832:	eb00 00c1 	add.w	r0, r0, r1, lsl #3
    5836:	9006      	str	r0, [sp, #24]
    5838:	e021      	b.n	587e <vQueueAddToRegistry+0xaa>
    583a:	9804      	ldr	r0, [sp, #16]
    583c:	b990      	cbnz	r0, 5864 <vQueueAddToRegistry+0x90>
    583e:	e7ff      	b.n	5840 <vQueueAddToRegistry+0x6c>
    5840:	9905      	ldr	r1, [sp, #20]
    5842:	f240 40cc 	movw	r0, #1228	; 0x4cc
    5846:	f2c2 0000 	movt	r0, #8192	; 0x2000
    584a:	f850 0031 	ldr.w	r0, [r0, r1, lsl #3]
    584e:	b948      	cbnz	r0, 5864 <vQueueAddToRegistry+0x90>
    5850:	e7ff      	b.n	5852 <vQueueAddToRegistry+0x7e>
    5852:	9905      	ldr	r1, [sp, #20]
    5854:	f240 40cc 	movw	r0, #1228	; 0x4cc
    5858:	f2c2 0000 	movt	r0, #8192	; 0x2000
    585c:	eb00 00c1 	add.w	r0, r0, r1, lsl #3
    5860:	9003      	str	r0, [sp, #12]
    5862:	e002      	b.n	586a <vQueueAddToRegistry+0x96>
    5864:	9804      	ldr	r0, [sp, #16]
    5866:	9003      	str	r0, [sp, #12]
    5868:	e7ff      	b.n	586a <vQueueAddToRegistry+0x96>
    586a:	9803      	ldr	r0, [sp, #12]
    586c:	9002      	str	r0, [sp, #8]
    586e:	e7ff      	b.n	5870 <vQueueAddToRegistry+0x9c>
    5870:	e7ff      	b.n	5872 <vQueueAddToRegistry+0x9e>
    5872:	9802      	ldr	r0, [sp, #8]
    5874:	9905      	ldr	r1, [sp, #20]
    5876:	3101      	adds	r1, #1
    5878:	9107      	str	r1, [sp, #28]
    587a:	9008      	str	r0, [sp, #32]
    587c:	e7c0      	b.n	5800 <vQueueAddToRegistry+0x2c>
    587e:	9806      	ldr	r0, [sp, #24]
    5880:	9009      	str	r0, [sp, #36]	; 0x24
    5882:	e7ff      	b.n	5884 <vQueueAddToRegistry+0xb0>
    5884:	9809      	ldr	r0, [sp, #36]	; 0x24
    5886:	9001      	str	r0, [sp, #4]
    5888:	b130      	cbz	r0, 5898 <vQueueAddToRegistry+0xc4>
    588a:	e7ff      	b.n	588c <vQueueAddToRegistry+0xb8>
    588c:	980b      	ldr	r0, [sp, #44]	; 0x2c
    588e:	9901      	ldr	r1, [sp, #4]
    5890:	9a0a      	ldr	r2, [sp, #40]	; 0x28
    5892:	600a      	str	r2, [r1, #0]
    5894:	6048      	str	r0, [r1, #4]
    5896:	e7ff      	b.n	5898 <vQueueAddToRegistry+0xc4>
    5898:	b00c      	add	sp, #48	; 0x30
    589a:	bd80      	pop	{r7, pc}

0000589c <vQueueWaitForMessageRestricted>:
    589c:	b580      	push	{r7, lr}
    589e:	466f      	mov	r7, sp
    58a0:	b084      	sub	sp, #16
    58a2:	9201      	str	r2, [sp, #4]
    58a4:	9102      	str	r1, [sp, #8]
    58a6:	9003      	str	r0, [sp, #12]
    58a8:	f7ff fb95 	bl	4fd6 <vPortEnterCritical>
    58ac:	9803      	ldr	r0, [sp, #12]
    58ae:	f990 0044 	ldrsb.w	r0, [r0, #68]	; 0x44
    58b2:	3001      	adds	r0, #1
    58b4:	b928      	cbnz	r0, 58c2 <vQueueWaitForMessageRestricted+0x26>
    58b6:	e7ff      	b.n	58b8 <vQueueWaitForMessageRestricted+0x1c>
    58b8:	9903      	ldr	r1, [sp, #12]
    58ba:	2000      	movs	r0, #0
    58bc:	f881 0044 	strb.w	r0, [r1, #68]	; 0x44
    58c0:	e7ff      	b.n	58c2 <vQueueWaitForMessageRestricted+0x26>
    58c2:	9803      	ldr	r0, [sp, #12]
    58c4:	f990 0045 	ldrsb.w	r0, [r0, #69]	; 0x45
    58c8:	3001      	adds	r0, #1
    58ca:	b928      	cbnz	r0, 58d8 <vQueueWaitForMessageRestricted+0x3c>
    58cc:	e7ff      	b.n	58ce <vQueueWaitForMessageRestricted+0x32>
    58ce:	9903      	ldr	r1, [sp, #12]
    58d0:	2000      	movs	r0, #0
    58d2:	f881 0045 	strb.w	r0, [r1, #69]	; 0x45
    58d6:	e7ff      	b.n	58d8 <vQueueWaitForMessageRestricted+0x3c>
    58d8:	f7ff fb8d 	bl	4ff6 <vPortExitCritical>
    58dc:	9803      	ldr	r0, [sp, #12]
    58de:	6b80      	ldr	r0, [r0, #56]	; 0x38
    58e0:	b938      	cbnz	r0, 58f2 <vQueueWaitForMessageRestricted+0x56>
    58e2:	e7ff      	b.n	58e4 <vQueueWaitForMessageRestricted+0x48>
    58e4:	9a01      	ldr	r2, [sp, #4]
    58e6:	9902      	ldr	r1, [sp, #8]
    58e8:	9803      	ldr	r0, [sp, #12]
    58ea:	3024      	adds	r0, #36	; 0x24
    58ec:	f000 fd30 	bl	6350 <vTaskPlaceOnEventListRestricted>
    58f0:	e000      	b.n	58f4 <vQueueWaitForMessageRestricted+0x58>
    58f2:	e7ff      	b.n	58f4 <vQueueWaitForMessageRestricted+0x58>
    58f4:	9803      	ldr	r0, [sp, #12]
    58f6:	f7ff fe15 	bl	5524 <prvUnlockQueue>
    58fa:	b004      	add	sp, #16
    58fc:	bd80      	pop	{r7, pc}

000058fe <xTaskCreate>:
    58fe:	b5f0      	push	{r4, r5, r6, r7, lr}
    5900:	af03      	add	r7, sp, #12
    5902:	f84d bd04 	str.w	fp, [sp, #-4]!
    5906:	b090      	sub	sp, #64	; 0x40
    5908:	9309      	str	r3, [sp, #36]	; 0x24
    590a:	910a      	str	r1, [sp, #40]	; 0x28
    590c:	900b      	str	r0, [sp, #44]	; 0x2c
    590e:	68f8      	ldr	r0, [r7, #12]
    5910:	900c      	str	r0, [sp, #48]	; 0x30
    5912:	68b8      	ldr	r0, [r7, #8]
    5914:	900d      	str	r0, [sp, #52]	; 0x34
    5916:	4610      	mov	r0, r2
    5918:	900e      	str	r0, [sp, #56]	; 0x38
    591a:	0090      	lsls	r0, r2, #2
    591c:	f001 f97a 	bl	6c14 <pvPortMalloc>
    5920:	4601      	mov	r1, r0
    5922:	910f      	str	r1, [sp, #60]	; 0x3c
    5924:	b1b8      	cbz	r0, 5956 <xTaskCreate+0x58>
    5926:	e7ff      	b.n	5928 <xTaskCreate+0x2a>
    5928:	2074      	movs	r0, #116	; 0x74
    592a:	f001 f973 	bl	6c14 <pvPortMalloc>
    592e:	4601      	mov	r1, r0
    5930:	9108      	str	r1, [sp, #32]
    5932:	b148      	cbz	r0, 5948 <xTaskCreate+0x4a>
    5934:	e7ff      	b.n	5936 <xTaskCreate+0x38>
    5936:	9808      	ldr	r0, [sp, #32]
    5938:	2100      	movs	r1, #0
    593a:	2274      	movs	r2, #116	; 0x74
    593c:	f002 fdce 	bl	84dc <memset>
    5940:	9908      	ldr	r1, [sp, #32]
    5942:	980f      	ldr	r0, [sp, #60]	; 0x3c
    5944:	6308      	str	r0, [r1, #48]	; 0x30
    5946:	e003      	b.n	5950 <xTaskCreate+0x52>
    5948:	980f      	ldr	r0, [sp, #60]	; 0x3c
    594a:	f001 fae8 	bl	6f1e <vPortFree>
    594e:	e7ff      	b.n	5950 <xTaskCreate+0x52>
    5950:	9808      	ldr	r0, [sp, #32]
    5952:	9007      	str	r0, [sp, #28]
    5954:	e002      	b.n	595c <xTaskCreate+0x5e>
    5956:	2000      	movs	r0, #0
    5958:	9007      	str	r0, [sp, #28]
    595a:	e7ff      	b.n	595c <xTaskCreate+0x5e>
    595c:	9807      	ldr	r0, [sp, #28]
    595e:	9006      	str	r0, [sp, #24]
    5960:	b1d8      	cbz	r0, 599a <xTaskCreate+0x9c>
    5962:	e7ff      	b.n	5964 <xTaskCreate+0x66>
    5964:	9d06      	ldr	r5, [sp, #24]
    5966:	9b09      	ldr	r3, [sp, #36]	; 0x24
    5968:	990a      	ldr	r1, [sp, #40]	; 0x28
    596a:	980b      	ldr	r0, [sp, #44]	; 0x2c
    596c:	f8dd c034 	ldr.w	ip, [sp, #52]	; 0x34
    5970:	9c0c      	ldr	r4, [sp, #48]	; 0x30
    5972:	9a0e      	ldr	r2, [sp, #56]	; 0x38
    5974:	b292      	uxth	r2, r2
    5976:	46ee      	mov	lr, sp
    5978:	2600      	movs	r6, #0
    597a:	f8ce 600c 	str.w	r6, [lr, #12]
    597e:	f8ce 5008 	str.w	r5, [lr, #8]
    5982:	f8ce 4004 	str.w	r4, [lr, #4]
    5986:	f8ce c000 	str.w	ip, [lr]
    598a:	f000 f80f 	bl	59ac <prvInitialiseNewTask>
    598e:	9806      	ldr	r0, [sp, #24]
    5990:	f000 f88a 	bl	5aa8 <prvAddNewTaskToReadyList>
    5994:	2001      	movs	r0, #1
    5996:	9005      	str	r0, [sp, #20]
    5998:	e003      	b.n	59a2 <xTaskCreate+0xa4>
    599a:	f04f 30ff 	mov.w	r0, #4294967295	; 0xffffffff
    599e:	9005      	str	r0, [sp, #20]
    59a0:	e7ff      	b.n	59a2 <xTaskCreate+0xa4>
    59a2:	9805      	ldr	r0, [sp, #20]
    59a4:	b010      	add	sp, #64	; 0x40
    59a6:	f85d bb04 	ldr.w	fp, [sp], #4
    59aa:	bdf0      	pop	{r4, r5, r6, r7, pc}

000059ac <prvInitialiseNewTask>:
    59ac:	b580      	push	{r7, lr}
    59ae:	466f      	mov	r7, sp
    59b0:	b08c      	sub	sp, #48	; 0x30
    59b2:	9304      	str	r3, [sp, #16]
    59b4:	9209      	str	r2, [sp, #36]	; 0x24
    59b6:	9105      	str	r1, [sp, #20]
    59b8:	9006      	str	r0, [sp, #24]
    59ba:	6938      	ldr	r0, [r7, #16]
    59bc:	900a      	str	r0, [sp, #40]	; 0x28
    59be:	68f9      	ldr	r1, [r7, #12]
    59c0:	9107      	str	r1, [sp, #28]
    59c2:	68b9      	ldr	r1, [r7, #8]
    59c4:	9108      	str	r1, [sp, #32]
    59c6:	6b00      	ldr	r0, [r0, #48]	; 0x30
    59c8:	0092      	lsls	r2, r2, #2
    59ca:	21a5      	movs	r1, #165	; 0xa5
    59cc:	f002 fd86 	bl	84dc <memset>
    59d0:	9a09      	ldr	r2, [sp, #36]	; 0x24
    59d2:	980a      	ldr	r0, [sp, #40]	; 0x28
    59d4:	6b00      	ldr	r0, [r0, #48]	; 0x30
    59d6:	eb00 0082 	add.w	r0, r0, r2, lsl #2
    59da:	3804      	subs	r0, #4
    59dc:	f020 0007 	bic.w	r0, r0, #7
    59e0:	900b      	str	r0, [sp, #44]	; 0x2c
    59e2:	2001      	movs	r0, #1
    59e4:	b920      	cbnz	r0, 59f0 <prvInitialiseNewTask+0x44>
    59e6:	e7ff      	b.n	59e8 <prvInitialiseNewTask+0x3c>
    59e8:	f7ff fc14 	bl	5214 <ulSetInterruptMask>
    59ec:	e7ff      	b.n	59ee <prvInitialiseNewTask+0x42>
    59ee:	e7fe      	b.n	59ee <prvInitialiseNewTask+0x42>
    59f0:	9805      	ldr	r0, [sp, #20]
    59f2:	b1f0      	cbz	r0, 5a32 <prvInitialiseNewTask+0x86>
    59f4:	e7ff      	b.n	59f6 <prvInitialiseNewTask+0x4a>
    59f6:	2000      	movs	r0, #0
    59f8:	9003      	str	r0, [sp, #12]
    59fa:	e7ff      	b.n	59fc <prvInitialiseNewTask+0x50>
    59fc:	9803      	ldr	r0, [sp, #12]
    59fe:	9002      	str	r0, [sp, #8]
    5a00:	2813      	cmp	r0, #19
    5a02:	d811      	bhi.n	5a28 <prvInitialiseNewTask+0x7c>
    5a04:	e7ff      	b.n	5a06 <prvInitialiseNewTask+0x5a>
    5a06:	9805      	ldr	r0, [sp, #20]
    5a08:	9902      	ldr	r1, [sp, #8]
    5a0a:	9b0a      	ldr	r3, [sp, #40]	; 0x28
    5a0c:	5c42      	ldrb	r2, [r0, r1]
    5a0e:	440b      	add	r3, r1
    5a10:	f883 2034 	strb.w	r2, [r3, #52]	; 0x34
    5a14:	5c40      	ldrb	r0, [r0, r1]
    5a16:	b908      	cbnz	r0, 5a1c <prvInitialiseNewTask+0x70>
    5a18:	e7ff      	b.n	5a1a <prvInitialiseNewTask+0x6e>
    5a1a:	e005      	b.n	5a28 <prvInitialiseNewTask+0x7c>
    5a1c:	e7ff      	b.n	5a1e <prvInitialiseNewTask+0x72>
    5a1e:	e7ff      	b.n	5a20 <prvInitialiseNewTask+0x74>
    5a20:	9802      	ldr	r0, [sp, #8]
    5a22:	3001      	adds	r0, #1
    5a24:	9003      	str	r0, [sp, #12]
    5a26:	e7e9      	b.n	59fc <prvInitialiseNewTask+0x50>
    5a28:	990a      	ldr	r1, [sp, #40]	; 0x28
    5a2a:	2000      	movs	r0, #0
    5a2c:	f881 0047 	strb.w	r0, [r1, #71]	; 0x47
    5a30:	e000      	b.n	5a34 <prvInitialiseNewTask+0x88>
    5a32:	e7ff      	b.n	5a34 <prvInitialiseNewTask+0x88>
    5a34:	9808      	ldr	r0, [sp, #32]
    5a36:	2805      	cmp	r0, #5
    5a38:	d304      	bcc.n	5a44 <prvInitialiseNewTask+0x98>
    5a3a:	e7ff      	b.n	5a3c <prvInitialiseNewTask+0x90>
    5a3c:	f7ff fbea 	bl	5214 <ulSetInterruptMask>
    5a40:	e7ff      	b.n	5a42 <prvInitialiseNewTask+0x96>
    5a42:	e7fe      	b.n	5a42 <prvInitialiseNewTask+0x96>
    5a44:	9808      	ldr	r0, [sp, #32]
    5a46:	2805      	cmp	r0, #5
    5a48:	d303      	bcc.n	5a52 <prvInitialiseNewTask+0xa6>
    5a4a:	e7ff      	b.n	5a4c <prvInitialiseNewTask+0xa0>
    5a4c:	2004      	movs	r0, #4
    5a4e:	9001      	str	r0, [sp, #4]
    5a50:	e002      	b.n	5a58 <prvInitialiseNewTask+0xac>
    5a52:	9808      	ldr	r0, [sp, #32]
    5a54:	9001      	str	r0, [sp, #4]
    5a56:	e7ff      	b.n	5a58 <prvInitialiseNewTask+0xac>
    5a58:	980a      	ldr	r0, [sp, #40]	; 0x28
    5a5a:	9901      	ldr	r1, [sp, #4]
    5a5c:	9100      	str	r1, [sp, #0]
    5a5e:	62c1      	str	r1, [r0, #44]	; 0x2c
    5a60:	6501      	str	r1, [r0, #80]	; 0x50
    5a62:	3004      	adds	r0, #4
    5a64:	f7ff fc42 	bl	52ec <vListInitialiseItem>
    5a68:	980a      	ldr	r0, [sp, #40]	; 0x28
    5a6a:	3018      	adds	r0, #24
    5a6c:	f7ff fc3e 	bl	52ec <vListInitialiseItem>
    5a70:	f8dd c000 	ldr.w	ip, [sp]
    5a74:	980b      	ldr	r0, [sp, #44]	; 0x2c
    5a76:	9a06      	ldr	r2, [sp, #24]
    5a78:	9b04      	ldr	r3, [sp, #16]
    5a7a:	990a      	ldr	r1, [sp, #40]	; 0x28
    5a7c:	6109      	str	r1, [r1, #16]
    5a7e:	f1cc 0c05 	rsb	ip, ip, #5
    5a82:	f8c1 c018 	str.w	ip, [r1, #24]
    5a86:	6249      	str	r1, [r1, #36]	; 0x24
    5a88:	6b09      	ldr	r1, [r1, #48]	; 0x30
    5a8a:	f7ff fb0a 	bl	50a2 <pxPortInitialiseStack>
    5a8e:	9a0a      	ldr	r2, [sp, #40]	; 0x28
    5a90:	4601      	mov	r1, r0
    5a92:	9807      	ldr	r0, [sp, #28]
    5a94:	6011      	str	r1, [r2, #0]
    5a96:	b120      	cbz	r0, 5aa2 <prvInitialiseNewTask+0xf6>
    5a98:	e7ff      	b.n	5a9a <prvInitialiseNewTask+0xee>
    5a9a:	980a      	ldr	r0, [sp, #40]	; 0x28
    5a9c:	9907      	ldr	r1, [sp, #28]
    5a9e:	6008      	str	r0, [r1, #0]
    5aa0:	e000      	b.n	5aa4 <prvInitialiseNewTask+0xf8>
    5aa2:	e7ff      	b.n	5aa4 <prvInitialiseNewTask+0xf8>
    5aa4:	b00c      	add	sp, #48	; 0x30
    5aa6:	bd80      	pop	{r7, pc}

00005aa8 <prvAddNewTaskToReadyList>:
    5aa8:	b580      	push	{r7, lr}
    5aaa:	466f      	mov	r7, sp
    5aac:	b082      	sub	sp, #8
    5aae:	9001      	str	r0, [sp, #4]
    5ab0:	f7ff fa91 	bl	4fd6 <vPortEnterCritical>
    5ab4:	f240 512c 	movw	r1, #1324	; 0x52c
    5ab8:	f2c2 0100 	movt	r1, #8192	; 0x2000
    5abc:	6808      	ldr	r0, [r1, #0]
    5abe:	3001      	adds	r0, #1
    5ac0:	6008      	str	r0, [r1, #0]
    5ac2:	f240 500c 	movw	r0, #1292	; 0x50c
    5ac6:	f2c2 0000 	movt	r0, #8192	; 0x2000
    5aca:	6800      	ldr	r0, [r0, #0]
    5acc:	b998      	cbnz	r0, 5af6 <prvAddNewTaskToReadyList+0x4e>
    5ace:	e7ff      	b.n	5ad0 <prvAddNewTaskToReadyList+0x28>
    5ad0:	9801      	ldr	r0, [sp, #4]
    5ad2:	f240 510c 	movw	r1, #1292	; 0x50c
    5ad6:	f2c2 0100 	movt	r1, #8192	; 0x2000
    5ada:	6008      	str	r0, [r1, #0]
    5adc:	f240 502c 	movw	r0, #1324	; 0x52c
    5ae0:	f2c2 0000 	movt	r0, #8192	; 0x2000
    5ae4:	6800      	ldr	r0, [r0, #0]
    5ae6:	2801      	cmp	r0, #1
    5ae8:	d103      	bne.n	5af2 <prvAddNewTaskToReadyList+0x4a>
    5aea:	e7ff      	b.n	5aec <prvAddNewTaskToReadyList+0x44>
    5aec:	f000 fdb4 	bl	6658 <prvInitialiseTaskLists>
    5af0:	e000      	b.n	5af4 <prvAddNewTaskToReadyList+0x4c>
    5af2:	e7ff      	b.n	5af4 <prvAddNewTaskToReadyList+0x4c>
    5af4:	e01c      	b.n	5b30 <prvAddNewTaskToReadyList+0x88>
    5af6:	f240 5030 	movw	r0, #1328	; 0x530
    5afa:	f2c2 0000 	movt	r0, #8192	; 0x2000
    5afe:	6800      	ldr	r0, [r0, #0]
    5b00:	b9a0      	cbnz	r0, 5b2c <prvAddNewTaskToReadyList+0x84>
    5b02:	e7ff      	b.n	5b04 <prvAddNewTaskToReadyList+0x5c>
    5b04:	9901      	ldr	r1, [sp, #4]
    5b06:	f240 500c 	movw	r0, #1292	; 0x50c
    5b0a:	f2c2 0000 	movt	r0, #8192	; 0x2000
    5b0e:	6800      	ldr	r0, [r0, #0]
    5b10:	6ac0      	ldr	r0, [r0, #44]	; 0x2c
    5b12:	6ac9      	ldr	r1, [r1, #44]	; 0x2c
    5b14:	4288      	cmp	r0, r1
    5b16:	d807      	bhi.n	5b28 <prvAddNewTaskToReadyList+0x80>
    5b18:	e7ff      	b.n	5b1a <prvAddNewTaskToReadyList+0x72>
    5b1a:	9801      	ldr	r0, [sp, #4]
    5b1c:	f240 510c 	movw	r1, #1292	; 0x50c
    5b20:	f2c2 0100 	movt	r1, #8192	; 0x2000
    5b24:	6008      	str	r0, [r1, #0]
    5b26:	e000      	b.n	5b2a <prvAddNewTaskToReadyList+0x82>
    5b28:	e7ff      	b.n	5b2a <prvAddNewTaskToReadyList+0x82>
    5b2a:	e000      	b.n	5b2e <prvAddNewTaskToReadyList+0x86>
    5b2c:	e7ff      	b.n	5b2e <prvAddNewTaskToReadyList+0x86>
    5b2e:	e7ff      	b.n	5b30 <prvAddNewTaskToReadyList+0x88>
    5b30:	9801      	ldr	r0, [sp, #4]
    5b32:	f240 5110 	movw	r1, #1296	; 0x510
    5b36:	f2c2 0100 	movt	r1, #8192	; 0x2000
    5b3a:	680a      	ldr	r2, [r1, #0]
    5b3c:	3201      	adds	r2, #1
    5b3e:	600a      	str	r2, [r1, #0]
    5b40:	6809      	ldr	r1, [r1, #0]
    5b42:	6481      	str	r1, [r0, #72]	; 0x48
    5b44:	6ac0      	ldr	r0, [r0, #44]	; 0x2c
    5b46:	f240 51bc 	movw	r1, #1468	; 0x5bc
    5b4a:	f2c2 0100 	movt	r1, #8192	; 0x2000
    5b4e:	6809      	ldr	r1, [r1, #0]
    5b50:	4288      	cmp	r0, r1
    5b52:	d908      	bls.n	5b66 <prvAddNewTaskToReadyList+0xbe>
    5b54:	e7ff      	b.n	5b56 <prvAddNewTaskToReadyList+0xae>
    5b56:	9801      	ldr	r0, [sp, #4]
    5b58:	6ac0      	ldr	r0, [r0, #44]	; 0x2c
    5b5a:	f240 51bc 	movw	r1, #1468	; 0x5bc
    5b5e:	f2c2 0100 	movt	r1, #8192	; 0x2000
    5b62:	6008      	str	r0, [r1, #0]
    5b64:	e7ff      	b.n	5b66 <prvAddNewTaskToReadyList+0xbe>
    5b66:	9801      	ldr	r0, [sp, #4]
    5b68:	6ac1      	ldr	r1, [r0, #44]	; 0x2c
    5b6a:	eb01 0281 	add.w	r2, r1, r1, lsl #2
    5b6e:	f240 5158 	movw	r1, #1368	; 0x558
    5b72:	f2c2 0100 	movt	r1, #8192	; 0x2000
    5b76:	eb01 0282 	add.w	r2, r1, r2, lsl #2
    5b7a:	6853      	ldr	r3, [r2, #4]
    5b7c:	1d02      	adds	r2, r0, #4
    5b7e:	6083      	str	r3, [r0, #8]
    5b80:	f8d3 c008 	ldr.w	ip, [r3, #8]
    5b84:	f8c0 c00c 	str.w	ip, [r0, #12]
    5b88:	f8d3 c008 	ldr.w	ip, [r3, #8]
    5b8c:	f8cc 2004 	str.w	r2, [ip, #4]
    5b90:	609a      	str	r2, [r3, #8]
    5b92:	6ac2      	ldr	r2, [r0, #44]	; 0x2c
    5b94:	eb02 0282 	add.w	r2, r2, r2, lsl #2
    5b98:	eb01 0282 	add.w	r2, r1, r2, lsl #2
    5b9c:	6142      	str	r2, [r0, #20]
    5b9e:	6ac0      	ldr	r0, [r0, #44]	; 0x2c
    5ba0:	eb00 0280 	add.w	r2, r0, r0, lsl #2
    5ba4:	f851 0022 	ldr.w	r0, [r1, r2, lsl #2]
    5ba8:	3001      	adds	r0, #1
    5baa:	f841 0022 	str.w	r0, [r1, r2, lsl #2]
    5bae:	f7ff fa22 	bl	4ff6 <vPortExitCritical>
    5bb2:	f240 5030 	movw	r0, #1328	; 0x530
    5bb6:	f2c2 0000 	movt	r0, #8192	; 0x2000
    5bba:	6800      	ldr	r0, [r0, #0]
    5bbc:	b180      	cbz	r0, 5be0 <prvAddNewTaskToReadyList+0x138>
    5bbe:	e7ff      	b.n	5bc0 <prvAddNewTaskToReadyList+0x118>
    5bc0:	9901      	ldr	r1, [sp, #4]
    5bc2:	f240 500c 	movw	r0, #1292	; 0x50c
    5bc6:	f2c2 0000 	movt	r0, #8192	; 0x2000
    5bca:	6800      	ldr	r0, [r0, #0]
    5bcc:	6ac0      	ldr	r0, [r0, #44]	; 0x2c
    5bce:	6ac9      	ldr	r1, [r1, #44]	; 0x2c
    5bd0:	4288      	cmp	r0, r1
    5bd2:	d203      	bcs.n	5bdc <prvAddNewTaskToReadyList+0x134>
    5bd4:	e7ff      	b.n	5bd6 <prvAddNewTaskToReadyList+0x12e>
    5bd6:	f7ff f9f2 	bl	4fbe <vPortYield>
    5bda:	e000      	b.n	5bde <prvAddNewTaskToReadyList+0x136>
    5bdc:	e7ff      	b.n	5bde <prvAddNewTaskToReadyList+0x136>
    5bde:	e000      	b.n	5be2 <prvAddNewTaskToReadyList+0x13a>
    5be0:	e7ff      	b.n	5be2 <prvAddNewTaskToReadyList+0x13a>
    5be2:	b002      	add	sp, #8
    5be4:	bd80      	pop	{r7, pc}

00005be6 <prvResetNextTaskUnblockTime>:
    5be6:	f240 503c 	movw	r0, #1340	; 0x53c
    5bea:	f2c2 0000 	movt	r0, #8192	; 0x2000
    5bee:	6800      	ldr	r0, [r0, #0]
    5bf0:	6800      	ldr	r0, [r0, #0]
    5bf2:	b940      	cbnz	r0, 5c06 <prvResetNextTaskUnblockTime+0x20>
    5bf4:	e7ff      	b.n	5bf6 <prvResetNextTaskUnblockTime+0x10>
    5bf6:	f240 51dc 	movw	r1, #1500	; 0x5dc
    5bfa:	f2c2 0100 	movt	r1, #8192	; 0x2000
    5bfe:	f04f 30ff 	mov.w	r0, #4294967295	; 0xffffffff
    5c02:	6008      	str	r0, [r1, #0]
    5c04:	e00c      	b.n	5c20 <prvResetNextTaskUnblockTime+0x3a>
    5c06:	f240 503c 	movw	r0, #1340	; 0x53c
    5c0a:	f2c2 0000 	movt	r0, #8192	; 0x2000
    5c0e:	6800      	ldr	r0, [r0, #0]
    5c10:	68c0      	ldr	r0, [r0, #12]
    5c12:	6800      	ldr	r0, [r0, #0]
    5c14:	f240 51dc 	movw	r1, #1500	; 0x5dc
    5c18:	f2c2 0100 	movt	r1, #8192	; 0x2000
    5c1c:	6008      	str	r0, [r1, #0]
    5c1e:	e7ff      	b.n	5c20 <prvResetNextTaskUnblockTime+0x3a>
    5c20:	4770      	bx	lr

00005c22 <prvDeleteTCB>:
    5c22:	b580      	push	{r7, lr}
    5c24:	466f      	mov	r7, sp
    5c26:	b082      	sub	sp, #8
    5c28:	9001      	str	r0, [sp, #4]
    5c2a:	6b00      	ldr	r0, [r0, #48]	; 0x30
    5c2c:	f001 f977 	bl	6f1e <vPortFree>
    5c30:	9801      	ldr	r0, [sp, #4]
    5c32:	f001 f974 	bl	6f1e <vPortFree>
    5c36:	b002      	add	sp, #8
    5c38:	bd80      	pop	{r7, pc}

00005c3a <vTaskSuspendAll>:
    5c3a:	f240 5134 	movw	r1, #1332	; 0x534
    5c3e:	f2c2 0100 	movt	r1, #8192	; 0x2000
    5c42:	6808      	ldr	r0, [r1, #0]
    5c44:	3001      	adds	r0, #1
    5c46:	6008      	str	r0, [r1, #0]
    5c48:	4770      	bx	lr

00005c4a <prvAddCurrentTaskToDelayedList>:
    5c4a:	b580      	push	{r7, lr}
    5c4c:	466f      	mov	r7, sp
    5c4e:	b084      	sub	sp, #16
    5c50:	9101      	str	r1, [sp, #4]
    5c52:	9002      	str	r0, [sp, #8]
    5c54:	f240 5038 	movw	r0, #1336	; 0x538
    5c58:	f2c2 0000 	movt	r0, #8192	; 0x2000
    5c5c:	6800      	ldr	r0, [r0, #0]
    5c5e:	9003      	str	r0, [sp, #12]
    5c60:	f240 500c 	movw	r0, #1292	; 0x50c
    5c64:	f2c2 0000 	movt	r0, #8192	; 0x2000
    5c68:	6800      	ldr	r0, [r0, #0]
    5c6a:	3004      	adds	r0, #4
    5c6c:	f7ff fb71 	bl	5352 <uxListRemove>
    5c70:	b908      	cbnz	r0, 5c76 <prvAddCurrentTaskToDelayedList+0x2c>
    5c72:	e7ff      	b.n	5c74 <prvAddCurrentTaskToDelayedList+0x2a>
    5c74:	e000      	b.n	5c78 <prvAddCurrentTaskToDelayedList+0x2e>
    5c76:	e7ff      	b.n	5c78 <prvAddCurrentTaskToDelayedList+0x2e>
    5c78:	9802      	ldr	r0, [sp, #8]
    5c7a:	3001      	adds	r0, #1
    5c7c:	bb10      	cbnz	r0, 5cc4 <prvAddCurrentTaskToDelayedList+0x7a>
    5c7e:	e7ff      	b.n	5c80 <prvAddCurrentTaskToDelayedList+0x36>
    5c80:	9801      	ldr	r0, [sp, #4]
    5c82:	b1f8      	cbz	r0, 5cc4 <prvAddCurrentTaskToDelayedList+0x7a>
    5c84:	e7ff      	b.n	5c86 <prvAddCurrentTaskToDelayedList+0x3c>
    5c86:	f240 5144 	movw	r1, #1348	; 0x544
    5c8a:	f2c2 0100 	movt	r1, #8192	; 0x2000
    5c8e:	684b      	ldr	r3, [r1, #4]
    5c90:	f240 500c 	movw	r0, #1292	; 0x50c
    5c94:	f2c2 0000 	movt	r0, #8192	; 0x2000
    5c98:	6802      	ldr	r2, [r0, #0]
    5c9a:	6093      	str	r3, [r2, #8]
    5c9c:	689a      	ldr	r2, [r3, #8]
    5c9e:	f8d0 c000 	ldr.w	ip, [r0]
    5ca2:	f8cc 200c 	str.w	r2, [ip, #12]
    5ca6:	6802      	ldr	r2, [r0, #0]
    5ca8:	3204      	adds	r2, #4
    5caa:	f8d3 c008 	ldr.w	ip, [r3, #8]
    5cae:	f8cc 2004 	str.w	r2, [ip, #4]
    5cb2:	6802      	ldr	r2, [r0, #0]
    5cb4:	3204      	adds	r2, #4
    5cb6:	609a      	str	r2, [r3, #8]
    5cb8:	6800      	ldr	r0, [r0, #0]
    5cba:	6141      	str	r1, [r0, #20]
    5cbc:	6808      	ldr	r0, [r1, #0]
    5cbe:	3001      	adds	r0, #1
    5cc0:	6008      	str	r0, [r1, #0]
    5cc2:	e03b      	b.n	5d3c <prvAddCurrentTaskToDelayedList+0xf2>
    5cc4:	9903      	ldr	r1, [sp, #12]
    5cc6:	9802      	ldr	r0, [sp, #8]
    5cc8:	4408      	add	r0, r1
    5cca:	4602      	mov	r2, r0
    5ccc:	9200      	str	r2, [sp, #0]
    5cce:	f240 520c 	movw	r2, #1292	; 0x50c
    5cd2:	f2c2 0200 	movt	r2, #8192	; 0x2000
    5cd6:	6812      	ldr	r2, [r2, #0]
    5cd8:	6050      	str	r0, [r2, #4]
    5cda:	4288      	cmp	r0, r1
    5cdc:	d20e      	bcs.n	5cfc <prvAddCurrentTaskToDelayedList+0xb2>
    5cde:	e7ff      	b.n	5ce0 <prvAddCurrentTaskToDelayedList+0x96>
    5ce0:	f240 5040 	movw	r0, #1344	; 0x540
    5ce4:	f2c2 0000 	movt	r0, #8192	; 0x2000
    5ce8:	6800      	ldr	r0, [r0, #0]
    5cea:	f240 510c 	movw	r1, #1292	; 0x50c
    5cee:	f2c2 0100 	movt	r1, #8192	; 0x2000
    5cf2:	6809      	ldr	r1, [r1, #0]
    5cf4:	3104      	adds	r1, #4
    5cf6:	f7ff fafd 	bl	52f4 <vListInsert>
    5cfa:	e01e      	b.n	5d3a <prvAddCurrentTaskToDelayedList+0xf0>
    5cfc:	f240 503c 	movw	r0, #1340	; 0x53c
    5d00:	f2c2 0000 	movt	r0, #8192	; 0x2000
    5d04:	6800      	ldr	r0, [r0, #0]
    5d06:	f240 510c 	movw	r1, #1292	; 0x50c
    5d0a:	f2c2 0100 	movt	r1, #8192	; 0x2000
    5d0e:	6809      	ldr	r1, [r1, #0]
    5d10:	3104      	adds	r1, #4
    5d12:	f7ff faef 	bl	52f4 <vListInsert>
    5d16:	9800      	ldr	r0, [sp, #0]
    5d18:	f240 51dc 	movw	r1, #1500	; 0x5dc
    5d1c:	f2c2 0100 	movt	r1, #8192	; 0x2000
    5d20:	6809      	ldr	r1, [r1, #0]
    5d22:	4288      	cmp	r0, r1
    5d24:	d207      	bcs.n	5d36 <prvAddCurrentTaskToDelayedList+0xec>
    5d26:	e7ff      	b.n	5d28 <prvAddCurrentTaskToDelayedList+0xde>
    5d28:	9800      	ldr	r0, [sp, #0]
    5d2a:	f240 51dc 	movw	r1, #1500	; 0x5dc
    5d2e:	f2c2 0100 	movt	r1, #8192	; 0x2000
    5d32:	6008      	str	r0, [r1, #0]
    5d34:	e000      	b.n	5d38 <prvAddCurrentTaskToDelayedList+0xee>
    5d36:	e7ff      	b.n	5d38 <prvAddCurrentTaskToDelayedList+0xee>
    5d38:	e7ff      	b.n	5d3a <prvAddCurrentTaskToDelayedList+0xf0>
    5d3a:	e7ff      	b.n	5d3c <prvAddCurrentTaskToDelayedList+0xf2>
    5d3c:	b004      	add	sp, #16
    5d3e:	bd80      	pop	{r7, pc}

00005d40 <xTaskResumeAll>:
    5d40:	b580      	push	{r7, lr}
    5d42:	466f      	mov	r7, sp
    5d44:	b08e      	sub	sp, #56	; 0x38
    5d46:	f240 5034 	movw	r0, #1332	; 0x534
    5d4a:	f2c2 0000 	movt	r0, #8192	; 0x2000
    5d4e:	6800      	ldr	r0, [r0, #0]
    5d50:	b920      	cbnz	r0, 5d5c <xTaskResumeAll+0x1c>
    5d52:	e7ff      	b.n	5d54 <xTaskResumeAll+0x14>
    5d54:	f7ff fa5e 	bl	5214 <ulSetInterruptMask>
    5d58:	e7ff      	b.n	5d5a <xTaskResumeAll+0x1a>
    5d5a:	e7fe      	b.n	5d5a <xTaskResumeAll+0x1a>
    5d5c:	f7ff f93b 	bl	4fd6 <vPortEnterCritical>
    5d60:	f240 5034 	movw	r0, #1332	; 0x534
    5d64:	f2c2 0000 	movt	r0, #8192	; 0x2000
    5d68:	6801      	ldr	r1, [r0, #0]
    5d6a:	3901      	subs	r1, #1
    5d6c:	6001      	str	r1, [r0, #0]
    5d6e:	6800      	ldr	r0, [r0, #0]
    5d70:	2800      	cmp	r0, #0
    5d72:	f040 80e7 	bne.w	5f44 <xTaskResumeAll+0x204>
    5d76:	e7ff      	b.n	5d78 <xTaskResumeAll+0x38>
    5d78:	f240 502c 	movw	r0, #1324	; 0x52c
    5d7c:	f2c2 0000 	movt	r0, #8192	; 0x2000
    5d80:	6801      	ldr	r1, [r0, #0]
    5d82:	2000      	movs	r0, #0
    5d84:	2900      	cmp	r1, #0
    5d86:	900d      	str	r0, [sp, #52]	; 0x34
    5d88:	f000 80d9 	beq.w	5f3e <xTaskResumeAll+0x1fe>
    5d8c:	e7ff      	b.n	5d8e <xTaskResumeAll+0x4e>
    5d8e:	2000      	movs	r0, #0
    5d90:	900c      	str	r0, [sp, #48]	; 0x30
    5d92:	e7ff      	b.n	5d94 <xTaskResumeAll+0x54>
    5d94:	980c      	ldr	r0, [sp, #48]	; 0x30
    5d96:	900b      	str	r0, [sp, #44]	; 0x2c
    5d98:	f240 50c4 	movw	r0, #1476	; 0x5c4
    5d9c:	f2c2 0000 	movt	r0, #8192	; 0x2000
    5da0:	6800      	ldr	r0, [r0, #0]
    5da2:	2800      	cmp	r0, #0
    5da4:	f000 8089 	beq.w	5eba <xTaskResumeAll+0x17a>
    5da8:	e7ff      	b.n	5daa <xTaskResumeAll+0x6a>
    5daa:	f240 50c4 	movw	r0, #1476	; 0x5c4
    5dae:	f2c2 0000 	movt	r0, #8192	; 0x2000
    5db2:	68c0      	ldr	r0, [r0, #12]
    5db4:	68c3      	ldr	r3, [r0, #12]
    5db6:	9309      	str	r3, [sp, #36]	; 0x24
    5db8:	f103 0118 	add.w	r1, r3, #24
    5dbc:	f8d3 c01c 	ldr.w	ip, [r3, #28]
    5dc0:	6a1a      	ldr	r2, [r3, #32]
    5dc2:	6a98      	ldr	r0, [r3, #40]	; 0x28
    5dc4:	900a      	str	r0, [sp, #40]	; 0x28
    5dc6:	f8cc 2008 	str.w	r2, [ip, #8]
    5dca:	69da      	ldr	r2, [r3, #28]
    5dcc:	6a1b      	ldr	r3, [r3, #32]
    5dce:	605a      	str	r2, [r3, #4]
    5dd0:	6840      	ldr	r0, [r0, #4]
    5dd2:	4288      	cmp	r0, r1
    5dd4:	d105      	bne.n	5de2 <xTaskResumeAll+0xa2>
    5dd6:	e7ff      	b.n	5dd8 <xTaskResumeAll+0x98>
    5dd8:	990a      	ldr	r1, [sp, #40]	; 0x28
    5dda:	9809      	ldr	r0, [sp, #36]	; 0x24
    5ddc:	6a00      	ldr	r0, [r0, #32]
    5dde:	6048      	str	r0, [r1, #4]
    5de0:	e7ff      	b.n	5de2 <xTaskResumeAll+0xa2>
    5de2:	9b09      	ldr	r3, [sp, #36]	; 0x24
    5de4:	990a      	ldr	r1, [sp, #40]	; 0x28
    5de6:	2000      	movs	r0, #0
    5de8:	6298      	str	r0, [r3, #40]	; 0x28
    5dea:	6808      	ldr	r0, [r1, #0]
    5dec:	3801      	subs	r0, #1
    5dee:	6008      	str	r0, [r1, #0]
    5df0:	1d19      	adds	r1, r3, #4
    5df2:	f8d3 c008 	ldr.w	ip, [r3, #8]
    5df6:	68da      	ldr	r2, [r3, #12]
    5df8:	6958      	ldr	r0, [r3, #20]
    5dfa:	9008      	str	r0, [sp, #32]
    5dfc:	f8cc 2008 	str.w	r2, [ip, #8]
    5e00:	689a      	ldr	r2, [r3, #8]
    5e02:	68db      	ldr	r3, [r3, #12]
    5e04:	605a      	str	r2, [r3, #4]
    5e06:	6840      	ldr	r0, [r0, #4]
    5e08:	4288      	cmp	r0, r1
    5e0a:	d105      	bne.n	5e18 <xTaskResumeAll+0xd8>
    5e0c:	e7ff      	b.n	5e0e <xTaskResumeAll+0xce>
    5e0e:	9908      	ldr	r1, [sp, #32]
    5e10:	9809      	ldr	r0, [sp, #36]	; 0x24
    5e12:	68c0      	ldr	r0, [r0, #12]
    5e14:	6048      	str	r0, [r1, #4]
    5e16:	e7ff      	b.n	5e18 <xTaskResumeAll+0xd8>
    5e18:	9809      	ldr	r0, [sp, #36]	; 0x24
    5e1a:	9a08      	ldr	r2, [sp, #32]
    5e1c:	2100      	movs	r1, #0
    5e1e:	6141      	str	r1, [r0, #20]
    5e20:	6811      	ldr	r1, [r2, #0]
    5e22:	3901      	subs	r1, #1
    5e24:	6011      	str	r1, [r2, #0]
    5e26:	6ac0      	ldr	r0, [r0, #44]	; 0x2c
    5e28:	f240 51bc 	movw	r1, #1468	; 0x5bc
    5e2c:	f2c2 0100 	movt	r1, #8192	; 0x2000
    5e30:	6809      	ldr	r1, [r1, #0]
    5e32:	4288      	cmp	r0, r1
    5e34:	d908      	bls.n	5e48 <xTaskResumeAll+0x108>
    5e36:	e7ff      	b.n	5e38 <xTaskResumeAll+0xf8>
    5e38:	9809      	ldr	r0, [sp, #36]	; 0x24
    5e3a:	6ac0      	ldr	r0, [r0, #44]	; 0x2c
    5e3c:	f240 51bc 	movw	r1, #1468	; 0x5bc
    5e40:	f2c2 0100 	movt	r1, #8192	; 0x2000
    5e44:	6008      	str	r0, [r1, #0]
    5e46:	e7ff      	b.n	5e48 <xTaskResumeAll+0x108>
    5e48:	9809      	ldr	r0, [sp, #36]	; 0x24
    5e4a:	6ac1      	ldr	r1, [r0, #44]	; 0x2c
    5e4c:	eb01 0181 	add.w	r1, r1, r1, lsl #2
    5e50:	f240 5258 	movw	r2, #1368	; 0x558
    5e54:	f2c2 0200 	movt	r2, #8192	; 0x2000
    5e58:	eb02 0181 	add.w	r1, r2, r1, lsl #2
    5e5c:	684b      	ldr	r3, [r1, #4]
    5e5e:	1d01      	adds	r1, r0, #4
    5e60:	6083      	str	r3, [r0, #8]
    5e62:	f8d3 c008 	ldr.w	ip, [r3, #8]
    5e66:	f8c0 c00c 	str.w	ip, [r0, #12]
    5e6a:	f8d3 c008 	ldr.w	ip, [r3, #8]
    5e6e:	f8cc 1004 	str.w	r1, [ip, #4]
    5e72:	6099      	str	r1, [r3, #8]
    5e74:	6ac1      	ldr	r1, [r0, #44]	; 0x2c
    5e76:	eb01 0181 	add.w	r1, r1, r1, lsl #2
    5e7a:	eb02 0181 	add.w	r1, r2, r1, lsl #2
    5e7e:	6141      	str	r1, [r0, #20]
    5e80:	6ac1      	ldr	r1, [r0, #44]	; 0x2c
    5e82:	eb01 0381 	add.w	r3, r1, r1, lsl #2
    5e86:	f852 1023 	ldr.w	r1, [r2, r3, lsl #2]
    5e8a:	3101      	adds	r1, #1
    5e8c:	f842 1023 	str.w	r1, [r2, r3, lsl #2]
    5e90:	6ac0      	ldr	r0, [r0, #44]	; 0x2c
    5e92:	f240 510c 	movw	r1, #1292	; 0x50c
    5e96:	f2c2 0100 	movt	r1, #8192	; 0x2000
    5e9a:	6809      	ldr	r1, [r1, #0]
    5e9c:	6ac9      	ldr	r1, [r1, #44]	; 0x2c
    5e9e:	4288      	cmp	r0, r1
    5ea0:	d307      	bcc.n	5eb2 <xTaskResumeAll+0x172>
    5ea2:	e7ff      	b.n	5ea4 <xTaskResumeAll+0x164>
    5ea4:	f240 51c0 	movw	r1, #1472	; 0x5c0
    5ea8:	f2c2 0100 	movt	r1, #8192	; 0x2000
    5eac:	2001      	movs	r0, #1
    5eae:	6008      	str	r0, [r1, #0]
    5eb0:	e000      	b.n	5eb4 <xTaskResumeAll+0x174>
    5eb2:	e7ff      	b.n	5eb4 <xTaskResumeAll+0x174>
    5eb4:	9809      	ldr	r0, [sp, #36]	; 0x24
    5eb6:	900c      	str	r0, [sp, #48]	; 0x30
    5eb8:	e76c      	b.n	5d94 <xTaskResumeAll+0x54>
    5eba:	980b      	ldr	r0, [sp, #44]	; 0x2c
    5ebc:	b118      	cbz	r0, 5ec6 <xTaskResumeAll+0x186>
    5ebe:	e7ff      	b.n	5ec0 <xTaskResumeAll+0x180>
    5ec0:	f7ff fe91 	bl	5be6 <prvResetNextTaskUnblockTime>
    5ec4:	e7ff      	b.n	5ec6 <xTaskResumeAll+0x186>
    5ec6:	f240 50e0 	movw	r0, #1504	; 0x5e0
    5eca:	f2c2 0000 	movt	r0, #8192	; 0x2000
    5ece:	6800      	ldr	r0, [r0, #0]
    5ed0:	9007      	str	r0, [sp, #28]
    5ed2:	b308      	cbz	r0, 5f18 <xTaskResumeAll+0x1d8>
    5ed4:	e7ff      	b.n	5ed6 <xTaskResumeAll+0x196>
    5ed6:	9807      	ldr	r0, [sp, #28]
    5ed8:	9006      	str	r0, [sp, #24]
    5eda:	e7ff      	b.n	5edc <xTaskResumeAll+0x19c>
    5edc:	9806      	ldr	r0, [sp, #24]
    5ede:	9005      	str	r0, [sp, #20]
    5ee0:	f000 f8f9 	bl	60d6 <xTaskIncrementTick>
    5ee4:	b138      	cbz	r0, 5ef6 <xTaskResumeAll+0x1b6>
    5ee6:	e7ff      	b.n	5ee8 <xTaskResumeAll+0x1a8>
    5ee8:	f240 51c0 	movw	r1, #1472	; 0x5c0
    5eec:	f2c2 0100 	movt	r1, #8192	; 0x2000
    5ef0:	2001      	movs	r0, #1
    5ef2:	6008      	str	r0, [r1, #0]
    5ef4:	e000      	b.n	5ef8 <xTaskResumeAll+0x1b8>
    5ef6:	e7ff      	b.n	5ef8 <xTaskResumeAll+0x1b8>
    5ef8:	9805      	ldr	r0, [sp, #20]
    5efa:	3801      	subs	r0, #1
    5efc:	9004      	str	r0, [sp, #16]
    5efe:	e7ff      	b.n	5f00 <xTaskResumeAll+0x1c0>
    5f00:	9804      	ldr	r0, [sp, #16]
    5f02:	2800      	cmp	r0, #0
    5f04:	9006      	str	r0, [sp, #24]
    5f06:	d1e9      	bne.n	5edc <xTaskResumeAll+0x19c>
    5f08:	e7ff      	b.n	5f0a <xTaskResumeAll+0x1ca>
    5f0a:	f240 51e0 	movw	r1, #1504	; 0x5e0
    5f0e:	f2c2 0100 	movt	r1, #8192	; 0x2000
    5f12:	2000      	movs	r0, #0
    5f14:	6008      	str	r0, [r1, #0]
    5f16:	e000      	b.n	5f1a <xTaskResumeAll+0x1da>
    5f18:	e7ff      	b.n	5f1a <xTaskResumeAll+0x1da>
    5f1a:	f240 50c0 	movw	r0, #1472	; 0x5c0
    5f1e:	f2c2 0000 	movt	r0, #8192	; 0x2000
    5f22:	6800      	ldr	r0, [r0, #0]
    5f24:	b128      	cbz	r0, 5f32 <xTaskResumeAll+0x1f2>
    5f26:	e7ff      	b.n	5f28 <xTaskResumeAll+0x1e8>
    5f28:	f7ff f849 	bl	4fbe <vPortYield>
    5f2c:	2001      	movs	r0, #1
    5f2e:	9003      	str	r0, [sp, #12]
    5f30:	e002      	b.n	5f38 <xTaskResumeAll+0x1f8>
    5f32:	2000      	movs	r0, #0
    5f34:	9003      	str	r0, [sp, #12]
    5f36:	e7ff      	b.n	5f38 <xTaskResumeAll+0x1f8>
    5f38:	9803      	ldr	r0, [sp, #12]
    5f3a:	900d      	str	r0, [sp, #52]	; 0x34
    5f3c:	e7ff      	b.n	5f3e <xTaskResumeAll+0x1fe>
    5f3e:	980d      	ldr	r0, [sp, #52]	; 0x34
    5f40:	9002      	str	r0, [sp, #8]
    5f42:	e002      	b.n	5f4a <xTaskResumeAll+0x20a>
    5f44:	2000      	movs	r0, #0
    5f46:	9002      	str	r0, [sp, #8]
    5f48:	e7ff      	b.n	5f4a <xTaskResumeAll+0x20a>
    5f4a:	9802      	ldr	r0, [sp, #8]
    5f4c:	9001      	str	r0, [sp, #4]
    5f4e:	f7ff f852 	bl	4ff6 <vPortExitCritical>
    5f52:	9801      	ldr	r0, [sp, #4]
    5f54:	b00e      	add	sp, #56	; 0x38
    5f56:	bd80      	pop	{r7, pc}

00005f58 <vTaskSwitchContext>:
    5f58:	b580      	push	{r7, lr}
    5f5a:	466f      	mov	r7, sp
    5f5c:	b084      	sub	sp, #16
    5f5e:	f240 5034 	movw	r0, #1332	; 0x534
    5f62:	f2c2 0000 	movt	r0, #8192	; 0x2000
    5f66:	6800      	ldr	r0, [r0, #0]
    5f68:	b138      	cbz	r0, 5f7a <vTaskSwitchContext+0x22>
    5f6a:	e7ff      	b.n	5f6c <vTaskSwitchContext+0x14>
    5f6c:	f240 51c0 	movw	r1, #1472	; 0x5c0
    5f70:	f2c2 0100 	movt	r1, #8192	; 0x2000
    5f74:	2001      	movs	r0, #1
    5f76:	6008      	str	r0, [r1, #0]
    5f78:	e04a      	b.n	6010 <vTaskSwitchContext+0xb8>
    5f7a:	f240 51c0 	movw	r1, #1472	; 0x5c0
    5f7e:	f2c2 0100 	movt	r1, #8192	; 0x2000
    5f82:	2000      	movs	r0, #0
    5f84:	6008      	str	r0, [r1, #0]
    5f86:	f240 50bc 	movw	r0, #1468	; 0x5bc
    5f8a:	f2c2 0000 	movt	r0, #8192	; 0x2000
    5f8e:	6800      	ldr	r0, [r0, #0]
    5f90:	9003      	str	r0, [sp, #12]
    5f92:	e7ff      	b.n	5f94 <vTaskSwitchContext+0x3c>
    5f94:	9803      	ldr	r0, [sp, #12]
    5f96:	9002      	str	r0, [sp, #8]
    5f98:	eb00 0180 	add.w	r1, r0, r0, lsl #2
    5f9c:	f240 5058 	movw	r0, #1368	; 0x558
    5fa0:	f2c2 0000 	movt	r0, #8192	; 0x2000
    5fa4:	f850 0021 	ldr.w	r0, [r0, r1, lsl #2]
    5fa8:	b958      	cbnz	r0, 5fc2 <vTaskSwitchContext+0x6a>
    5faa:	e7ff      	b.n	5fac <vTaskSwitchContext+0x54>
    5fac:	9802      	ldr	r0, [sp, #8]
    5fae:	b920      	cbnz	r0, 5fba <vTaskSwitchContext+0x62>
    5fb0:	e7ff      	b.n	5fb2 <vTaskSwitchContext+0x5a>
    5fb2:	f7ff f92f 	bl	5214 <ulSetInterruptMask>
    5fb6:	e7ff      	b.n	5fb8 <vTaskSwitchContext+0x60>
    5fb8:	e7fe      	b.n	5fb8 <vTaskSwitchContext+0x60>
    5fba:	9802      	ldr	r0, [sp, #8]
    5fbc:	3801      	subs	r0, #1
    5fbe:	9003      	str	r0, [sp, #12]
    5fc0:	e7e8      	b.n	5f94 <vTaskSwitchContext+0x3c>
    5fc2:	9802      	ldr	r0, [sp, #8]
    5fc4:	eb00 0180 	add.w	r1, r0, r0, lsl #2
    5fc8:	f240 5058 	movw	r0, #1368	; 0x558
    5fcc:	f2c2 0000 	movt	r0, #8192	; 0x2000
    5fd0:	eb00 0181 	add.w	r1, r0, r1, lsl #2
    5fd4:	4608      	mov	r0, r1
    5fd6:	9001      	str	r0, [sp, #4]
    5fd8:	6848      	ldr	r0, [r1, #4]
    5fda:	6840      	ldr	r0, [r0, #4]
    5fdc:	6048      	str	r0, [r1, #4]
    5fde:	6848      	ldr	r0, [r1, #4]
    5fe0:	3108      	adds	r1, #8
    5fe2:	4288      	cmp	r0, r1
    5fe4:	d105      	bne.n	5ff2 <vTaskSwitchContext+0x9a>
    5fe6:	e7ff      	b.n	5fe8 <vTaskSwitchContext+0x90>
    5fe8:	9901      	ldr	r1, [sp, #4]
    5fea:	6848      	ldr	r0, [r1, #4]
    5fec:	6840      	ldr	r0, [r0, #4]
    5fee:	6048      	str	r0, [r1, #4]
    5ff0:	e7ff      	b.n	5ff2 <vTaskSwitchContext+0x9a>
    5ff2:	9802      	ldr	r0, [sp, #8]
    5ff4:	9901      	ldr	r1, [sp, #4]
    5ff6:	6849      	ldr	r1, [r1, #4]
    5ff8:	68c9      	ldr	r1, [r1, #12]
    5ffa:	f240 520c 	movw	r2, #1292	; 0x50c
    5ffe:	f2c2 0200 	movt	r2, #8192	; 0x2000
    6002:	6011      	str	r1, [r2, #0]
    6004:	f240 51bc 	movw	r1, #1468	; 0x5bc
    6008:	f2c2 0100 	movt	r1, #8192	; 0x2000
    600c:	6008      	str	r0, [r1, #0]
    600e:	e7ff      	b.n	6010 <vTaskSwitchContext+0xb8>
    6010:	b004      	add	sp, #16
    6012:	bd80      	pop	{r7, pc}

00006014 <vTaskStartScheduler>:
    6014:	b580      	push	{r7, lr}
    6016:	466f      	mov	r7, sp
    6018:	b086      	sub	sp, #24
    601a:	f240 51d8 	movw	r1, #1496	; 0x5d8
    601e:	f2c2 0100 	movt	r1, #8192	; 0x2000
    6022:	4668      	mov	r0, sp
    6024:	6041      	str	r1, [r0, #4]
    6026:	2300      	movs	r3, #0
    6028:	6003      	str	r3, [r0, #0]
    602a:	f246 00b3 	movw	r0, #24755	; 0x60b3
    602e:	f2c0 0000 	movt	r0, #0
    6032:	f249 2130 	movw	r1, #37424	; 0x9230
    6036:	f2c0 0100 	movt	r1, #0
    603a:	2240      	movs	r2, #64	; 0x40
    603c:	f7ff fc5f 	bl	58fe <xTaskCreate>
    6040:	4601      	mov	r1, r0
    6042:	9105      	str	r1, [sp, #20]
    6044:	2801      	cmp	r0, #1
    6046:	d104      	bne.n	6052 <vTaskStartScheduler+0x3e>
    6048:	e7ff      	b.n	604a <vTaskStartScheduler+0x36>
    604a:	f000 fb7b 	bl	6744 <xTimerCreateTimerTask>
    604e:	9004      	str	r0, [sp, #16]
    6050:	e002      	b.n	6058 <vTaskStartScheduler+0x44>
    6052:	9805      	ldr	r0, [sp, #20]
    6054:	9004      	str	r0, [sp, #16]
    6056:	e7ff      	b.n	6058 <vTaskStartScheduler+0x44>
    6058:	9804      	ldr	r0, [sp, #16]
    605a:	9003      	str	r0, [sp, #12]
    605c:	2801      	cmp	r0, #1
    605e:	d118      	bne.n	6092 <vTaskStartScheduler+0x7e>
    6060:	e7ff      	b.n	6062 <vTaskStartScheduler+0x4e>
    6062:	f7ff f8d7 	bl	5214 <ulSetInterruptMask>
    6066:	f240 51dc 	movw	r1, #1500	; 0x5dc
    606a:	f2c2 0100 	movt	r1, #8192	; 0x2000
    606e:	f04f 30ff 	mov.w	r0, #4294967295	; 0xffffffff
    6072:	6008      	str	r0, [r1, #0]
    6074:	f240 5130 	movw	r1, #1328	; 0x530
    6078:	f2c2 0100 	movt	r1, #8192	; 0x2000
    607c:	2001      	movs	r0, #1
    607e:	6008      	str	r0, [r1, #0]
    6080:	f240 5138 	movw	r1, #1336	; 0x538
    6084:	f2c2 0100 	movt	r1, #8192	; 0x2000
    6088:	2000      	movs	r0, #0
    608a:	6008      	str	r0, [r1, #0]
    608c:	f7ff f868 	bl	5160 <xPortStartScheduler>
    6090:	e008      	b.n	60a4 <vTaskStartScheduler+0x90>
    6092:	9803      	ldr	r0, [sp, #12]
    6094:	3001      	adds	r0, #1
    6096:	b920      	cbnz	r0, 60a2 <vTaskStartScheduler+0x8e>
    6098:	e7ff      	b.n	609a <vTaskStartScheduler+0x86>
    609a:	f7ff f8bb 	bl	5214 <ulSetInterruptMask>
    609e:	e7ff      	b.n	60a0 <vTaskStartScheduler+0x8c>
    60a0:	e7fe      	b.n	60a0 <vTaskStartScheduler+0x8c>
    60a2:	e7ff      	b.n	60a4 <vTaskStartScheduler+0x90>
    60a4:	f249 202c 	movw	r0, #37420	; 0x922c
    60a8:	f2c0 0000 	movt	r0, #0
    60ac:	6800      	ldr	r0, [r0, #0]
    60ae:	b006      	add	sp, #24
    60b0:	bd80      	pop	{r7, pc}

000060b2 <prvIdleTask>:
    60b2:	b580      	push	{r7, lr}
    60b4:	466f      	mov	r7, sp
    60b6:	e7ff      	b.n	60b8 <prvIdleTask+0x6>
    60b8:	f000 fb17 	bl	66ea <prvCheckTasksWaitingTermination>
    60bc:	f240 5058 	movw	r0, #1368	; 0x558
    60c0:	f2c2 0000 	movt	r0, #8192	; 0x2000
    60c4:	6800      	ldr	r0, [r0, #0]
    60c6:	2802      	cmp	r0, #2
    60c8:	d303      	bcc.n	60d2 <prvIdleTask+0x20>
    60ca:	e7ff      	b.n	60cc <prvIdleTask+0x1a>
    60cc:	f7fe ff77 	bl	4fbe <vPortYield>
    60d0:	e000      	b.n	60d4 <prvIdleTask+0x22>
    60d2:	e7ff      	b.n	60d4 <prvIdleTask+0x22>
    60d4:	e7f0      	b.n	60b8 <prvIdleTask+0x6>

000060d6 <xTaskIncrementTick>:
    60d6:	b580      	push	{r7, lr}
    60d8:	466f      	mov	r7, sp
    60da:	b08e      	sub	sp, #56	; 0x38
    60dc:	f240 5034 	movw	r0, #1332	; 0x534
    60e0:	f2c2 0000 	movt	r0, #8192	; 0x2000
    60e4:	6800      	ldr	r0, [r0, #0]
    60e6:	2800      	cmp	r0, #0
    60e8:	f040 8105 	bne.w	62f6 <xTaskIncrementTick+0x220>
    60ec:	e7ff      	b.n	60ee <xTaskIncrementTick+0x18>
    60ee:	f240 5138 	movw	r1, #1336	; 0x538
    60f2:	f2c2 0100 	movt	r1, #8192	; 0x2000
    60f6:	6808      	ldr	r0, [r1, #0]
    60f8:	3001      	adds	r0, #1
    60fa:	4602      	mov	r2, r0
    60fc:	920d      	str	r2, [sp, #52]	; 0x34
    60fe:	6008      	str	r0, [r1, #0]
    6100:	bb10      	cbnz	r0, 6148 <xTaskIncrementTick+0x72>
    6102:	e7ff      	b.n	6104 <xTaskIncrementTick+0x2e>
    6104:	f240 503c 	movw	r0, #1340	; 0x53c
    6108:	f2c2 0000 	movt	r0, #8192	; 0x2000
    610c:	6800      	ldr	r0, [r0, #0]
    610e:	6800      	ldr	r0, [r0, #0]
    6110:	b120      	cbz	r0, 611c <xTaskIncrementTick+0x46>
    6112:	e7ff      	b.n	6114 <xTaskIncrementTick+0x3e>
    6114:	f7ff f87e 	bl	5214 <ulSetInterruptMask>
    6118:	e7ff      	b.n	611a <xTaskIncrementTick+0x44>
    611a:	e7fe      	b.n	611a <xTaskIncrementTick+0x44>
    611c:	f240 533c 	movw	r3, #1340	; 0x53c
    6120:	f2c2 0300 	movt	r3, #8192	; 0x2000
    6124:	6818      	ldr	r0, [r3, #0]
    6126:	f240 5140 	movw	r1, #1344	; 0x540
    612a:	f2c2 0100 	movt	r1, #8192	; 0x2000
    612e:	680a      	ldr	r2, [r1, #0]
    6130:	601a      	str	r2, [r3, #0]
    6132:	6008      	str	r0, [r1, #0]
    6134:	f240 51e4 	movw	r1, #1508	; 0x5e4
    6138:	f2c2 0100 	movt	r1, #8192	; 0x2000
    613c:	6808      	ldr	r0, [r1, #0]
    613e:	3001      	adds	r0, #1
    6140:	6008      	str	r0, [r1, #0]
    6142:	f7ff fd50 	bl	5be6 <prvResetNextTaskUnblockTime>
    6146:	e000      	b.n	614a <xTaskIncrementTick+0x74>
    6148:	e7ff      	b.n	614a <xTaskIncrementTick+0x74>
    614a:	990d      	ldr	r1, [sp, #52]	; 0x34
    614c:	f240 50dc 	movw	r0, #1500	; 0x5dc
    6150:	f2c2 0000 	movt	r0, #8192	; 0x2000
    6154:	6802      	ldr	r2, [r0, #0]
    6156:	2000      	movs	r0, #0
    6158:	4291      	cmp	r1, r2
    615a:	900c      	str	r0, [sp, #48]	; 0x30
    615c:	f0c0 80b9 	bcc.w	62d2 <xTaskIncrementTick+0x1fc>
    6160:	e7ff      	b.n	6162 <xTaskIncrementTick+0x8c>
    6162:	2000      	movs	r0, #0
    6164:	900b      	str	r0, [sp, #44]	; 0x2c
    6166:	e7ff      	b.n	6168 <xTaskIncrementTick+0x92>
    6168:	980b      	ldr	r0, [sp, #44]	; 0x2c
    616a:	900a      	str	r0, [sp, #40]	; 0x28
    616c:	f240 503c 	movw	r0, #1340	; 0x53c
    6170:	f2c2 0000 	movt	r0, #8192	; 0x2000
    6174:	6800      	ldr	r0, [r0, #0]
    6176:	6800      	ldr	r0, [r0, #0]
    6178:	b940      	cbnz	r0, 618c <xTaskIncrementTick+0xb6>
    617a:	e7ff      	b.n	617c <xTaskIncrementTick+0xa6>
    617c:	f240 51dc 	movw	r1, #1500	; 0x5dc
    6180:	f2c2 0100 	movt	r1, #8192	; 0x2000
    6184:	f04f 30ff 	mov.w	r0, #4294967295	; 0xffffffff
    6188:	6008      	str	r0, [r1, #0]
    618a:	e09f      	b.n	62cc <xTaskIncrementTick+0x1f6>
    618c:	980d      	ldr	r0, [sp, #52]	; 0x34
    618e:	f240 513c 	movw	r1, #1340	; 0x53c
    6192:	f2c2 0100 	movt	r1, #8192	; 0x2000
    6196:	6809      	ldr	r1, [r1, #0]
    6198:	68c9      	ldr	r1, [r1, #12]
    619a:	68c9      	ldr	r1, [r1, #12]
    619c:	9108      	str	r1, [sp, #32]
    619e:	6849      	ldr	r1, [r1, #4]
    61a0:	9109      	str	r1, [sp, #36]	; 0x24
    61a2:	4288      	cmp	r0, r1
    61a4:	d207      	bcs.n	61b6 <xTaskIncrementTick+0xe0>
    61a6:	e7ff      	b.n	61a8 <xTaskIncrementTick+0xd2>
    61a8:	9809      	ldr	r0, [sp, #36]	; 0x24
    61aa:	f240 51dc 	movw	r1, #1500	; 0x5dc
    61ae:	f2c2 0100 	movt	r1, #8192	; 0x2000
    61b2:	6008      	str	r0, [r1, #0]
    61b4:	e08a      	b.n	62cc <xTaskIncrementTick+0x1f6>
    61b6:	e7ff      	b.n	61b8 <xTaskIncrementTick+0xe2>
    61b8:	9b08      	ldr	r3, [sp, #32]
    61ba:	1d19      	adds	r1, r3, #4
    61bc:	f8d3 c008 	ldr.w	ip, [r3, #8]
    61c0:	68da      	ldr	r2, [r3, #12]
    61c2:	6958      	ldr	r0, [r3, #20]
    61c4:	9007      	str	r0, [sp, #28]
    61c6:	f8cc 2008 	str.w	r2, [ip, #8]
    61ca:	689a      	ldr	r2, [r3, #8]
    61cc:	68db      	ldr	r3, [r3, #12]
    61ce:	605a      	str	r2, [r3, #4]
    61d0:	6840      	ldr	r0, [r0, #4]
    61d2:	4288      	cmp	r0, r1
    61d4:	d105      	bne.n	61e2 <xTaskIncrementTick+0x10c>
    61d6:	e7ff      	b.n	61d8 <xTaskIncrementTick+0x102>
    61d8:	9907      	ldr	r1, [sp, #28]
    61da:	9808      	ldr	r0, [sp, #32]
    61dc:	68c0      	ldr	r0, [r0, #12]
    61de:	6048      	str	r0, [r1, #4]
    61e0:	e7ff      	b.n	61e2 <xTaskIncrementTick+0x10c>
    61e2:	9808      	ldr	r0, [sp, #32]
    61e4:	9a07      	ldr	r2, [sp, #28]
    61e6:	2100      	movs	r1, #0
    61e8:	6141      	str	r1, [r0, #20]
    61ea:	6811      	ldr	r1, [r2, #0]
    61ec:	3901      	subs	r1, #1
    61ee:	6011      	str	r1, [r2, #0]
    61f0:	6a80      	ldr	r0, [r0, #40]	; 0x28
    61f2:	b1f0      	cbz	r0, 6232 <xTaskIncrementTick+0x15c>
    61f4:	e7ff      	b.n	61f6 <xTaskIncrementTick+0x120>
    61f6:	9b08      	ldr	r3, [sp, #32]
    61f8:	f103 0118 	add.w	r1, r3, #24
    61fc:	f8d3 c01c 	ldr.w	ip, [r3, #28]
    6200:	6a1a      	ldr	r2, [r3, #32]
    6202:	6a98      	ldr	r0, [r3, #40]	; 0x28
    6204:	9006      	str	r0, [sp, #24]
    6206:	f8cc 2008 	str.w	r2, [ip, #8]
    620a:	69da      	ldr	r2, [r3, #28]
    620c:	6a1b      	ldr	r3, [r3, #32]
    620e:	605a      	str	r2, [r3, #4]
    6210:	6840      	ldr	r0, [r0, #4]
    6212:	4288      	cmp	r0, r1
    6214:	d105      	bne.n	6222 <xTaskIncrementTick+0x14c>
    6216:	e7ff      	b.n	6218 <xTaskIncrementTick+0x142>
    6218:	9906      	ldr	r1, [sp, #24]
    621a:	9808      	ldr	r0, [sp, #32]
    621c:	6a00      	ldr	r0, [r0, #32]
    621e:	6048      	str	r0, [r1, #4]
    6220:	e7ff      	b.n	6222 <xTaskIncrementTick+0x14c>
    6222:	9906      	ldr	r1, [sp, #24]
    6224:	9a08      	ldr	r2, [sp, #32]
    6226:	2000      	movs	r0, #0
    6228:	6290      	str	r0, [r2, #40]	; 0x28
    622a:	6808      	ldr	r0, [r1, #0]
    622c:	3801      	subs	r0, #1
    622e:	6008      	str	r0, [r1, #0]
    6230:	e000      	b.n	6234 <xTaskIncrementTick+0x15e>
    6232:	e7ff      	b.n	6234 <xTaskIncrementTick+0x15e>
    6234:	9808      	ldr	r0, [sp, #32]
    6236:	6ac0      	ldr	r0, [r0, #44]	; 0x2c
    6238:	f240 51bc 	movw	r1, #1468	; 0x5bc
    623c:	f2c2 0100 	movt	r1, #8192	; 0x2000
    6240:	6809      	ldr	r1, [r1, #0]
    6242:	4288      	cmp	r0, r1
    6244:	d908      	bls.n	6258 <xTaskIncrementTick+0x182>
    6246:	e7ff      	b.n	6248 <xTaskIncrementTick+0x172>
    6248:	9808      	ldr	r0, [sp, #32]
    624a:	6ac0      	ldr	r0, [r0, #44]	; 0x2c
    624c:	f240 51bc 	movw	r1, #1468	; 0x5bc
    6250:	f2c2 0100 	movt	r1, #8192	; 0x2000
    6254:	6008      	str	r0, [r1, #0]
    6256:	e7ff      	b.n	6258 <xTaskIncrementTick+0x182>
    6258:	9808      	ldr	r0, [sp, #32]
    625a:	6ac1      	ldr	r1, [r0, #44]	; 0x2c
    625c:	eb01 0181 	add.w	r1, r1, r1, lsl #2
    6260:	f240 5258 	movw	r2, #1368	; 0x558
    6264:	f2c2 0200 	movt	r2, #8192	; 0x2000
    6268:	eb02 0181 	add.w	r1, r2, r1, lsl #2
    626c:	684b      	ldr	r3, [r1, #4]
    626e:	1d01      	adds	r1, r0, #4
    6270:	6083      	str	r3, [r0, #8]
    6272:	f8d3 c008 	ldr.w	ip, [r3, #8]
    6276:	f8c0 c00c 	str.w	ip, [r0, #12]
    627a:	f8d3 c008 	ldr.w	ip, [r3, #8]
    627e:	f8cc 1004 	str.w	r1, [ip, #4]
    6282:	6099      	str	r1, [r3, #8]
    6284:	6ac1      	ldr	r1, [r0, #44]	; 0x2c
    6286:	eb01 0181 	add.w	r1, r1, r1, lsl #2
    628a:	eb02 0181 	add.w	r1, r2, r1, lsl #2
    628e:	6141      	str	r1, [r0, #20]
    6290:	6ac1      	ldr	r1, [r0, #44]	; 0x2c
    6292:	eb01 0381 	add.w	r3, r1, r1, lsl #2
    6296:	f852 1023 	ldr.w	r1, [r2, r3, lsl #2]
    629a:	3101      	adds	r1, #1
    629c:	f842 1023 	str.w	r1, [r2, r3, lsl #2]
    62a0:	6ac0      	ldr	r0, [r0, #44]	; 0x2c
    62a2:	f240 510c 	movw	r1, #1292	; 0x50c
    62a6:	f2c2 0100 	movt	r1, #8192	; 0x2000
    62aa:	6809      	ldr	r1, [r1, #0]
    62ac:	6ac9      	ldr	r1, [r1, #44]	; 0x2c
    62ae:	4288      	cmp	r0, r1
    62b0:	d903      	bls.n	62ba <xTaskIncrementTick+0x1e4>
    62b2:	e7ff      	b.n	62b4 <xTaskIncrementTick+0x1de>
    62b4:	2001      	movs	r0, #1
    62b6:	9005      	str	r0, [sp, #20]
    62b8:	e002      	b.n	62c0 <xTaskIncrementTick+0x1ea>
    62ba:	980a      	ldr	r0, [sp, #40]	; 0x28
    62bc:	9005      	str	r0, [sp, #20]
    62be:	e7ff      	b.n	62c0 <xTaskIncrementTick+0x1ea>
    62c0:	9805      	ldr	r0, [sp, #20]
    62c2:	9004      	str	r0, [sp, #16]
    62c4:	e7ff      	b.n	62c6 <xTaskIncrementTick+0x1f0>
    62c6:	9804      	ldr	r0, [sp, #16]
    62c8:	900b      	str	r0, [sp, #44]	; 0x2c
    62ca:	e74d      	b.n	6168 <xTaskIncrementTick+0x92>
    62cc:	980a      	ldr	r0, [sp, #40]	; 0x28
    62ce:	900c      	str	r0, [sp, #48]	; 0x30
    62d0:	e7ff      	b.n	62d2 <xTaskIncrementTick+0x1fc>
    62d2:	980c      	ldr	r0, [sp, #48]	; 0x30
    62d4:	9003      	str	r0, [sp, #12]
    62d6:	f240 50c0 	movw	r0, #1472	; 0x5c0
    62da:	f2c2 0000 	movt	r0, #8192	; 0x2000
    62de:	6800      	ldr	r0, [r0, #0]
    62e0:	b118      	cbz	r0, 62ea <xTaskIncrementTick+0x214>
    62e2:	e7ff      	b.n	62e4 <xTaskIncrementTick+0x20e>
    62e4:	2001      	movs	r0, #1
    62e6:	9002      	str	r0, [sp, #8]
    62e8:	e002      	b.n	62f0 <xTaskIncrementTick+0x21a>
    62ea:	9803      	ldr	r0, [sp, #12]
    62ec:	9002      	str	r0, [sp, #8]
    62ee:	e7ff      	b.n	62f0 <xTaskIncrementTick+0x21a>
    62f0:	9802      	ldr	r0, [sp, #8]
    62f2:	9001      	str	r0, [sp, #4]
    62f4:	e009      	b.n	630a <xTaskIncrementTick+0x234>
    62f6:	f240 51e0 	movw	r1, #1504	; 0x5e0
    62fa:	f2c2 0100 	movt	r1, #8192	; 0x2000
    62fe:	6808      	ldr	r0, [r1, #0]
    6300:	3001      	adds	r0, #1
    6302:	6008      	str	r0, [r1, #0]
    6304:	2000      	movs	r0, #0
    6306:	9001      	str	r0, [sp, #4]
    6308:	e7ff      	b.n	630a <xTaskIncrementTick+0x234>
    630a:	9801      	ldr	r0, [sp, #4]
    630c:	b00e      	add	sp, #56	; 0x38
    630e:	bd80      	pop	{r7, pc}

00006310 <xTaskGetTickCount>:
    6310:	f240 5038 	movw	r0, #1336	; 0x538
    6314:	f2c2 0000 	movt	r0, #8192	; 0x2000
    6318:	6800      	ldr	r0, [r0, #0]
    631a:	4770      	bx	lr

0000631c <vTaskPlaceOnEventList>:
    631c:	b580      	push	{r7, lr}
    631e:	466f      	mov	r7, sp
    6320:	b082      	sub	sp, #8
    6322:	9100      	str	r1, [sp, #0]
    6324:	9001      	str	r0, [sp, #4]
    6326:	b920      	cbnz	r0, 6332 <vTaskPlaceOnEventList+0x16>
    6328:	e7ff      	b.n	632a <vTaskPlaceOnEventList+0xe>
    632a:	f7fe ff73 	bl	5214 <ulSetInterruptMask>
    632e:	e7ff      	b.n	6330 <vTaskPlaceOnEventList+0x14>
    6330:	e7fe      	b.n	6330 <vTaskPlaceOnEventList+0x14>
    6332:	9801      	ldr	r0, [sp, #4]
    6334:	f240 510c 	movw	r1, #1292	; 0x50c
    6338:	f2c2 0100 	movt	r1, #8192	; 0x2000
    633c:	6809      	ldr	r1, [r1, #0]
    633e:	3118      	adds	r1, #24
    6340:	f7fe ffd8 	bl	52f4 <vListInsert>
    6344:	9800      	ldr	r0, [sp, #0]
    6346:	2101      	movs	r1, #1
    6348:	f7ff fc7f 	bl	5c4a <prvAddCurrentTaskToDelayedList>
    634c:	b002      	add	sp, #8
    634e:	bd80      	pop	{r7, pc}

00006350 <vTaskPlaceOnEventListRestricted>:
    6350:	b5d0      	push	{r4, r6, r7, lr}
    6352:	af02      	add	r7, sp, #8
    6354:	b084      	sub	sp, #16
    6356:	9201      	str	r2, [sp, #4]
    6358:	9102      	str	r1, [sp, #8]
    635a:	9003      	str	r0, [sp, #12]
    635c:	b920      	cbnz	r0, 6368 <vTaskPlaceOnEventListRestricted+0x18>
    635e:	e7ff      	b.n	6360 <vTaskPlaceOnEventListRestricted+0x10>
    6360:	f7fe ff58 	bl	5214 <ulSetInterruptMask>
    6364:	e7ff      	b.n	6366 <vTaskPlaceOnEventListRestricted+0x16>
    6366:	e7fe      	b.n	6366 <vTaskPlaceOnEventListRestricted+0x16>
    6368:	9802      	ldr	r0, [sp, #8]
    636a:	9901      	ldr	r1, [sp, #4]
    636c:	9b03      	ldr	r3, [sp, #12]
    636e:	f8d3 e004 	ldr.w	lr, [r3, #4]
    6372:	f240 520c 	movw	r2, #1292	; 0x50c
    6376:	f2c2 0200 	movt	r2, #8192	; 0x2000
    637a:	f8d2 c000 	ldr.w	ip, [r2]
    637e:	f8cc e01c 	str.w	lr, [ip, #28]
    6382:	f8de c008 	ldr.w	ip, [lr, #8]
    6386:	6814      	ldr	r4, [r2, #0]
    6388:	f8c4 c020 	str.w	ip, [r4, #32]
    638c:	f8d2 c000 	ldr.w	ip, [r2]
    6390:	f10c 0c18 	add.w	ip, ip, #24
    6394:	f8de 4008 	ldr.w	r4, [lr, #8]
    6398:	f8c4 c004 	str.w	ip, [r4, #4]
    639c:	f8d2 c000 	ldr.w	ip, [r2]
    63a0:	f10c 0c18 	add.w	ip, ip, #24
    63a4:	f8ce c008 	str.w	ip, [lr, #8]
    63a8:	6812      	ldr	r2, [r2, #0]
    63aa:	6293      	str	r3, [r2, #40]	; 0x28
    63ac:	681a      	ldr	r2, [r3, #0]
    63ae:	3201      	adds	r2, #1
    63b0:	601a      	str	r2, [r3, #0]
    63b2:	9000      	str	r0, [sp, #0]
    63b4:	b121      	cbz	r1, 63c0 <vTaskPlaceOnEventListRestricted+0x70>
    63b6:	e7ff      	b.n	63b8 <vTaskPlaceOnEventListRestricted+0x68>
    63b8:	f04f 30ff 	mov.w	r0, #4294967295	; 0xffffffff
    63bc:	9000      	str	r0, [sp, #0]
    63be:	e7ff      	b.n	63c0 <vTaskPlaceOnEventListRestricted+0x70>
    63c0:	9901      	ldr	r1, [sp, #4]
    63c2:	9800      	ldr	r0, [sp, #0]
    63c4:	f7ff fc41 	bl	5c4a <prvAddCurrentTaskToDelayedList>
    63c8:	b004      	add	sp, #16
    63ca:	bdd0      	pop	{r4, r6, r7, pc}

000063cc <xTaskRemoveFromEventList>:
    63cc:	b580      	push	{r7, lr}
    63ce:	466f      	mov	r7, sp
    63d0:	b084      	sub	sp, #16
    63d2:	68c0      	ldr	r0, [r0, #12]
    63d4:	68c0      	ldr	r0, [r0, #12]
    63d6:	9003      	str	r0, [sp, #12]
    63d8:	b920      	cbnz	r0, 63e4 <xTaskRemoveFromEventList+0x18>
    63da:	e7ff      	b.n	63dc <xTaskRemoveFromEventList+0x10>
    63dc:	f7fe ff1a 	bl	5214 <ulSetInterruptMask>
    63e0:	e7ff      	b.n	63e2 <xTaskRemoveFromEventList+0x16>
    63e2:	e7fe      	b.n	63e2 <xTaskRemoveFromEventList+0x16>
    63e4:	9b03      	ldr	r3, [sp, #12]
    63e6:	f103 0118 	add.w	r1, r3, #24
    63ea:	f8d3 c01c 	ldr.w	ip, [r3, #28]
    63ee:	6a1a      	ldr	r2, [r3, #32]
    63f0:	6a98      	ldr	r0, [r3, #40]	; 0x28
    63f2:	9002      	str	r0, [sp, #8]
    63f4:	f8cc 2008 	str.w	r2, [ip, #8]
    63f8:	69da      	ldr	r2, [r3, #28]
    63fa:	6a1b      	ldr	r3, [r3, #32]
    63fc:	605a      	str	r2, [r3, #4]
    63fe:	6840      	ldr	r0, [r0, #4]
    6400:	4288      	cmp	r0, r1
    6402:	d105      	bne.n	6410 <xTaskRemoveFromEventList+0x44>
    6404:	e7ff      	b.n	6406 <xTaskRemoveFromEventList+0x3a>
    6406:	9902      	ldr	r1, [sp, #8]
    6408:	9803      	ldr	r0, [sp, #12]
    640a:	6a00      	ldr	r0, [r0, #32]
    640c:	6048      	str	r0, [r1, #4]
    640e:	e7ff      	b.n	6410 <xTaskRemoveFromEventList+0x44>
    6410:	9902      	ldr	r1, [sp, #8]
    6412:	9a03      	ldr	r2, [sp, #12]
    6414:	2000      	movs	r0, #0
    6416:	6290      	str	r0, [r2, #40]	; 0x28
    6418:	6808      	ldr	r0, [r1, #0]
    641a:	3801      	subs	r0, #1
    641c:	6008      	str	r0, [r1, #0]
    641e:	f240 5034 	movw	r0, #1332	; 0x534
    6422:	f2c2 0000 	movt	r0, #8192	; 0x2000
    6426:	6800      	ldr	r0, [r0, #0]
    6428:	2800      	cmp	r0, #0
    642a:	d152      	bne.n	64d2 <xTaskRemoveFromEventList+0x106>
    642c:	e7ff      	b.n	642e <xTaskRemoveFromEventList+0x62>
    642e:	9b03      	ldr	r3, [sp, #12]
    6430:	1d19      	adds	r1, r3, #4
    6432:	f8d3 c008 	ldr.w	ip, [r3, #8]
    6436:	68da      	ldr	r2, [r3, #12]
    6438:	6958      	ldr	r0, [r3, #20]
    643a:	9001      	str	r0, [sp, #4]
    643c:	f8cc 2008 	str.w	r2, [ip, #8]
    6440:	689a      	ldr	r2, [r3, #8]
    6442:	68db      	ldr	r3, [r3, #12]
    6444:	605a      	str	r2, [r3, #4]
    6446:	6840      	ldr	r0, [r0, #4]
    6448:	4288      	cmp	r0, r1
    644a:	d105      	bne.n	6458 <xTaskRemoveFromEventList+0x8c>
    644c:	e7ff      	b.n	644e <xTaskRemoveFromEventList+0x82>
    644e:	9901      	ldr	r1, [sp, #4]
    6450:	9803      	ldr	r0, [sp, #12]
    6452:	68c0      	ldr	r0, [r0, #12]
    6454:	6048      	str	r0, [r1, #4]
    6456:	e7ff      	b.n	6458 <xTaskRemoveFromEventList+0x8c>
    6458:	9803      	ldr	r0, [sp, #12]
    645a:	9a01      	ldr	r2, [sp, #4]
    645c:	2100      	movs	r1, #0
    645e:	6141      	str	r1, [r0, #20]
    6460:	6811      	ldr	r1, [r2, #0]
    6462:	3901      	subs	r1, #1
    6464:	6011      	str	r1, [r2, #0]
    6466:	6ac0      	ldr	r0, [r0, #44]	; 0x2c
    6468:	f240 51bc 	movw	r1, #1468	; 0x5bc
    646c:	f2c2 0100 	movt	r1, #8192	; 0x2000
    6470:	6809      	ldr	r1, [r1, #0]
    6472:	4288      	cmp	r0, r1
    6474:	d908      	bls.n	6488 <xTaskRemoveFromEventList+0xbc>
    6476:	e7ff      	b.n	6478 <xTaskRemoveFromEventList+0xac>
    6478:	9803      	ldr	r0, [sp, #12]
    647a:	6ac0      	ldr	r0, [r0, #44]	; 0x2c
    647c:	f240 51bc 	movw	r1, #1468	; 0x5bc
    6480:	f2c2 0100 	movt	r1, #8192	; 0x2000
    6484:	6008      	str	r0, [r1, #0]
    6486:	e7ff      	b.n	6488 <xTaskRemoveFromEventList+0xbc>
    6488:	9803      	ldr	r0, [sp, #12]
    648a:	6ac1      	ldr	r1, [r0, #44]	; 0x2c
    648c:	eb01 0281 	add.w	r2, r1, r1, lsl #2
    6490:	f240 5158 	movw	r1, #1368	; 0x558
    6494:	f2c2 0100 	movt	r1, #8192	; 0x2000
    6498:	eb01 0282 	add.w	r2, r1, r2, lsl #2
    649c:	6853      	ldr	r3, [r2, #4]
    649e:	1d02      	adds	r2, r0, #4
    64a0:	6083      	str	r3, [r0, #8]
    64a2:	f8d3 c008 	ldr.w	ip, [r3, #8]
    64a6:	f8c0 c00c 	str.w	ip, [r0, #12]
    64aa:	f8d3 c008 	ldr.w	ip, [r3, #8]
    64ae:	f8cc 2004 	str.w	r2, [ip, #4]
    64b2:	609a      	str	r2, [r3, #8]
    64b4:	6ac2      	ldr	r2, [r0, #44]	; 0x2c
    64b6:	eb02 0282 	add.w	r2, r2, r2, lsl #2
    64ba:	eb01 0282 	add.w	r2, r1, r2, lsl #2
    64be:	6142      	str	r2, [r0, #20]
    64c0:	6ac0      	ldr	r0, [r0, #44]	; 0x2c
    64c2:	eb00 0280 	add.w	r2, r0, r0, lsl #2
    64c6:	f851 0022 	ldr.w	r0, [r1, r2, lsl #2]
    64ca:	3001      	adds	r0, #1
    64cc:	f841 0022 	str.w	r0, [r1, r2, lsl #2]
    64d0:	e016      	b.n	6500 <xTaskRemoveFromEventList+0x134>
    64d2:	9803      	ldr	r0, [sp, #12]
    64d4:	f240 51c4 	movw	r1, #1476	; 0x5c4
    64d8:	f2c2 0100 	movt	r1, #8192	; 0x2000
    64dc:	684b      	ldr	r3, [r1, #4]
    64de:	f100 0218 	add.w	r2, r0, #24
    64e2:	61c3      	str	r3, [r0, #28]
    64e4:	f8d3 c008 	ldr.w	ip, [r3, #8]
    64e8:	f8c0 c020 	str.w	ip, [r0, #32]
    64ec:	f8d3 c008 	ldr.w	ip, [r3, #8]
    64f0:	f8cc 2004 	str.w	r2, [ip, #4]
    64f4:	609a      	str	r2, [r3, #8]
    64f6:	6281      	str	r1, [r0, #40]	; 0x28
    64f8:	6808      	ldr	r0, [r1, #0]
    64fa:	3001      	adds	r0, #1
    64fc:	6008      	str	r0, [r1, #0]
    64fe:	e7ff      	b.n	6500 <xTaskRemoveFromEventList+0x134>
    6500:	9803      	ldr	r0, [sp, #12]
    6502:	6ac0      	ldr	r0, [r0, #44]	; 0x2c
    6504:	f240 510c 	movw	r1, #1292	; 0x50c
    6508:	f2c2 0100 	movt	r1, #8192	; 0x2000
    650c:	6809      	ldr	r1, [r1, #0]
    650e:	6ac9      	ldr	r1, [r1, #44]	; 0x2c
    6510:	4288      	cmp	r0, r1
    6512:	d908      	bls.n	6526 <xTaskRemoveFromEventList+0x15a>
    6514:	e7ff      	b.n	6516 <xTaskRemoveFromEventList+0x14a>
    6516:	f240 51c0 	movw	r1, #1472	; 0x5c0
    651a:	f2c2 0100 	movt	r1, #8192	; 0x2000
    651e:	2001      	movs	r0, #1
    6520:	6008      	str	r0, [r1, #0]
    6522:	9000      	str	r0, [sp, #0]
    6524:	e002      	b.n	652c <xTaskRemoveFromEventList+0x160>
    6526:	2000      	movs	r0, #0
    6528:	9000      	str	r0, [sp, #0]
    652a:	e7ff      	b.n	652c <xTaskRemoveFromEventList+0x160>
    652c:	9800      	ldr	r0, [sp, #0]
    652e:	b004      	add	sp, #16
    6530:	bd80      	pop	{r7, pc}

00006532 <vTaskInternalSetTimeOutState>:
    6532:	4601      	mov	r1, r0
    6534:	f240 50e4 	movw	r0, #1508	; 0x5e4
    6538:	f2c2 0000 	movt	r0, #8192	; 0x2000
    653c:	6800      	ldr	r0, [r0, #0]
    653e:	6008      	str	r0, [r1, #0]
    6540:	f240 5038 	movw	r0, #1336	; 0x538
    6544:	f2c2 0000 	movt	r0, #8192	; 0x2000
    6548:	6800      	ldr	r0, [r0, #0]
    654a:	6048      	str	r0, [r1, #4]
    654c:	4770      	bx	lr

0000654e <xTaskCheckForTimeOut>:
    654e:	b580      	push	{r7, lr}
    6550:	466f      	mov	r7, sp
    6552:	b088      	sub	sp, #32
    6554:	9106      	str	r1, [sp, #24]
    6556:	9007      	str	r0, [sp, #28]
    6558:	b920      	cbnz	r0, 6564 <xTaskCheckForTimeOut+0x16>
    655a:	e7ff      	b.n	655c <xTaskCheckForTimeOut+0xe>
    655c:	f7fe fe5a 	bl	5214 <ulSetInterruptMask>
    6560:	e7ff      	b.n	6562 <xTaskCheckForTimeOut+0x14>
    6562:	e7fe      	b.n	6562 <xTaskCheckForTimeOut+0x14>
    6564:	9806      	ldr	r0, [sp, #24]
    6566:	b920      	cbnz	r0, 6572 <xTaskCheckForTimeOut+0x24>
    6568:	e7ff      	b.n	656a <xTaskCheckForTimeOut+0x1c>
    656a:	f7fe fe53 	bl	5214 <ulSetInterruptMask>
    656e:	e7ff      	b.n	6570 <xTaskCheckForTimeOut+0x22>
    6570:	e7fe      	b.n	6570 <xTaskCheckForTimeOut+0x22>
    6572:	f7fe fd30 	bl	4fd6 <vPortEnterCritical>
    6576:	9a07      	ldr	r2, [sp, #28]
    6578:	9806      	ldr	r0, [sp, #24]
    657a:	f240 5138 	movw	r1, #1336	; 0x538
    657e:	f2c2 0100 	movt	r1, #8192	; 0x2000
    6582:	6809      	ldr	r1, [r1, #0]
    6584:	9104      	str	r1, [sp, #16]
    6586:	6852      	ldr	r2, [r2, #4]
    6588:	1a89      	subs	r1, r1, r2
    658a:	9105      	str	r1, [sp, #20]
    658c:	6800      	ldr	r0, [r0, #0]
    658e:	3001      	adds	r0, #1
    6590:	b918      	cbnz	r0, 659a <xTaskCheckForTimeOut+0x4c>
    6592:	e7ff      	b.n	6594 <xTaskCheckForTimeOut+0x46>
    6594:	2000      	movs	r0, #0
    6596:	9003      	str	r0, [sp, #12]
    6598:	e032      	b.n	6600 <xTaskCheckForTimeOut+0xb2>
    659a:	9907      	ldr	r1, [sp, #28]
    659c:	f240 50e4 	movw	r0, #1508	; 0x5e4
    65a0:	f2c2 0000 	movt	r0, #8192	; 0x2000
    65a4:	6800      	ldr	r0, [r0, #0]
    65a6:	6809      	ldr	r1, [r1, #0]
    65a8:	4288      	cmp	r0, r1
    65aa:	d00c      	beq.n	65c6 <xTaskCheckForTimeOut+0x78>
    65ac:	e7ff      	b.n	65ae <xTaskCheckForTimeOut+0x60>
    65ae:	9804      	ldr	r0, [sp, #16]
    65b0:	9907      	ldr	r1, [sp, #28]
    65b2:	6849      	ldr	r1, [r1, #4]
    65b4:	4288      	cmp	r0, r1
    65b6:	d306      	bcc.n	65c6 <xTaskCheckForTimeOut+0x78>
    65b8:	e7ff      	b.n	65ba <xTaskCheckForTimeOut+0x6c>
    65ba:	9906      	ldr	r1, [sp, #24]
    65bc:	2000      	movs	r0, #0
    65be:	6008      	str	r0, [r1, #0]
    65c0:	2001      	movs	r0, #1
    65c2:	9002      	str	r0, [sp, #8]
    65c4:	e019      	b.n	65fa <xTaskCheckForTimeOut+0xac>
    65c6:	9805      	ldr	r0, [sp, #20]
    65c8:	9906      	ldr	r1, [sp, #24]
    65ca:	6809      	ldr	r1, [r1, #0]
    65cc:	4288      	cmp	r0, r1
    65ce:	d20b      	bcs.n	65e8 <xTaskCheckForTimeOut+0x9a>
    65d0:	e7ff      	b.n	65d2 <xTaskCheckForTimeOut+0x84>
    65d2:	9807      	ldr	r0, [sp, #28]
    65d4:	9a06      	ldr	r2, [sp, #24]
    65d6:	9b05      	ldr	r3, [sp, #20]
    65d8:	6811      	ldr	r1, [r2, #0]
    65da:	1ac9      	subs	r1, r1, r3
    65dc:	6011      	str	r1, [r2, #0]
    65de:	f7ff ffa8 	bl	6532 <vTaskInternalSetTimeOutState>
    65e2:	2000      	movs	r0, #0
    65e4:	9001      	str	r0, [sp, #4]
    65e6:	e005      	b.n	65f4 <xTaskCheckForTimeOut+0xa6>
    65e8:	9906      	ldr	r1, [sp, #24]
    65ea:	2000      	movs	r0, #0
    65ec:	6008      	str	r0, [r1, #0]
    65ee:	2001      	movs	r0, #1
    65f0:	9001      	str	r0, [sp, #4]
    65f2:	e7ff      	b.n	65f4 <xTaskCheckForTimeOut+0xa6>
    65f4:	9801      	ldr	r0, [sp, #4]
    65f6:	9002      	str	r0, [sp, #8]
    65f8:	e7ff      	b.n	65fa <xTaskCheckForTimeOut+0xac>
    65fa:	9802      	ldr	r0, [sp, #8]
    65fc:	9003      	str	r0, [sp, #12]
    65fe:	e7ff      	b.n	6600 <xTaskCheckForTimeOut+0xb2>
    6600:	9803      	ldr	r0, [sp, #12]
    6602:	9000      	str	r0, [sp, #0]
    6604:	f7fe fcf7 	bl	4ff6 <vPortExitCritical>
    6608:	9800      	ldr	r0, [sp, #0]
    660a:	b008      	add	sp, #32
    660c:	bd80      	pop	{r7, pc}

0000660e <vTaskMissedYield>:
    660e:	f240 51c0 	movw	r1, #1472	; 0x5c0
    6612:	f2c2 0100 	movt	r1, #8192	; 0x2000
    6616:	2001      	movs	r0, #1
    6618:	6008      	str	r0, [r1, #0]
    661a:	4770      	bx	lr

0000661c <xTaskGetSchedulerState>:
    661c:	b082      	sub	sp, #8
    661e:	f240 5030 	movw	r0, #1328	; 0x530
    6622:	f2c2 0000 	movt	r0, #8192	; 0x2000
    6626:	6800      	ldr	r0, [r0, #0]
    6628:	b918      	cbnz	r0, 6632 <xTaskGetSchedulerState+0x16>
    662a:	e7ff      	b.n	662c <xTaskGetSchedulerState+0x10>
    662c:	2001      	movs	r0, #1
    662e:	9001      	str	r0, [sp, #4]
    6630:	e00f      	b.n	6652 <xTaskGetSchedulerState+0x36>
    6632:	f240 5034 	movw	r0, #1332	; 0x534
    6636:	f2c2 0000 	movt	r0, #8192	; 0x2000
    663a:	6800      	ldr	r0, [r0, #0]
    663c:	b918      	cbnz	r0, 6646 <xTaskGetSchedulerState+0x2a>
    663e:	e7ff      	b.n	6640 <xTaskGetSchedulerState+0x24>
    6640:	2002      	movs	r0, #2
    6642:	9000      	str	r0, [sp, #0]
    6644:	e002      	b.n	664c <xTaskGetSchedulerState+0x30>
    6646:	2000      	movs	r0, #0
    6648:	9000      	str	r0, [sp, #0]
    664a:	e7ff      	b.n	664c <xTaskGetSchedulerState+0x30>
    664c:	9800      	ldr	r0, [sp, #0]
    664e:	9001      	str	r0, [sp, #4]
    6650:	e7ff      	b.n	6652 <xTaskGetSchedulerState+0x36>
    6652:	9801      	ldr	r0, [sp, #4]
    6654:	b002      	add	sp, #8
    6656:	4770      	bx	lr

00006658 <prvInitialiseTaskLists>:
    6658:	b580      	push	{r7, lr}
    665a:	466f      	mov	r7, sp
    665c:	b084      	sub	sp, #16
    665e:	2000      	movs	r0, #0
    6660:	9003      	str	r0, [sp, #12]
    6662:	e7ff      	b.n	6664 <prvInitialiseTaskLists+0xc>
    6664:	9803      	ldr	r0, [sp, #12]
    6666:	9002      	str	r0, [sp, #8]
    6668:	2804      	cmp	r0, #4
    666a:	d810      	bhi.n	668e <prvInitialiseTaskLists+0x36>
    666c:	e7ff      	b.n	666e <prvInitialiseTaskLists+0x16>
    666e:	9802      	ldr	r0, [sp, #8]
    6670:	eb00 0180 	add.w	r1, r0, r0, lsl #2
    6674:	f240 5058 	movw	r0, #1368	; 0x558
    6678:	f2c2 0000 	movt	r0, #8192	; 0x2000
    667c:	eb00 0081 	add.w	r0, r0, r1, lsl #2
    6680:	f7fe fe28 	bl	52d4 <vListInitialise>
    6684:	e7ff      	b.n	6686 <prvInitialiseTaskLists+0x2e>
    6686:	9802      	ldr	r0, [sp, #8]
    6688:	3001      	adds	r0, #1
    668a:	9003      	str	r0, [sp, #12]
    668c:	e7ea      	b.n	6664 <prvInitialiseTaskLists+0xc>
    668e:	f240 50e8 	movw	r0, #1512	; 0x5e8
    6692:	f2c2 0000 	movt	r0, #8192	; 0x2000
    6696:	9000      	str	r0, [sp, #0]
    6698:	f7fe fe1c 	bl	52d4 <vListInitialise>
    669c:	f240 50fc 	movw	r0, #1532	; 0x5fc
    66a0:	f2c2 0000 	movt	r0, #8192	; 0x2000
    66a4:	9001      	str	r0, [sp, #4]
    66a6:	f7fe fe15 	bl	52d4 <vListInitialise>
    66aa:	f240 50c4 	movw	r0, #1476	; 0x5c4
    66ae:	f2c2 0000 	movt	r0, #8192	; 0x2000
    66b2:	f7fe fe0f 	bl	52d4 <vListInitialise>
    66b6:	f240 5014 	movw	r0, #1300	; 0x514
    66ba:	f2c2 0000 	movt	r0, #8192	; 0x2000
    66be:	f7fe fe09 	bl	52d4 <vListInitialise>
    66c2:	f240 5044 	movw	r0, #1348	; 0x544
    66c6:	f2c2 0000 	movt	r0, #8192	; 0x2000
    66ca:	f7fe fe03 	bl	52d4 <vListInitialise>
    66ce:	9900      	ldr	r1, [sp, #0]
    66d0:	9801      	ldr	r0, [sp, #4]
    66d2:	f240 523c 	movw	r2, #1340	; 0x53c
    66d6:	f2c2 0200 	movt	r2, #8192	; 0x2000
    66da:	6011      	str	r1, [r2, #0]
    66dc:	f240 5140 	movw	r1, #1344	; 0x540
    66e0:	f2c2 0100 	movt	r1, #8192	; 0x2000
    66e4:	6008      	str	r0, [r1, #0]
    66e6:	b004      	add	sp, #16
    66e8:	bd80      	pop	{r7, pc}

000066ea <prvCheckTasksWaitingTermination>:
    66ea:	b580      	push	{r7, lr}
    66ec:	466f      	mov	r7, sp
    66ee:	b082      	sub	sp, #8
    66f0:	e7ff      	b.n	66f2 <prvCheckTasksWaitingTermination+0x8>
    66f2:	f240 5028 	movw	r0, #1320	; 0x528
    66f6:	f2c2 0000 	movt	r0, #8192	; 0x2000
    66fa:	6800      	ldr	r0, [r0, #0]
    66fc:	b300      	cbz	r0, 6740 <prvCheckTasksWaitingTermination+0x56>
    66fe:	e7ff      	b.n	6700 <prvCheckTasksWaitingTermination+0x16>
    6700:	f7fe fc69 	bl	4fd6 <vPortEnterCritical>
    6704:	f240 5014 	movw	r0, #1300	; 0x514
    6708:	f2c2 0000 	movt	r0, #8192	; 0x2000
    670c:	68c0      	ldr	r0, [r0, #12]
    670e:	68c0      	ldr	r0, [r0, #12]
    6710:	9001      	str	r0, [sp, #4]
    6712:	3004      	adds	r0, #4
    6714:	f7fe fe1d 	bl	5352 <uxListRemove>
    6718:	f240 512c 	movw	r1, #1324	; 0x52c
    671c:	f2c2 0100 	movt	r1, #8192	; 0x2000
    6720:	6808      	ldr	r0, [r1, #0]
    6722:	3801      	subs	r0, #1
    6724:	6008      	str	r0, [r1, #0]
    6726:	f240 5128 	movw	r1, #1320	; 0x528
    672a:	f2c2 0100 	movt	r1, #8192	; 0x2000
    672e:	6808      	ldr	r0, [r1, #0]
    6730:	3801      	subs	r0, #1
    6732:	6008      	str	r0, [r1, #0]
    6734:	f7fe fc5f 	bl	4ff6 <vPortExitCritical>
    6738:	9801      	ldr	r0, [sp, #4]
    673a:	f7ff fa72 	bl	5c22 <prvDeleteTCB>
    673e:	e7d8      	b.n	66f2 <prvCheckTasksWaitingTermination+0x8>
    6740:	b002      	add	sp, #8
    6742:	bd80      	pop	{r7, pc}

00006744 <xTimerCreateTimerTask>:
    6744:	b580      	push	{r7, lr}
    6746:	466f      	mov	r7, sp
    6748:	b084      	sub	sp, #16
    674a:	f000 f82b 	bl	67a4 <prvCheckForValidListAndQueue>
    674e:	f240 6010 	movw	r0, #1552	; 0x610
    6752:	f2c2 0000 	movt	r0, #8192	; 0x2000
    6756:	6800      	ldr	r0, [r0, #0]
    6758:	b1b0      	cbz	r0, 6788 <xTimerCreateTimerTask+0x44>
    675a:	e7ff      	b.n	675c <xTimerCreateTimerTask+0x18>
    675c:	f240 6014 	movw	r0, #1556	; 0x614
    6760:	f2c2 0000 	movt	r0, #8192	; 0x2000
    6764:	4669      	mov	r1, sp
    6766:	6048      	str	r0, [r1, #4]
    6768:	2004      	movs	r0, #4
    676a:	6008      	str	r0, [r1, #0]
    676c:	f646 0033 	movw	r0, #26675	; 0x6833
    6770:	f2c0 0000 	movt	r0, #0
    6774:	f249 2135 	movw	r1, #37429	; 0x9235
    6778:	f2c0 0100 	movt	r1, #0
    677c:	2280      	movs	r2, #128	; 0x80
    677e:	2300      	movs	r3, #0
    6780:	f7ff f8bd 	bl	58fe <xTaskCreate>
    6784:	9003      	str	r0, [sp, #12]
    6786:	e002      	b.n	678e <xTimerCreateTimerTask+0x4a>
    6788:	2000      	movs	r0, #0
    678a:	9003      	str	r0, [sp, #12]
    678c:	e7ff      	b.n	678e <xTimerCreateTimerTask+0x4a>
    678e:	9803      	ldr	r0, [sp, #12]
    6790:	9002      	str	r0, [sp, #8]
    6792:	b920      	cbnz	r0, 679e <xTimerCreateTimerTask+0x5a>
    6794:	e7ff      	b.n	6796 <xTimerCreateTimerTask+0x52>
    6796:	f7fe fd3d 	bl	5214 <ulSetInterruptMask>
    679a:	e7ff      	b.n	679c <xTimerCreateTimerTask+0x58>
    679c:	e7fe      	b.n	679c <xTimerCreateTimerTask+0x58>
    679e:	9802      	ldr	r0, [sp, #8]
    67a0:	b004      	add	sp, #16
    67a2:	bd80      	pop	{r7, pc}

000067a4 <prvCheckForValidListAndQueue>:
    67a4:	b580      	push	{r7, lr}
    67a6:	466f      	mov	r7, sp
    67a8:	b082      	sub	sp, #8
    67aa:	f7fe fc14 	bl	4fd6 <vPortEnterCritical>
    67ae:	f240 6010 	movw	r0, #1552	; 0x610
    67b2:	f2c2 0000 	movt	r0, #8192	; 0x2000
    67b6:	6800      	ldr	r0, [r0, #0]
    67b8:	bbb0      	cbnz	r0, 6828 <prvCheckForValidListAndQueue+0x84>
    67ba:	e7ff      	b.n	67bc <prvCheckForValidListAndQueue+0x18>
    67bc:	f240 6024 	movw	r0, #1572	; 0x624
    67c0:	f2c2 0000 	movt	r0, #8192	; 0x2000
    67c4:	9000      	str	r0, [sp, #0]
    67c6:	f7fe fd85 	bl	52d4 <vListInitialise>
    67ca:	f240 6038 	movw	r0, #1592	; 0x638
    67ce:	f2c2 0000 	movt	r0, #8192	; 0x2000
    67d2:	9001      	str	r0, [sp, #4]
    67d4:	f7fe fd7e 	bl	52d4 <vListInitialise>
    67d8:	9900      	ldr	r1, [sp, #0]
    67da:	9801      	ldr	r0, [sp, #4]
    67dc:	f240 6218 	movw	r2, #1560	; 0x618
    67e0:	f2c2 0200 	movt	r2, #8192	; 0x2000
    67e4:	6011      	str	r1, [r2, #0]
    67e6:	f240 611c 	movw	r1, #1564	; 0x61c
    67ea:	f2c2 0100 	movt	r1, #8192	; 0x2000
    67ee:	6008      	str	r0, [r1, #0]
    67f0:	200a      	movs	r0, #10
    67f2:	2110      	movs	r1, #16
    67f4:	2200      	movs	r2, #0
    67f6:	f7fe fe34 	bl	5462 <xQueueGenericCreate>
    67fa:	4601      	mov	r1, r0
    67fc:	f240 6010 	movw	r0, #1552	; 0x610
    6800:	f2c2 0000 	movt	r0, #8192	; 0x2000
    6804:	6001      	str	r1, [r0, #0]
    6806:	6800      	ldr	r0, [r0, #0]
    6808:	b160      	cbz	r0, 6824 <prvCheckForValidListAndQueue+0x80>
    680a:	e7ff      	b.n	680c <prvCheckForValidListAndQueue+0x68>
    680c:	f240 6010 	movw	r0, #1552	; 0x610
    6810:	f2c2 0000 	movt	r0, #8192	; 0x2000
    6814:	6800      	ldr	r0, [r0, #0]
    6816:	f249 213d 	movw	r1, #37437	; 0x923d
    681a:	f2c0 0100 	movt	r1, #0
    681e:	f7fe ffd9 	bl	57d4 <vQueueAddToRegistry>
    6822:	e000      	b.n	6826 <prvCheckForValidListAndQueue+0x82>
    6824:	e7ff      	b.n	6826 <prvCheckForValidListAndQueue+0x82>
    6826:	e000      	b.n	682a <prvCheckForValidListAndQueue+0x86>
    6828:	e7ff      	b.n	682a <prvCheckForValidListAndQueue+0x86>
    682a:	f7fe fbe4 	bl	4ff6 <vPortExitCritical>
    682e:	b002      	add	sp, #8
    6830:	bd80      	pop	{r7, pc}

00006832 <prvTimerTask>:
    6832:	b580      	push	{r7, lr}
    6834:	466f      	mov	r7, sp
    6836:	b082      	sub	sp, #8
    6838:	e7ff      	b.n	683a <prvTimerTask+0x8>
    683a:	a801      	add	r0, sp, #4
    683c:	f000 f806 	bl	684c <prvGetNextExpireTime>
    6840:	9901      	ldr	r1, [sp, #4]
    6842:	f000 f820 	bl	6886 <prvProcessTimerOrBlockTask>
    6846:	f000 f865 	bl	6914 <prvProcessReceivedCommands>
    684a:	e7f6      	b.n	683a <prvTimerTask+0x8>

0000684c <prvGetNextExpireTime>:
    684c:	b081      	sub	sp, #4
    684e:	f240 6118 	movw	r1, #1560	; 0x618
    6852:	f2c2 0100 	movt	r1, #8192	; 0x2000
    6856:	6809      	ldr	r1, [r1, #0]
    6858:	6809      	ldr	r1, [r1, #0]
    685a:	fab1 f181 	clz	r1, r1
    685e:	0949      	lsrs	r1, r1, #5
    6860:	6001      	str	r1, [r0, #0]
    6862:	6800      	ldr	r0, [r0, #0]
    6864:	b948      	cbnz	r0, 687a <prvGetNextExpireTime+0x2e>
    6866:	e7ff      	b.n	6868 <prvGetNextExpireTime+0x1c>
    6868:	f240 6018 	movw	r0, #1560	; 0x618
    686c:	f2c2 0000 	movt	r0, #8192	; 0x2000
    6870:	6800      	ldr	r0, [r0, #0]
    6872:	68c0      	ldr	r0, [r0, #12]
    6874:	6800      	ldr	r0, [r0, #0]
    6876:	9000      	str	r0, [sp, #0]
    6878:	e002      	b.n	6880 <prvGetNextExpireTime+0x34>
    687a:	2000      	movs	r0, #0
    687c:	9000      	str	r0, [sp, #0]
    687e:	e7ff      	b.n	6880 <prvGetNextExpireTime+0x34>
    6880:	9800      	ldr	r0, [sp, #0]
    6882:	b001      	add	sp, #4
    6884:	4770      	bx	lr

00006886 <prvProcessTimerOrBlockTask>:
    6886:	b580      	push	{r7, lr}
    6888:	466f      	mov	r7, sp
    688a:	b086      	sub	sp, #24
    688c:	9102      	str	r1, [sp, #8]
    688e:	9003      	str	r0, [sp, #12]
    6890:	f7ff f9d3 	bl	5c3a <vTaskSuspendAll>
    6894:	a805      	add	r0, sp, #20
    6896:	f000 f8eb 	bl	6a70 <prvSampleTimeNow>
    689a:	9004      	str	r0, [sp, #16]
    689c:	9805      	ldr	r0, [sp, #20]
    689e:	bb98      	cbnz	r0, 6908 <prvProcessTimerOrBlockTask+0x82>
    68a0:	e7ff      	b.n	68a2 <prvProcessTimerOrBlockTask+0x1c>
    68a2:	9802      	ldr	r0, [sp, #8]
    68a4:	b960      	cbnz	r0, 68c0 <prvProcessTimerOrBlockTask+0x3a>
    68a6:	e7ff      	b.n	68a8 <prvProcessTimerOrBlockTask+0x22>
    68a8:	9803      	ldr	r0, [sp, #12]
    68aa:	9904      	ldr	r1, [sp, #16]
    68ac:	4288      	cmp	r0, r1
    68ae:	d807      	bhi.n	68c0 <prvProcessTimerOrBlockTask+0x3a>
    68b0:	e7ff      	b.n	68b2 <prvProcessTimerOrBlockTask+0x2c>
    68b2:	f7ff fa45 	bl	5d40 <xTaskResumeAll>
    68b6:	9904      	ldr	r1, [sp, #16]
    68b8:	9803      	ldr	r0, [sp, #12]
    68ba:	f000 f8fb 	bl	6ab4 <prvProcessExpiredTimer>
    68be:	e022      	b.n	6906 <prvProcessTimerOrBlockTask+0x80>
    68c0:	9802      	ldr	r0, [sp, #8]
    68c2:	9001      	str	r0, [sp, #4]
    68c4:	b158      	cbz	r0, 68de <prvProcessTimerOrBlockTask+0x58>
    68c6:	e7ff      	b.n	68c8 <prvProcessTimerOrBlockTask+0x42>
    68c8:	f240 601c 	movw	r0, #1564	; 0x61c
    68cc:	f2c2 0000 	movt	r0, #8192	; 0x2000
    68d0:	6800      	ldr	r0, [r0, #0]
    68d2:	6800      	ldr	r0, [r0, #0]
    68d4:	fab0 f080 	clz	r0, r0
    68d8:	0940      	lsrs	r0, r0, #5
    68da:	9001      	str	r0, [sp, #4]
    68dc:	e7ff      	b.n	68de <prvProcessTimerOrBlockTask+0x58>
    68de:	9903      	ldr	r1, [sp, #12]
    68e0:	9b04      	ldr	r3, [sp, #16]
    68e2:	9a01      	ldr	r2, [sp, #4]
    68e4:	f240 6010 	movw	r0, #1552	; 0x610
    68e8:	f2c2 0000 	movt	r0, #8192	; 0x2000
    68ec:	6800      	ldr	r0, [r0, #0]
    68ee:	1ac9      	subs	r1, r1, r3
    68f0:	f7fe ffd4 	bl	589c <vQueueWaitForMessageRestricted>
    68f4:	f7ff fa24 	bl	5d40 <xTaskResumeAll>
    68f8:	b918      	cbnz	r0, 6902 <prvProcessTimerOrBlockTask+0x7c>
    68fa:	e7ff      	b.n	68fc <prvProcessTimerOrBlockTask+0x76>
    68fc:	f7fe fb5f 	bl	4fbe <vPortYield>
    6900:	e000      	b.n	6904 <prvProcessTimerOrBlockTask+0x7e>
    6902:	e7ff      	b.n	6904 <prvProcessTimerOrBlockTask+0x7e>
    6904:	e7ff      	b.n	6906 <prvProcessTimerOrBlockTask+0x80>
    6906:	e002      	b.n	690e <prvProcessTimerOrBlockTask+0x88>
    6908:	f7ff fa1a 	bl	5d40 <xTaskResumeAll>
    690c:	e7ff      	b.n	690e <prvProcessTimerOrBlockTask+0x88>
    690e:	b006      	add	sp, #24
    6910:	bd80      	pop	{r7, pc}
	...

00006914 <prvProcessReceivedCommands>:
    6914:	b580      	push	{r7, lr}
    6916:	466f      	mov	r7, sp
    6918:	b08a      	sub	sp, #40	; 0x28
    691a:	e7ff      	b.n	691c <prvProcessReceivedCommands+0x8>
    691c:	f240 6010 	movw	r0, #1552	; 0x610
    6920:	f2c2 0000 	movt	r0, #8192	; 0x2000
    6924:	6800      	ldr	r0, [r0, #0]
    6926:	a906      	add	r1, sp, #24
    6928:	2200      	movs	r2, #0
    692a:	f7fe fe51 	bl	55d0 <xQueueReceive>
    692e:	2800      	cmp	r0, #0
    6930:	f000 809c 	beq.w	6a6c <prvProcessReceivedCommands+0x158>
    6934:	e7ff      	b.n	6936 <prvProcessReceivedCommands+0x22>
    6936:	9806      	ldr	r0, [sp, #24]
    6938:	f1b0 3fff 	cmp.w	r0, #4294967295	; 0xffffffff
    693c:	dc10      	bgt.n	6960 <prvProcessReceivedCommands+0x4c>
    693e:	e7ff      	b.n	6940 <prvProcessReceivedCommands+0x2c>
    6940:	a806      	add	r0, sp, #24
    6942:	3004      	adds	r0, #4
    6944:	4601      	mov	r1, r0
    6946:	9104      	str	r1, [sp, #16]
    6948:	b920      	cbnz	r0, 6954 <prvProcessReceivedCommands+0x40>
    694a:	e7ff      	b.n	694c <prvProcessReceivedCommands+0x38>
    694c:	f7fe fc62 	bl	5214 <ulSetInterruptMask>
    6950:	e7ff      	b.n	6952 <prvProcessReceivedCommands+0x3e>
    6952:	e7fe      	b.n	6952 <prvProcessReceivedCommands+0x3e>
    6954:	9904      	ldr	r1, [sp, #16]
    6956:	680a      	ldr	r2, [r1, #0]
    6958:	6848      	ldr	r0, [r1, #4]
    695a:	6889      	ldr	r1, [r1, #8]
    695c:	4790      	blx	r2
    695e:	e000      	b.n	6962 <prvProcessReceivedCommands+0x4e>
    6960:	e7ff      	b.n	6962 <prvProcessReceivedCommands+0x4e>
    6962:	9806      	ldr	r0, [sp, #24]
    6964:	2800      	cmp	r0, #0
    6966:	f100 8080 	bmi.w	6a6a <prvProcessReceivedCommands+0x156>
    696a:	e7ff      	b.n	696c <prvProcessReceivedCommands+0x58>
    696c:	9808      	ldr	r0, [sp, #32]
    696e:	9003      	str	r0, [sp, #12]
    6970:	6940      	ldr	r0, [r0, #20]
    6972:	b128      	cbz	r0, 6980 <prvProcessReceivedCommands+0x6c>
    6974:	e7ff      	b.n	6976 <prvProcessReceivedCommands+0x62>
    6976:	9803      	ldr	r0, [sp, #12]
    6978:	3004      	adds	r0, #4
    697a:	f7fe fcea 	bl	5352 <uxListRemove>
    697e:	e000      	b.n	6982 <prvProcessReceivedCommands+0x6e>
    6980:	e7ff      	b.n	6982 <prvProcessReceivedCommands+0x6e>
    6982:	a805      	add	r0, sp, #20
    6984:	f000 f874 	bl	6a70 <prvSampleTimeNow>
    6988:	9001      	str	r0, [sp, #4]
    698a:	9806      	ldr	r0, [sp, #24]
    698c:	3801      	subs	r0, #1
    698e:	4601      	mov	r1, r0
    6990:	9102      	str	r1, [sp, #8]
    6992:	2808      	cmp	r0, #8
    6994:	d867      	bhi.n	6a66 <prvProcessReceivedCommands+0x152>
    6996:	9902      	ldr	r1, [sp, #8]
    6998:	e8df f001 	tbb	[pc, r1]
    699c:	39310505 	.word	0x39310505
    69a0:	31050551 	.word	0x31050551
    69a4:	0039      	.short	0x0039
    69a6:	9a01      	ldr	r2, [sp, #4]
    69a8:	9803      	ldr	r0, [sp, #12]
    69aa:	f890 1028 	ldrb.w	r1, [r0, #40]	; 0x28
    69ae:	f041 0101 	orr.w	r1, r1, #1
    69b2:	f880 1028 	strb.w	r1, [r0, #40]	; 0x28
    69b6:	9b07      	ldr	r3, [sp, #28]
    69b8:	6981      	ldr	r1, [r0, #24]
    69ba:	4419      	add	r1, r3
    69bc:	f000 f8e5 	bl	6b8a <prvInsertTimerInActiveList>
    69c0:	b1d8      	cbz	r0, 69fa <prvProcessReceivedCommands+0xe6>
    69c2:	e7ff      	b.n	69c4 <prvProcessReceivedCommands+0xb0>
    69c4:	9803      	ldr	r0, [sp, #12]
    69c6:	f890 0028 	ldrb.w	r0, [r0, #40]	; 0x28
    69ca:	0740      	lsls	r0, r0, #29
    69cc:	2800      	cmp	r0, #0
    69ce:	d508      	bpl.n	69e2 <prvProcessReceivedCommands+0xce>
    69d0:	e7ff      	b.n	69d2 <prvProcessReceivedCommands+0xbe>
    69d2:	9a01      	ldr	r2, [sp, #4]
    69d4:	9803      	ldr	r0, [sp, #12]
    69d6:	9907      	ldr	r1, [sp, #28]
    69d8:	6983      	ldr	r3, [r0, #24]
    69da:	4419      	add	r1, r3
    69dc:	f000 f8b8 	bl	6b50 <prvReloadTimer>
    69e0:	e007      	b.n	69f2 <prvProcessReceivedCommands+0xde>
    69e2:	9903      	ldr	r1, [sp, #12]
    69e4:	f891 0028 	ldrb.w	r0, [r1, #40]	; 0x28
    69e8:	f000 00fe 	and.w	r0, r0, #254	; 0xfe
    69ec:	f881 0028 	strb.w	r0, [r1, #40]	; 0x28
    69f0:	e7ff      	b.n	69f2 <prvProcessReceivedCommands+0xde>
    69f2:	9803      	ldr	r0, [sp, #12]
    69f4:	6a01      	ldr	r1, [r0, #32]
    69f6:	4788      	blx	r1
    69f8:	e000      	b.n	69fc <prvProcessReceivedCommands+0xe8>
    69fa:	e7ff      	b.n	69fc <prvProcessReceivedCommands+0xe8>
    69fc:	e034      	b.n	6a68 <prvProcessReceivedCommands+0x154>
    69fe:	9903      	ldr	r1, [sp, #12]
    6a00:	f891 0028 	ldrb.w	r0, [r1, #40]	; 0x28
    6a04:	f000 00fe 	and.w	r0, r0, #254	; 0xfe
    6a08:	f881 0028 	strb.w	r0, [r1, #40]	; 0x28
    6a0c:	e02c      	b.n	6a68 <prvProcessReceivedCommands+0x154>
    6a0e:	9803      	ldr	r0, [sp, #12]
    6a10:	f890 1028 	ldrb.w	r1, [r0, #40]	; 0x28
    6a14:	f041 0101 	orr.w	r1, r1, #1
    6a18:	f880 1028 	strb.w	r1, [r0, #40]	; 0x28
    6a1c:	9907      	ldr	r1, [sp, #28]
    6a1e:	6181      	str	r1, [r0, #24]
    6a20:	6980      	ldr	r0, [r0, #24]
    6a22:	b920      	cbnz	r0, 6a2e <prvProcessReceivedCommands+0x11a>
    6a24:	e7ff      	b.n	6a26 <prvProcessReceivedCommands+0x112>
    6a26:	f7fe fbf5 	bl	5214 <ulSetInterruptMask>
    6a2a:	e7ff      	b.n	6a2c <prvProcessReceivedCommands+0x118>
    6a2c:	e7fe      	b.n	6a2c <prvProcessReceivedCommands+0x118>
    6a2e:	9b01      	ldr	r3, [sp, #4]
    6a30:	9803      	ldr	r0, [sp, #12]
    6a32:	6981      	ldr	r1, [r0, #24]
    6a34:	4419      	add	r1, r3
    6a36:	461a      	mov	r2, r3
    6a38:	f000 f8a7 	bl	6b8a <prvInsertTimerInActiveList>
    6a3c:	e014      	b.n	6a68 <prvProcessReceivedCommands+0x154>
    6a3e:	9803      	ldr	r0, [sp, #12]
    6a40:	f890 0028 	ldrb.w	r0, [r0, #40]	; 0x28
    6a44:	0780      	lsls	r0, r0, #30
    6a46:	2800      	cmp	r0, #0
    6a48:	d404      	bmi.n	6a54 <prvProcessReceivedCommands+0x140>
    6a4a:	e7ff      	b.n	6a4c <prvProcessReceivedCommands+0x138>
    6a4c:	9803      	ldr	r0, [sp, #12]
    6a4e:	f000 fa66 	bl	6f1e <vPortFree>
    6a52:	e007      	b.n	6a64 <prvProcessReceivedCommands+0x150>
    6a54:	9903      	ldr	r1, [sp, #12]
    6a56:	f891 0028 	ldrb.w	r0, [r1, #40]	; 0x28
    6a5a:	f000 00fe 	and.w	r0, r0, #254	; 0xfe
    6a5e:	f881 0028 	strb.w	r0, [r1, #40]	; 0x28
    6a62:	e7ff      	b.n	6a64 <prvProcessReceivedCommands+0x150>
    6a64:	e000      	b.n	6a68 <prvProcessReceivedCommands+0x154>
    6a66:	e7ff      	b.n	6a68 <prvProcessReceivedCommands+0x154>
    6a68:	e7ff      	b.n	6a6a <prvProcessReceivedCommands+0x156>
    6a6a:	e757      	b.n	691c <prvProcessReceivedCommands+0x8>
    6a6c:	b00a      	add	sp, #40	; 0x28
    6a6e:	bd80      	pop	{r7, pc}

00006a70 <prvSampleTimeNow>:
    6a70:	b580      	push	{r7, lr}
    6a72:	466f      	mov	r7, sp
    6a74:	b082      	sub	sp, #8
    6a76:	9000      	str	r0, [sp, #0]
    6a78:	f7ff fc4a 	bl	6310 <xTaskGetTickCount>
    6a7c:	4601      	mov	r1, r0
    6a7e:	9101      	str	r1, [sp, #4]
    6a80:	f240 6120 	movw	r1, #1568	; 0x620
    6a84:	f2c2 0100 	movt	r1, #8192	; 0x2000
    6a88:	6809      	ldr	r1, [r1, #0]
    6a8a:	4288      	cmp	r0, r1
    6a8c:	d206      	bcs.n	6a9c <prvSampleTimeNow+0x2c>
    6a8e:	e7ff      	b.n	6a90 <prvSampleTimeNow+0x20>
    6a90:	f000 f83a 	bl	6b08 <prvSwitchTimerLists>
    6a94:	9900      	ldr	r1, [sp, #0]
    6a96:	2001      	movs	r0, #1
    6a98:	6008      	str	r0, [r1, #0]
    6a9a:	e003      	b.n	6aa4 <prvSampleTimeNow+0x34>
    6a9c:	9900      	ldr	r1, [sp, #0]
    6a9e:	2000      	movs	r0, #0
    6aa0:	6008      	str	r0, [r1, #0]
    6aa2:	e7ff      	b.n	6aa4 <prvSampleTimeNow+0x34>
    6aa4:	9801      	ldr	r0, [sp, #4]
    6aa6:	f240 6120 	movw	r1, #1568	; 0x620
    6aaa:	f2c2 0100 	movt	r1, #8192	; 0x2000
    6aae:	6008      	str	r0, [r1, #0]
    6ab0:	b002      	add	sp, #8
    6ab2:	bd80      	pop	{r7, pc}

00006ab4 <prvProcessExpiredTimer>:
    6ab4:	b580      	push	{r7, lr}
    6ab6:	466f      	mov	r7, sp
    6ab8:	b084      	sub	sp, #16
    6aba:	9101      	str	r1, [sp, #4]
    6abc:	9002      	str	r0, [sp, #8]
    6abe:	f240 6018 	movw	r0, #1560	; 0x618
    6ac2:	f2c2 0000 	movt	r0, #8192	; 0x2000
    6ac6:	6800      	ldr	r0, [r0, #0]
    6ac8:	68c0      	ldr	r0, [r0, #12]
    6aca:	68c0      	ldr	r0, [r0, #12]
    6acc:	9003      	str	r0, [sp, #12]
    6ace:	3004      	adds	r0, #4
    6ad0:	f7fe fc3f 	bl	5352 <uxListRemove>
    6ad4:	9803      	ldr	r0, [sp, #12]
    6ad6:	f890 0028 	ldrb.w	r0, [r0, #40]	; 0x28
    6ada:	0740      	lsls	r0, r0, #29
    6adc:	2800      	cmp	r0, #0
    6ade:	d506      	bpl.n	6aee <prvProcessExpiredTimer+0x3a>
    6ae0:	e7ff      	b.n	6ae2 <prvProcessExpiredTimer+0x2e>
    6ae2:	9a01      	ldr	r2, [sp, #4]
    6ae4:	9902      	ldr	r1, [sp, #8]
    6ae6:	9803      	ldr	r0, [sp, #12]
    6ae8:	f000 f832 	bl	6b50 <prvReloadTimer>
    6aec:	e007      	b.n	6afe <prvProcessExpiredTimer+0x4a>
    6aee:	9903      	ldr	r1, [sp, #12]
    6af0:	f891 0028 	ldrb.w	r0, [r1, #40]	; 0x28
    6af4:	f000 00fe 	and.w	r0, r0, #254	; 0xfe
    6af8:	f881 0028 	strb.w	r0, [r1, #40]	; 0x28
    6afc:	e7ff      	b.n	6afe <prvProcessExpiredTimer+0x4a>
    6afe:	9803      	ldr	r0, [sp, #12]
    6b00:	6a01      	ldr	r1, [r0, #32]
    6b02:	4788      	blx	r1
    6b04:	b004      	add	sp, #16
    6b06:	bd80      	pop	{r7, pc}

00006b08 <prvSwitchTimerLists>:
    6b08:	b580      	push	{r7, lr}
    6b0a:	466f      	mov	r7, sp
    6b0c:	e7ff      	b.n	6b0e <prvSwitchTimerLists+0x6>
    6b0e:	f240 6018 	movw	r0, #1560	; 0x618
    6b12:	f2c2 0000 	movt	r0, #8192	; 0x2000
    6b16:	6800      	ldr	r0, [r0, #0]
    6b18:	6800      	ldr	r0, [r0, #0]
    6b1a:	b160      	cbz	r0, 6b36 <prvSwitchTimerLists+0x2e>
    6b1c:	e7ff      	b.n	6b1e <prvSwitchTimerLists+0x16>
    6b1e:	f240 6018 	movw	r0, #1560	; 0x618
    6b22:	f2c2 0000 	movt	r0, #8192	; 0x2000
    6b26:	6800      	ldr	r0, [r0, #0]
    6b28:	68c0      	ldr	r0, [r0, #12]
    6b2a:	6800      	ldr	r0, [r0, #0]
    6b2c:	f04f 31ff 	mov.w	r1, #4294967295	; 0xffffffff
    6b30:	f7ff ffc0 	bl	6ab4 <prvProcessExpiredTimer>
    6b34:	e7eb      	b.n	6b0e <prvSwitchTimerLists+0x6>
    6b36:	f240 6318 	movw	r3, #1560	; 0x618
    6b3a:	f2c2 0300 	movt	r3, #8192	; 0x2000
    6b3e:	6818      	ldr	r0, [r3, #0]
    6b40:	f240 611c 	movw	r1, #1564	; 0x61c
    6b44:	f2c2 0100 	movt	r1, #8192	; 0x2000
    6b48:	680a      	ldr	r2, [r1, #0]
    6b4a:	601a      	str	r2, [r3, #0]
    6b4c:	6008      	str	r0, [r1, #0]
    6b4e:	bd80      	pop	{r7, pc}

00006b50 <prvReloadTimer>:
    6b50:	b580      	push	{r7, lr}
    6b52:	466f      	mov	r7, sp
    6b54:	b086      	sub	sp, #24
    6b56:	9203      	str	r2, [sp, #12]
    6b58:	9004      	str	r0, [sp, #16]
    6b5a:	9105      	str	r1, [sp, #20]
    6b5c:	e7ff      	b.n	6b5e <prvReloadTimer+0xe>
    6b5e:	9a03      	ldr	r2, [sp, #12]
    6b60:	9804      	ldr	r0, [sp, #16]
    6b62:	9b05      	ldr	r3, [sp, #20]
    6b64:	9302      	str	r3, [sp, #8]
    6b66:	6981      	ldr	r1, [r0, #24]
    6b68:	4419      	add	r1, r3
    6b6a:	f000 f80e 	bl	6b8a <prvInsertTimerInActiveList>
    6b6e:	b150      	cbz	r0, 6b86 <prvReloadTimer+0x36>
    6b70:	e7ff      	b.n	6b72 <prvReloadTimer+0x22>
    6b72:	9804      	ldr	r0, [sp, #16]
    6b74:	9a02      	ldr	r2, [sp, #8]
    6b76:	6983      	ldr	r3, [r0, #24]
    6b78:	6a01      	ldr	r1, [r0, #32]
    6b7a:	441a      	add	r2, r3
    6b7c:	9201      	str	r2, [sp, #4]
    6b7e:	4788      	blx	r1
    6b80:	9801      	ldr	r0, [sp, #4]
    6b82:	9005      	str	r0, [sp, #20]
    6b84:	e7eb      	b.n	6b5e <prvReloadTimer+0xe>
    6b86:	b006      	add	sp, #24
    6b88:	bd80      	pop	{r7, pc}

00006b8a <prvInsertTimerInActiveList>:
    6b8a:	b580      	push	{r7, lr}
    6b8c:	466f      	mov	r7, sp
    6b8e:	b088      	sub	sp, #32
    6b90:	9304      	str	r3, [sp, #16]
    6b92:	9205      	str	r2, [sp, #20]
    6b94:	9106      	str	r1, [sp, #24]
    6b96:	9007      	str	r0, [sp, #28]
    6b98:	6041      	str	r1, [r0, #4]
    6b9a:	6100      	str	r0, [r0, #16]
    6b9c:	4291      	cmp	r1, r2
    6b9e:	d81a      	bhi.n	6bd6 <prvInsertTimerInActiveList+0x4c>
    6ba0:	e7ff      	b.n	6ba2 <prvInsertTimerInActiveList+0x18>
    6ba2:	9907      	ldr	r1, [sp, #28]
    6ba4:	9805      	ldr	r0, [sp, #20]
    6ba6:	9a04      	ldr	r2, [sp, #16]
    6ba8:	1a80      	subs	r0, r0, r2
    6baa:	6989      	ldr	r1, [r1, #24]
    6bac:	4288      	cmp	r0, r1
    6bae:	d303      	bcc.n	6bb8 <prvInsertTimerInActiveList+0x2e>
    6bb0:	e7ff      	b.n	6bb2 <prvInsertTimerInActiveList+0x28>
    6bb2:	2001      	movs	r0, #1
    6bb4:	9003      	str	r0, [sp, #12]
    6bb6:	e00b      	b.n	6bd0 <prvInsertTimerInActiveList+0x46>
    6bb8:	9907      	ldr	r1, [sp, #28]
    6bba:	f240 601c 	movw	r0, #1564	; 0x61c
    6bbe:	f2c2 0000 	movt	r0, #8192	; 0x2000
    6bc2:	6800      	ldr	r0, [r0, #0]
    6bc4:	3104      	adds	r1, #4
    6bc6:	f7fe fb95 	bl	52f4 <vListInsert>
    6bca:	2000      	movs	r0, #0
    6bcc:	9003      	str	r0, [sp, #12]
    6bce:	e7ff      	b.n	6bd0 <prvInsertTimerInActiveList+0x46>
    6bd0:	9803      	ldr	r0, [sp, #12]
    6bd2:	9002      	str	r0, [sp, #8]
    6bd4:	e01b      	b.n	6c0e <prvInsertTimerInActiveList+0x84>
    6bd6:	9805      	ldr	r0, [sp, #20]
    6bd8:	9904      	ldr	r1, [sp, #16]
    6bda:	4288      	cmp	r0, r1
    6bdc:	d208      	bcs.n	6bf0 <prvInsertTimerInActiveList+0x66>
    6bde:	e7ff      	b.n	6be0 <prvInsertTimerInActiveList+0x56>
    6be0:	9806      	ldr	r0, [sp, #24]
    6be2:	9904      	ldr	r1, [sp, #16]
    6be4:	4288      	cmp	r0, r1
    6be6:	d303      	bcc.n	6bf0 <prvInsertTimerInActiveList+0x66>
    6be8:	e7ff      	b.n	6bea <prvInsertTimerInActiveList+0x60>
    6bea:	2001      	movs	r0, #1
    6bec:	9001      	str	r0, [sp, #4]
    6bee:	e00b      	b.n	6c08 <prvInsertTimerInActiveList+0x7e>
    6bf0:	9907      	ldr	r1, [sp, #28]
    6bf2:	f240 6018 	movw	r0, #1560	; 0x618
    6bf6:	f2c2 0000 	movt	r0, #8192	; 0x2000
    6bfa:	6800      	ldr	r0, [r0, #0]
    6bfc:	3104      	adds	r1, #4
    6bfe:	f7fe fb79 	bl	52f4 <vListInsert>
    6c02:	2000      	movs	r0, #0
    6c04:	9001      	str	r0, [sp, #4]
    6c06:	e7ff      	b.n	6c08 <prvInsertTimerInActiveList+0x7e>
    6c08:	9801      	ldr	r0, [sp, #4]
    6c0a:	9002      	str	r0, [sp, #8]
    6c0c:	e7ff      	b.n	6c0e <prvInsertTimerInActiveList+0x84>
    6c0e:	9802      	ldr	r0, [sp, #8]
    6c10:	b008      	add	sp, #32
    6c12:	bd80      	pop	{r7, pc}

00006c14 <pvPortMalloc>:
    6c14:	b580      	push	{r7, lr}
    6c16:	466f      	mov	r7, sp
    6c18:	b090      	sub	sp, #64	; 0x40
    6c1a:	900f      	str	r0, [sp, #60]	; 0x3c
    6c1c:	f7ff f80d 	bl	5c3a <vTaskSuspendAll>
    6c20:	f240 604c 	movw	r0, #1612	; 0x64c
    6c24:	f2c2 0000 	movt	r0, #8192	; 0x2000
    6c28:	6800      	ldr	r0, [r0, #0]
    6c2a:	b918      	cbnz	r0, 6c34 <pvPortMalloc+0x20>
    6c2c:	e7ff      	b.n	6c2e <pvPortMalloc+0x1a>
    6c2e:	f000 f8d1 	bl	6dd4 <prvHeapInit>
    6c32:	e000      	b.n	6c36 <pvPortMalloc+0x22>
    6c34:	e7ff      	b.n	6c36 <pvPortMalloc+0x22>
    6c36:	980f      	ldr	r0, [sp, #60]	; 0x3c
    6c38:	b1b0      	cbz	r0, 6c68 <pvPortMalloc+0x54>
    6c3a:	e7ff      	b.n	6c3c <pvPortMalloc+0x28>
    6c3c:	980f      	ldr	r0, [sp, #60]	; 0x3c
    6c3e:	f000 0107 	and.w	r1, r0, #7
    6c42:	f1c1 0110 	rsb	r1, r1, #16
    6c46:	460a      	mov	r2, r1
    6c48:	920e      	str	r2, [sp, #56]	; 0x38
    6c4a:	43c9      	mvns	r1, r1
    6c4c:	4288      	cmp	r0, r1
    6c4e:	d805      	bhi.n	6c5c <pvPortMalloc+0x48>
    6c50:	e7ff      	b.n	6c52 <pvPortMalloc+0x3e>
    6c52:	980f      	ldr	r0, [sp, #60]	; 0x3c
    6c54:	990e      	ldr	r1, [sp, #56]	; 0x38
    6c56:	4408      	add	r0, r1
    6c58:	900d      	str	r0, [sp, #52]	; 0x34
    6c5a:	e002      	b.n	6c62 <pvPortMalloc+0x4e>
    6c5c:	2000      	movs	r0, #0
    6c5e:	900d      	str	r0, [sp, #52]	; 0x34
    6c60:	e7ff      	b.n	6c62 <pvPortMalloc+0x4e>
    6c62:	980d      	ldr	r0, [sp, #52]	; 0x34
    6c64:	900c      	str	r0, [sp, #48]	; 0x30
    6c66:	e002      	b.n	6c6e <pvPortMalloc+0x5a>
    6c68:	980f      	ldr	r0, [sp, #60]	; 0x3c
    6c6a:	900c      	str	r0, [sp, #48]	; 0x30
    6c6c:	e7ff      	b.n	6c6e <pvPortMalloc+0x5a>
    6c6e:	980c      	ldr	r0, [sp, #48]	; 0x30
    6c70:	900b      	str	r0, [sp, #44]	; 0x2c
    6c72:	0fc0      	lsrs	r0, r0, #31
    6c74:	2800      	cmp	r0, #0
    6c76:	f040 809b 	bne.w	6db0 <pvPortMalloc+0x19c>
    6c7a:	e7ff      	b.n	6c7c <pvPortMalloc+0x68>
    6c7c:	980b      	ldr	r0, [sp, #44]	; 0x2c
    6c7e:	2800      	cmp	r0, #0
    6c80:	f000 8090 	beq.w	6da4 <pvPortMalloc+0x190>
    6c84:	e7ff      	b.n	6c86 <pvPortMalloc+0x72>
    6c86:	980b      	ldr	r0, [sp, #44]	; 0x2c
    6c88:	f240 6150 	movw	r1, #1616	; 0x650
    6c8c:	f2c2 0100 	movt	r1, #8192	; 0x2000
    6c90:	6809      	ldr	r1, [r1, #0]
    6c92:	4288      	cmp	r0, r1
    6c94:	f200 8086 	bhi.w	6da4 <pvPortMalloc+0x190>
    6c98:	e7ff      	b.n	6c9a <pvPortMalloc+0x86>
    6c9a:	f240 6154 	movw	r1, #1620	; 0x654
    6c9e:	f2c2 0100 	movt	r1, #8192	; 0x2000
    6ca2:	6808      	ldr	r0, [r1, #0]
    6ca4:	9109      	str	r1, [sp, #36]	; 0x24
    6ca6:	900a      	str	r0, [sp, #40]	; 0x28
    6ca8:	e7ff      	b.n	6caa <pvPortMalloc+0x96>
    6caa:	9a0b      	ldr	r2, [sp, #44]	; 0x2c
    6cac:	9909      	ldr	r1, [sp, #36]	; 0x24
    6cae:	980a      	ldr	r0, [sp, #40]	; 0x28
    6cb0:	9006      	str	r0, [sp, #24]
    6cb2:	9107      	str	r1, [sp, #28]
    6cb4:	6841      	ldr	r1, [r0, #4]
    6cb6:	2000      	movs	r0, #0
    6cb8:	4291      	cmp	r1, r2
    6cba:	9008      	str	r0, [sp, #32]
    6cbc:	d207      	bcs.n	6cce <pvPortMalloc+0xba>
    6cbe:	e7ff      	b.n	6cc0 <pvPortMalloc+0xac>
    6cc0:	9806      	ldr	r0, [sp, #24]
    6cc2:	6800      	ldr	r0, [r0, #0]
    6cc4:	2800      	cmp	r0, #0
    6cc6:	bf18      	it	ne
    6cc8:	2001      	movne	r0, #1
    6cca:	9008      	str	r0, [sp, #32]
    6ccc:	e7ff      	b.n	6cce <pvPortMalloc+0xba>
    6cce:	9808      	ldr	r0, [sp, #32]
    6cd0:	07c0      	lsls	r0, r0, #31
    6cd2:	b128      	cbz	r0, 6ce0 <pvPortMalloc+0xcc>
    6cd4:	e7ff      	b.n	6cd6 <pvPortMalloc+0xc2>
    6cd6:	9906      	ldr	r1, [sp, #24]
    6cd8:	6808      	ldr	r0, [r1, #0]
    6cda:	9109      	str	r1, [sp, #36]	; 0x24
    6cdc:	900a      	str	r0, [sp, #40]	; 0x28
    6cde:	e7e4      	b.n	6caa <pvPortMalloc+0x96>
    6ce0:	9806      	ldr	r0, [sp, #24]
    6ce2:	f240 614c 	movw	r1, #1612	; 0x64c
    6ce6:	f2c2 0100 	movt	r1, #8192	; 0x2000
    6cea:	6809      	ldr	r1, [r1, #0]
    6cec:	4288      	cmp	r0, r1
    6cee:	d053      	beq.n	6d98 <pvPortMalloc+0x184>
    6cf0:	e7ff      	b.n	6cf2 <pvPortMalloc+0xde>
    6cf2:	990b      	ldr	r1, [sp, #44]	; 0x2c
    6cf4:	9806      	ldr	r0, [sp, #24]
    6cf6:	9b07      	ldr	r3, [sp, #28]
    6cf8:	681a      	ldr	r2, [r3, #0]
    6cfa:	3208      	adds	r2, #8
    6cfc:	9205      	str	r2, [sp, #20]
    6cfe:	6802      	ldr	r2, [r0, #0]
    6d00:	601a      	str	r2, [r3, #0]
    6d02:	6840      	ldr	r0, [r0, #4]
    6d04:	1a40      	subs	r0, r0, r1
    6d06:	2811      	cmp	r0, #17
    6d08:	d316      	bcc.n	6d38 <pvPortMalloc+0x124>
    6d0a:	e7ff      	b.n	6d0c <pvPortMalloc+0xf8>
    6d0c:	9806      	ldr	r0, [sp, #24]
    6d0e:	990b      	ldr	r1, [sp, #44]	; 0x2c
    6d10:	4408      	add	r0, r1
    6d12:	4601      	mov	r1, r0
    6d14:	9104      	str	r1, [sp, #16]
    6d16:	0740      	lsls	r0, r0, #29
    6d18:	b120      	cbz	r0, 6d24 <pvPortMalloc+0x110>
    6d1a:	e7ff      	b.n	6d1c <pvPortMalloc+0x108>
    6d1c:	f7fe fa7a 	bl	5214 <ulSetInterruptMask>
    6d20:	e7ff      	b.n	6d22 <pvPortMalloc+0x10e>
    6d22:	e7fe      	b.n	6d22 <pvPortMalloc+0x10e>
    6d24:	9804      	ldr	r0, [sp, #16]
    6d26:	990b      	ldr	r1, [sp, #44]	; 0x2c
    6d28:	9a06      	ldr	r2, [sp, #24]
    6d2a:	6853      	ldr	r3, [r2, #4]
    6d2c:	1a5b      	subs	r3, r3, r1
    6d2e:	6043      	str	r3, [r0, #4]
    6d30:	6051      	str	r1, [r2, #4]
    6d32:	f000 f896 	bl	6e62 <prvInsertBlockIntoFreeList>
    6d36:	e000      	b.n	6d3a <pvPortMalloc+0x126>
    6d38:	e7ff      	b.n	6d3a <pvPortMalloc+0x126>
    6d3a:	9806      	ldr	r0, [sp, #24]
    6d3c:	6842      	ldr	r2, [r0, #4]
    6d3e:	f240 6050 	movw	r0, #1616	; 0x650
    6d42:	f2c2 0000 	movt	r0, #8192	; 0x2000
    6d46:	6801      	ldr	r1, [r0, #0]
    6d48:	1a89      	subs	r1, r1, r2
    6d4a:	6001      	str	r1, [r0, #0]
    6d4c:	6800      	ldr	r0, [r0, #0]
    6d4e:	f240 615c 	movw	r1, #1628	; 0x65c
    6d52:	f2c2 0100 	movt	r1, #8192	; 0x2000
    6d56:	6809      	ldr	r1, [r1, #0]
    6d58:	4288      	cmp	r0, r1
    6d5a:	d20b      	bcs.n	6d74 <pvPortMalloc+0x160>
    6d5c:	e7ff      	b.n	6d5e <pvPortMalloc+0x14a>
    6d5e:	f240 6050 	movw	r0, #1616	; 0x650
    6d62:	f2c2 0000 	movt	r0, #8192	; 0x2000
    6d66:	6800      	ldr	r0, [r0, #0]
    6d68:	f240 615c 	movw	r1, #1628	; 0x65c
    6d6c:	f2c2 0100 	movt	r1, #8192	; 0x2000
    6d70:	6008      	str	r0, [r1, #0]
    6d72:	e000      	b.n	6d76 <pvPortMalloc+0x162>
    6d74:	e7ff      	b.n	6d76 <pvPortMalloc+0x162>
    6d76:	9805      	ldr	r0, [sp, #20]
    6d78:	9a06      	ldr	r2, [sp, #24]
    6d7a:	6851      	ldr	r1, [r2, #4]
    6d7c:	f041 4100 	orr.w	r1, r1, #2147483648	; 0x80000000
    6d80:	6051      	str	r1, [r2, #4]
    6d82:	2100      	movs	r1, #0
    6d84:	6011      	str	r1, [r2, #0]
    6d86:	f240 6260 	movw	r2, #1632	; 0x660
    6d8a:	f2c2 0200 	movt	r2, #8192	; 0x2000
    6d8e:	6811      	ldr	r1, [r2, #0]
    6d90:	3101      	adds	r1, #1
    6d92:	6011      	str	r1, [r2, #0]
    6d94:	9003      	str	r0, [sp, #12]
    6d96:	e002      	b.n	6d9e <pvPortMalloc+0x18a>
    6d98:	2000      	movs	r0, #0
    6d9a:	9003      	str	r0, [sp, #12]
    6d9c:	e7ff      	b.n	6d9e <pvPortMalloc+0x18a>
    6d9e:	9803      	ldr	r0, [sp, #12]
    6da0:	9002      	str	r0, [sp, #8]
    6da2:	e002      	b.n	6daa <pvPortMalloc+0x196>
    6da4:	2000      	movs	r0, #0
    6da6:	9002      	str	r0, [sp, #8]
    6da8:	e7ff      	b.n	6daa <pvPortMalloc+0x196>
    6daa:	9802      	ldr	r0, [sp, #8]
    6dac:	9001      	str	r0, [sp, #4]
    6dae:	e002      	b.n	6db6 <pvPortMalloc+0x1a2>
    6db0:	2000      	movs	r0, #0
    6db2:	9001      	str	r0, [sp, #4]
    6db4:	e7ff      	b.n	6db6 <pvPortMalloc+0x1a2>
    6db6:	9801      	ldr	r0, [sp, #4]
    6db8:	9000      	str	r0, [sp, #0]
    6dba:	f7fe ffc1 	bl	5d40 <xTaskResumeAll>
    6dbe:	9800      	ldr	r0, [sp, #0]
    6dc0:	0740      	lsls	r0, r0, #29
    6dc2:	b120      	cbz	r0, 6dce <pvPortMalloc+0x1ba>
    6dc4:	e7ff      	b.n	6dc6 <pvPortMalloc+0x1b2>
    6dc6:	f7fe fa25 	bl	5214 <ulSetInterruptMask>
    6dca:	e7ff      	b.n	6dcc <pvPortMalloc+0x1b8>
    6dcc:	e7fe      	b.n	6dcc <pvPortMalloc+0x1b8>
    6dce:	9800      	ldr	r0, [sp, #0]
    6dd0:	b010      	add	sp, #64	; 0x40
    6dd2:	bd80      	pop	{r7, pc}

00006dd4 <prvHeapInit>:
    6dd4:	b082      	sub	sp, #8
    6dd6:	f240 6268 	movw	r2, #1640	; 0x668
    6dda:	f2c2 0200 	movt	r2, #8192	; 0x2000
    6dde:	f44f 5020 	mov.w	r0, #10240	; 0x2800
    6de2:	4611      	mov	r1, r2
    6de4:	0752      	lsls	r2, r2, #29
    6de6:	9100      	str	r1, [sp, #0]
    6de8:	9001      	str	r0, [sp, #4]
    6dea:	b172      	cbz	r2, 6e0a <prvHeapInit+0x36>
    6dec:	e7ff      	b.n	6dee <prvHeapInit+0x1a>
    6dee:	f240 6068 	movw	r0, #1640	; 0x668
    6df2:	f2c2 0000 	movt	r0, #8192	; 0x2000
    6df6:	1dc1      	adds	r1, r0, #7
    6df8:	f021 0207 	bic.w	r2, r1, #7
    6dfc:	4611      	mov	r1, r2
    6dfe:	1a80      	subs	r0, r0, r2
    6e00:	f500 5020 	add.w	r0, r0, #10240	; 0x2800
    6e04:	9100      	str	r1, [sp, #0]
    6e06:	9001      	str	r0, [sp, #4]
    6e08:	e7ff      	b.n	6e0a <prvHeapInit+0x36>
    6e0a:	9800      	ldr	r0, [sp, #0]
    6e0c:	9901      	ldr	r1, [sp, #4]
    6e0e:	f240 6254 	movw	r2, #1620	; 0x654
    6e12:	f2c2 0200 	movt	r2, #8192	; 0x2000
    6e16:	6010      	str	r0, [r2, #0]
    6e18:	2300      	movs	r3, #0
    6e1a:	6053      	str	r3, [r2, #4]
    6e1c:	4401      	add	r1, r0
    6e1e:	3908      	subs	r1, #8
    6e20:	f021 0207 	bic.w	r2, r1, #7
    6e24:	f240 614c 	movw	r1, #1612	; 0x64c
    6e28:	f2c2 0100 	movt	r1, #8192	; 0x2000
    6e2c:	600a      	str	r2, [r1, #0]
    6e2e:	f8d1 c000 	ldr.w	ip, [r1]
    6e32:	f8cc 3004 	str.w	r3, [ip, #4]
    6e36:	f8d1 c000 	ldr.w	ip, [r1]
    6e3a:	f8cc 3000 	str.w	r3, [ip]
    6e3e:	1a12      	subs	r2, r2, r0
    6e40:	6042      	str	r2, [r0, #4]
    6e42:	6809      	ldr	r1, [r1, #0]
    6e44:	6001      	str	r1, [r0, #0]
    6e46:	6841      	ldr	r1, [r0, #4]
    6e48:	f240 625c 	movw	r2, #1628	; 0x65c
    6e4c:	f2c2 0200 	movt	r2, #8192	; 0x2000
    6e50:	6011      	str	r1, [r2, #0]
    6e52:	6840      	ldr	r0, [r0, #4]
    6e54:	f240 6150 	movw	r1, #1616	; 0x650
    6e58:	f2c2 0100 	movt	r1, #8192	; 0x2000
    6e5c:	6008      	str	r0, [r1, #0]
    6e5e:	b002      	add	sp, #8
    6e60:	4770      	bx	lr

00006e62 <prvInsertBlockIntoFreeList>:
    6e62:	b085      	sub	sp, #20
    6e64:	9003      	str	r0, [sp, #12]
    6e66:	f240 6054 	movw	r0, #1620	; 0x654
    6e6a:	f2c2 0000 	movt	r0, #8192	; 0x2000
    6e6e:	9004      	str	r0, [sp, #16]
    6e70:	e7ff      	b.n	6e72 <prvInsertBlockIntoFreeList+0x10>
    6e72:	9903      	ldr	r1, [sp, #12]
    6e74:	9804      	ldr	r0, [sp, #16]
    6e76:	9002      	str	r0, [sp, #8]
    6e78:	6800      	ldr	r0, [r0, #0]
    6e7a:	4288      	cmp	r0, r1
    6e7c:	d205      	bcs.n	6e8a <prvInsertBlockIntoFreeList+0x28>
    6e7e:	e7ff      	b.n	6e80 <prvInsertBlockIntoFreeList+0x1e>
    6e80:	e7ff      	b.n	6e82 <prvInsertBlockIntoFreeList+0x20>
    6e82:	9802      	ldr	r0, [sp, #8]
    6e84:	6800      	ldr	r0, [r0, #0]
    6e86:	9004      	str	r0, [sp, #16]
    6e88:	e7f3      	b.n	6e72 <prvInsertBlockIntoFreeList+0x10>
    6e8a:	9903      	ldr	r1, [sp, #12]
    6e8c:	9802      	ldr	r0, [sp, #8]
    6e8e:	6842      	ldr	r2, [r0, #4]
    6e90:	4410      	add	r0, r2
    6e92:	4288      	cmp	r0, r1
    6e94:	d108      	bne.n	6ea8 <prvInsertBlockIntoFreeList+0x46>
    6e96:	e7ff      	b.n	6e98 <prvInsertBlockIntoFreeList+0x36>
    6e98:	9802      	ldr	r0, [sp, #8]
    6e9a:	9903      	ldr	r1, [sp, #12]
    6e9c:	684a      	ldr	r2, [r1, #4]
    6e9e:	6841      	ldr	r1, [r0, #4]
    6ea0:	4411      	add	r1, r2
    6ea2:	6041      	str	r1, [r0, #4]
    6ea4:	9001      	str	r0, [sp, #4]
    6ea6:	e002      	b.n	6eae <prvInsertBlockIntoFreeList+0x4c>
    6ea8:	9803      	ldr	r0, [sp, #12]
    6eaa:	9001      	str	r0, [sp, #4]
    6eac:	e7ff      	b.n	6eae <prvInsertBlockIntoFreeList+0x4c>
    6eae:	9902      	ldr	r1, [sp, #8]
    6eb0:	9801      	ldr	r0, [sp, #4]
    6eb2:	9000      	str	r0, [sp, #0]
    6eb4:	6842      	ldr	r2, [r0, #4]
    6eb6:	4410      	add	r0, r2
    6eb8:	6809      	ldr	r1, [r1, #0]
    6eba:	4288      	cmp	r0, r1
    6ebc:	d11e      	bne.n	6efc <prvInsertBlockIntoFreeList+0x9a>
    6ebe:	e7ff      	b.n	6ec0 <prvInsertBlockIntoFreeList+0x5e>
    6ec0:	9802      	ldr	r0, [sp, #8]
    6ec2:	6800      	ldr	r0, [r0, #0]
    6ec4:	f240 614c 	movw	r1, #1612	; 0x64c
    6ec8:	f2c2 0100 	movt	r1, #8192	; 0x2000
    6ecc:	6809      	ldr	r1, [r1, #0]
    6ece:	4288      	cmp	r0, r1
    6ed0:	d00b      	beq.n	6eea <prvInsertBlockIntoFreeList+0x88>
    6ed2:	e7ff      	b.n	6ed4 <prvInsertBlockIntoFreeList+0x72>
    6ed4:	9900      	ldr	r1, [sp, #0]
    6ed6:	9802      	ldr	r0, [sp, #8]
    6ed8:	6802      	ldr	r2, [r0, #0]
    6eda:	6853      	ldr	r3, [r2, #4]
    6edc:	684a      	ldr	r2, [r1, #4]
    6ede:	441a      	add	r2, r3
    6ee0:	604a      	str	r2, [r1, #4]
    6ee2:	6800      	ldr	r0, [r0, #0]
    6ee4:	6800      	ldr	r0, [r0, #0]
    6ee6:	6008      	str	r0, [r1, #0]
    6ee8:	e007      	b.n	6efa <prvInsertBlockIntoFreeList+0x98>
    6eea:	9900      	ldr	r1, [sp, #0]
    6eec:	f240 604c 	movw	r0, #1612	; 0x64c
    6ef0:	f2c2 0000 	movt	r0, #8192	; 0x2000
    6ef4:	6800      	ldr	r0, [r0, #0]
    6ef6:	6008      	str	r0, [r1, #0]
    6ef8:	e7ff      	b.n	6efa <prvInsertBlockIntoFreeList+0x98>
    6efa:	e004      	b.n	6f06 <prvInsertBlockIntoFreeList+0xa4>
    6efc:	9900      	ldr	r1, [sp, #0]
    6efe:	9802      	ldr	r0, [sp, #8]
    6f00:	6800      	ldr	r0, [r0, #0]
    6f02:	6008      	str	r0, [r1, #0]
    6f04:	e7ff      	b.n	6f06 <prvInsertBlockIntoFreeList+0xa4>
    6f06:	9802      	ldr	r0, [sp, #8]
    6f08:	9900      	ldr	r1, [sp, #0]
    6f0a:	4288      	cmp	r0, r1
    6f0c:	d004      	beq.n	6f18 <prvInsertBlockIntoFreeList+0xb6>
    6f0e:	e7ff      	b.n	6f10 <prvInsertBlockIntoFreeList+0xae>
    6f10:	9800      	ldr	r0, [sp, #0]
    6f12:	9902      	ldr	r1, [sp, #8]
    6f14:	6008      	str	r0, [r1, #0]
    6f16:	e000      	b.n	6f1a <prvInsertBlockIntoFreeList+0xb8>
    6f18:	e7ff      	b.n	6f1a <prvInsertBlockIntoFreeList+0xb8>
    6f1a:	b005      	add	sp, #20
    6f1c:	4770      	bx	lr

00006f1e <vPortFree>:
    6f1e:	b580      	push	{r7, lr}
    6f20:	466f      	mov	r7, sp
    6f22:	b082      	sub	sp, #8
    6f24:	9001      	str	r0, [sp, #4]
    6f26:	2800      	cmp	r0, #0
    6f28:	d042      	beq.n	6fb0 <vPortFree+0x92>
    6f2a:	e7ff      	b.n	6f2c <vPortFree+0xe>
    6f2c:	9801      	ldr	r0, [sp, #4]
    6f2e:	f1a0 0108 	sub.w	r1, r0, #8
    6f32:	9100      	str	r1, [sp, #0]
    6f34:	f810 1c01 	ldrb.w	r1, [r0, #-1]
    6f38:	2000      	movs	r0, #0
    6f3a:	ebb0 1fd1 	cmp.w	r0, r1, lsr #7
    6f3e:	d104      	bne.n	6f4a <vPortFree+0x2c>
    6f40:	e7ff      	b.n	6f42 <vPortFree+0x24>
    6f42:	f7fe f967 	bl	5214 <ulSetInterruptMask>
    6f46:	e7ff      	b.n	6f48 <vPortFree+0x2a>
    6f48:	e7fe      	b.n	6f48 <vPortFree+0x2a>
    6f4a:	9800      	ldr	r0, [sp, #0]
    6f4c:	6800      	ldr	r0, [r0, #0]
    6f4e:	b120      	cbz	r0, 6f5a <vPortFree+0x3c>
    6f50:	e7ff      	b.n	6f52 <vPortFree+0x34>
    6f52:	f7fe f95f 	bl	5214 <ulSetInterruptMask>
    6f56:	e7ff      	b.n	6f58 <vPortFree+0x3a>
    6f58:	e7fe      	b.n	6f58 <vPortFree+0x3a>
    6f5a:	9800      	ldr	r0, [sp, #0]
    6f5c:	79c1      	ldrb	r1, [r0, #7]
    6f5e:	2000      	movs	r0, #0
    6f60:	ebb0 1fd1 	cmp.w	r0, r1, lsr #7
    6f64:	d022      	beq.n	6fac <vPortFree+0x8e>
    6f66:	e7ff      	b.n	6f68 <vPortFree+0x4a>
    6f68:	9800      	ldr	r0, [sp, #0]
    6f6a:	6800      	ldr	r0, [r0, #0]
    6f6c:	b9e0      	cbnz	r0, 6fa8 <vPortFree+0x8a>
    6f6e:	e7ff      	b.n	6f70 <vPortFree+0x52>
    6f70:	9900      	ldr	r1, [sp, #0]
    6f72:	6848      	ldr	r0, [r1, #4]
    6f74:	f020 4000 	bic.w	r0, r0, #2147483648	; 0x80000000
    6f78:	6048      	str	r0, [r1, #4]
    6f7a:	f7fe fe5e 	bl	5c3a <vTaskSuspendAll>
    6f7e:	9800      	ldr	r0, [sp, #0]
    6f80:	6843      	ldr	r3, [r0, #4]
    6f82:	f240 6250 	movw	r2, #1616	; 0x650
    6f86:	f2c2 0200 	movt	r2, #8192	; 0x2000
    6f8a:	6811      	ldr	r1, [r2, #0]
    6f8c:	4419      	add	r1, r3
    6f8e:	6011      	str	r1, [r2, #0]
    6f90:	f7ff ff67 	bl	6e62 <prvInsertBlockIntoFreeList>
    6f94:	f240 6164 	movw	r1, #1636	; 0x664
    6f98:	f2c2 0100 	movt	r1, #8192	; 0x2000
    6f9c:	6808      	ldr	r0, [r1, #0]
    6f9e:	3001      	adds	r0, #1
    6fa0:	6008      	str	r0, [r1, #0]
    6fa2:	f7fe fecd 	bl	5d40 <xTaskResumeAll>
    6fa6:	e000      	b.n	6faa <vPortFree+0x8c>
    6fa8:	e7ff      	b.n	6faa <vPortFree+0x8c>
    6faa:	e000      	b.n	6fae <vPortFree+0x90>
    6fac:	e7ff      	b.n	6fae <vPortFree+0x90>
    6fae:	e7ff      	b.n	6fb0 <vPortFree+0x92>
    6fb0:	b002      	add	sp, #8
    6fb2:	bd80      	pop	{r7, pc}

00006fb4 <BOARD_InitBootClocks>:
    6fb4:	b580      	push	{r7, lr}
    6fb6:	466f      	mov	r7, sp
    6fb8:	f000 f801 	bl	6fbe <BOARD_BootClockPLL150M>
    6fbc:	bd80      	pop	{r7, pc}

00006fbe <BOARD_BootClockPLL150M>:
    6fbe:	b5d0      	push	{r4, r6, r7, lr}
    6fc0:	af02      	add	r7, sp, #8
    6fc2:	b08e      	sub	sp, #56	; 0x38
    6fc4:	2020      	movs	r0, #32
    6fc6:	9001      	str	r0, [sp, #4]
    6fc8:	f000 f883 	bl	70d2 <POWER_DisablePD>
    6fcc:	f641 3000 	movw	r0, #6912	; 0x1b00
    6fd0:	f2c0 00b7 	movt	r0, #183	; 0xb7
    6fd4:	f7fa fb4b 	bl	166e <CLOCK_SetupFROClocking>
    6fd8:	f249 1008 	movw	r0, #37128	; 0x9108
    6fdc:	f2c0 0010 	movt	r0, #16
    6fe0:	f7fa fab3 	bl	154a <CLOCK_AttachClk>
    6fe4:	f44f 7080 	mov.w	r0, #256	; 0x100
    6fe8:	f000 f873 	bl	70d2 <POWER_DisablePD>
    6fec:	f44f 1080 	mov.w	r0, #1048576	; 0x100000
    6ff0:	f000 f86f 	bl	70d2 <POWER_DisablePD>
    6ff4:	f242 4000 	movw	r0, #9216	; 0x2400
    6ff8:	f2c0 00f4 	movt	r0, #244	; 0xf4
    6ffc:	f7fa fc72 	bl	18e4 <CLOCK_SetupExtClocking>
    7000:	f640 2118 	movw	r1, #2584	; 0xa18
    7004:	f2c4 0100 	movt	r1, #16384	; 0x4000
    7008:	6808      	ldr	r0, [r1, #0]
    700a:	f040 0020 	orr.w	r0, r0, #32
    700e:	6008      	str	r0, [r1, #0]
    7010:	f243 0120 	movw	r1, #12320	; 0x3020
    7014:	f2c4 0101 	movt	r1, #16385	; 0x4001
    7018:	6808      	ldr	r0, [r1, #0]
    701a:	f040 7080 	orr.w	r0, r0, #16777216	; 0x1000000
    701e:	6008      	str	r0, [r1, #0]
    7020:	f24d 1080 	movw	r0, #53632	; 0xd180
    7024:	f6c0 00f0 	movt	r0, #2288	; 0x8f0
    7028:	9005      	str	r0, [sp, #20]
    702a:	f7fa fdea 	bl	1c02 <POWER_SetVoltageForFreq>
    702e:	9805      	ldr	r0, [sp, #20]
    7030:	f7fa fb6f 	bl	1712 <CLOCK_SetFLASHAccessCyclesForFreq>
    7034:	f44f 7003 	mov.w	r0, #524	; 0x20c
    7038:	f7fa fa87 	bl	154a <CLOCK_AttachClk>
    703c:	f44f 7000 	mov.w	r0, #512	; 0x200
    7040:	f000 f847 	bl	70d2 <POWER_DisablePD>
    7044:	f44f 0000 	mov.w	r0, #8388608	; 0x800000
    7048:	f000 f843 	bl	70d2 <POWER_DisablePD>
    704c:	f249 2244 	movw	r2, #37444	; 0x9244
    7050:	f2c0 0200 	movt	r2, #0
    7054:	a806      	add	r0, sp, #24
    7056:	4601      	mov	r1, r0
    7058:	e8b2 5018 	ldmia.w	r2!, {r3, r4, ip, lr}
    705c:	e8a1 5018 	stmia.w	r1!, {r3, r4, ip, lr}
    7060:	e892 5018 	ldmia.w	r2, {r3, r4, ip, lr}
    7064:	e881 5018 	stmia.w	r1, {r3, r4, ip, lr}
    7068:	f7fa fd1f 	bl	1aaa <CLOCK_SetPLL0Freq>
    706c:	2008      	movs	r0, #8
    706e:	2190      	movs	r1, #144	; 0x90
    7070:	9100      	str	r1, [sp, #0]
    7072:	2200      	movs	r2, #0
    7074:	9204      	str	r2, [sp, #16]
    7076:	f7fa fab5 	bl	15e4 <CLOCK_SetClkDiv>
    707a:	9900      	ldr	r1, [sp, #0]
    707c:	9a04      	ldr	r2, [sp, #16]
    707e:	200c      	movs	r0, #12
    7080:	f7fa fab0 	bl	15e4 <CLOCK_SetClkDiv>
    7084:	9801      	ldr	r0, [sp, #4]
    7086:	9a04      	ldr	r2, [sp, #16]
    7088:	2101      	movs	r1, #1
    708a:	9102      	str	r1, [sp, #8]
    708c:	f7fa faaa 	bl	15e4 <CLOCK_SetClkDiv>
    7090:	9a02      	ldr	r2, [sp, #8]
    7092:	9904      	ldr	r1, [sp, #16]
    7094:	2031      	movs	r0, #49	; 0x31
    7096:	9003      	str	r0, [sp, #12]
    7098:	f7fa faa4 	bl	15e4 <CLOCK_SetClkDiv>
    709c:	9803      	ldr	r0, [sp, #12]
    709e:	9a04      	ldr	r2, [sp, #16]
    70a0:	2102      	movs	r1, #2
    70a2:	f7fa fa9f 	bl	15e4 <CLOCK_SetClkDiv>
    70a6:	f249 1008 	movw	r0, #37128	; 0x9108
    70aa:	f2c0 0020 	movt	r0, #32
    70ae:	f7fa fa4c 	bl	154a <CLOCK_AttachClk>
    70b2:	f44f 7005 	mov.w	r0, #532	; 0x214
    70b6:	f7fa fa48 	bl	154a <CLOCK_AttachClk>
    70ba:	f44f 7006 	mov.w	r0, #536	; 0x218
    70be:	f7fa fa44 	bl	154a <CLOCK_AttachClk>
    70c2:	9805      	ldr	r0, [sp, #20]
    70c4:	f240 0100 	movw	r1, #0
    70c8:	f2c2 0100 	movt	r1, #8192	; 0x2000
    70cc:	6008      	str	r0, [r1, #0]
    70ce:	b00e      	add	sp, #56	; 0x38
    70d0:	bdd0      	pop	{r4, r6, r7, pc}

000070d2 <POWER_DisablePD>:
    70d2:	21c8      	movs	r1, #200	; 0xc8
    70d4:	f2c4 0102 	movt	r1, #16386	; 0x4002
    70d8:	6008      	str	r0, [r1, #0]
    70da:	4770      	bx	lr

000070dc <BOARD_InitPeripherals_cm33_core0>:
    70dc:	b580      	push	{r7, lr}
    70de:	466f      	mov	r7, sp
    70e0:	f000 f803 	bl	70ea <ACCEL_I2C_init>
    70e4:	f000 f812 	bl	710c <DebugConsole_init>
    70e8:	bd80      	pop	{r7, pc}

000070ea <ACCEL_I2C_init>:
    70ea:	b580      	push	{r7, lr}
    70ec:	466f      	mov	r7, sp
    70ee:	f249 2164 	movw	r1, #37476	; 0x9264
    70f2:	f2c0 0100 	movt	r1, #0
    70f6:	f24a 0000 	movw	r0, #40960	; 0xa000
    70fa:	f2c4 0008 	movt	r0, #16392	; 0x4008
    70fe:	f646 4200 	movw	r2, #27648	; 0x6c00
    7102:	f2c0 22dc 	movt	r2, #732	; 0x2dc
    7106:	f7fb fde3 	bl	2cd0 <I2C_MasterInit>
    710a:	bd80      	pop	{r7, pc}

0000710c <DebugConsole_init>:
    710c:	b580      	push	{r7, lr}
    710e:	466f      	mov	r7, sp
    7110:	2000      	movs	r0, #0
    7112:	f44f 31e1 	mov.w	r1, #115200	; 0x1c200
    7116:	2201      	movs	r2, #1
    7118:	f646 4300 	movw	r3, #27648	; 0x6c00
    711c:	f2c0 23dc 	movt	r3, #732	; 0x2dc
    7120:	f7fd fe03 	bl	4d2a <DbgConsole_Init>
    7124:	bd80      	pop	{r7, pc}

00007126 <BOARD_InitBootPeripherals>:
    7126:	b580      	push	{r7, lr}
    7128:	466f      	mov	r7, sp
    712a:	f7ff ffd7 	bl	70dc <BOARD_InitPeripherals_cm33_core0>
    712e:	bd80      	pop	{r7, pc}

00007130 <BOARD_InitBootPins>:
    7130:	b580      	push	{r7, lr}
    7132:	466f      	mov	r7, sp
    7134:	f000 f803 	bl	713e <BOARD_InitDEBUG_UARTPins>
    7138:	f000 f81c 	bl	7174 <BOARD_InitACCELPins>
    713c:	bd80      	pop	{r7, pc}

0000713e <BOARD_InitDEBUG_UARTPins>:
    713e:	b580      	push	{r7, lr}
    7140:	466f      	mov	r7, sp
    7142:	b084      	sub	sp, #16
    7144:	200d      	movs	r0, #13
    7146:	f000 f847 	bl	71d8 <CLOCK_EnableClock>
    714a:	f241 0000 	movw	r0, #4096	; 0x1000
    714e:	f2c4 0000 	movt	r0, #16384	; 0x4000
    7152:	9001      	str	r0, [sp, #4]
    7154:	2100      	movs	r1, #0
    7156:	9102      	str	r1, [sp, #8]
    7158:	221d      	movs	r2, #29
    715a:	f240 1301 	movw	r3, #257	; 0x101
    715e:	9303      	str	r3, [sp, #12]
    7160:	f000 f845 	bl	71ee <IOCON_PinMuxSet>
    7164:	9801      	ldr	r0, [sp, #4]
    7166:	9902      	ldr	r1, [sp, #8]
    7168:	9b03      	ldr	r3, [sp, #12]
    716a:	221e      	movs	r2, #30
    716c:	f000 f83f 	bl	71ee <IOCON_PinMuxSet>
    7170:	b004      	add	sp, #16
    7172:	bd80      	pop	{r7, pc}

00007174 <BOARD_InitACCELPins>:
    7174:	b580      	push	{r7, lr}
    7176:	466f      	mov	r7, sp
    7178:	b086      	sub	sp, #24
    717a:	200d      	movs	r0, #13
    717c:	f000 f82c 	bl	71d8 <CLOCK_EnableClock>
    7180:	200f      	movs	r0, #15
    7182:	f000 f829 	bl	71d8 <CLOCK_EnableClock>
    7186:	2000      	movs	r0, #0
    7188:	f8ad 0014 	strh.w	r0, [sp, #20]
    718c:	f24c 0000 	movw	r0, #49152	; 0xc000
    7190:	f2c4 0008 	movt	r0, #16392	; 0x4008
    7194:	2101      	movs	r1, #1
    7196:	9103      	str	r1, [sp, #12]
    7198:	2213      	movs	r2, #19
    719a:	9201      	str	r2, [sp, #4]
    719c:	ab05      	add	r3, sp, #20
    719e:	f7fa fff3 	bl	2188 <GPIO_PinInit>
    71a2:	9a01      	ldr	r2, [sp, #4]
    71a4:	9903      	ldr	r1, [sp, #12]
    71a6:	f241 0000 	movw	r0, #4096	; 0x1000
    71aa:	f2c4 0000 	movt	r0, #16384	; 0x4000
    71ae:	9002      	str	r0, [sp, #8]
    71b0:	f44f 7380 	mov.w	r3, #256	; 0x100
    71b4:	f000 f81b 	bl	71ee <IOCON_PinMuxSet>
    71b8:	9802      	ldr	r0, [sp, #8]
    71ba:	9903      	ldr	r1, [sp, #12]
    71bc:	2214      	movs	r2, #20
    71be:	f240 1325 	movw	r3, #293	; 0x125
    71c2:	9304      	str	r3, [sp, #16]
    71c4:	f000 f813 	bl	71ee <IOCON_PinMuxSet>
    71c8:	9802      	ldr	r0, [sp, #8]
    71ca:	9903      	ldr	r1, [sp, #12]
    71cc:	9b04      	ldr	r3, [sp, #16]
    71ce:	2215      	movs	r2, #21
    71d0:	f000 f80d 	bl	71ee <IOCON_PinMuxSet>
    71d4:	b006      	add	sp, #24
    71d6:	bd80      	pop	{r7, pc}

000071d8 <CLOCK_EnableClock>:
    71d8:	0a02      	lsrs	r2, r0, #8
    71da:	b2c1      	uxtb	r1, r0
    71dc:	2001      	movs	r0, #1
    71de:	4088      	lsls	r0, r1
    71e0:	f240 2120 	movw	r1, #544	; 0x220
    71e4:	f2c4 0100 	movt	r1, #16384	; 0x4000
    71e8:	f841 0022 	str.w	r0, [r1, r2, lsl #2]
    71ec:	4770      	bx	lr

000071ee <IOCON_PinMuxSet>:
    71ee:	eb00 10c1 	add.w	r0, r0, r1, lsl #7
    71f2:	f840 3022 	str.w	r3, [r0, r2, lsl #2]
    71f6:	4770      	bx	lr

000071f8 <ACCEL_Init>:
    71f8:	b580      	push	{r7, lr}
    71fa:	466f      	mov	r7, sp
    71fc:	b084      	sub	sp, #16
    71fe:	200d      	movs	r0, #13
    7200:	1e79      	subs	r1, r7, #1
    7202:	2201      	movs	r2, #1
    7204:	f000 f831 	bl	726a <ACCEL_Read>
    7208:	f817 0c01 	ldrb.w	r0, [r7, #-1]
    720c:	284a      	cmp	r0, #74	; 0x4a
    720e:	d101      	bne.n	7214 <ACCEL_Init+0x1c>
    7210:	e7ff      	b.n	7212 <ACCEL_Init+0x1a>
    7212:	e00e      	b.n	7232 <ACCEL_Init+0x3a>
    7214:	f249 2070 	movw	r0, #37488	; 0x9270
    7218:	f2c0 0000 	movt	r0, #0
    721c:	f249 227e 	movw	r2, #37502	; 0x927e
    7220:	f2c0 0200 	movt	r2, #0
    7224:	f249 2389 	movw	r3, #37513	; 0x9289
    7228:	f2c0 0300 	movt	r3, #0
    722c:	2141      	movs	r1, #65	; 0x41
    722e:	f7fd fe88 	bl	4f42 <__assert_func>
    7232:	2000      	movs	r0, #0
    7234:	f807 0c02 	strb.w	r0, [r7, #-2]
    7238:	202a      	movs	r0, #42	; 0x2a
    723a:	9000      	str	r0, [sp, #0]
    723c:	1eb9      	subs	r1, r7, #2
    723e:	9101      	str	r1, [sp, #4]
    7240:	2201      	movs	r2, #1
    7242:	9202      	str	r2, [sp, #8]
    7244:	f000 f836 	bl	72b4 <ACCEL_Write>
    7248:	9a02      	ldr	r2, [sp, #8]
    724a:	f807 2c03 	strb.w	r2, [r7, #-3]
    724e:	200e      	movs	r0, #14
    7250:	1ef9      	subs	r1, r7, #3
    7252:	f000 f82f 	bl	72b4 <ACCEL_Write>
    7256:	9800      	ldr	r0, [sp, #0]
    7258:	9901      	ldr	r1, [sp, #4]
    725a:	9a02      	ldr	r2, [sp, #8]
    725c:	230d      	movs	r3, #13
    725e:	f807 3c02 	strb.w	r3, [r7, #-2]
    7262:	f000 f827 	bl	72b4 <ACCEL_Write>
    7266:	b004      	add	sp, #16
    7268:	bd80      	pop	{r7, pc}

0000726a <ACCEL_Read>:
    726a:	b580      	push	{r7, lr}
    726c:	466f      	mov	r7, sp
    726e:	b088      	sub	sp, #32
    7270:	4603      	mov	r3, r0
    7272:	2000      	movs	r0, #0
    7274:	9002      	str	r0, [sp, #8]
    7276:	201d      	movs	r0, #29
    7278:	f88d 000c 	strb.w	r0, [sp, #12]
    727c:	2001      	movs	r0, #1
    727e:	f88d 000d 	strb.w	r0, [sp, #13]
    7282:	9304      	str	r3, [sp, #16]
    7284:	9005      	str	r0, [sp, #20]
    7286:	9106      	str	r1, [sp, #24]
    7288:	9207      	str	r2, [sp, #28]
    728a:	f24a 0000 	movw	r0, #40960	; 0xa000
    728e:	f2c4 0008 	movt	r0, #16392	; 0x4008
    7292:	a902      	add	r1, sp, #8
    7294:	f7fc f876 	bl	3384 <I2C_MasterTransferBlocking>
    7298:	4601      	mov	r1, r0
    729a:	9101      	str	r1, [sp, #4]
    729c:	b140      	cbz	r0, 72b0 <ACCEL_Read+0x46>
    729e:	e7ff      	b.n	72a0 <ACCEL_Read+0x36>
    72a0:	9901      	ldr	r1, [sp, #4]
    72a2:	f249 20fc 	movw	r0, #37628	; 0x92fc
    72a6:	f2c0 0000 	movt	r0, #0
    72aa:	f7fd fde3 	bl	4e74 <DbgConsole_Printf>
    72ae:	e7ff      	b.n	72b0 <ACCEL_Read+0x46>
    72b0:	b008      	add	sp, #32
    72b2:	bd80      	pop	{r7, pc}

000072b4 <ACCEL_Write>:
    72b4:	b580      	push	{r7, lr}
    72b6:	466f      	mov	r7, sp
    72b8:	b088      	sub	sp, #32
    72ba:	2300      	movs	r3, #0
    72bc:	9302      	str	r3, [sp, #8]
    72be:	f04f 0c1d 	mov.w	ip, #29
    72c2:	f88d c00c 	strb.w	ip, [sp, #12]
    72c6:	f88d 300d 	strb.w	r3, [sp, #13]
    72ca:	9004      	str	r0, [sp, #16]
    72cc:	2001      	movs	r0, #1
    72ce:	9005      	str	r0, [sp, #20]
    72d0:	9106      	str	r1, [sp, #24]
    72d2:	9207      	str	r2, [sp, #28]
    72d4:	f24a 0000 	movw	r0, #40960	; 0xa000
    72d8:	f2c4 0008 	movt	r0, #16392	; 0x4008
    72dc:	a902      	add	r1, sp, #8
    72de:	f7fc f851 	bl	3384 <I2C_MasterTransferBlocking>
    72e2:	4601      	mov	r1, r0
    72e4:	9101      	str	r1, [sp, #4]
    72e6:	b140      	cbz	r0, 72fa <ACCEL_Write+0x46>
    72e8:	e7ff      	b.n	72ea <ACCEL_Write+0x36>
    72ea:	9901      	ldr	r1, [sp, #4]
    72ec:	f249 3013 	movw	r0, #37651	; 0x9313
    72f0:	f2c0 0000 	movt	r0, #0
    72f4:	f7fd fdbe 	bl	4e74 <DbgConsole_Printf>
    72f8:	e7ff      	b.n	72fa <ACCEL_Write+0x46>
    72fa:	b008      	add	sp, #32
    72fc:	bd80      	pop	{r7, pc}

000072fe <ACCEL_ReadSensor>:
    72fe:	b580      	push	{r7, lr}
    7300:	466f      	mov	r7, sp
    7302:	b084      	sub	sp, #16
    7304:	2000      	movs	r0, #0
    7306:	f807 0c01 	strb.w	r0, [r7, #-1]
    730a:	e7ff      	b.n	730c <ACCEL_ReadSensor+0xe>
    730c:	f817 0c01 	ldrb.w	r0, [r7, #-1]
    7310:	28ff      	cmp	r0, #255	; 0xff
    7312:	d006      	beq.n	7322 <ACCEL_ReadSensor+0x24>
    7314:	e7ff      	b.n	7316 <ACCEL_ReadSensor+0x18>
    7316:	2000      	movs	r0, #0
    7318:	1e79      	subs	r1, r7, #1
    731a:	2201      	movs	r2, #1
    731c:	f7ff ffa5 	bl	726a <ACCEL_Read>
    7320:	e7f4      	b.n	730c <ACCEL_ReadSensor+0xe>
    7322:	f642 6168 	movw	r1, #11880	; 0x2e68
    7326:	f2c2 0100 	movt	r1, #8192	; 0x2000
    732a:	9102      	str	r1, [sp, #8]
    732c:	2000      	movs	r0, #0
    732e:	2207      	movs	r2, #7
    7330:	f7ff ff9b 	bl	726a <ACCEL_Read>
    7334:	9802      	ldr	r0, [sp, #8]
    7336:	7801      	ldrb	r1, [r0, #0]
    7338:	f807 1c01 	strb.w	r1, [r7, #-1]
    733c:	7842      	ldrb	r2, [r0, #1]
    733e:	7881      	ldrb	r1, [r0, #2]
    7340:	ea41 2102 	orr.w	r1, r1, r2, lsl #8
    7344:	b209      	sxth	r1, r1
    7346:	0889      	lsrs	r1, r1, #2
    7348:	f642 6270 	movw	r2, #11888	; 0x2e70
    734c:	f2c2 0200 	movt	r2, #8192	; 0x2000
    7350:	8011      	strh	r1, [r2, #0]
    7352:	78c3      	ldrb	r3, [r0, #3]
    7354:	7901      	ldrb	r1, [r0, #4]
    7356:	ea41 2103 	orr.w	r1, r1, r3, lsl #8
    735a:	b209      	sxth	r1, r1
    735c:	0889      	lsrs	r1, r1, #2
    735e:	f642 6372 	movw	r3, #11890	; 0x2e72
    7362:	f2c2 0300 	movt	r3, #8192	; 0x2000
    7366:	8019      	strh	r1, [r3, #0]
    7368:	7941      	ldrb	r1, [r0, #5]
    736a:	7980      	ldrb	r0, [r0, #6]
    736c:	ea40 2001 	orr.w	r0, r0, r1, lsl #8
    7370:	b200      	sxth	r0, r0
    7372:	0881      	lsrs	r1, r0, #2
    7374:	f642 6074 	movw	r0, #11892	; 0x2e74
    7378:	f2c2 0000 	movt	r0, #8192	; 0x2000
    737c:	8001      	strh	r1, [r0, #0]
    737e:	f817 1c01 	ldrb.w	r1, [r7, #-1]
    7382:	f9b2 2000 	ldrsh.w	r2, [r2]
    7386:	f9b3 3000 	ldrsh.w	r3, [r3]
    738a:	f9b0 0000 	ldrsh.w	r0, [r0]
    738e:	46ec      	mov	ip, sp
    7390:	f8cc 0000 	str.w	r0, [ip]
    7394:	f249 20ac 	movw	r0, #37548	; 0x92ac
    7398:	f2c0 0000 	movt	r0, #0
    739c:	f7fd fd6a 	bl	4e74 <DbgConsole_Printf>
    73a0:	b004      	add	sp, #16
    73a2:	bd80      	pop	{r7, pc}

000073a4 <main>:
    73a4:	b580      	push	{r7, lr}
    73a6:	466f      	mov	r7, sp
    73a8:	b082      	sub	sp, #8
    73aa:	f7ff fec1 	bl	7130 <BOARD_InitBootPins>
    73ae:	f7ff fe01 	bl	6fb4 <BOARD_InitBootClocks>
    73b2:	f7ff feb8 	bl	7126 <BOARD_InitBootPeripherals>
    73b6:	f249 20db 	movw	r0, #37595	; 0x92db
    73ba:	f2c0 0000 	movt	r0, #0
    73be:	f7fd fd59 	bl	4e74 <DbgConsole_Printf>
    73c2:	f7ff ff19 	bl	71f8 <ACCEL_Init>
    73c6:	4669      	mov	r1, sp
    73c8:	2300      	movs	r3, #0
    73ca:	604b      	str	r3, [r1, #4]
    73cc:	2004      	movs	r0, #4
    73ce:	6008      	str	r0, [r1, #0]
    73d0:	f247 30fb 	movw	r0, #29691	; 0x73fb
    73d4:	f2c0 0000 	movt	r0, #0
    73d8:	f249 21f1 	movw	r1, #37617	; 0x92f1
    73dc:	f2c0 0100 	movt	r1, #0
    73e0:	f44f 72a0 	mov.w	r2, #320	; 0x140
    73e4:	f7fe fa8b 	bl	58fe <xTaskCreate>
    73e8:	2801      	cmp	r0, #1
    73ea:	d002      	beq.n	73f2 <main+0x4e>
    73ec:	e7ff      	b.n	73ee <main+0x4a>
    73ee:	e7ff      	b.n	73f0 <main+0x4c>
    73f0:	e7fe      	b.n	73f0 <main+0x4c>
    73f2:	f7fe fe0f 	bl	6014 <vTaskStartScheduler>
    73f6:	e7ff      	b.n	73f8 <main+0x54>
    73f8:	e7fe      	b.n	73f8 <main+0x54>

000073fa <ACCEL_Task>:
    73fa:	b580      	push	{r7, lr}
    73fc:	466f      	mov	r7, sp
    73fe:	e7ff      	b.n	7400 <ACCEL_Task+0x6>
    7400:	f7ff ff7d 	bl	72fe <ACCEL_ReadSensor>
    7404:	e7fc      	b.n	7400 <ACCEL_Task+0x6>
	...

00007408 <modf>:
    7408:	b5f8      	push	{r3, r4, r5, r6, r7, lr}
    740a:	ec55 4b10 	vmov	r4, r5, d0
    740e:	f3c5 520a 	ubfx	r2, r5, #20, #11
    7412:	462f      	mov	r7, r5
    7414:	4606      	mov	r6, r0
    7416:	f2a2 33ff 	subw	r3, r2, #1023	; 0x3ff
    741a:	2b13      	cmp	r3, #19
    741c:	dc18      	bgt.n	7450 <modf+0x48>
    741e:	2b00      	cmp	r3, #0
    7420:	db3e      	blt.n	74a0 <modf+0x98>
    7422:	4a25      	ldr	r2, [pc, #148]	; (74b8 <modf+0xb0>)
    7424:	fa42 f303 	asr.w	r3, r2, r3
    7428:	ea05 0203 	and.w	r2, r5, r3
    742c:	ea52 0104 	orrs.w	r1, r2, r4
    7430:	d018      	beq.n	7464 <modf+0x5c>
    7432:	4629      	mov	r1, r5
    7434:	ee10 0a10 	vmov	r0, s0
    7438:	2400      	movs	r4, #0
    743a:	ea25 0503 	bic.w	r5, r5, r3
    743e:	4622      	mov	r2, r4
    7440:	462b      	mov	r3, r5
    7442:	e9c6 2300 	strd	r2, r3, [r6]
    7446:	f7f9 f88f 	bl	568 <__aeabi_dsub>
    744a:	ec41 0b10 	vmov	d0, r0, r1
    744e:	bdf8      	pop	{r3, r4, r5, r6, r7, pc}
    7450:	2b33      	cmp	r3, #51	; 0x33
    7452:	dc15      	bgt.n	7480 <modf+0x78>
    7454:	f2a2 4213 	subw	r2, r2, #1043	; 0x413
    7458:	f04f 33ff 	mov.w	r3, #4294967295	; 0xffffffff
    745c:	40d3      	lsrs	r3, r2
    745e:	ea14 0103 	ands.w	r1, r4, r3
    7462:	d107      	bne.n	7474 <modf+0x6c>
    7464:	f007 4300 	and.w	r3, r7, #2147483648	; 0x80000000
    7468:	460a      	mov	r2, r1
    746a:	e9c6 4500 	strd	r4, r5, [r6]
    746e:	ec43 2b10 	vmov	d0, r2, r3
    7472:	bdf8      	pop	{r3, r4, r5, r6, r7, pc}
    7474:	ee10 0a10 	vmov	r0, s0
    7478:	4629      	mov	r1, r5
    747a:	ea24 0403 	bic.w	r4, r4, r3
    747e:	e7de      	b.n	743e <modf+0x36>
    7480:	ed86 0b00 	vstr	d0, [r6]
    7484:	f000 ff44 	bl	8310 <__fpclassifyd>
    7488:	b980      	cbnz	r0, 74ac <modf+0xa4>
    748a:	4622      	mov	r2, r4
    748c:	462b      	mov	r3, r5
    748e:	4620      	mov	r0, r4
    7490:	4629      	mov	r1, r5
    7492:	f7f9 f86b 	bl	56c <__adddf3>
    7496:	ec41 0b10 	vmov	d0, r0, r1
    749a:	e9c6 0100 	strd	r0, r1, [r6]
    749e:	bdf8      	pop	{r3, r4, r5, r6, r7, pc}
    74a0:	2200      	movs	r2, #0
    74a2:	f005 4300 	and.w	r3, r5, #2147483648	; 0x80000000
    74a6:	e9c0 2300 	strd	r2, r3, [r0]
    74aa:	bdf8      	pop	{r3, r4, r5, r6, r7, pc}
    74ac:	2200      	movs	r2, #0
    74ae:	f005 4300 	and.w	r3, r5, #2147483648	; 0x80000000
    74b2:	ec43 2b10 	vmov	d0, r2, r3
    74b6:	bdf8      	pop	{r3, r4, r5, r6, r7, pc}
    74b8:	000fffff 	.word	0x000fffff
    74bc:	00000000 	.word	0x00000000

000074c0 <pow>:
    74c0:	b5f8      	push	{r3, r4, r5, r6, r7, lr}
    74c2:	ec55 4b11 	vmov	r4, r5, d1
    74c6:	ed2d 8b02 	vpush	{d8}
    74ca:	ec57 6b10 	vmov	r6, r7, d0
    74ce:	f000 f86f 	bl	75b0 <__ieee754_pow>
    74d2:	4622      	mov	r2, r4
    74d4:	462b      	mov	r3, r5
    74d6:	4620      	mov	r0, r4
    74d8:	4629      	mov	r1, r5
    74da:	eeb0 8a40 	vmov.f32	s16, s0
    74de:	eef0 8a60 	vmov.f32	s17, s1
    74e2:	f7f9 fc93 	bl	e0c <__aeabi_dcmpun>
    74e6:	b978      	cbnz	r0, 7508 <pow+0x48>
    74e8:	2200      	movs	r2, #0
    74ea:	2300      	movs	r3, #0
    74ec:	4630      	mov	r0, r6
    74ee:	4639      	mov	r1, r7
    74f0:	f7f9 fc5a 	bl	da8 <__aeabi_dcmpeq>
    74f4:	b1f0      	cbz	r0, 7534 <pow+0x74>
    74f6:	2200      	movs	r2, #0
    74f8:	2300      	movs	r3, #0
    74fa:	4620      	mov	r0, r4
    74fc:	4629      	mov	r1, r5
    74fe:	f7f9 fc53 	bl	da8 <__aeabi_dcmpeq>
    7502:	b140      	cbz	r0, 7516 <pow+0x56>
    7504:	ed9f 8b28 	vldr	d8, [pc, #160]	; 75a8 <pow+0xe8>
    7508:	eeb0 0a48 	vmov.f32	s0, s16
    750c:	eef0 0a68 	vmov.f32	s1, s17
    7510:	ecbd 8b02 	vpop	{d8}
    7514:	bdf8      	pop	{r3, r4, r5, r6, r7, pc}
    7516:	ec45 4b10 	vmov	d0, r4, r5
    751a:	f000 feeb 	bl	82f4 <finite>
    751e:	2800      	cmp	r0, #0
    7520:	d0f2      	beq.n	7508 <pow+0x48>
    7522:	4620      	mov	r0, r4
    7524:	4629      	mov	r1, r5
    7526:	2200      	movs	r2, #0
    7528:	2300      	movs	r3, #0
    752a:	f7f9 fc47 	bl	dbc <__aeabi_dcmplt>
    752e:	2800      	cmp	r0, #0
    7530:	d0ea      	beq.n	7508 <pow+0x48>
    7532:	e02e      	b.n	7592 <pow+0xd2>
    7534:	eeb0 0a48 	vmov.f32	s0, s16
    7538:	eef0 0a68 	vmov.f32	s1, s17
    753c:	f000 feda 	bl	82f4 <finite>
    7540:	b1a0      	cbz	r0, 756c <pow+0xac>
    7542:	2200      	movs	r2, #0
    7544:	2300      	movs	r3, #0
    7546:	ec51 0b18 	vmov	r0, r1, d8
    754a:	f7f9 fc2d 	bl	da8 <__aeabi_dcmpeq>
    754e:	2800      	cmp	r0, #0
    7550:	d0da      	beq.n	7508 <pow+0x48>
    7552:	ec47 6b10 	vmov	d0, r6, r7
    7556:	f000 fecd 	bl	82f4 <finite>
    755a:	2800      	cmp	r0, #0
    755c:	d0d4      	beq.n	7508 <pow+0x48>
    755e:	ec45 4b10 	vmov	d0, r4, r5
    7562:	f000 fec7 	bl	82f4 <finite>
    7566:	2800      	cmp	r0, #0
    7568:	d0ce      	beq.n	7508 <pow+0x48>
    756a:	e012      	b.n	7592 <pow+0xd2>
    756c:	ec47 6b10 	vmov	d0, r6, r7
    7570:	f000 fec0 	bl	82f4 <finite>
    7574:	2800      	cmp	r0, #0
    7576:	d0e4      	beq.n	7542 <pow+0x82>
    7578:	ec45 4b10 	vmov	d0, r4, r5
    757c:	f000 feba 	bl	82f4 <finite>
    7580:	2800      	cmp	r0, #0
    7582:	d0de      	beq.n	7542 <pow+0x82>
    7584:	ec53 2b18 	vmov	r2, r3, d8
    7588:	ec51 0b18 	vmov	r0, r1, d8
    758c:	f7f9 fc3e 	bl	e0c <__aeabi_dcmpun>
    7590:	b920      	cbnz	r0, 759c <pow+0xdc>
    7592:	f000 ff69 	bl	8468 <__errno>
    7596:	2322      	movs	r3, #34	; 0x22
    7598:	6003      	str	r3, [r0, #0]
    759a:	e7b5      	b.n	7508 <pow+0x48>
    759c:	f000 ff64 	bl	8468 <__errno>
    75a0:	2321      	movs	r3, #33	; 0x21
    75a2:	6003      	str	r3, [r0, #0]
    75a4:	e7b0      	b.n	7508 <pow+0x48>
    75a6:	bf00      	nop
    75a8:	00000000 	.word	0x00000000
    75ac:	3ff00000 	.word	0x3ff00000

000075b0 <__ieee754_pow>:
    75b0:	e92d 4ff0 	stmdb	sp!, {r4, r5, r6, r7, r8, r9, sl, fp, lr}
    75b4:	ec55 4b11 	vmov	r4, r5, d1
    75b8:	f025 4a00 	bic.w	sl, r5, #2147483648	; 0x80000000
    75bc:	ea5a 0004 	orrs.w	r0, sl, r4
    75c0:	ed2d 8b0c 	vpush	{d8-d13}
    75c4:	ec57 6b10 	vmov	r6, r7, d0
    75c8:	b087      	sub	sp, #28
    75ca:	d127      	bne.n	761c <__ieee754_pow+0x6c>
    75cc:	19b3      	adds	r3, r6, r6
    75ce:	f487 2200 	eor.w	r2, r7, #524288	; 0x80000
    75d2:	4963      	ldr	r1, [pc, #396]	; (7760 <__ieee754_pow+0x1b0>)
    75d4:	4152      	adcs	r2, r2
    75d6:	4298      	cmp	r0, r3
    75d8:	4191      	sbcs	r1, r2
    75da:	d218      	bcs.n	760e <__ieee754_pow+0x5e>
    75dc:	4622      	mov	r2, r4
    75de:	462b      	mov	r3, r5
    75e0:	4630      	mov	r0, r6
    75e2:	4639      	mov	r1, r7
    75e4:	f7f8 ffc2 	bl	56c <__adddf3>
    75e8:	ec41 0b10 	vmov	d0, r0, r1
    75ec:	b007      	add	sp, #28
    75ee:	ecbd 8b0c 	vpop	{d8-d13}
    75f2:	e8bd 8ff0 	ldmia.w	sp!, {r4, r5, r6, r7, r8, r9, sl, fp, pc}
    75f6:	4b5b      	ldr	r3, [pc, #364]	; (7764 <__ieee754_pow+0x1b4>)
    75f8:	4443      	add	r3, r8
    75fa:	431a      	orrs	r2, r3
    75fc:	d1ee      	bne.n	75dc <__ieee754_pow+0x2c>
    75fe:	1923      	adds	r3, r4, r4
    7600:	f485 2100 	eor.w	r1, r5, #524288	; 0x80000
    7604:	4856      	ldr	r0, [pc, #344]	; (7760 <__ieee754_pow+0x1b0>)
    7606:	4149      	adcs	r1, r1
    7608:	429a      	cmp	r2, r3
    760a:	4188      	sbcs	r0, r1
    760c:	d3e6      	bcc.n	75dc <__ieee754_pow+0x2c>
    760e:	ed9f 0b52 	vldr	d0, [pc, #328]	; 7758 <__ieee754_pow+0x1a8>
    7612:	b007      	add	sp, #28
    7614:	ecbd 8b0c 	vpop	{d8-d13}
    7618:	e8bd 8ff0 	ldmia.w	sp!, {r4, r5, r6, r7, r8, r9, sl, fp, pc}
    761c:	4952      	ldr	r1, [pc, #328]	; (7768 <__ieee754_pow+0x1b8>)
    761e:	f027 4900 	bic.w	r9, r7, #2147483648	; 0x80000000
    7622:	46b8      	mov	r8, r7
    7624:	ee10 2a10 	vmov	r2, s0
    7628:	4589      	cmp	r9, r1
    762a:	dce4      	bgt.n	75f6 <__ieee754_pow+0x46>
    762c:	46ab      	mov	fp, r5
    762e:	ee11 3a10 	vmov	r3, s2
    7632:	d101      	bne.n	7638 <__ieee754_pow+0x88>
    7634:	2e00      	cmp	r6, #0
    7636:	d1d1      	bne.n	75dc <__ieee754_pow+0x2c>
    7638:	494b      	ldr	r1, [pc, #300]	; (7768 <__ieee754_pow+0x1b8>)
    763a:	458a      	cmp	sl, r1
    763c:	dcdb      	bgt.n	75f6 <__ieee754_pow+0x46>
    763e:	d101      	bne.n	7644 <__ieee754_pow+0x94>
    7640:	2b00      	cmp	r3, #0
    7642:	d1d8      	bne.n	75f6 <__ieee754_pow+0x46>
    7644:	f1b8 0f00 	cmp.w	r8, #0
    7648:	db43      	blt.n	76d2 <__ieee754_pow+0x122>
    764a:	2100      	movs	r1, #0
    764c:	9100      	str	r1, [sp, #0]
    764e:	b983      	cbnz	r3, 7672 <__ieee754_pow+0xc2>
    7650:	4b45      	ldr	r3, [pc, #276]	; (7768 <__ieee754_pow+0x1b8>)
    7652:	459a      	cmp	sl, r3
    7654:	d059      	beq.n	770a <__ieee754_pow+0x15a>
    7656:	4b45      	ldr	r3, [pc, #276]	; (776c <__ieee754_pow+0x1bc>)
    7658:	459a      	cmp	sl, r3
    765a:	d069      	beq.n	7730 <__ieee754_pow+0x180>
    765c:	f1bb 4f80 	cmp.w	fp, #1073741824	; 0x40000000
    7660:	f000 84b6 	beq.w	7fd0 <__ieee754_pow+0xa20>
    7664:	4b42      	ldr	r3, [pc, #264]	; (7770 <__ieee754_pow+0x1c0>)
    7666:	459b      	cmp	fp, r3
    7668:	d103      	bne.n	7672 <__ieee754_pow+0xc2>
    766a:	f1b8 0f00 	cmp.w	r8, #0
    766e:	f280 8506 	bge.w	807e <__ieee754_pow+0xace>
    7672:	9202      	str	r2, [sp, #8]
    7674:	ec47 6b10 	vmov	d0, r6, r7
    7678:	f000 fe32 	bl	82e0 <fabs>
    767c:	9a02      	ldr	r2, [sp, #8]
    767e:	b94a      	cbnz	r2, 7694 <__ieee754_pow+0xe4>
    7680:	f028 4340 	bic.w	r3, r8, #3221225472	; 0xc0000000
    7684:	4a39      	ldr	r2, [pc, #228]	; (776c <__ieee754_pow+0x1bc>)
    7686:	4293      	cmp	r3, r2
    7688:	f000 83a4 	beq.w	7dd4 <__ieee754_pow+0x824>
    768c:	f1b9 0f00 	cmp.w	r9, #0
    7690:	f000 83a0 	beq.w	7dd4 <__ieee754_pow+0x824>
    7694:	ea4f 73d8 	mov.w	r3, r8, lsr #31
    7698:	9a00      	ldr	r2, [sp, #0]
    769a:	3b01      	subs	r3, #1
    769c:	9304      	str	r3, [sp, #16]
    769e:	4313      	orrs	r3, r2
    76a0:	d04d      	beq.n	773e <__ieee754_pow+0x18e>
    76a2:	4b34      	ldr	r3, [pc, #208]	; (7774 <__ieee754_pow+0x1c4>)
    76a4:	459a      	cmp	sl, r3
    76a6:	dd6b      	ble.n	7780 <__ieee754_pow+0x1d0>
    76a8:	f103 7304 	add.w	r3, r3, #34603008	; 0x2100000
    76ac:	459a      	cmp	sl, r3
    76ae:	4b32      	ldr	r3, [pc, #200]	; (7778 <__ieee754_pow+0x1c8>)
    76b0:	f340 8420 	ble.w	7ef4 <__ieee754_pow+0x944>
    76b4:	4599      	cmp	r9, r3
    76b6:	f340 8495 	ble.w	7fe4 <__ieee754_pow+0xa34>
    76ba:	f1bb 0f00 	cmp.w	fp, #0
    76be:	f340 8495 	ble.w	7fec <__ieee754_pow+0xa3c>
    76c2:	2000      	movs	r0, #0
    76c4:	b007      	add	sp, #28
    76c6:	ecbd 8b0c 	vpop	{d8-d13}
    76ca:	e8bd 4ff0 	ldmia.w	sp!, {r4, r5, r6, r7, r8, r9, sl, fp, lr}
    76ce:	f000 bdfd 	b.w	82cc <__math_oflow>
    76d2:	492a      	ldr	r1, [pc, #168]	; (777c <__ieee754_pow+0x1cc>)
    76d4:	458a      	cmp	sl, r1
    76d6:	dc28      	bgt.n	772a <__ieee754_pow+0x17a>
    76d8:	f1a1 7154 	sub.w	r1, r1, #55574528	; 0x3500000
    76dc:	458a      	cmp	sl, r1
    76de:	ddb4      	ble.n	764a <__ieee754_pow+0x9a>
    76e0:	ea4f 512a 	mov.w	r1, sl, asr #20
    76e4:	f2a1 31ff 	subw	r1, r1, #1023	; 0x3ff
    76e8:	2914      	cmp	r1, #20
    76ea:	f340 8481 	ble.w	7ff0 <__ieee754_pow+0xa40>
    76ee:	f1c1 0134 	rsb	r1, r1, #52	; 0x34
    76f2:	fa23 f001 	lsr.w	r0, r3, r1
    76f6:	fa00 f101 	lsl.w	r1, r0, r1
    76fa:	4299      	cmp	r1, r3
    76fc:	d1a5      	bne.n	764a <__ieee754_pow+0x9a>
    76fe:	f000 0001 	and.w	r0, r0, #1
    7702:	f1c0 0102 	rsb	r1, r0, #2
    7706:	9100      	str	r1, [sp, #0]
    7708:	e7a1      	b.n	764e <__ieee754_pow+0x9e>
    770a:	4b16      	ldr	r3, [pc, #88]	; (7764 <__ieee754_pow+0x1b4>)
    770c:	444b      	add	r3, r9
    770e:	4313      	orrs	r3, r2
    7710:	f43f af7d 	beq.w	760e <__ieee754_pow+0x5e>
    7714:	4b18      	ldr	r3, [pc, #96]	; (7778 <__ieee754_pow+0x1c8>)
    7716:	4599      	cmp	r9, r3
    7718:	f340 83a1 	ble.w	7e5e <__ieee754_pow+0x8ae>
    771c:	f1bb 0f00 	cmp.w	fp, #0
    7720:	f2c0 8488 	blt.w	8034 <__ieee754_pow+0xa84>
    7724:	ec45 4b10 	vmov	d0, r4, r5
    7728:	e760      	b.n	75ec <__ieee754_pow+0x3c>
    772a:	2102      	movs	r1, #2
    772c:	9100      	str	r1, [sp, #0]
    772e:	e78e      	b.n	764e <__ieee754_pow+0x9e>
    7730:	f1bb 0f00 	cmp.w	fp, #0
    7734:	f2c0 8442 	blt.w	7fbc <__ieee754_pow+0xa0c>
    7738:	ec47 6b10 	vmov	d0, r6, r7
    773c:	e756      	b.n	75ec <__ieee754_pow+0x3c>
    773e:	4632      	mov	r2, r6
    7740:	463b      	mov	r3, r7
    7742:	4610      	mov	r0, r2
    7744:	4619      	mov	r1, r3
    7746:	f7f8 ff0f 	bl	568 <__aeabi_dsub>
    774a:	4602      	mov	r2, r0
    774c:	460b      	mov	r3, r1
    774e:	f7f9 f9ed 	bl	b2c <__aeabi_ddiv>
    7752:	ec41 0b10 	vmov	d0, r0, r1
    7756:	e749      	b.n	75ec <__ieee754_pow+0x3c>
    7758:	00000000 	.word	0x00000000
    775c:	3ff00000 	.word	0x3ff00000
    7760:	fff00000 	.word	0xfff00000
    7764:	c0100000 	.word	0xc0100000
    7768:	7ff00000 	.word	0x7ff00000
    776c:	3ff00000 	.word	0x3ff00000
    7770:	3fe00000 	.word	0x3fe00000
    7774:	41e00000 	.word	0x41e00000
    7778:	3fefffff 	.word	0x3fefffff
    777c:	433fffff 	.word	0x433fffff
    7780:	4be3      	ldr	r3, [pc, #908]	; (7b10 <__ieee754_pow+0x560>)
    7782:	2200      	movs	r2, #0
    7784:	ea08 0303 	and.w	r3, r8, r3
    7788:	b953      	cbnz	r3, 77a0 <__ieee754_pow+0x1f0>
    778a:	4be2      	ldr	r3, [pc, #904]	; (7b14 <__ieee754_pow+0x564>)
    778c:	ec51 0b10 	vmov	r0, r1, d0
    7790:	f7f9 f8a2 	bl	8d8 <__aeabi_dmul>
    7794:	f06f 0234 	mvn.w	r2, #52	; 0x34
    7798:	ec41 0b10 	vmov	d0, r0, r1
    779c:	ee10 9a90 	vmov	r9, s1
    77a0:	ea4f 5329 	mov.w	r3, r9, asr #20
    77a4:	f3c9 0913 	ubfx	r9, r9, #0, #20
    77a8:	4edb      	ldr	r6, [pc, #876]	; (7b18 <__ieee754_pow+0x568>)
    77aa:	f2a3 33ff 	subw	r3, r3, #1023	; 0x3ff
    77ae:	ea49 0606 	orr.w	r6, r9, r6
    77b2:	189a      	adds	r2, r3, r2
    77b4:	4bd9      	ldr	r3, [pc, #868]	; (7b1c <__ieee754_pow+0x56c>)
    77b6:	4599      	cmp	r9, r3
    77b8:	9205      	str	r2, [sp, #20]
    77ba:	dd07      	ble.n	77cc <__ieee754_pow+0x21c>
    77bc:	4bd8      	ldr	r3, [pc, #864]	; (7b20 <__ieee754_pow+0x570>)
    77be:	4599      	cmp	r9, r3
    77c0:	f340 8424 	ble.w	800c <__ieee754_pow+0xa5c>
    77c4:	3201      	adds	r2, #1
    77c6:	f5a6 1680 	sub.w	r6, r6, #1048576	; 0x100000
    77ca:	9205      	str	r2, [sp, #20]
    77cc:	2700      	movs	r7, #0
    77ce:	ed9f 7bb8 	vldr	d7, [pc, #736]	; 7ab0 <__ieee754_pow+0x500>
    77d2:	ed9f 6bb9 	vldr	d6, [pc, #740]	; 7ab8 <__ieee754_pow+0x508>
    77d6:	eeb0 ca47 	vmov.f32	s24, s14
    77da:	eef0 ca67 	vmov.f32	s25, s15
    77de:	eeb0 da47 	vmov.f32	s26, s14
    77e2:	eef0 da67 	vmov.f32	s27, s15
    77e6:	ec51 0b16 	vmov	r0, r1, d6
    77ea:	ec53 2b10 	vmov	r2, r3, d0
    77ee:	4633      	mov	r3, r6
    77f0:	1076      	asrs	r6, r6, #1
    77f2:	ec43 2b19 	vmov	d9, r2, r3
    77f6:	ec41 0b1a 	vmov	d10, r0, r1
    77fa:	4602      	mov	r2, r0
    77fc:	460b      	mov	r3, r1
    77fe:	f046 5600 	orr.w	r6, r6, #536870912	; 0x20000000
    7802:	ec51 0b19 	vmov	r0, r1, d9
    7806:	f7f8 feaf 	bl	568 <__aeabi_dsub>
    780a:	4680      	mov	r8, r0
    780c:	4689      	mov	r9, r1
    780e:	ec53 2b1a 	vmov	r2, r3, d10
    7812:	ec51 0b19 	vmov	r0, r1, d9
    7816:	f7f8 fea9 	bl	56c <__adddf3>
    781a:	4602      	mov	r2, r0
    781c:	460b      	mov	r3, r1
    781e:	2000      	movs	r0, #0
    7820:	49bd      	ldr	r1, [pc, #756]	; (7b18 <__ieee754_pow+0x568>)
    7822:	f7f9 f983 	bl	b2c <__aeabi_ddiv>
    7826:	ec41 0b1b 	vmov	d11, r0, r1
    782a:	ec53 2b1b 	vmov	r2, r3, d11
    782e:	4640      	mov	r0, r8
    7830:	4649      	mov	r1, r9
    7832:	f7f9 f851 	bl	8d8 <__aeabi_dmul>
    7836:	460a      	mov	r2, r1
    7838:	f506 2300 	add.w	r3, r6, #524288	; 0x80000
    783c:	ec41 0b18 	vmov	d8, r0, r1
    7840:	4601      	mov	r1, r0
    7842:	2000      	movs	r0, #0
    7844:	e9cd 1202 	strd	r1, r2, [sp, #8]
    7848:	2100      	movs	r1, #0
    784a:	4606      	mov	r6, r0
    784c:	4602      	mov	r2, r0
    784e:	9102      	str	r1, [sp, #8]
    7850:	19d9      	adds	r1, r3, r7
    7852:	e9dd ab02 	ldrd	sl, fp, [sp, #8]
    7856:	460f      	mov	r7, r1
    7858:	460b      	mov	r3, r1
    785a:	4650      	mov	r0, sl
    785c:	4659      	mov	r1, fp
    785e:	f7f9 f83b 	bl	8d8 <__aeabi_dmul>
    7862:	4602      	mov	r2, r0
    7864:	460b      	mov	r3, r1
    7866:	4640      	mov	r0, r8
    7868:	4649      	mov	r1, r9
    786a:	f7f8 fe7d 	bl	568 <__aeabi_dsub>
    786e:	4680      	mov	r8, r0
    7870:	4689      	mov	r9, r1
    7872:	4630      	mov	r0, r6
    7874:	4639      	mov	r1, r7
    7876:	ec53 2b1a 	vmov	r2, r3, d10
    787a:	f7f8 fe75 	bl	568 <__aeabi_dsub>
    787e:	4602      	mov	r2, r0
    7880:	460b      	mov	r3, r1
    7882:	ec51 0b19 	vmov	r0, r1, d9
    7886:	f7f8 fe6f 	bl	568 <__aeabi_dsub>
    788a:	4652      	mov	r2, sl
    788c:	465b      	mov	r3, fp
    788e:	f7f9 f823 	bl	8d8 <__aeabi_dmul>
    7892:	4602      	mov	r2, r0
    7894:	460b      	mov	r3, r1
    7896:	4640      	mov	r0, r8
    7898:	4649      	mov	r1, r9
    789a:	f7f8 fe65 	bl	568 <__aeabi_dsub>
    789e:	ec53 2b1b 	vmov	r2, r3, d11
    78a2:	f7f9 f819 	bl	8d8 <__aeabi_dmul>
    78a6:	ec53 2b18 	vmov	r2, r3, d8
    78aa:	ec41 0b19 	vmov	d9, r0, r1
    78ae:	ec51 0b18 	vmov	r0, r1, d8
    78b2:	f7f9 f811 	bl	8d8 <__aeabi_dmul>
    78b6:	4606      	mov	r6, r0
    78b8:	460f      	mov	r7, r1
    78ba:	a381      	add	r3, pc, #516	; (adr r3, 7ac0 <__ieee754_pow+0x510>)
    78bc:	e9d3 2300 	ldrd	r2, r3, [r3]
    78c0:	f7f9 f80a 	bl	8d8 <__aeabi_dmul>
    78c4:	a380      	add	r3, pc, #512	; (adr r3, 7ac8 <__ieee754_pow+0x518>)
    78c6:	e9d3 2300 	ldrd	r2, r3, [r3]
    78ca:	f7f8 fe4f 	bl	56c <__adddf3>
    78ce:	4632      	mov	r2, r6
    78d0:	463b      	mov	r3, r7
    78d2:	f7f9 f801 	bl	8d8 <__aeabi_dmul>
    78d6:	a37e      	add	r3, pc, #504	; (adr r3, 7ad0 <__ieee754_pow+0x520>)
    78d8:	e9d3 2300 	ldrd	r2, r3, [r3]
    78dc:	f7f8 fe46 	bl	56c <__adddf3>
    78e0:	4632      	mov	r2, r6
    78e2:	463b      	mov	r3, r7
    78e4:	f7f8 fff8 	bl	8d8 <__aeabi_dmul>
    78e8:	a37b      	add	r3, pc, #492	; (adr r3, 7ad8 <__ieee754_pow+0x528>)
    78ea:	e9d3 2300 	ldrd	r2, r3, [r3]
    78ee:	f7f8 fe3d 	bl	56c <__adddf3>
    78f2:	4632      	mov	r2, r6
    78f4:	463b      	mov	r3, r7
    78f6:	f7f8 ffef 	bl	8d8 <__aeabi_dmul>
    78fa:	a379      	add	r3, pc, #484	; (adr r3, 7ae0 <__ieee754_pow+0x530>)
    78fc:	e9d3 2300 	ldrd	r2, r3, [r3]
    7900:	f7f8 fe34 	bl	56c <__adddf3>
    7904:	4632      	mov	r2, r6
    7906:	463b      	mov	r3, r7
    7908:	f7f8 ffe6 	bl	8d8 <__aeabi_dmul>
    790c:	a376      	add	r3, pc, #472	; (adr r3, 7ae8 <__ieee754_pow+0x538>)
    790e:	e9d3 2300 	ldrd	r2, r3, [r3]
    7912:	f7f8 fe2b 	bl	56c <__adddf3>
    7916:	4680      	mov	r8, r0
    7918:	4689      	mov	r9, r1
    791a:	4632      	mov	r2, r6
    791c:	463b      	mov	r3, r7
    791e:	4630      	mov	r0, r6
    7920:	4639      	mov	r1, r7
    7922:	f7f8 ffd9 	bl	8d8 <__aeabi_dmul>
    7926:	4602      	mov	r2, r0
    7928:	460b      	mov	r3, r1
    792a:	4640      	mov	r0, r8
    792c:	4649      	mov	r1, r9
    792e:	f7f8 ffd3 	bl	8d8 <__aeabi_dmul>
    7932:	4652      	mov	r2, sl
    7934:	4606      	mov	r6, r0
    7936:	460f      	mov	r7, r1
    7938:	465b      	mov	r3, fp
    793a:	ec51 0b18 	vmov	r0, r1, d8
    793e:	f7f8 fe15 	bl	56c <__adddf3>
    7942:	ec53 2b19 	vmov	r2, r3, d9
    7946:	f7f8 ffc7 	bl	8d8 <__aeabi_dmul>
    794a:	4632      	mov	r2, r6
    794c:	463b      	mov	r3, r7
    794e:	2600      	movs	r6, #0
    7950:	f7f8 fe0c 	bl	56c <__adddf3>
    7954:	4652      	mov	r2, sl
    7956:	4680      	mov	r8, r0
    7958:	4689      	mov	r9, r1
    795a:	465b      	mov	r3, fp
    795c:	4650      	mov	r0, sl
    795e:	4659      	mov	r1, fp
    7960:	f7f8 ffba 	bl	8d8 <__aeabi_dmul>
    7964:	4602      	mov	r2, r0
    7966:	460b      	mov	r3, r1
    7968:	ec43 2b1a 	vmov	d10, r2, r3
    796c:	2200      	movs	r2, #0
    796e:	4b6d      	ldr	r3, [pc, #436]	; (7b24 <__ieee754_pow+0x574>)
    7970:	f7f8 fdfc 	bl	56c <__adddf3>
    7974:	4642      	mov	r2, r8
    7976:	464b      	mov	r3, r9
    7978:	f7f8 fdf8 	bl	56c <__adddf3>
    797c:	460f      	mov	r7, r1
    797e:	4632      	mov	r2, r6
    7980:	4650      	mov	r0, sl
    7982:	463b      	mov	r3, r7
    7984:	4659      	mov	r1, fp
    7986:	f7f8 ffa7 	bl	8d8 <__aeabi_dmul>
    798a:	2200      	movs	r2, #0
    798c:	4682      	mov	sl, r0
    798e:	468b      	mov	fp, r1
    7990:	4b64      	ldr	r3, [pc, #400]	; (7b24 <__ieee754_pow+0x574>)
    7992:	4630      	mov	r0, r6
    7994:	4639      	mov	r1, r7
    7996:	f7f8 fde7 	bl	568 <__aeabi_dsub>
    799a:	ec53 2b1a 	vmov	r2, r3, d10
    799e:	f7f8 fde3 	bl	568 <__aeabi_dsub>
    79a2:	4602      	mov	r2, r0
    79a4:	460b      	mov	r3, r1
    79a6:	4640      	mov	r0, r8
    79a8:	4649      	mov	r1, r9
    79aa:	f7f8 fddd 	bl	568 <__aeabi_dsub>
    79ae:	ec53 2b18 	vmov	r2, r3, d8
    79b2:	f7f8 ff91 	bl	8d8 <__aeabi_dmul>
    79b6:	4680      	mov	r8, r0
    79b8:	4689      	mov	r9, r1
    79ba:	4632      	mov	r2, r6
    79bc:	463b      	mov	r3, r7
    79be:	ec51 0b19 	vmov	r0, r1, d9
    79c2:	f7f8 ff89 	bl	8d8 <__aeabi_dmul>
    79c6:	4602      	mov	r2, r0
    79c8:	460b      	mov	r3, r1
    79ca:	4640      	mov	r0, r8
    79cc:	4649      	mov	r1, r9
    79ce:	f7f8 fdcd 	bl	56c <__adddf3>
    79d2:	4680      	mov	r8, r0
    79d4:	4689      	mov	r9, r1
    79d6:	4650      	mov	r0, sl
    79d8:	4642      	mov	r2, r8
    79da:	4659      	mov	r1, fp
    79dc:	464b      	mov	r3, r9
    79de:	f7f8 fdc5 	bl	56c <__adddf3>
    79e2:	460f      	mov	r7, r1
    79e4:	4630      	mov	r0, r6
    79e6:	a342      	add	r3, pc, #264	; (adr r3, 7af0 <__ieee754_pow+0x540>)
    79e8:	e9d3 2300 	ldrd	r2, r3, [r3]
    79ec:	f7f8 ff74 	bl	8d8 <__aeabi_dmul>
    79f0:	4652      	mov	r2, sl
    79f2:	465b      	mov	r3, fp
    79f4:	ec41 0b19 	vmov	d9, r0, r1
    79f8:	4630      	mov	r0, r6
    79fa:	4639      	mov	r1, r7
    79fc:	f7f8 fdb4 	bl	568 <__aeabi_dsub>
    7a00:	4602      	mov	r2, r0
    7a02:	460b      	mov	r3, r1
    7a04:	4640      	mov	r0, r8
    7a06:	4649      	mov	r1, r9
    7a08:	f7f8 fdae 	bl	568 <__aeabi_dsub>
    7a0c:	a33a      	add	r3, pc, #232	; (adr r3, 7af8 <__ieee754_pow+0x548>)
    7a0e:	e9d3 2300 	ldrd	r2, r3, [r3]
    7a12:	f7f8 ff61 	bl	8d8 <__aeabi_dmul>
    7a16:	4680      	mov	r8, r0
    7a18:	4689      	mov	r9, r1
    7a1a:	4630      	mov	r0, r6
    7a1c:	4639      	mov	r1, r7
    7a1e:	a338      	add	r3, pc, #224	; (adr r3, 7b00 <__ieee754_pow+0x550>)
    7a20:	e9d3 2300 	ldrd	r2, r3, [r3]
    7a24:	f7f8 ff58 	bl	8d8 <__aeabi_dmul>
    7a28:	4602      	mov	r2, r0
    7a2a:	460b      	mov	r3, r1
    7a2c:	4640      	mov	r0, r8
    7a2e:	4649      	mov	r1, r9
    7a30:	f7f8 fd9c 	bl	56c <__adddf3>
    7a34:	ec53 2b1d 	vmov	r2, r3, d13
    7a38:	f7f8 fd98 	bl	56c <__adddf3>
    7a3c:	4606      	mov	r6, r0
    7a3e:	460f      	mov	r7, r1
    7a40:	9805      	ldr	r0, [sp, #20]
    7a42:	f7f8 fedf 	bl	804 <__aeabi_i2d>
    7a46:	4632      	mov	r2, r6
    7a48:	4680      	mov	r8, r0
    7a4a:	4689      	mov	r9, r1
    7a4c:	463b      	mov	r3, r7
    7a4e:	ec51 0b19 	vmov	r0, r1, d9
    7a52:	f7f8 fd8b 	bl	56c <__adddf3>
    7a56:	ec53 2b1c 	vmov	r2, r3, d12
    7a5a:	f7f8 fd87 	bl	56c <__adddf3>
    7a5e:	4642      	mov	r2, r8
    7a60:	464b      	mov	r3, r9
    7a62:	f7f8 fd83 	bl	56c <__adddf3>
    7a66:	2000      	movs	r0, #0
    7a68:	4642      	mov	r2, r8
    7a6a:	464b      	mov	r3, r9
    7a6c:	4682      	mov	sl, r0
    7a6e:	468b      	mov	fp, r1
    7a70:	f7f8 fd7a 	bl	568 <__aeabi_dsub>
    7a74:	ec53 2b1c 	vmov	r2, r3, d12
    7a78:	f7f8 fd76 	bl	568 <__aeabi_dsub>
    7a7c:	ec53 2b19 	vmov	r2, r3, d9
    7a80:	f7f8 fd72 	bl	568 <__aeabi_dsub>
    7a84:	4602      	mov	r2, r0
    7a86:	460b      	mov	r3, r1
    7a88:	4630      	mov	r0, r6
    7a8a:	4639      	mov	r1, r7
    7a8c:	f7f8 fd6c 	bl	568 <__aeabi_dsub>
    7a90:	9b00      	ldr	r3, [sp, #0]
    7a92:	9a04      	ldr	r2, [sp, #16]
    7a94:	3b01      	subs	r3, #1
    7a96:	4313      	orrs	r3, r2
    7a98:	ec41 0b18 	vmov	d8, r0, r1
    7a9c:	f040 81d8 	bne.w	7e50 <__ieee754_pow+0x8a0>
    7aa0:	ed9f 7b19 	vldr	d7, [pc, #100]	; 7b08 <__ieee754_pow+0x558>
    7aa4:	eeb0 9a47 	vmov.f32	s18, s14
    7aa8:	eef0 9a67 	vmov.f32	s19, s15
    7aac:	e03c      	b.n	7b28 <__ieee754_pow+0x578>
    7aae:	bf00      	nop
	...
    7abc:	3ff00000 	.word	0x3ff00000
    7ac0:	4a454eef 	.word	0x4a454eef
    7ac4:	3fca7e28 	.word	0x3fca7e28
    7ac8:	93c9db65 	.word	0x93c9db65
    7acc:	3fcd864a 	.word	0x3fcd864a
    7ad0:	a91d4101 	.word	0xa91d4101
    7ad4:	3fd17460 	.word	0x3fd17460
    7ad8:	518f264d 	.word	0x518f264d
    7adc:	3fd55555 	.word	0x3fd55555
    7ae0:	db6fabff 	.word	0xdb6fabff
    7ae4:	3fdb6db6 	.word	0x3fdb6db6
    7ae8:	33333303 	.word	0x33333303
    7aec:	3fe33333 	.word	0x3fe33333
    7af0:	e0000000 	.word	0xe0000000
    7af4:	3feec709 	.word	0x3feec709
    7af8:	dc3a03fd 	.word	0xdc3a03fd
    7afc:	3feec709 	.word	0x3feec709
    7b00:	145b01f5 	.word	0x145b01f5
    7b04:	be3e2fe0 	.word	0xbe3e2fe0
    7b08:	00000000 	.word	0x00000000
    7b0c:	bff00000 	.word	0xbff00000
    7b10:	7ff00000 	.word	0x7ff00000
    7b14:	43400000 	.word	0x43400000
    7b18:	3ff00000 	.word	0x3ff00000
    7b1c:	0003988e 	.word	0x0003988e
    7b20:	000bb679 	.word	0x000bb679
    7b24:	40080000 	.word	0x40080000
    7b28:	2300      	movs	r3, #0
    7b2a:	4620      	mov	r0, r4
    7b2c:	4629      	mov	r1, r5
    7b2e:	e9cd 4500 	strd	r4, r5, [sp]
    7b32:	9300      	str	r3, [sp, #0]
    7b34:	e9dd 8900 	ldrd	r8, r9, [sp]
    7b38:	4642      	mov	r2, r8
    7b3a:	464b      	mov	r3, r9
    7b3c:	f7f8 fd14 	bl	568 <__aeabi_dsub>
    7b40:	4652      	mov	r2, sl
    7b42:	465b      	mov	r3, fp
    7b44:	f7f8 fec8 	bl	8d8 <__aeabi_dmul>
    7b48:	4606      	mov	r6, r0
    7b4a:	460f      	mov	r7, r1
    7b4c:	4622      	mov	r2, r4
    7b4e:	462b      	mov	r3, r5
    7b50:	ec51 0b18 	vmov	r0, r1, d8
    7b54:	f7f8 fec0 	bl	8d8 <__aeabi_dmul>
    7b58:	4602      	mov	r2, r0
    7b5a:	460b      	mov	r3, r1
    7b5c:	4630      	mov	r0, r6
    7b5e:	4639      	mov	r1, r7
    7b60:	f7f8 fd04 	bl	56c <__adddf3>
    7b64:	4642      	mov	r2, r8
    7b66:	464b      	mov	r3, r9
    7b68:	4606      	mov	r6, r0
    7b6a:	460f      	mov	r7, r1
    7b6c:	4650      	mov	r0, sl
    7b6e:	4659      	mov	r1, fp
    7b70:	f7f8 feb2 	bl	8d8 <__aeabi_dmul>
    7b74:	4604      	mov	r4, r0
    7b76:	460d      	mov	r5, r1
    7b78:	4630      	mov	r0, r6
    7b7a:	4639      	mov	r1, r7
    7b7c:	4622      	mov	r2, r4
    7b7e:	462b      	mov	r3, r5
    7b80:	f7f8 fcf4 	bl	56c <__adddf3>
    7b84:	4bd4      	ldr	r3, [pc, #848]	; (7ed8 <__ieee754_pow+0x928>)
    7b86:	4680      	mov	r8, r0
    7b88:	4689      	mov	r9, r1
    7b8a:	4299      	cmp	r1, r3
    7b8c:	468a      	mov	sl, r1
    7b8e:	f340 8139 	ble.w	7e04 <__ieee754_pow+0x854>
    7b92:	4bd2      	ldr	r3, [pc, #840]	; (7edc <__ieee754_pow+0x92c>)
    7b94:	440b      	add	r3, r1
    7b96:	4303      	orrs	r3, r0
    7b98:	f040 8258 	bne.w	804c <__ieee754_pow+0xa9c>
    7b9c:	4630      	mov	r0, r6
    7b9e:	4639      	mov	r1, r7
    7ba0:	a3b7      	add	r3, pc, #732	; (adr r3, 7e80 <__ieee754_pow+0x8d0>)
    7ba2:	e9d3 2300 	ldrd	r2, r3, [r3]
    7ba6:	f7f8 fce1 	bl	56c <__adddf3>
    7baa:	4622      	mov	r2, r4
    7bac:	462b      	mov	r3, r5
    7bae:	ec41 0b18 	vmov	d8, r0, r1
    7bb2:	4640      	mov	r0, r8
    7bb4:	4649      	mov	r1, r9
    7bb6:	f7f8 fcd7 	bl	568 <__aeabi_dsub>
    7bba:	4602      	mov	r2, r0
    7bbc:	460b      	mov	r3, r1
    7bbe:	ec51 0b18 	vmov	r0, r1, d8
    7bc2:	f7f9 f919 	bl	df8 <__aeabi_dcmpgt>
    7bc6:	2800      	cmp	r0, #0
    7bc8:	f040 8240 	bne.w	804c <__ieee754_pow+0xa9c>
    7bcc:	f3ca 530a 	ubfx	r3, sl, #20, #11
    7bd0:	f44f 1280 	mov.w	r2, #1048576	; 0x100000
    7bd4:	f2a3 33fe 	subw	r3, r3, #1022	; 0x3fe
    7bd8:	49c1      	ldr	r1, [pc, #772]	; (7ee0 <__ieee754_pow+0x930>)
    7bda:	2000      	movs	r0, #0
    7bdc:	fa42 f303 	asr.w	r3, r2, r3
    7be0:	f1ba 0f00 	cmp.w	sl, #0
    7be4:	4453      	add	r3, sl
    7be6:	f3c3 520a 	ubfx	r2, r3, #20, #11
    7bea:	f2a2 32ff 	subw	r2, r2, #1023	; 0x3ff
    7bee:	fa41 fc02 	asr.w	ip, r1, r2
    7bf2:	f3c3 0113 	ubfx	r1, r3, #0, #20
    7bf6:	f1c2 0214 	rsb	r2, r2, #20
    7bfa:	f441 1180 	orr.w	r1, r1, #1048576	; 0x100000
    7bfe:	fa41 f202 	asr.w	r2, r1, r2
    7c02:	ea0c 0103 	and.w	r1, ip, r3
    7c06:	9200      	str	r2, [sp, #0]
    7c08:	460b      	mov	r3, r1
    7c0a:	4602      	mov	r2, r0
    7c0c:	da02      	bge.n	7c14 <__ieee754_pow+0x664>
    7c0e:	9900      	ldr	r1, [sp, #0]
    7c10:	4249      	negs	r1, r1
    7c12:	9100      	str	r1, [sp, #0]
    7c14:	4620      	mov	r0, r4
    7c16:	4629      	mov	r1, r5
    7c18:	f7f8 fca6 	bl	568 <__aeabi_dsub>
    7c1c:	9b00      	ldr	r3, [sp, #0]
    7c1e:	4602      	mov	r2, r0
    7c20:	4604      	mov	r4, r0
    7c22:	051b      	lsls	r3, r3, #20
    7c24:	460d      	mov	r5, r1
    7c26:	4630      	mov	r0, r6
    7c28:	9302      	str	r3, [sp, #8]
    7c2a:	460b      	mov	r3, r1
    7c2c:	4639      	mov	r1, r7
    7c2e:	f7f8 fc9d 	bl	56c <__adddf3>
    7c32:	4689      	mov	r9, r1
    7c34:	f04f 0800 	mov.w	r8, #0
    7c38:	4649      	mov	r1, r9
    7c3a:	a393      	add	r3, pc, #588	; (adr r3, 7e88 <__ieee754_pow+0x8d8>)
    7c3c:	e9d3 2300 	ldrd	r2, r3, [r3]
    7c40:	4640      	mov	r0, r8
    7c42:	f7f8 fe49 	bl	8d8 <__aeabi_dmul>
    7c46:	4622      	mov	r2, r4
    7c48:	4682      	mov	sl, r0
    7c4a:	468b      	mov	fp, r1
    7c4c:	462b      	mov	r3, r5
    7c4e:	4640      	mov	r0, r8
    7c50:	4649      	mov	r1, r9
    7c52:	f7f8 fc89 	bl	568 <__aeabi_dsub>
    7c56:	4602      	mov	r2, r0
    7c58:	460b      	mov	r3, r1
    7c5a:	4630      	mov	r0, r6
    7c5c:	4639      	mov	r1, r7
    7c5e:	f7f8 fc83 	bl	568 <__aeabi_dsub>
    7c62:	a38b      	add	r3, pc, #556	; (adr r3, 7e90 <__ieee754_pow+0x8e0>)
    7c64:	e9d3 2300 	ldrd	r2, r3, [r3]
    7c68:	f7f8 fe36 	bl	8d8 <__aeabi_dmul>
    7c6c:	4604      	mov	r4, r0
    7c6e:	460d      	mov	r5, r1
    7c70:	4640      	mov	r0, r8
    7c72:	4649      	mov	r1, r9
    7c74:	a388      	add	r3, pc, #544	; (adr r3, 7e98 <__ieee754_pow+0x8e8>)
    7c76:	e9d3 2300 	ldrd	r2, r3, [r3]
    7c7a:	f7f8 fe2d 	bl	8d8 <__aeabi_dmul>
    7c7e:	4602      	mov	r2, r0
    7c80:	460b      	mov	r3, r1
    7c82:	4620      	mov	r0, r4
    7c84:	4629      	mov	r1, r5
    7c86:	f7f8 fc71 	bl	56c <__adddf3>
    7c8a:	4606      	mov	r6, r0
    7c8c:	460f      	mov	r7, r1
    7c8e:	4650      	mov	r0, sl
    7c90:	4632      	mov	r2, r6
    7c92:	4659      	mov	r1, fp
    7c94:	463b      	mov	r3, r7
    7c96:	f7f8 fc69 	bl	56c <__adddf3>
    7c9a:	4652      	mov	r2, sl
    7c9c:	4604      	mov	r4, r0
    7c9e:	460d      	mov	r5, r1
    7ca0:	465b      	mov	r3, fp
    7ca2:	f7f8 fc61 	bl	568 <__aeabi_dsub>
    7ca6:	4602      	mov	r2, r0
    7ca8:	460b      	mov	r3, r1
    7caa:	4630      	mov	r0, r6
    7cac:	4639      	mov	r1, r7
    7cae:	f7f8 fc5b 	bl	568 <__aeabi_dsub>
    7cb2:	4622      	mov	r2, r4
    7cb4:	4682      	mov	sl, r0
    7cb6:	468b      	mov	fp, r1
    7cb8:	462b      	mov	r3, r5
    7cba:	4620      	mov	r0, r4
    7cbc:	4629      	mov	r1, r5
    7cbe:	f7f8 fe0b 	bl	8d8 <__aeabi_dmul>
    7cc2:	4606      	mov	r6, r0
    7cc4:	460f      	mov	r7, r1
    7cc6:	a376      	add	r3, pc, #472	; (adr r3, 7ea0 <__ieee754_pow+0x8f0>)
    7cc8:	e9d3 2300 	ldrd	r2, r3, [r3]
    7ccc:	f7f8 fe04 	bl	8d8 <__aeabi_dmul>
    7cd0:	a375      	add	r3, pc, #468	; (adr r3, 7ea8 <__ieee754_pow+0x8f8>)
    7cd2:	e9d3 2300 	ldrd	r2, r3, [r3]
    7cd6:	f7f8 fc47 	bl	568 <__aeabi_dsub>
    7cda:	4632      	mov	r2, r6
    7cdc:	463b      	mov	r3, r7
    7cde:	f7f8 fdfb 	bl	8d8 <__aeabi_dmul>
    7ce2:	a373      	add	r3, pc, #460	; (adr r3, 7eb0 <__ieee754_pow+0x900>)
    7ce4:	e9d3 2300 	ldrd	r2, r3, [r3]
    7ce8:	f7f8 fc40 	bl	56c <__adddf3>
    7cec:	4632      	mov	r2, r6
    7cee:	463b      	mov	r3, r7
    7cf0:	f7f8 fdf2 	bl	8d8 <__aeabi_dmul>
    7cf4:	a370      	add	r3, pc, #448	; (adr r3, 7eb8 <__ieee754_pow+0x908>)
    7cf6:	e9d3 2300 	ldrd	r2, r3, [r3]
    7cfa:	f7f8 fc35 	bl	568 <__aeabi_dsub>
    7cfe:	4632      	mov	r2, r6
    7d00:	463b      	mov	r3, r7
    7d02:	f7f8 fde9 	bl	8d8 <__aeabi_dmul>
    7d06:	a36e      	add	r3, pc, #440	; (adr r3, 7ec0 <__ieee754_pow+0x910>)
    7d08:	e9d3 2300 	ldrd	r2, r3, [r3]
    7d0c:	f7f8 fc2e 	bl	56c <__adddf3>
    7d10:	4632      	mov	r2, r6
    7d12:	463b      	mov	r3, r7
    7d14:	f7f8 fde0 	bl	8d8 <__aeabi_dmul>
    7d18:	4602      	mov	r2, r0
    7d1a:	460b      	mov	r3, r1
    7d1c:	4620      	mov	r0, r4
    7d1e:	4629      	mov	r1, r5
    7d20:	f7f8 fc22 	bl	568 <__aeabi_dsub>
    7d24:	4606      	mov	r6, r0
    7d26:	460f      	mov	r7, r1
    7d28:	4620      	mov	r0, r4
    7d2a:	4632      	mov	r2, r6
    7d2c:	4629      	mov	r1, r5
    7d2e:	463b      	mov	r3, r7
    7d30:	f7f8 fdd2 	bl	8d8 <__aeabi_dmul>
    7d34:	4680      	mov	r8, r0
    7d36:	4689      	mov	r9, r1
    7d38:	4630      	mov	r0, r6
    7d3a:	4639      	mov	r1, r7
    7d3c:	2200      	movs	r2, #0
    7d3e:	f04f 4380 	mov.w	r3, #1073741824	; 0x40000000
    7d42:	f7f8 fc11 	bl	568 <__aeabi_dsub>
    7d46:	4602      	mov	r2, r0
    7d48:	460b      	mov	r3, r1
    7d4a:	4640      	mov	r0, r8
    7d4c:	4649      	mov	r1, r9
    7d4e:	f7f8 feed 	bl	b2c <__aeabi_ddiv>
    7d52:	4652      	mov	r2, sl
    7d54:	4606      	mov	r6, r0
    7d56:	460f      	mov	r7, r1
    7d58:	465b      	mov	r3, fp
    7d5a:	4620      	mov	r0, r4
    7d5c:	4629      	mov	r1, r5
    7d5e:	f7f8 fdbb 	bl	8d8 <__aeabi_dmul>
    7d62:	4652      	mov	r2, sl
    7d64:	465b      	mov	r3, fp
    7d66:	f7f8 fc01 	bl	56c <__adddf3>
    7d6a:	4602      	mov	r2, r0
    7d6c:	460b      	mov	r3, r1
    7d6e:	4630      	mov	r0, r6
    7d70:	4639      	mov	r1, r7
    7d72:	f7f8 fbf9 	bl	568 <__aeabi_dsub>
    7d76:	4622      	mov	r2, r4
    7d78:	462b      	mov	r3, r5
    7d7a:	f7f8 fbf5 	bl	568 <__aeabi_dsub>
    7d7e:	4602      	mov	r2, r0
    7d80:	460b      	mov	r3, r1
    7d82:	2000      	movs	r0, #0
    7d84:	4957      	ldr	r1, [pc, #348]	; (7ee4 <__ieee754_pow+0x934>)
    7d86:	f7f8 fbef 	bl	568 <__aeabi_dsub>
    7d8a:	4602      	mov	r2, r0
    7d8c:	9802      	ldr	r0, [sp, #8]
    7d8e:	460b      	mov	r3, r1
    7d90:	4408      	add	r0, r1
    7d92:	f5b0 1f80 	cmp.w	r0, #1048576	; 0x100000
    7d96:	4601      	mov	r1, r0
    7d98:	f2c0 8150 	blt.w	803c <__ieee754_pow+0xa8c>
    7d9c:	4610      	mov	r0, r2
    7d9e:	ec53 2b19 	vmov	r2, r3, d9
    7da2:	f7f8 fd99 	bl	8d8 <__aeabi_dmul>
    7da6:	ec41 0b10 	vmov	d0, r0, r1
    7daa:	e41f      	b.n	75ec <__ieee754_pow+0x3c>
    7dac:	ec47 6b10 	vmov	d0, r6, r7
    7db0:	9200      	str	r2, [sp, #0]
    7db2:	f000 fa95 	bl	82e0 <fabs>
    7db6:	9a00      	ldr	r2, [sp, #0]
    7db8:	2a00      	cmp	r2, #0
    7dba:	f47f acc0 	bne.w	773e <__ieee754_pow+0x18e>
    7dbe:	f028 4340 	bic.w	r3, r8, #3221225472	; 0xc0000000
    7dc2:	4a48      	ldr	r2, [pc, #288]	; (7ee4 <__ieee754_pow+0x934>)
    7dc4:	4293      	cmp	r3, r2
    7dc6:	d003      	beq.n	7dd0 <__ieee754_pow+0x820>
    7dc8:	f1b9 0f00 	cmp.w	r9, #0
    7dcc:	f47f acb7 	bne.w	773e <__ieee754_pow+0x18e>
    7dd0:	2300      	movs	r3, #0
    7dd2:	9300      	str	r3, [sp, #0]
    7dd4:	f1bb 0f00 	cmp.w	fp, #0
    7dd8:	da07      	bge.n	7dea <__ieee754_pow+0x83a>
    7dda:	2000      	movs	r0, #0
    7ddc:	4941      	ldr	r1, [pc, #260]	; (7ee4 <__ieee754_pow+0x934>)
    7dde:	ec53 2b10 	vmov	r2, r3, d0
    7de2:	f7f8 fea3 	bl	b2c <__aeabi_ddiv>
    7de6:	ec41 0b10 	vmov	d0, r0, r1
    7dea:	f1b8 0f00 	cmp.w	r8, #0
    7dee:	f6bf abfd 	bge.w	75ec <__ieee754_pow+0x3c>
    7df2:	4b3d      	ldr	r3, [pc, #244]	; (7ee8 <__ieee754_pow+0x938>)
    7df4:	9a00      	ldr	r2, [sp, #0]
    7df6:	444b      	add	r3, r9
    7df8:	4313      	orrs	r3, r2
    7dfa:	f040 8132 	bne.w	8062 <__ieee754_pow+0xab2>
    7dfe:	ec53 2b10 	vmov	r2, r3, d0
    7e02:	e49e      	b.n	7742 <__ieee754_pow+0x192>
    7e04:	f021 4300 	bic.w	r3, r1, #2147483648	; 0x80000000
    7e08:	f8df c0e4 	ldr.w	ip, [pc, #228]	; 7ef0 <__ieee754_pow+0x940>
    7e0c:	4563      	cmp	r3, ip
    7e0e:	f340 80cd 	ble.w	7fac <__ieee754_pow+0x9fc>
    7e12:	4b36      	ldr	r3, [pc, #216]	; (7eec <__ieee754_pow+0x93c>)
    7e14:	440b      	add	r3, r1
    7e16:	4303      	orrs	r3, r0
    7e18:	d10a      	bne.n	7e30 <__ieee754_pow+0x880>
    7e1a:	4622      	mov	r2, r4
    7e1c:	462b      	mov	r3, r5
    7e1e:	f7f8 fba3 	bl	568 <__aeabi_dsub>
    7e22:	4632      	mov	r2, r6
    7e24:	463b      	mov	r3, r7
    7e26:	f7f8 ffdd 	bl	de4 <__aeabi_dcmpge>
    7e2a:	2800      	cmp	r0, #0
    7e2c:	f43f aece 	beq.w	7bcc <__ieee754_pow+0x61c>
    7e30:	2200      	movs	r2, #0
    7e32:	2300      	movs	r3, #0
    7e34:	ec51 0b19 	vmov	r0, r1, d9
    7e38:	f7f8 ffc0 	bl	dbc <__aeabi_dcmplt>
    7e3c:	3800      	subs	r0, #0
    7e3e:	bf18      	it	ne
    7e40:	2001      	movne	r0, #1
    7e42:	b007      	add	sp, #28
    7e44:	ecbd 8b0c 	vpop	{d8-d13}
    7e48:	e8bd 4ff0 	ldmia.w	sp!, {r4, r5, r6, r7, r8, r9, sl, fp, lr}
    7e4c:	f000 ba34 	b.w	82b8 <__math_uflow>
    7e50:	ed9f 7b1d 	vldr	d7, [pc, #116]	; 7ec8 <__ieee754_pow+0x918>
    7e54:	eeb0 9a47 	vmov.f32	s18, s14
    7e58:	eef0 9a67 	vmov.f32	s19, s15
    7e5c:	e664      	b.n	7b28 <__ieee754_pow+0x578>
    7e5e:	f1bb 0f00 	cmp.w	fp, #0
    7e62:	ed9f 0b1b 	vldr	d0, [pc, #108]	; 7ed0 <__ieee754_pow+0x920>
    7e66:	f6bf abc1 	bge.w	75ec <__ieee754_pow+0x3c>
    7e6a:	f105 4300 	add.w	r3, r5, #2147483648	; 0x80000000
    7e6e:	ee00 4a10 	vmov	s0, r4
    7e72:	ee00 3a90 	vmov	s1, r3
    7e76:	f7ff bbb9 	b.w	75ec <__ieee754_pow+0x3c>
    7e7a:	bf00      	nop
    7e7c:	f3af 8000 	nop.w
    7e80:	652b82fe 	.word	0x652b82fe
    7e84:	3c971547 	.word	0x3c971547
    7e88:	00000000 	.word	0x00000000
    7e8c:	3fe62e43 	.word	0x3fe62e43
    7e90:	fefa39ef 	.word	0xfefa39ef
    7e94:	3fe62e42 	.word	0x3fe62e42
    7e98:	0ca86c39 	.word	0x0ca86c39
    7e9c:	be205c61 	.word	0xbe205c61
    7ea0:	72bea4d0 	.word	0x72bea4d0
    7ea4:	3e663769 	.word	0x3e663769
    7ea8:	c5d26bf1 	.word	0xc5d26bf1
    7eac:	3ebbbd41 	.word	0x3ebbbd41
    7eb0:	af25de2c 	.word	0xaf25de2c
    7eb4:	3f11566a 	.word	0x3f11566a
    7eb8:	16bebd93 	.word	0x16bebd93
    7ebc:	3f66c16c 	.word	0x3f66c16c
    7ec0:	5555553e 	.word	0x5555553e
    7ec4:	3fc55555 	.word	0x3fc55555
    7ec8:	00000000 	.word	0x00000000
    7ecc:	3ff00000 	.word	0x3ff00000
	...
    7ed8:	408fffff 	.word	0x408fffff
    7edc:	bf700000 	.word	0xbf700000
    7ee0:	fff00000 	.word	0xfff00000
    7ee4:	3ff00000 	.word	0x3ff00000
    7ee8:	c0100000 	.word	0xc0100000
    7eec:	3f6f3400 	.word	0x3f6f3400
    7ef0:	4090cbff 	.word	0x4090cbff
    7ef4:	4599      	cmp	r9, r3
    7ef6:	db75      	blt.n	7fe4 <__ieee754_pow+0xa34>
    7ef8:	4b7b      	ldr	r3, [pc, #492]	; (80e8 <__ieee754_pow+0xb38>)
    7efa:	4599      	cmp	r9, r3
    7efc:	f73f abdd 	bgt.w	76ba <__ieee754_pow+0x10a>
    7f00:	2200      	movs	r2, #0
    7f02:	4b79      	ldr	r3, [pc, #484]	; (80e8 <__ieee754_pow+0xb38>)
    7f04:	ec51 0b10 	vmov	r0, r1, d0
    7f08:	f7f8 fb2e 	bl	568 <__aeabi_dsub>
    7f0c:	4606      	mov	r6, r0
    7f0e:	460f      	mov	r7, r1
    7f10:	a365      	add	r3, pc, #404	; (adr r3, 80a8 <__ieee754_pow+0xaf8>)
    7f12:	e9d3 2300 	ldrd	r2, r3, [r3]
    7f16:	f7f8 fcdf 	bl	8d8 <__aeabi_dmul>
    7f1a:	4682      	mov	sl, r0
    7f1c:	468b      	mov	fp, r1
    7f1e:	4630      	mov	r0, r6
    7f20:	4639      	mov	r1, r7
    7f22:	a363      	add	r3, pc, #396	; (adr r3, 80b0 <__ieee754_pow+0xb00>)
    7f24:	e9d3 2300 	ldrd	r2, r3, [r3]
    7f28:	f7f8 fcd6 	bl	8d8 <__aeabi_dmul>
    7f2c:	2200      	movs	r2, #0
    7f2e:	4b6f      	ldr	r3, [pc, #444]	; (80ec <__ieee754_pow+0xb3c>)
    7f30:	ec41 0b18 	vmov	d8, r0, r1
    7f34:	4630      	mov	r0, r6
    7f36:	4639      	mov	r1, r7
    7f38:	f7f8 fcce 	bl	8d8 <__aeabi_dmul>
    7f3c:	4602      	mov	r2, r0
    7f3e:	460b      	mov	r3, r1
    7f40:	a15d      	add	r1, pc, #372	; (adr r1, 80b8 <__ieee754_pow+0xb08>)
    7f42:	e9d1 0100 	ldrd	r0, r1, [r1]
    7f46:	f7f8 fb0f 	bl	568 <__aeabi_dsub>
    7f4a:	4632      	mov	r2, r6
    7f4c:	463b      	mov	r3, r7
    7f4e:	f7f8 fcc3 	bl	8d8 <__aeabi_dmul>
    7f52:	4602      	mov	r2, r0
    7f54:	460b      	mov	r3, r1
    7f56:	2000      	movs	r0, #0
    7f58:	4965      	ldr	r1, [pc, #404]	; (80f0 <__ieee754_pow+0xb40>)
    7f5a:	f7f8 fb05 	bl	568 <__aeabi_dsub>
    7f5e:	4680      	mov	r8, r0
    7f60:	4689      	mov	r9, r1
    7f62:	4632      	mov	r2, r6
    7f64:	463b      	mov	r3, r7
    7f66:	4630      	mov	r0, r6
    7f68:	4639      	mov	r1, r7
    7f6a:	f7f8 fcb5 	bl	8d8 <__aeabi_dmul>
    7f6e:	4602      	mov	r2, r0
    7f70:	460b      	mov	r3, r1
    7f72:	4640      	mov	r0, r8
    7f74:	4649      	mov	r1, r9
    7f76:	f7f8 fcaf 	bl	8d8 <__aeabi_dmul>
    7f7a:	a351      	add	r3, pc, #324	; (adr r3, 80c0 <__ieee754_pow+0xb10>)
    7f7c:	e9d3 2300 	ldrd	r2, r3, [r3]
    7f80:	f7f8 fcaa 	bl	8d8 <__aeabi_dmul>
    7f84:	4602      	mov	r2, r0
    7f86:	460b      	mov	r3, r1
    7f88:	ec51 0b18 	vmov	r0, r1, d8
    7f8c:	f7f8 faec 	bl	568 <__aeabi_dsub>
    7f90:	4606      	mov	r6, r0
    7f92:	460f      	mov	r7, r1
    7f94:	4650      	mov	r0, sl
    7f96:	4659      	mov	r1, fp
    7f98:	4632      	mov	r2, r6
    7f9a:	463b      	mov	r3, r7
    7f9c:	f7f8 fae6 	bl	56c <__adddf3>
    7fa0:	2000      	movs	r0, #0
    7fa2:	4652      	mov	r2, sl
    7fa4:	465b      	mov	r3, fp
    7fa6:	4682      	mov	sl, r0
    7fa8:	468b      	mov	fp, r1
    7faa:	e569      	b.n	7a80 <__ieee754_pow+0x4d0>
    7fac:	4a50      	ldr	r2, [pc, #320]	; (80f0 <__ieee754_pow+0xb40>)
    7fae:	4293      	cmp	r3, r2
    7fb0:	dc75      	bgt.n	809e <__ieee754_pow+0xaee>
    7fb2:	e9dd 1200 	ldrd	r1, r2, [sp]
    7fb6:	9102      	str	r1, [sp, #8]
    7fb8:	9100      	str	r1, [sp, #0]
    7fba:	e63b      	b.n	7c34 <__ieee754_pow+0x684>
    7fbc:	2000      	movs	r0, #0
    7fbe:	494a      	ldr	r1, [pc, #296]	; (80e8 <__ieee754_pow+0xb38>)
    7fc0:	4632      	mov	r2, r6
    7fc2:	463b      	mov	r3, r7
    7fc4:	f7f8 fdb2 	bl	b2c <__aeabi_ddiv>
    7fc8:	ec41 0b10 	vmov	d0, r0, r1
    7fcc:	f7ff bb0e 	b.w	75ec <__ieee754_pow+0x3c>
    7fd0:	4632      	mov	r2, r6
    7fd2:	463b      	mov	r3, r7
    7fd4:	4630      	mov	r0, r6
    7fd6:	4639      	mov	r1, r7
    7fd8:	f7f8 fc7e 	bl	8d8 <__aeabi_dmul>
    7fdc:	ec41 0b10 	vmov	d0, r0, r1
    7fe0:	f7ff bb04 	b.w	75ec <__ieee754_pow+0x3c>
    7fe4:	f1bb 0f00 	cmp.w	fp, #0
    7fe8:	f6ff ab6b 	blt.w	76c2 <__ieee754_pow+0x112>
    7fec:	2000      	movs	r0, #0
    7fee:	e728      	b.n	7e42 <__ieee754_pow+0x892>
    7ff0:	2b00      	cmp	r3, #0
    7ff2:	f47f aedb 	bne.w	7dac <__ieee754_pow+0x7fc>
    7ff6:	f1c1 0114 	rsb	r1, r1, #20
    7ffa:	fa4a f001 	asr.w	r0, sl, r1
    7ffe:	fa00 f101 	lsl.w	r1, r0, r1
    8002:	4551      	cmp	r1, sl
    8004:	d044      	beq.n	8090 <__ieee754_pow+0xae0>
    8006:	9300      	str	r3, [sp, #0]
    8008:	f7ff bb25 	b.w	7656 <__ieee754_pow+0xa6>
    800c:	ed9f 7b2e 	vldr	d7, [pc, #184]	; 80c8 <__ieee754_pow+0xb18>
    8010:	f44f 2780 	mov.w	r7, #262144	; 0x40000
    8014:	eeb0 ca47 	vmov.f32	s24, s14
    8018:	eef0 ca67 	vmov.f32	s25, s15
    801c:	ed9f 7b2c 	vldr	d7, [pc, #176]	; 80d0 <__ieee754_pow+0xb20>
    8020:	eeb0 da47 	vmov.f32	s26, s14
    8024:	eef0 da67 	vmov.f32	s27, s15
    8028:	ed9f 7b2b 	vldr	d7, [pc, #172]	; 80d8 <__ieee754_pow+0xb28>
    802c:	ec51 0b17 	vmov	r0, r1, d7
    8030:	f7ff bbdb 	b.w	77ea <__ieee754_pow+0x23a>
    8034:	ed9f 0b2a 	vldr	d0, [pc, #168]	; 80e0 <__ieee754_pow+0xb30>
    8038:	f7ff bad8 	b.w	75ec <__ieee754_pow+0x3c>
    803c:	9800      	ldr	r0, [sp, #0]
    803e:	ec43 2b10 	vmov	d0, r2, r3
    8042:	f000 f989 	bl	8358 <scalbn>
    8046:	ec51 0b10 	vmov	r0, r1, d0
    804a:	e6a8      	b.n	7d9e <__ieee754_pow+0x7ee>
    804c:	2200      	movs	r2, #0
    804e:	2300      	movs	r3, #0
    8050:	ec51 0b19 	vmov	r0, r1, d9
    8054:	f7f8 feb2 	bl	dbc <__aeabi_dcmplt>
    8058:	3800      	subs	r0, #0
    805a:	bf18      	it	ne
    805c:	2001      	movne	r0, #1
    805e:	f7ff bb31 	b.w	76c4 <__ieee754_pow+0x114>
    8062:	9b00      	ldr	r3, [sp, #0]
    8064:	2b01      	cmp	r3, #1
    8066:	f47f aac1 	bne.w	75ec <__ieee754_pow+0x3c>
    806a:	ee10 1a90 	vmov	r1, s1
    806e:	ee10 2a10 	vmov	r2, s0
    8072:	f101 4300 	add.w	r3, r1, #2147483648	; 0x80000000
    8076:	ec43 2b10 	vmov	d0, r2, r3
    807a:	f7ff bab7 	b.w	75ec <__ieee754_pow+0x3c>
    807e:	ec47 6b10 	vmov	d0, r6, r7
    8082:	b007      	add	sp, #28
    8084:	ecbd 8b0c 	vpop	{d8-d13}
    8088:	e8bd 4ff0 	ldmia.w	sp!, {r4, r5, r6, r7, r8, r9, sl, fp, lr}
    808c:	f000 b832 	b.w	80f4 <__ieee754_sqrt>
    8090:	f000 0001 	and.w	r0, r0, #1
    8094:	f1c0 0302 	rsb	r3, r0, #2
    8098:	9300      	str	r3, [sp, #0]
    809a:	f7ff badc 	b.w	7656 <__ieee754_pow+0xa6>
    809e:	151b      	asrs	r3, r3, #20
    80a0:	e596      	b.n	7bd0 <__ieee754_pow+0x620>
    80a2:	bf00      	nop
    80a4:	f3af 8000 	nop.w
    80a8:	60000000 	.word	0x60000000
    80ac:	3ff71547 	.word	0x3ff71547
    80b0:	f85ddf44 	.word	0xf85ddf44
    80b4:	3e54ae0b 	.word	0x3e54ae0b
    80b8:	55555555 	.word	0x55555555
    80bc:	3fd55555 	.word	0x3fd55555
    80c0:	652b82fe 	.word	0x652b82fe
    80c4:	3ff71547 	.word	0x3ff71547
    80c8:	40000000 	.word	0x40000000
    80cc:	3fe2b803 	.word	0x3fe2b803
    80d0:	43cfd006 	.word	0x43cfd006
    80d4:	3e4cfdeb 	.word	0x3e4cfdeb
    80d8:	00000000 	.word	0x00000000
    80dc:	3ff80000 	.word	0x3ff80000
	...
    80e8:	3ff00000 	.word	0x3ff00000
    80ec:	3fd00000 	.word	0x3fd00000
    80f0:	3fe00000 	.word	0x3fe00000

000080f4 <__ieee754_sqrt>:
    80f4:	495c      	ldr	r1, [pc, #368]	; (8268 <__ieee754_sqrt+0x174>)
    80f6:	e92d 41f0 	stmdb	sp!, {r4, r5, r6, r7, r8, lr}
    80fa:	ec55 4b10 	vmov	r4, r5, d0
    80fe:	43a9      	bics	r1, r5
    8100:	f000 8090 	beq.w	8224 <__ieee754_sqrt+0x130>
    8104:	2d00      	cmp	r5, #0
    8106:	462b      	mov	r3, r5
    8108:	ee10 2a10 	vmov	r2, s0
    810c:	dd59      	ble.n	81c2 <__ieee754_sqrt+0xce>
    810e:	1528      	asrs	r0, r5, #20
    8110:	d065      	beq.n	81de <__ieee754_sqrt+0xea>
    8112:	f3c3 0313 	ubfx	r3, r3, #0, #20
    8116:	f2a0 36ff 	subw	r6, r0, #1023	; 0x3ff
    811a:	07c0      	lsls	r0, r0, #31
    811c:	f443 1180 	orr.w	r1, r3, #1048576	; 0x100000
    8120:	d403      	bmi.n	812a <__ieee754_sqrt+0x36>
    8122:	0fd3      	lsrs	r3, r2, #31
    8124:	0052      	lsls	r2, r2, #1
    8126:	eb03 0141 	add.w	r1, r3, r1, lsl #1
    812a:	0fd3      	lsrs	r3, r2, #31
    812c:	2700      	movs	r7, #0
    812e:	1076      	asrs	r6, r6, #1
    8130:	f04f 0c16 	mov.w	ip, #22
    8134:	eb03 0341 	add.w	r3, r3, r1, lsl #1
    8138:	46be      	mov	lr, r7
    813a:	0052      	lsls	r2, r2, #1
    813c:	f44f 1100 	mov.w	r1, #2097152	; 0x200000
    8140:	eb0e 0001 	add.w	r0, lr, r1
    8144:	0fd4      	lsrs	r4, r2, #31
    8146:	0052      	lsls	r2, r2, #1
    8148:	4298      	cmp	r0, r3
    814a:	dc03      	bgt.n	8154 <__ieee754_sqrt+0x60>
    814c:	eb00 0e01 	add.w	lr, r0, r1
    8150:	1a1b      	subs	r3, r3, r0
    8152:	440f      	add	r7, r1
    8154:	f1bc 0c01 	subs.w	ip, ip, #1
    8158:	eb04 0343 	add.w	r3, r4, r3, lsl #1
    815c:	ea4f 0151 	mov.w	r1, r1, lsr #1
    8160:	d1ee      	bne.n	8140 <__ieee754_sqrt+0x4c>
    8162:	4665      	mov	r5, ip
    8164:	2420      	movs	r4, #32
    8166:	f04f 4100 	mov.w	r1, #2147483648	; 0x80000000
    816a:	e014      	b.n	8196 <__ieee754_sqrt+0xa2>
    816c:	d10a      	bne.n	8184 <__ieee754_sqrt+0x90>
    816e:	4290      	cmp	r0, r2
    8170:	d808      	bhi.n	8184 <__ieee754_sqrt+0x90>
    8172:	2800      	cmp	r0, #0
    8174:	eb00 0c01 	add.w	ip, r0, r1
    8178:	db1d      	blt.n	81b6 <__ieee754_sqrt+0xc2>
    817a:	46f0      	mov	r8, lr
    817c:	2300      	movs	r3, #0
    817e:	1a12      	subs	r2, r2, r0
    8180:	440d      	add	r5, r1
    8182:	46c6      	mov	lr, r8
    8184:	005b      	lsls	r3, r3, #1
    8186:	3c01      	subs	r4, #1
    8188:	ea4f 0151 	mov.w	r1, r1, lsr #1
    818c:	eb03 73d2 	add.w	r3, r3, r2, lsr #31
    8190:	ea4f 0242 	mov.w	r2, r2, lsl #1
    8194:	d032      	beq.n	81fc <__ieee754_sqrt+0x108>
    8196:	4573      	cmp	r3, lr
    8198:	eb01 000c 	add.w	r0, r1, ip
    819c:	dde6      	ble.n	816c <__ieee754_sqrt+0x78>
    819e:	2800      	cmp	r0, #0
    81a0:	eb00 0c01 	add.w	ip, r0, r1
    81a4:	db07      	blt.n	81b6 <__ieee754_sqrt+0xc2>
    81a6:	46f0      	mov	r8, lr
    81a8:	eba3 030e 	sub.w	r3, r3, lr
    81ac:	4290      	cmp	r0, r2
    81ae:	bf88      	it	hi
    81b0:	f103 33ff 	addhi.w	r3, r3, #4294967295	; 0xffffffff
    81b4:	e7e3      	b.n	817e <__ieee754_sqrt+0x8a>
    81b6:	f1bc 0f00 	cmp.w	ip, #0
    81ba:	dbf4      	blt.n	81a6 <__ieee754_sqrt+0xb2>
    81bc:	f10e 0801 	add.w	r8, lr, #1
    81c0:	e7f2      	b.n	81a8 <__ieee754_sqrt+0xb4>
    81c2:	f025 4100 	bic.w	r1, r5, #2147483648	; 0x80000000
    81c6:	4321      	orrs	r1, r4
    81c8:	d02a      	beq.n	8220 <__ieee754_sqrt+0x12c>
    81ca:	2d00      	cmp	r5, #0
    81cc:	d13a      	bne.n	8244 <__ieee754_sqrt+0x150>
    81ce:	4628      	mov	r0, r5
    81d0:	0ad3      	lsrs	r3, r2, #11
    81d2:	3815      	subs	r0, #21
    81d4:	0552      	lsls	r2, r2, #21
    81d6:	2b00      	cmp	r3, #0
    81d8:	d0fa      	beq.n	81d0 <__ieee754_sqrt+0xdc>
    81da:	02de      	lsls	r6, r3, #11
    81dc:	d43f      	bmi.n	825e <__ieee754_sqrt+0x16a>
    81de:	2100      	movs	r1, #0
    81e0:	005b      	lsls	r3, r3, #1
    81e2:	460c      	mov	r4, r1
    81e4:	3101      	adds	r1, #1
    81e6:	02dd      	lsls	r5, r3, #11
    81e8:	d5fa      	bpl.n	81e0 <__ieee754_sqrt+0xec>
    81ea:	4615      	mov	r5, r2
    81ec:	408a      	lsls	r2, r1
    81ee:	f1c1 0120 	rsb	r1, r1, #32
    81f2:	fa25 f101 	lsr.w	r1, r5, r1
    81f6:	1b00      	subs	r0, r0, r4
    81f8:	430b      	orrs	r3, r1
    81fa:	e78a      	b.n	8112 <__ieee754_sqrt+0x1e>
    81fc:	4313      	orrs	r3, r2
    81fe:	d002      	beq.n	8206 <__ieee754_sqrt+0x112>
    8200:	1c6a      	adds	r2, r5, #1
    8202:	d02a      	beq.n	825a <__ieee754_sqrt+0x166>
    8204:	3501      	adds	r5, #1
    8206:	086c      	lsrs	r4, r5, #1
    8208:	07fb      	lsls	r3, r7, #31
    820a:	4918      	ldr	r1, [pc, #96]	; (826c <__ieee754_sqrt+0x178>)
    820c:	bf48      	it	mi
    820e:	f044 4400 	orrmi.w	r4, r4, #2147483648	; 0x80000000
    8212:	eb01 0167 	add.w	r1, r1, r7, asr #1
    8216:	4622      	mov	r2, r4
    8218:	eb01 5306 	add.w	r3, r1, r6, lsl #20
    821c:	ec43 2b10 	vmov	d0, r2, r3
    8220:	e8bd 81f0 	ldmia.w	sp!, {r4, r5, r6, r7, r8, pc}
    8224:	ee10 2a10 	vmov	r2, s0
    8228:	462b      	mov	r3, r5
    822a:	ee10 0a10 	vmov	r0, s0
    822e:	4629      	mov	r1, r5
    8230:	f7f8 fb52 	bl	8d8 <__aeabi_dmul>
    8234:	4622      	mov	r2, r4
    8236:	462b      	mov	r3, r5
    8238:	f7f8 f998 	bl	56c <__adddf3>
    823c:	ec41 0b10 	vmov	d0, r0, r1
    8240:	e8bd 81f0 	ldmia.w	sp!, {r4, r5, r6, r7, r8, pc}
    8244:	4620      	mov	r0, r4
    8246:	4629      	mov	r1, r5
    8248:	f7f8 f98e 	bl	568 <__aeabi_dsub>
    824c:	4602      	mov	r2, r0
    824e:	460b      	mov	r3, r1
    8250:	f7f8 fc6c 	bl	b2c <__aeabi_ddiv>
    8254:	ec41 0b10 	vmov	d0, r0, r1
    8258:	e7e2      	b.n	8220 <__ieee754_sqrt+0x12c>
    825a:	3701      	adds	r7, #1
    825c:	e7d4      	b.n	8208 <__ieee754_sqrt+0x114>
    825e:	4615      	mov	r5, r2
    8260:	2120      	movs	r1, #32
    8262:	f04f 34ff 	mov.w	r4, #4294967295	; 0xffffffff
    8266:	e7c4      	b.n	81f2 <__ieee754_sqrt+0xfe>
    8268:	7ff00000 	.word	0x7ff00000
    826c:	3fe00000 	.word	0x3fe00000

00008270 <with_errno>:
    8270:	b5d0      	push	{r4, r6, r7, lr}
    8272:	4606      	mov	r6, r0
    8274:	460f      	mov	r7, r1
    8276:	4614      	mov	r4, r2
    8278:	f000 f8f6 	bl	8468 <__errno>
    827c:	4603      	mov	r3, r0
    827e:	4639      	mov	r1, r7
    8280:	4630      	mov	r0, r6
    8282:	601c      	str	r4, [r3, #0]
    8284:	bdd0      	pop	{r4, r6, r7, pc}
    8286:	bf00      	nop

00008288 <xflow>:
    8288:	b500      	push	{lr}
    828a:	b083      	sub	sp, #12
    828c:	b180      	cbz	r0, 82b0 <xflow+0x28>
    828e:	4610      	mov	r0, r2
    8290:	f103 4100 	add.w	r1, r3, #2147483648	; 0x80000000
    8294:	e9cd 0100 	strd	r0, r1, [sp]
    8298:	4610      	mov	r0, r2
    829a:	4619      	mov	r1, r3
    829c:	e9dd 2300 	ldrd	r2, r3, [sp]
    82a0:	f7f8 fb1a 	bl	8d8 <__aeabi_dmul>
    82a4:	2222      	movs	r2, #34	; 0x22
    82a6:	b003      	add	sp, #12
    82a8:	f85d eb04 	ldr.w	lr, [sp], #4
    82ac:	f7ff bfe0 	b.w	8270 <with_errno>
    82b0:	4610      	mov	r0, r2
    82b2:	4619      	mov	r1, r3
    82b4:	e7ee      	b.n	8294 <xflow+0xc>
    82b6:	bf00      	nop

000082b8 <__math_uflow>:
    82b8:	b508      	push	{r3, lr}
    82ba:	2200      	movs	r2, #0
    82bc:	f04f 5380 	mov.w	r3, #268435456	; 0x10000000
    82c0:	f7ff ffe2 	bl	8288 <xflow>
    82c4:	ec41 0b10 	vmov	d0, r0, r1
    82c8:	bd08      	pop	{r3, pc}
    82ca:	bf00      	nop

000082cc <__math_oflow>:
    82cc:	b508      	push	{r3, lr}
    82ce:	2200      	movs	r2, #0
    82d0:	f04f 43e0 	mov.w	r3, #1879048192	; 0x70000000
    82d4:	f7ff ffd8 	bl	8288 <xflow>
    82d8:	ec41 0b10 	vmov	d0, r0, r1
    82dc:	bd08      	pop	{r3, pc}
    82de:	bf00      	nop

000082e0 <fabs>:
    82e0:	ec51 0b10 	vmov	r0, r1, d0
    82e4:	ee10 2a10 	vmov	r2, s0
    82e8:	f021 4300 	bic.w	r3, r1, #2147483648	; 0x80000000
    82ec:	ec43 2b10 	vmov	d0, r2, r3
    82f0:	4770      	bx	lr
    82f2:	bf00      	nop

000082f4 <finite>:
    82f4:	b082      	sub	sp, #8
    82f6:	4805      	ldr	r0, [pc, #20]	; (830c <finite+0x18>)
    82f8:	ed8d 0b00 	vstr	d0, [sp]
    82fc:	9b01      	ldr	r3, [sp, #4]
    82fe:	f023 4300 	bic.w	r3, r3, #2147483648	; 0x80000000
    8302:	4418      	add	r0, r3
    8304:	0fc0      	lsrs	r0, r0, #31
    8306:	b002      	add	sp, #8
    8308:	4770      	bx	lr
    830a:	bf00      	nop
    830c:	80100000 	.word	0x80100000

00008310 <__fpclassifyd>:
    8310:	ec51 0b10 	vmov	r0, r1, d0
    8314:	f021 4300 	bic.w	r3, r1, #2147483648	; 0x80000000
    8318:	460a      	mov	r2, r1
    831a:	ea50 0103 	orrs.w	r1, r0, r3
    831e:	d00e      	beq.n	833e <__fpclassifyd+0x2e>
    8320:	f5a3 1c80 	sub.w	ip, r3, #1048576	; 0x100000
    8324:	4909      	ldr	r1, [pc, #36]	; (834c <__fpclassifyd+0x3c>)
    8326:	458c      	cmp	ip, r1
    8328:	d90d      	bls.n	8346 <__fpclassifyd+0x36>
    832a:	4909      	ldr	r1, [pc, #36]	; (8350 <__fpclassifyd+0x40>)
    832c:	420a      	tst	r2, r1
    832e:	d008      	beq.n	8342 <__fpclassifyd+0x32>
    8330:	2800      	cmp	r0, #0
    8332:	bf08      	it	eq
    8334:	428b      	cmpeq	r3, r1
    8336:	bf0c      	ite	eq
    8338:	2001      	moveq	r0, #1
    833a:	2000      	movne	r0, #0
    833c:	4770      	bx	lr
    833e:	2002      	movs	r0, #2
    8340:	4770      	bx	lr
    8342:	2003      	movs	r0, #3
    8344:	4770      	bx	lr
    8346:	2004      	movs	r0, #4
    8348:	4770      	bx	lr
    834a:	bf00      	nop
    834c:	7fdfffff 	.word	0x7fdfffff
    8350:	7ff00000 	.word	0x7ff00000
    8354:	00000000 	.word	0x00000000

00008358 <scalbn>:
    8358:	ec53 2b10 	vmov	r2, r3, d0
    835c:	b570      	push	{r4, r5, r6, lr}
    835e:	4605      	mov	r5, r0
    8360:	f3c3 500a 	ubfx	r0, r3, #20, #11
    8364:	4619      	mov	r1, r3
    8366:	bb68      	cbnz	r0, 83c4 <scalbn+0x6c>
    8368:	f023 4100 	bic.w	r1, r3, #2147483648	; 0x80000000
    836c:	ee10 0a10 	vmov	r0, s0
    8370:	4311      	orrs	r1, r2
    8372:	d026      	beq.n	83c2 <scalbn+0x6a>
    8374:	4c36      	ldr	r4, [pc, #216]	; (8450 <scalbn+0xf8>)
    8376:	4619      	mov	r1, r3
    8378:	2200      	movs	r2, #0
    837a:	4b36      	ldr	r3, [pc, #216]	; (8454 <scalbn+0xfc>)
    837c:	f7f8 faac 	bl	8d8 <__aeabi_dmul>
    8380:	42a5      	cmp	r5, r4
    8382:	4602      	mov	r2, r0
    8384:	460b      	mov	r3, r1
    8386:	db3d      	blt.n	8404 <scalbn+0xac>
    8388:	f3c1 540a 	ubfx	r4, r1, #20, #11
    838c:	f1a4 0036 	sub.w	r0, r4, #54	; 0x36
    8390:	4428      	add	r0, r5
    8392:	f240 74fe 	movw	r4, #2046	; 0x7fe
    8396:	42a0      	cmp	r0, r4
    8398:	dc1f      	bgt.n	83da <scalbn+0x82>
    839a:	2800      	cmp	r0, #0
    839c:	dc3a      	bgt.n	8414 <scalbn+0xbc>
    839e:	f110 0f35 	cmn.w	r0, #53	; 0x35
    83a2:	db2a      	blt.n	83fa <scalbn+0xa2>
    83a4:	4e2c      	ldr	r6, [pc, #176]	; (8458 <scalbn+0x100>)
    83a6:	f100 0336 	add.w	r3, r0, #54	; 0x36
    83aa:	4614      	mov	r4, r2
    83ac:	2200      	movs	r2, #0
    83ae:	400e      	ands	r6, r1
    83b0:	4620      	mov	r0, r4
    83b2:	ea46 5503 	orr.w	r5, r6, r3, lsl #20
    83b6:	4b29      	ldr	r3, [pc, #164]	; (845c <scalbn+0x104>)
    83b8:	4629      	mov	r1, r5
    83ba:	f7f8 fa8d 	bl	8d8 <__aeabi_dmul>
    83be:	ec41 0b10 	vmov	d0, r0, r1
    83c2:	bd70      	pop	{r4, r5, r6, pc}
    83c4:	f240 7cff 	movw	ip, #2047	; 0x7ff
    83c8:	4560      	cmp	r0, ip
    83ca:	d1e1      	bne.n	8390 <scalbn+0x38>
    83cc:	ee10 0a10 	vmov	r0, s0
    83d0:	f7f8 f8cc 	bl	56c <__adddf3>
    83d4:	ec41 0b10 	vmov	d0, r0, r1
    83d8:	bd70      	pop	{r4, r5, r6, pc}
    83da:	2b00      	cmp	r3, #0
    83dc:	a114      	add	r1, pc, #80	; (adr r1, 8430 <scalbn+0xd8>)
    83de:	e9d1 0100 	ldrd	r0, r1, [r1]
    83e2:	da02      	bge.n	83ea <scalbn+0x92>
    83e4:	a114      	add	r1, pc, #80	; (adr r1, 8438 <scalbn+0xe0>)
    83e6:	e9d1 0100 	ldrd	r0, r1, [r1]
    83ea:	a311      	add	r3, pc, #68	; (adr r3, 8430 <scalbn+0xd8>)
    83ec:	e9d3 2300 	ldrd	r2, r3, [r3]
    83f0:	f7f8 fa72 	bl	8d8 <__aeabi_dmul>
    83f4:	ec41 0b10 	vmov	d0, r0, r1
    83f8:	bd70      	pop	{r4, r5, r6, pc}
    83fa:	2b00      	cmp	r3, #0
    83fc:	a110      	add	r1, pc, #64	; (adr r1, 8440 <scalbn+0xe8>)
    83fe:	e9d1 0100 	ldrd	r0, r1, [r1]
    8402:	db0e      	blt.n	8422 <scalbn+0xca>
    8404:	a30e      	add	r3, pc, #56	; (adr r3, 8440 <scalbn+0xe8>)
    8406:	e9d3 2300 	ldrd	r2, r3, [r3]
    840a:	f7f8 fa65 	bl	8d8 <__aeabi_dmul>
    840e:	ec41 0b10 	vmov	d0, r0, r1
    8412:	bd70      	pop	{r4, r5, r6, pc}
    8414:	4c10      	ldr	r4, [pc, #64]	; (8458 <scalbn+0x100>)
    8416:	400c      	ands	r4, r1
    8418:	ea44 5300 	orr.w	r3, r4, r0, lsl #20
    841c:	ec43 2b10 	vmov	d0, r2, r3
    8420:	bd70      	pop	{r4, r5, r6, pc}
    8422:	a109      	add	r1, pc, #36	; (adr r1, 8448 <scalbn+0xf0>)
    8424:	e9d1 0100 	ldrd	r0, r1, [r1]
    8428:	e7ec      	b.n	8404 <scalbn+0xac>
    842a:	bf00      	nop
    842c:	f3af 8000 	nop.w
    8430:	8800759c 	.word	0x8800759c
    8434:	7e37e43c 	.word	0x7e37e43c
    8438:	8800759c 	.word	0x8800759c
    843c:	fe37e43c 	.word	0xfe37e43c
    8440:	c2f8f359 	.word	0xc2f8f359
    8444:	01a56e1f 	.word	0x01a56e1f
    8448:	c2f8f359 	.word	0xc2f8f359
    844c:	81a56e1f 	.word	0x81a56e1f
    8450:	ffff3cb0 	.word	0xffff3cb0
    8454:	43500000 	.word	0x43500000
    8458:	800fffff 	.word	0x800fffff
    845c:	3c900000 	.word	0x3c900000

00008460 <__aeabi_memclr>:
    8460:	2200      	movs	r2, #0
    8462:	f7f8 bf47 	b.w	12f4 <__aeabi_memset>
    8466:	bf00      	nop

00008468 <__errno>:
    8468:	4b01      	ldr	r3, [pc, #4]	; (8470 <__errno+0x8>)
    846a:	6818      	ldr	r0, [r3, #0]
    846c:	4770      	bx	lr
    846e:	bf00      	nop
    8470:	2000000c 	.word	0x2000000c

00008474 <exit>:
    8474:	b508      	push	{r3, lr}
    8476:	2100      	movs	r1, #0
    8478:	4604      	mov	r4, r0
    847a:	f000 f8b9 	bl	85f0 <__call_exitprocs>
    847e:	4b04      	ldr	r3, [pc, #16]	; (8490 <exit+0x1c>)
    8480:	6818      	ldr	r0, [r3, #0]
    8482:	6bc3      	ldr	r3, [r0, #60]	; 0x3c
    8484:	b103      	cbz	r3, 8488 <exit+0x14>
    8486:	4798      	blx	r3
    8488:	4620      	mov	r0, r4
    848a:	f000 f971 	bl	8770 <_exit>
    848e:	bf00      	nop
    8490:	0000932c 	.word	0x0000932c

00008494 <__libc_init_array>:
    8494:	b570      	push	{r4, r5, r6, lr}
    8496:	4e0d      	ldr	r6, [pc, #52]	; (84cc <__libc_init_array+0x38>)
    8498:	4d0d      	ldr	r5, [pc, #52]	; (84d0 <__libc_init_array+0x3c>)
    849a:	1b76      	subs	r6, r6, r5
    849c:	10b6      	asrs	r6, r6, #2
    849e:	d006      	beq.n	84ae <__libc_init_array+0x1a>
    84a0:	2400      	movs	r4, #0
    84a2:	3401      	adds	r4, #1
    84a4:	f855 3b04 	ldr.w	r3, [r5], #4
    84a8:	4798      	blx	r3
    84aa:	42a6      	cmp	r6, r4
    84ac:	d1f9      	bne.n	84a2 <__libc_init_array+0xe>
    84ae:	4e09      	ldr	r6, [pc, #36]	; (84d4 <__libc_init_array+0x40>)
    84b0:	f000 ff3e 	bl	9330 <_init>
    84b4:	4d08      	ldr	r5, [pc, #32]	; (84d8 <__libc_init_array+0x44>)
    84b6:	1b76      	subs	r6, r6, r5
    84b8:	10b6      	asrs	r6, r6, #2
    84ba:	d006      	beq.n	84ca <__libc_init_array+0x36>
    84bc:	2400      	movs	r4, #0
    84be:	3401      	adds	r4, #1
    84c0:	f855 3b04 	ldr.w	r3, [r5], #4
    84c4:	4798      	blx	r3
    84c6:	42a6      	cmp	r6, r4
    84c8:	d1f9      	bne.n	84be <__libc_init_array+0x2a>
    84ca:	bd70      	pop	{r4, r5, r6, pc}
    84cc:	00009350 	.word	0x00009350
    84d0:	00009350 	.word	0x00009350
    84d4:	00009358 	.word	0x00009358
    84d8:	00009350 	.word	0x00009350

000084dc <memset>:
    84dc:	b570      	push	{r4, r5, r6, lr}
    84de:	0786      	lsls	r6, r0, #30
    84e0:	d048      	beq.n	8574 <memset+0x98>
    84e2:	1e54      	subs	r4, r2, #1
    84e4:	2a00      	cmp	r2, #0
    84e6:	d03f      	beq.n	8568 <memset+0x8c>
    84e8:	b2ca      	uxtb	r2, r1
    84ea:	4603      	mov	r3, r0
    84ec:	e001      	b.n	84f2 <memset+0x16>
    84ee:	3c01      	subs	r4, #1
    84f0:	d33a      	bcc.n	8568 <memset+0x8c>
    84f2:	f803 2b01 	strb.w	r2, [r3], #1
    84f6:	079d      	lsls	r5, r3, #30
    84f8:	d1f9      	bne.n	84ee <memset+0x12>
    84fa:	2c03      	cmp	r4, #3
    84fc:	d92d      	bls.n	855a <memset+0x7e>
    84fe:	b2cd      	uxtb	r5, r1
    8500:	2c0f      	cmp	r4, #15
    8502:	ea45 2505 	orr.w	r5, r5, r5, lsl #8
    8506:	ea45 4505 	orr.w	r5, r5, r5, lsl #16
    850a:	d936      	bls.n	857a <memset+0x9e>
    850c:	f1a4 0c10 	sub.w	ip, r4, #16
    8510:	f103 0e20 	add.w	lr, r3, #32
    8514:	f103 0210 	add.w	r2, r3, #16
    8518:	f02c 060f 	bic.w	r6, ip, #15
    851c:	ea4f 1c1c 	mov.w	ip, ip, lsr #4
    8520:	44b6      	add	lr, r6
    8522:	e942 5504 	strd	r5, r5, [r2, #-16]
    8526:	e942 5502 	strd	r5, r5, [r2, #-8]
    852a:	3210      	adds	r2, #16
    852c:	4572      	cmp	r2, lr
    852e:	d1f8      	bne.n	8522 <memset+0x46>
    8530:	f10c 0201 	add.w	r2, ip, #1
    8534:	f014 0f0c 	tst.w	r4, #12
    8538:	f004 0c0f 	and.w	ip, r4, #15
    853c:	eb03 1202 	add.w	r2, r3, r2, lsl #4
    8540:	d013      	beq.n	856a <memset+0x8e>
    8542:	f1ac 0304 	sub.w	r3, ip, #4
    8546:	f023 0303 	bic.w	r3, r3, #3
    854a:	3304      	adds	r3, #4
    854c:	4413      	add	r3, r2
    854e:	f842 5b04 	str.w	r5, [r2], #4
    8552:	4293      	cmp	r3, r2
    8554:	d1fb      	bne.n	854e <memset+0x72>
    8556:	f00c 0403 	and.w	r4, ip, #3
    855a:	b12c      	cbz	r4, 8568 <memset+0x8c>
    855c:	b2c9      	uxtb	r1, r1
    855e:	441c      	add	r4, r3
    8560:	f803 1b01 	strb.w	r1, [r3], #1
    8564:	429c      	cmp	r4, r3
    8566:	d1fb      	bne.n	8560 <memset+0x84>
    8568:	bd70      	pop	{r4, r5, r6, pc}
    856a:	4664      	mov	r4, ip
    856c:	4613      	mov	r3, r2
    856e:	2c00      	cmp	r4, #0
    8570:	d1f4      	bne.n	855c <memset+0x80>
    8572:	e7f9      	b.n	8568 <memset+0x8c>
    8574:	4603      	mov	r3, r0
    8576:	4614      	mov	r4, r2
    8578:	e7bf      	b.n	84fa <memset+0x1e>
    857a:	461a      	mov	r2, r3
    857c:	46a4      	mov	ip, r4
    857e:	e7e0      	b.n	8542 <memset+0x66>

00008580 <strlen>:
    8580:	f020 0103 	bic.w	r1, r0, #3
    8584:	f010 0003 	ands.w	r0, r0, #3
    8588:	f1c0 0000 	rsb	r0, r0, #0
    858c:	f851 3b04 	ldr.w	r3, [r1], #4
    8590:	f100 0c04 	add.w	ip, r0, #4
    8594:	ea4f 0ccc 	mov.w	ip, ip, lsl #3
    8598:	f06f 0200 	mvn.w	r2, #0
    859c:	bf1c      	itt	ne
    859e:	fa22 f20c 	lsrne.w	r2, r2, ip
    85a2:	4313      	orrne	r3, r2
    85a4:	f04f 0c01 	mov.w	ip, #1
    85a8:	ea4c 2c0c 	orr.w	ip, ip, ip, lsl #8
    85ac:	ea4c 4c0c 	orr.w	ip, ip, ip, lsl #16
    85b0:	eba3 020c 	sub.w	r2, r3, ip
    85b4:	ea22 0203 	bic.w	r2, r2, r3
    85b8:	ea12 12cc 	ands.w	r2, r2, ip, lsl #7
    85bc:	bf04      	itt	eq
    85be:	f851 3b04 	ldreq.w	r3, [r1], #4
    85c2:	3004      	addeq	r0, #4
    85c4:	d0f4      	beq.n	85b0 <strlen+0x30>
    85c6:	f1c2 0100 	rsb	r1, r2, #0
    85ca:	ea02 0201 	and.w	r2, r2, r1
    85ce:	fab2 f282 	clz	r2, r2
    85d2:	f1c2 021f 	rsb	r2, r2, #31
    85d6:	eb00 00d2 	add.w	r0, r0, r2, lsr #3
    85da:	4770      	bx	lr

000085dc <register_fini>:
    85dc:	4b02      	ldr	r3, [pc, #8]	; (85e8 <register_fini+0xc>)
    85de:	b113      	cbz	r3, 85e6 <register_fini+0xa>
    85e0:	4802      	ldr	r0, [pc, #8]	; (85ec <register_fini+0x10>)
    85e2:	f000 b863 	b.w	86ac <atexit>
    85e6:	4770      	bx	lr
    85e8:	00000000 	.word	0x00000000
    85ec:	000086b9 	.word	0x000086b9

000085f0 <__call_exitprocs>:
    85f0:	e92d 4ff8 	stmdb	sp!, {r3, r4, r5, r6, r7, r8, r9, sl, fp, lr}
    85f4:	4b2b      	ldr	r3, [pc, #172]	; (86a4 <__call_exitprocs+0xb4>)
    85f6:	4683      	mov	fp, r0
    85f8:	460f      	mov	r7, r1
    85fa:	6818      	ldr	r0, [r3, #0]
    85fc:	ed2d 8b02 	vpush	{d8}
    8600:	f000 f86e 	bl	86e0 <__retarget_lock_acquire_recursive>
    8604:	4b28      	ldr	r3, [pc, #160]	; (86a8 <__call_exitprocs+0xb8>)
    8606:	f8d3 8000 	ldr.w	r8, [r3]
    860a:	f8d8 6148 	ldr.w	r6, [r8, #328]	; 0x148
    860e:	b1a6      	cbz	r6, 863a <__call_exitprocs+0x4a>
    8610:	ee08 ba10 	vmov	s16, fp
    8614:	f04f 0901 	mov.w	r9, #1
    8618:	f04f 0a00 	mov.w	sl, #0
    861c:	6874      	ldr	r4, [r6, #4]
    861e:	1e65      	subs	r5, r4, #1
    8620:	d40b      	bmi.n	863a <__call_exitprocs+0x4a>
    8622:	3401      	adds	r4, #1
    8624:	eb06 0484 	add.w	r4, r6, r4, lsl #2
    8628:	b17f      	cbz	r7, 864a <__call_exitprocs+0x5a>
    862a:	f8d4 3100 	ldr.w	r3, [r4, #256]	; 0x100
    862e:	42bb      	cmp	r3, r7
    8630:	d00b      	beq.n	864a <__call_exitprocs+0x5a>
    8632:	3d01      	subs	r5, #1
    8634:	3c04      	subs	r4, #4
    8636:	1c6b      	adds	r3, r5, #1
    8638:	d1f6      	bne.n	8628 <__call_exitprocs+0x38>
    863a:	4b1a      	ldr	r3, [pc, #104]	; (86a4 <__call_exitprocs+0xb4>)
    863c:	ecbd 8b02 	vpop	{d8}
    8640:	6818      	ldr	r0, [r3, #0]
    8642:	e8bd 4ff8 	ldmia.w	sp!, {r3, r4, r5, r6, r7, r8, r9, sl, fp, lr}
    8646:	f000 b84d 	b.w	86e4 <__retarget_lock_release_recursive>
    864a:	6873      	ldr	r3, [r6, #4]
    864c:	6822      	ldr	r2, [r4, #0]
    864e:	3b01      	subs	r3, #1
    8650:	42ab      	cmp	r3, r5
    8652:	bf0c      	ite	eq
    8654:	6075      	streq	r5, [r6, #4]
    8656:	f8c4 a000 	strne.w	sl, [r4]
    865a:	2a00      	cmp	r2, #0
    865c:	d0e9      	beq.n	8632 <__call_exitprocs+0x42>
    865e:	fa09 fc05 	lsl.w	ip, r9, r5
    8662:	f8d6 1188 	ldr.w	r1, [r6, #392]	; 0x188
    8666:	f8d6 b004 	ldr.w	fp, [r6, #4]
    866a:	ea1c 0f01 	tst.w	ip, r1
    866e:	d10b      	bne.n	8688 <__call_exitprocs+0x98>
    8670:	4790      	blx	r2
    8672:	6871      	ldr	r1, [r6, #4]
    8674:	f8d8 2148 	ldr.w	r2, [r8, #328]	; 0x148
    8678:	4559      	cmp	r1, fp
    867a:	d101      	bne.n	8680 <__call_exitprocs+0x90>
    867c:	42b2      	cmp	r2, r6
    867e:	d0d8      	beq.n	8632 <__call_exitprocs+0x42>
    8680:	2a00      	cmp	r2, #0
    8682:	d0da      	beq.n	863a <__call_exitprocs+0x4a>
    8684:	4616      	mov	r6, r2
    8686:	e7c9      	b.n	861c <__call_exitprocs+0x2c>
    8688:	f8d6 318c 	ldr.w	r3, [r6, #396]	; 0x18c
    868c:	f8d4 1080 	ldr.w	r1, [r4, #128]	; 0x80
    8690:	ea1c 0f03 	tst.w	ip, r3
    8694:	d103      	bne.n	869e <__call_exitprocs+0xae>
    8696:	ee18 0a10 	vmov	r0, s16
    869a:	4790      	blx	r2
    869c:	e7e9      	b.n	8672 <__call_exitprocs+0x82>
    869e:	4608      	mov	r0, r1
    86a0:	4790      	blx	r2
    86a2:	e7e6      	b.n	8672 <__call_exitprocs+0x82>
    86a4:	20000438 	.word	0x20000438
    86a8:	0000932c 	.word	0x0000932c

000086ac <atexit>:
    86ac:	2300      	movs	r3, #0
    86ae:	4601      	mov	r1, r0
    86b0:	461a      	mov	r2, r3
    86b2:	4618      	mov	r0, r3
    86b4:	f000 b818 	b.w	86e8 <__register_exitproc>

000086b8 <__libc_fini_array>:
    86b8:	b538      	push	{r3, r4, r5, lr}
    86ba:	4d07      	ldr	r5, [pc, #28]	; (86d8 <__libc_fini_array+0x20>)
    86bc:	4c07      	ldr	r4, [pc, #28]	; (86dc <__libc_fini_array+0x24>)
    86be:	1b2c      	subs	r4, r5, r4
    86c0:	10a4      	asrs	r4, r4, #2
    86c2:	d005      	beq.n	86d0 <__libc_fini_array+0x18>
    86c4:	3c01      	subs	r4, #1
    86c6:	f855 3d04 	ldr.w	r3, [r5, #-4]!
    86ca:	4798      	blx	r3
    86cc:	2c00      	cmp	r4, #0
    86ce:	d1f9      	bne.n	86c4 <__libc_fini_array+0xc>
    86d0:	e8bd 4038 	ldmia.w	sp!, {r3, r4, r5, lr}
    86d4:	f000 be32 	b.w	933c <_fini>
    86d8:	0000935c 	.word	0x0000935c
    86dc:	00009358 	.word	0x00009358

000086e0 <__retarget_lock_acquire_recursive>:
    86e0:	4770      	bx	lr
    86e2:	bf00      	nop

000086e4 <__retarget_lock_release_recursive>:
    86e4:	4770      	bx	lr
    86e6:	bf00      	nop

000086e8 <__register_exitproc>:
    86e8:	e92d 43f8 	stmdb	sp!, {r3, r4, r5, r6, r7, r8, r9, lr}
    86ec:	4d1e      	ldr	r5, [pc, #120]	; (8768 <__register_exitproc+0x80>)
    86ee:	4606      	mov	r6, r0
    86f0:	4698      	mov	r8, r3
    86f2:	460f      	mov	r7, r1
    86f4:	6828      	ldr	r0, [r5, #0]
    86f6:	4691      	mov	r9, r2
    86f8:	f7ff fff2 	bl	86e0 <__retarget_lock_acquire_recursive>
    86fc:	4b1b      	ldr	r3, [pc, #108]	; (876c <__register_exitproc+0x84>)
    86fe:	681b      	ldr	r3, [r3, #0]
    8700:	f8d3 4148 	ldr.w	r4, [r3, #328]	; 0x148
    8704:	b32c      	cbz	r4, 8752 <__register_exitproc+0x6a>
    8706:	6828      	ldr	r0, [r5, #0]
    8708:	6865      	ldr	r5, [r4, #4]
    870a:	2d1f      	cmp	r5, #31
    870c:	dc26      	bgt.n	875c <__register_exitproc+0x74>
    870e:	b94e      	cbnz	r6, 8724 <__register_exitproc+0x3c>
    8710:	1c6b      	adds	r3, r5, #1
    8712:	3502      	adds	r5, #2
    8714:	6063      	str	r3, [r4, #4]
    8716:	f844 7025 	str.w	r7, [r4, r5, lsl #2]
    871a:	f7ff ffe3 	bl	86e4 <__retarget_lock_release_recursive>
    871e:	2000      	movs	r0, #0
    8720:	e8bd 83f8 	ldmia.w	sp!, {r3, r4, r5, r6, r7, r8, r9, pc}
    8724:	eb04 0185 	add.w	r1, r4, r5, lsl #2
    8728:	2301      	movs	r3, #1
    872a:	2e02      	cmp	r6, #2
    872c:	f8c1 9088 	str.w	r9, [r1, #136]	; 0x88
    8730:	fa03 f305 	lsl.w	r3, r3, r5
    8734:	f8d4 2188 	ldr.w	r2, [r4, #392]	; 0x188
    8738:	ea42 0203 	orr.w	r2, r2, r3
    873c:	f8c4 2188 	str.w	r2, [r4, #392]	; 0x188
    8740:	f8c1 8108 	str.w	r8, [r1, #264]	; 0x108
    8744:	d1e4      	bne.n	8710 <__register_exitproc+0x28>
    8746:	f8d4 218c 	ldr.w	r2, [r4, #396]	; 0x18c
    874a:	431a      	orrs	r2, r3
    874c:	f8c4 218c 	str.w	r2, [r4, #396]	; 0x18c
    8750:	e7de      	b.n	8710 <__register_exitproc+0x28>
    8752:	f503 74a6 	add.w	r4, r3, #332	; 0x14c
    8756:	f8c3 4148 	str.w	r4, [r3, #328]	; 0x148
    875a:	e7d4      	b.n	8706 <__register_exitproc+0x1e>
    875c:	f7ff ffc2 	bl	86e4 <__retarget_lock_release_recursive>
    8760:	f04f 30ff 	mov.w	r0, #4294967295	; 0xffffffff
    8764:	e7dc      	b.n	8720 <__register_exitproc+0x38>
    8766:	bf00      	nop
    8768:	20000438 	.word	0x20000438
    876c:	0000932c 	.word	0x0000932c

00008770 <_exit>:
    8770:	e7fe      	b.n	8770 <_exit>
    8772:	bf00      	nop
    8774:	76697264 	.word	0x76697264
    8778:	2f737265 	.word	0x2f737265
    877c:	5f6c7366 	.word	0x5f6c7366
    8780:	6d6d6f63 	.word	0x6d6d6f63
    8784:	615f6e6f 	.word	0x615f6e6f
    8788:	632e6d72 	.word	0x632e6d72
    878c:	44534d00 	.word	0x44534d00
    8790:	6e455f4b 	.word	0x6e455f4b
    8794:	656c6261 	.word	0x656c6261
    8798:	43757043 	.word	0x43757043
    879c:	656c6379 	.word	0x656c6379
    87a0:	6e756f43 	.word	0x6e756f43
    87a4:	00726574 	.word	0x00726574
    87a8:	5f545744 	.word	0x5f545744
    87ac:	4c525443 	.word	0x4c525443
    87b0:	434f4e5f 	.word	0x434f4e5f
    87b4:	4e434359 	.word	0x4e434359
    87b8:	734d5f54 	.word	0x734d5f54
    87bc:	3d21206b 	.word	0x3d21206b
    87c0:	57442820 	.word	0x57442820
    87c4:	433e2d54 	.word	0x433e2d54
    87c8:	204c5254 	.word	0x204c5254
    87cc:	57442026 	.word	0x57442026
    87d0:	54435f54 	.word	0x54435f54
    87d4:	4e5f4c52 	.word	0x4e5f4c52
    87d8:	4359434f 	.word	0x4359434f
    87dc:	5f544e43 	.word	0x5f544e43
    87e0:	296b734d 	.word	0x296b734d
    87e4:	4b445300 	.word	0x4b445300
    87e8:	6c65445f 	.word	0x6c65445f
    87ec:	74417961 	.word	0x74417961
    87f0:	7361654c 	.word	0x7361654c
    87f4:	00735574 	.word	0x00735574
    87f8:	6e756f63 	.word	0x6e756f63
    87fc:	3d3c2074 	.word	0x3d3c2074
    8800:	4e495520 	.word	0x4e495520
    8804:	5f323354 	.word	0x5f323354
    8808:	0058414d 	.word	0x0058414d
    880c:	76697264 	.word	0x76697264
    8810:	2f737265 	.word	0x2f737265
    8814:	5f6c7366 	.word	0x5f6c7366
    8818:	65736572 	.word	0x65736572
    881c:	00632e74 	.word	0x00632e74
    8820:	45534552 	.word	0x45534552
    8824:	65535f54 	.word	0x65535f54
    8828:	72655074 	.word	0x72655074
    882c:	65687069 	.word	0x65687069
    8830:	526c6172 	.word	0x526c6172
    8834:	74657365 	.word	0x74657365
    8838:	74696200 	.word	0x74696200
    883c:	20736f50 	.word	0x20736f50
    8840:	3233203c 	.word	0x3233203c
    8844:	45520075 	.word	0x45520075
    8848:	5f544553 	.word	0x5f544553
    884c:	61656c43 	.word	0x61656c43
    8850:	72655072 	.word	0x72655072
    8854:	65687069 	.word	0x65687069
    8858:	526c6172 	.word	0x526c6172
    885c:	74657365 	.word	0x74657365
    8860:	00          	.byte	0x00
    8861:	64          	.byte	0x64
    8862:	6972      	.short	0x6972
    8864:	73726576 	.word	0x73726576
    8868:	6c73662f 	.word	0x6c73662f
    886c:	6970675f 	.word	0x6970675f
    8870:	00632e6f 	.word	0x00632e6f
    8874:	4f495047 	.word	0x4f495047
    8878:	616e455f 	.word	0x616e455f
    887c:	50656c62 	.word	0x50656c62
    8880:	4374726f 	.word	0x4374726f
    8884:	6b636f6c 	.word	0x6b636f6c
    8888:	726f7000 	.word	0x726f7000
    888c:	203c2074 	.word	0x203c2074
    8890:	41525241 	.word	0x41525241
    8894:	49535f59 	.word	0x49535f59
    8898:	7328455a 	.word	0x7328455a
    889c:	6970675f 	.word	0x6970675f
    88a0:	6f6c436f 	.word	0x6f6c436f
    88a4:	614e6b63 	.word	0x614e6b63
    88a8:	0029656d 	.word	0x0029656d

000088ac <s_gpioClockName>:
    88ac:	000f000e 00110010                       ........

000088b4 <s_flexcommBaseAddrs>:
    88b4:	40086000 40087000 40088000 40089000     .`.@.p.@...@...@
    88c4:	4008a000 40096000 40097000 40098000     ...@.`.@.p.@...@
    88d4:	4009f000 76697264 2f737265 5f6c7366     ...@drivers/fsl_
    88e4:	78656c66 6d6d6f63 4600632e 4358454c     flexcomm.c.FLEXC
    88f4:	5f4d4d4f 49746547 6174736e 0065636e     OMM_GetInstance.
    8904:	203c2069 6e697528 5f323374 53462974     i < (uint32_t)FS
    8914:	45465f4c 52555441 4f535f45 4c465f43     L_FEATURE_SOC_FL
    8924:	4f435845 435f4d4d 544e554f 454c4600     EXCOMM_COUNT.FLE
    8934:	4d4f4358 445f304d 65766972 51524972     XCOMM0_DriverIRQ
    8944:	646e6148 0072656c 6c665f73 6f637865     Handler.s_flexco
    8954:	72496d6d 6e614871 72656c64 736e695b     mmIrqHandler[ins
    8964:	636e6174 21205d65 554e203d 46004c4c     tance] != NULL.F
    8974:	4358454c 314d4d4f 6972445f 49726576     LEXCOMM1_DriverI
    8984:	61485152 656c646e 4c460072 4f435845     RQHandler.FLEXCO
    8994:	5f324d4d 76697244 52497265 6e614851     MM2_DriverIRQHan
    89a4:	72656c64 454c4600 4d4f4358 445f334d     dler.FLEXCOMM3_D
    89b4:	65766972 51524972 646e6148 0072656c     riverIRQHandler.
    89c4:	58454c46 4d4d4f43 72445f34 72657669     FLEXCOMM4_Driver
    89d4:	48515249 6c646e61 46007265 4358454c     IRQHandler.FLEXC
    89e4:	354d4d4f 6972445f 49726576 61485152     OMM5_DriverIRQHa
    89f4:	656c646e 4c460072 4f435845 5f364d4d     ndler.FLEXCOMM6_
    8a04:	76697244 52497265 6e614851 72656c64     DriverIRQHandler
    8a14:	454c4600 4d4f4358 445f374d 65766972     .FLEXCOMM7_Drive
    8a24:	51524972 646e6148 0072656c 58454c46     rIRQHandler.FLEX
    8a34:	4d4d4f43 72445f38 72657669 48515249     COMM8_DriverIRQH
    8a44:	6c646e61 00007265                       andler..

00008a4c <s_flexcommClocks>:
    8a4c:	010c010b 010e010d 0110010f 01120111     ................
    8a5c:	0000021c                                ....

00008a60 <s_flexcommResets>:
    8a60:	0001000b 0001000c 0001000d 0001000e     ................
    8a70:	0001000f 00010010 00010011 00010012     ................
    8a80:	0002001c 76697264 2f737265 5f6c7366     ....drivers/fsl_
    8a90:	72617375 00632e74 52415355 65475f54     usart.c.USART_Ge
    8aa0:	736e4974 636e6174 20690065 7528203c     tInstance.i < (u
    8ab0:	33746e69 29745f32 5f4c5346 54414546     int32_t)FSL_FEAT
    8ac0:	5f455255 5f434f53 52415355 4f435f54     URE_SOC_USART_CO
    8ad0:	00544e55 52415355 72545f54 66736e61     UNT.USART_Transf
    8ae0:	65477265 52785274 42676e69 65666675     erGetRxRingBuffe
    8af0:	6e654c72 00687467 4c4c554e 203d2120     rLength.NULL != 
    8b00:	646e6168 5500656c 54524153 6172545f     handle.USART_Tra
    8b10:	6566736e 61745372 69527472 7542676e     nsferStartRingBu
    8b20:	72656666 4c554e00 3d21204c 73616220     ffer.NULL != bas
    8b30:	554e0065 21204c4c 6972203d 7542676e     e.NULL != ringBu
    8b40:	72656666 41535500 545f5452 736e6172     ffer.USART_Trans
    8b50:	53726566 52706f74 42676e69 65666675     ferStopRingBuffe
    8b60:	53550072 5f545241 74696e49 28282100     r.USART_Init.!((
    8b70:	4c4c554e 203d3d20 65736162 7c7c2029     NULL == base) ||
    8b80:	554e2820 3d204c4c 6f63203d 6769666e      (NULL == config
    8b90:	7c7c2029 55302820 203d3d20 43637273     ) || (0U == srcC
    8ba0:	6b636f6c 297a485f 53550029 5f545241     lock_Hz)).USART_
    8bb0:	6e696544 55007469 54524153 7465475f     Deinit.USART_Get
    8bc0:	61666544 43746c75 69666e6f 554e0067     DefaultConfig.NU
    8bd0:	21204c4c 6f63203d 6769666e 41535500     LL != config.USA
    8be0:	535f5452 61427465 61526475 21006574     RT_SetBaudRate.!
    8bf0:	554e2828 3d204c4c 6162203d 20296573     ((NULL == base) 
    8c00:	28207c7c 3d205530 6162203d 61726475     || (0U == baudra
    8c10:	425f6574 20297370 28207c7c 3d205530     te_Bps) || (0U =
    8c20:	7273203d 6f6c4363 485f6b63 0029297a     = srcClock_Hz)).
    8c30:	52415355 6e455f54 656c6261 74696239     USART_Enable9bit
    8c40:	65646f4d 73616200 3d212065 4c554e20     Mode.base != NUL
    8c50:	5355004c 5f545241 646e6553 72646441     L.USART_SendAddr
    8c60:	00737365 52415355 72575f54 42657469     ess.USART_WriteB
    8c70:	6b636f6c 00676e69 4e282821 204c4c55     locking.!((NULL 
    8c80:	62203d3d 29657361 207c7c20 4c554e28     == base) || (NUL
    8c90:	3d3d204c 74616420 00292961 52415355     L == data)).USAR
    8ca0:	65525f54 6c426461 696b636f 5500676e     T_ReadBlocking.U
    8cb0:	54524153 6172545f 6566736e 65724372     SART_TransferCre
    8cc0:	48657461 6c646e61 28210065 4c554e28     ateHandle.!((NUL
    8cd0:	3d3d204c 73616220 7c202965 4e28207c     L == base) || (N
    8ce0:	204c4c55 68203d3d 6c646e61 00292965     ULL == handle)).
    8cf0:	52415355 72545f54 66736e61 65537265     USART_TransferSe
    8d00:	6f4e646e 6f6c426e 6e696b63 28210067     ndNonBlocking.!(
    8d10:	4c554e28 3d3d204c 73616220 7c202965     (NULL == base) |
    8d20:	4e28207c 204c4c55 68203d3d 6c646e61     | (NULL == handl
    8d30:	7c202965 4e28207c 204c4c55 78203d3d     e) || (NULL == x
    8d40:	29726566 28210029 20553028 78203d3d     fer)).!((0U == x
    8d50:	2d726566 7461643e 7a695361 7c202965     fer->dataSize) |
    8d60:	4e28207c 204c4c55 78203d3d 2d726566     | (NULL == xfer-
    8d70:	4478743e 29617461 53550029 5f545241     >txData)).USART_
    8d80:	6e617254 72656673 726f6241 6e655374     TransferAbortSen
    8d90:	53550064 5f545241 6e617254 72656673     d.USART_Transfer
    8da0:	53746547 43646e65 746e756f 4c554e00     GetSendCount.NUL
    8db0:	3d21204c 756f6320 5500746e 54524153     L != count.USART
    8dc0:	6172545f 6566736e 63655272 65766965     _TransferReceive
    8dd0:	426e6f4e 6b636f6c 00676e69 30282821     NonBlocking.!((0
    8de0:	3d3d2055 65667820 643e2d72 53617461     U == xfer->dataS
    8df0:	29657a69 207c7c20 4c554e28 3d3d204c     ize) || (NULL ==
    8e00:	65667820 723e2d72 74614478 00292961      xfer->rxData)).
    8e10:	52415355 72545f54 66736e61 62417265     USART_TransferAb
    8e20:	5274726f 69656365 55006576 54524153     ortReceive.USART
    8e30:	6172545f 6566736e 74654772 65636552     _TransferGetRece
    8e40:	43657669 746e756f 41535500 545f5452     iveCount.USART_T
    8e50:	736e6172 48726566 6c646e61 51524965     ransferHandleIRQ
    8e60:	554e2800 21204c4c 6162203d 20296573     .(NULL != base) 
    8e70:	28202626 4c4c554e 203d2120 646e6168     && (NULL != hand
    8e80:	0029656c 52415355 72545f54 66736e61     le).USART_Transf
    8e90:	73497265 69527852 7542676e 72656666     erIsRxRingBuffer
    8ea0:	6c6c7546 69726400 73726576 6c73662f     Full.drivers/fsl
    8eb0:	6332695f 4900632e 475f4332 6e497465     _i2c.c.I2C_GetIn
    8ec0:	6e617473 69006563 28203c20 746e6975     stance.i < (uint
    8ed0:	745f3233 4c534629 4145465f 45525554     32_t)FSL_FEATURE
    8ee0:	434f535f 4332495f 554f435f 4900544e     _SOC_I2C_COUNT.I
    8ef0:	4d5f4332 65747361 74655372 656d6954     2C_MasterSetTime
    8f00:	5674756f 65756c61 69742800 756f656d     outValue.(timeou
    8f10:	734d5f74 203d2120 20295530 28202626     t_Ms != 0U) && (
    8f20:	43637273 6b636f6c 207a485f 30203d21     srcClock_Hz != 0
    8f30:	49002955 4d5f4332 65747361 69725772     U).I2C_MasterWri
    8f40:	6c426574 696b636f 7400676e 66754278     teBlocking.txBuf
    8f50:	3d212066 4c554e20 3249004c 614d5f43     f != NULL.I2C_Ma
    8f60:	72657473 64616552 636f6c42 676e696b     sterReadBlocking
    8f70:	42787200 20666675 4e203d21 004c4c55     .rxBuff != NULL.
    8f80:	5f433249 7473614d 72547265 66736e61     I2C_MasterTransf
    8f90:	6c427265 696b636f 7800676e 20726566     erBlocking.xfer 
    8fa0:	4e203d21 004c4c55 5f433249 7473614d     != NULL.I2C_Mast
    8fb0:	72547265 66736e61 72437265 65746165     erTransferCreate
    8fc0:	646e6148 6800656c 6c646e61 3d212065     Handle.handle !=
    8fd0:	4c554e20 3249004c 614d5f43 72657473      NULL.I2C_Master
    8fe0:	6e617254 72656673 426e6f4e 6b636f6c     TransferNonBlock
    8ff0:	00676e69 72656678 75733e2d 64646162     ing.xfer->subadd
    9000:	73736572 657a6953 203d3c20 657a6973     ressSize <= size
    9010:	7828666f 2d726566 6275733e 72646461     of(xfer->subaddr
    9020:	29737365 43324900 73614d5f 54726574     ess).I2C_MasterT
    9030:	736e6172 47726566 6f437465 00746e75     ransferGetCount.
    9040:	5f433249 76616c53 74654765 61666544     I2C_SlaveGetDefa
    9050:	43746c75 69666e6f 6c730067 43657661     ultConfig.slaveC
    9060:	69666e6f 3d212067 4c554e20 3249004c     onfig != NULL.I2
    9070:	6c535f43 54657661 736e6172 43726566     C_SlaveTransferC
    9080:	74616572 6e614865 00656c64 5f433249     reateHandle.I2C_
    9090:	76616c53 61725465 6566736e 74654772     SlaveTransferGet
    90a0:	6e756f43 32490074 6c535f43 54657661     Count.I2C_SlaveT
    90b0:	736e6172 4e726566 6c426e6f 696b636f     ransferNonBlocki
    90c0:	6e49676e 6e726574 63006c61 6f706d6f     ngInternal.compo
    90d0:	746e656e 61752f73 662f7472 615f6c73     nents/uart/fsl_a
    90e0:	74706164 755f7265 74726173 4800632e     dapter_usart.c.H
    90f0:	555f4c41 44747261 696e6965 41480074     AL_UartDeinit.HA
    9100:	61555f4c 65527472 76696563 6f6c4265     L_UartReceiveBlo
    9110:	6e696b63 61640067 6c006174 74676e65     cking.data.lengt
    9120:	41480068 61555f4c 65537472 6c42646e     h.HAL_UartSendBl
    9130:	696b636f 4800676e 555f4c41 45747261     ocking.HAL_UartE
    9140:	7265746e 70776f4c 7265776f 4c414800     nterLowpower.HAL
    9150:	7261555f 696e4974 6d6f4374 006e6f6d     _UartInitCommon.
    9160:	666e6f63 3e2d6769 74736e69 65636e61     config->instance
    9170:	28203c20 657a6973 7328666f 6173555f      < (sizeof(s_Usa
    9180:	64417472 65747061 73614272 2f202965     rtAdapterBase) /
    9190:	7a697320 28666f65 52415355 79545f54      sizeof(USART_Ty
    91a0:	2a206570 73002929 6173555f 64417472     pe *)).s_UsartAd
    91b0:	65747061 73614272 6f635b65 6769666e     apterBase[config
    91c0:	6e693e2d 6e617473 005d6563              ->instance].

000091cc <s_UsartAdapterBase>:
    91cc:	40086000 40087000 40088000 40089000     .`.@.p.@...@...@
    91dc:	4008a000 40096000 40097000 40098000     ...@.`.@.p.@...@
    91ec:	45535341 45205452 524f5252 25202220     ASSERT ERROR " %
    91fc:	3a222073 6c696620 25222065 6c202273     s ": file "%s" l
    920c:	20656e69 22642522 6e756620 6f697463     ine "%d" functio
    921c:	616e206e 2220656d 0d227325 0000000a     n name "%s".....

0000922c <uxTopUsedPriority>:
    922c:	00000004 454c4449 726d5400 63765320     ....IDLE.Tmr Svc
    923c:	726d5400 00000051 00207f50 00000008     .TmrQ...P. .....
    924c:	00000001 00000000 00000000 10025800     .............X..
    925c:	08f0d180 00000002                       ........

00009264 <ACCEL_I2C_config>:
    9264:	00000001 000186a0 00002300 72756f73     .........#..sour
    9274:	6d2f6563 2e6e6961 43410063 5f4c4543     ce/main.c.ACCEL_
    9284:	74696e49 6f687700 5f6d615f 3d3d2069     Init.who_am_i ==
    9294:	414d4d20 32353638 4f48575f 5f4d415f      MMA8652_WHO_AM_
    92a4:	41565f49 0045554c 74617473 3d207375     I_VALUE.status =
    92b4:	25783020 202c2078 203d2078 20643525      0x%x , x = %5d 
    92c4:	2079202c 3525203d 202c2064 203d207a     , y = %5d , z = 
    92d4:	20643525 49000a0d 6974696e 6e696c61     %5d ...Initialin
    92e4:	43412067 2e4c4543 0a0d2e2e 43434100     g ACCEL......ACC
    92f4:	545f4c45 006b7361 20433249 64616572     EL_Task.I2C read
    9304:	69616620 2064656c 29642528 49000a0d      failed (%d)...I
    9314:	77204332 65746972 69616620 2064656c     2C write failed 
    9324:	29642528 00000a0d                       (%d)....

0000932c <_global_impure_ptr>:
    932c:	20000010                                ... 

00009330 <_init>:
    9330:	b5f8      	push	{r3, r4, r5, r6, r7, lr}
    9332:	bf00      	nop
    9334:	bcf8      	pop	{r3, r4, r5, r6, r7}
    9336:	bc08      	pop	{r3}
    9338:	469e      	mov	lr, r3
    933a:	4770      	bx	lr

0000933c <_fini>:
    933c:	b5f8      	push	{r3, r4, r5, r6, r7, lr}
    933e:	bf00      	nop
    9340:	bcf8      	pop	{r3, r4, r5, r6, r7}
    9342:	bc08      	pop	{r3}
    9344:	469e      	mov	lr, r3
    9346:	4770      	bx	lr
