
../lpc_firmware/freertos_i2c_sensor/output/freertos_i2c_sensor.elf:     file format elf32-littlearm


Disassembly of section .text:

00000200 <__do_global_dtors_aux>:
     200:	b510      	push	{r4, lr}
     202:	4c05      	ldr	r4, [pc, #20]	; (218 <__do_global_dtors_aux+0x18>)
     204:	7823      	ldrb	r3, [r4, #0]
     206:	b933      	cbnz	r3, 216 <__do_global_dtors_aux+0x16>
     208:	4b04      	ldr	r3, [pc, #16]	; (21c <__do_global_dtors_aux+0x1c>)
     20a:	b113      	cbz	r3, 212 <__do_global_dtors_aux+0x12>
     20c:	4804      	ldr	r0, [pc, #16]	; (220 <__do_global_dtors_aux+0x20>)
     20e:	f3af 8000 	nop.w
     212:	2301      	movs	r3, #1
     214:	7023      	strb	r3, [r4, #0]
     216:	bd10      	pop	{r4, pc}
     218:	2000043c 	.word	0x2000043c
     21c:	00000000 	.word	0x00000000
     220:	00009330 	.word	0x00009330

00000224 <frame_dummy>:
     224:	b508      	push	{r3, lr}
     226:	4b03      	ldr	r3, [pc, #12]	; (234 <frame_dummy+0x10>)
     228:	b11b      	cbz	r3, 232 <frame_dummy+0xe>
     22a:	4903      	ldr	r1, [pc, #12]	; (238 <frame_dummy+0x14>)
     22c:	4803      	ldr	r0, [pc, #12]	; (23c <frame_dummy+0x18>)
     22e:	f3af 8000 	nop.w
     232:	bd08      	pop	{r3, pc}
     234:	00000000 	.word	0x00000000
     238:	20000440 	.word	0x20000440
     23c:	00009330 	.word	0x00009330

00000240 <_stack_init>:
     240:	f5a3 3a80 	sub.w	sl, r3, #65536	; 0x10000
     244:	4770      	bx	lr
     246:	bf00      	nop

00000248 <_mainCRTStartup>:
     248:	4b17      	ldr	r3, [pc, #92]	; (2a8 <_mainCRTStartup+0x60>)
     24a:	2b00      	cmp	r3, #0
     24c:	bf08      	it	eq
     24e:	4b13      	ldreq	r3, [pc, #76]	; (29c <_mainCRTStartup+0x54>)
     250:	469d      	mov	sp, r3
     252:	f7ff fff5 	bl	240 <_stack_init>
     256:	2100      	movs	r1, #0
     258:	468b      	mov	fp, r1
     25a:	460f      	mov	r7, r1
     25c:	4813      	ldr	r0, [pc, #76]	; (2ac <_mainCRTStartup+0x64>)
     25e:	4a14      	ldr	r2, [pc, #80]	; (2b0 <_mainCRTStartup+0x68>)
     260:	1a12      	subs	r2, r2, r0
     262:	f008 f93b 	bl	84dc <memset>
     266:	4b0e      	ldr	r3, [pc, #56]	; (2a0 <_mainCRTStartup+0x58>)
     268:	2b00      	cmp	r3, #0
     26a:	d000      	beq.n	26e <_mainCRTStartup+0x26>
     26c:	4798      	blx	r3
     26e:	4b0d      	ldr	r3, [pc, #52]	; (2a4 <_mainCRTStartup+0x5c>)
     270:	2b00      	cmp	r3, #0
     272:	d000      	beq.n	276 <_mainCRTStartup+0x2e>
     274:	4798      	blx	r3
     276:	2000      	movs	r0, #0
     278:	2100      	movs	r1, #0
     27a:	0004      	movs	r4, r0
     27c:	000d      	movs	r5, r1
     27e:	480d      	ldr	r0, [pc, #52]	; (2b4 <_mainCRTStartup+0x6c>)
     280:	2800      	cmp	r0, #0
     282:	d002      	beq.n	28a <_mainCRTStartup+0x42>
     284:	480c      	ldr	r0, [pc, #48]	; (2b8 <_mainCRTStartup+0x70>)
     286:	f008 fa11 	bl	86ac <atexit>
     28a:	f008 f903 	bl	8494 <__libc_init_array>
     28e:	0020      	movs	r0, r4
     290:	0029      	movs	r1, r5
     292:	f007 f887 	bl	73a4 <main>
     296:	f008 f8ed 	bl	8474 <exit>
     29a:	bf00      	nop
     29c:	00080000 	.word	0x00080000
	...
     2a8:	20033000 	.word	0x20033000
     2ac:	2000043c 	.word	0x2000043c
     2b0:	20002e7c 	.word	0x20002e7c
     2b4:	000086ad 	.word	0x000086ad
     2b8:	000086b9 	.word	0x000086b9

000002bc <Reset_Handler>:
     2bc:	b672      	cpsid	i
     2be:	4817      	ldr	r0, [pc, #92]	; (31c <Reset_Handler+0x60>)
     2c0:	4917      	ldr	r1, [pc, #92]	; (320 <Reset_Handler+0x64>)
     2c2:	6001      	str	r1, [r0, #0]
     2c4:	680a      	ldr	r2, [r1, #0]
     2c6:	f382 8808 	msr	MSP, r2
     2ca:	4816      	ldr	r0, [pc, #88]	; (324 <Reset_Handler+0x68>)
     2cc:	f380 880a 	msr	MSPLIM, r0
     2d0:	4815      	ldr	r0, [pc, #84]	; (328 <Reset_Handler+0x6c>)
     2d2:	4780      	blx	r0
     2d4:	4915      	ldr	r1, [pc, #84]	; (32c <Reset_Handler+0x70>)
     2d6:	4a16      	ldr	r2, [pc, #88]	; (330 <Reset_Handler+0x74>)
     2d8:	4b16      	ldr	r3, [pc, #88]	; (334 <Reset_Handler+0x78>)
     2da:	429a      	cmp	r2, r3
     2dc:	bfbe      	ittt	lt
     2de:	f851 0b04 	ldrlt.w	r0, [r1], #4
     2e2:	f842 0b04 	strlt.w	r0, [r2], #4
     2e6:	e7f8      	blt.n	2da <Reset_Handler+0x1e>
     2e8:	4913      	ldr	r1, [pc, #76]	; (338 <Reset_Handler+0x7c>)
     2ea:	4a14      	ldr	r2, [pc, #80]	; (33c <Reset_Handler+0x80>)
     2ec:	2000      	movs	r0, #0
     2ee:	4291      	cmp	r1, r2
     2f0:	bfbc      	itt	lt
     2f2:	f841 0b04 	strlt.w	r0, [r1], #4
     2f6:	e7fa      	blt.n	2ee <Reset_Handler+0x32>
     2f8:	2000      	movs	r0, #0
     2fa:	4911      	ldr	r1, [pc, #68]	; (340 <Reset_Handler+0x84>)
     2fc:	4a11      	ldr	r2, [pc, #68]	; (344 <Reset_Handler+0x88>)
     2fe:	4291      	cmp	r1, r2
     300:	bfbc      	itt	lt
     302:	f841 0b04 	strlt.w	r0, [r1], #4
     306:	e7fa      	blt.n	2fe <Reset_Handler+0x42>
     308:	490f      	ldr	r1, [pc, #60]	; (348 <Reset_Handler+0x8c>)
     30a:	4a10      	ldr	r2, [pc, #64]	; (34c <Reset_Handler+0x90>)
     30c:	4291      	cmp	r1, r2
     30e:	bfbc      	itt	lt
     310:	f841 0b04 	strlt.w	r0, [r1], #4
     314:	e7fa      	blt.n	30c <Reset_Handler+0x50>
     316:	b662      	cpsie	i
     318:	480d      	ldr	r0, [pc, #52]	; (350 <Reset_Handler+0x94>)
     31a:	4780      	blx	r0
     31c:	e000ed08 	.word	0xe000ed08
     320:	00000000 	.word	0x00000000
     324:	20032800 	.word	0x20032800
     328:	0000147d 	.word	0x0000147d
     32c:	0000935c 	.word	0x0000935c
     330:	20000000 	.word	0x20000000
     334:	2000043c 	.word	0x2000043c
     338:	2000043c 	.word	0x2000043c
     33c:	20002e7c 	.word	0x20002e7c
     340:	20002e80 	.word	0x20002e80
     344:	20003280 	.word	0x20003280
     348:	20032800 	.word	0x20032800
     34c:	20033000 	.word	0x20033000
     350:	00000249 	.word	0x00000249

00000354 <ACMP_DriverIRQHandler>:
     354:	f7ff bffe 	b.w	354 <ACMP_DriverIRQHandler>

00000358 <NMI_Handler>:
     358:	4840      	ldr	r0, [pc, #256]	; (45c <FLEXCOMM8_IRQHandler+0x4>)
     35a:	4700      	bx	r0

0000035c <HardFault_Handler>:
     35c:	4840      	ldr	r0, [pc, #256]	; (460 <FLEXCOMM8_IRQHandler+0x8>)
     35e:	4700      	bx	r0
     360:	4840      	ldr	r0, [pc, #256]	; (464 <FLEXCOMM8_IRQHandler+0xc>)
     362:	4700      	bx	r0
     364:	4840      	ldr	r0, [pc, #256]	; (468 <FLEXCOMM8_IRQHandler+0x10>)
     366:	4700      	bx	r0
     368:	4840      	ldr	r0, [pc, #256]	; (46c <FLEXCOMM8_IRQHandler+0x14>)
     36a:	4700      	bx	r0

0000036c <WDT_BOD_IRQHandler>:
     36c:	4840      	ldr	r0, [pc, #256]	; (470 <FLEXCOMM8_IRQHandler+0x18>)
     36e:	4700      	bx	r0

00000370 <DMA0_IRQHandler>:
     370:	4840      	ldr	r0, [pc, #256]	; (474 <FLEXCOMM8_IRQHandler+0x1c>)
     372:	4700      	bx	r0

00000374 <GINT0_IRQHandler>:
     374:	4840      	ldr	r0, [pc, #256]	; (478 <FLEXCOMM8_IRQHandler+0x20>)
     376:	4700      	bx	r0

00000378 <GINT1_IRQHandler>:
     378:	4840      	ldr	r0, [pc, #256]	; (47c <FLEXCOMM8_IRQHandler+0x24>)
     37a:	4700      	bx	r0

0000037c <PIN_INT0_IRQHandler>:
     37c:	4840      	ldr	r0, [pc, #256]	; (480 <FLEXCOMM8_IRQHandler+0x28>)
     37e:	4700      	bx	r0

00000380 <PIN_INT1_IRQHandler>:
     380:	4840      	ldr	r0, [pc, #256]	; (484 <FLEXCOMM8_IRQHandler+0x2c>)
     382:	4700      	bx	r0

00000384 <PIN_INT2_IRQHandler>:
     384:	4840      	ldr	r0, [pc, #256]	; (488 <FLEXCOMM8_IRQHandler+0x30>)
     386:	4700      	bx	r0

00000388 <PIN_INT3_IRQHandler>:
     388:	4840      	ldr	r0, [pc, #256]	; (48c <FLEXCOMM8_IRQHandler+0x34>)
     38a:	4700      	bx	r0

0000038c <UTICK0_IRQHandler>:
     38c:	4840      	ldr	r0, [pc, #256]	; (490 <FLEXCOMM8_IRQHandler+0x38>)
     38e:	4700      	bx	r0

00000390 <MRT0_IRQHandler>:
     390:	4840      	ldr	r0, [pc, #256]	; (494 <FLEXCOMM8_IRQHandler+0x3c>)
     392:	4700      	bx	r0

00000394 <CTIMER0_IRQHandler>:
     394:	4840      	ldr	r0, [pc, #256]	; (498 <FLEXCOMM8_IRQHandler+0x40>)
     396:	4700      	bx	r0

00000398 <CTIMER1_IRQHandler>:
     398:	4840      	ldr	r0, [pc, #256]	; (49c <FLEXCOMM8_IRQHandler+0x44>)
     39a:	4700      	bx	r0

0000039c <SCT0_IRQHandler>:
     39c:	4840      	ldr	r0, [pc, #256]	; (4a0 <FLEXCOMM8_IRQHandler+0x48>)
     39e:	4700      	bx	r0

000003a0 <CTIMER3_IRQHandler>:
     3a0:	4840      	ldr	r0, [pc, #256]	; (4a4 <FLEXCOMM8_IRQHandler+0x4c>)
     3a2:	4700      	bx	r0

000003a4 <FLEXCOMM0_IRQHandler>:
     3a4:	4840      	ldr	r0, [pc, #256]	; (4a8 <FLEXCOMM8_IRQHandler+0x50>)
     3a6:	4700      	bx	r0

000003a8 <FLEXCOMM1_IRQHandler>:
     3a8:	4840      	ldr	r0, [pc, #256]	; (4ac <FLEXCOMM8_IRQHandler+0x54>)
     3aa:	4700      	bx	r0

000003ac <FLEXCOMM2_IRQHandler>:
     3ac:	4840      	ldr	r0, [pc, #256]	; (4b0 <FLEXCOMM8_IRQHandler+0x58>)
     3ae:	4700      	bx	r0

000003b0 <FLEXCOMM3_IRQHandler>:
     3b0:	4840      	ldr	r0, [pc, #256]	; (4b4 <FLEXCOMM8_IRQHandler+0x5c>)
     3b2:	4700      	bx	r0

000003b4 <FLEXCOMM4_IRQHandler>:
     3b4:	4840      	ldr	r0, [pc, #256]	; (4b8 <FLEXCOMM8_IRQHandler+0x60>)
     3b6:	4700      	bx	r0

000003b8 <FLEXCOMM5_IRQHandler>:
     3b8:	4840      	ldr	r0, [pc, #256]	; (4bc <FLEXCOMM8_IRQHandler+0x64>)
     3ba:	4700      	bx	r0

000003bc <FLEXCOMM6_IRQHandler>:
     3bc:	4840      	ldr	r0, [pc, #256]	; (4c0 <FLEXCOMM8_IRQHandler+0x68>)
     3be:	4700      	bx	r0

000003c0 <FLEXCOMM7_IRQHandler>:
     3c0:	4840      	ldr	r0, [pc, #256]	; (4c4 <FLEXCOMM8_IRQHandler+0x6c>)
     3c2:	4700      	bx	r0

000003c4 <ADC0_IRQHandler>:
     3c4:	4840      	ldr	r0, [pc, #256]	; (4c8 <FLEXCOMM8_IRQHandler+0x70>)
     3c6:	4700      	bx	r0

000003c8 <Reserved39_IRQHandler>:
     3c8:	4840      	ldr	r0, [pc, #256]	; (4cc <FLEXCOMM8_IRQHandler+0x74>)
     3ca:	4700      	bx	r0

000003cc <ACMP_IRQHandler>:
     3cc:	4840      	ldr	r0, [pc, #256]	; (4d0 <FLEXCOMM8_IRQHandler+0x78>)
     3ce:	4700      	bx	r0

000003d0 <Reserved41_IRQHandler>:
     3d0:	4840      	ldr	r0, [pc, #256]	; (4d4 <FLEXCOMM8_IRQHandler+0x7c>)
     3d2:	4700      	bx	r0

000003d4 <Reserved42_IRQHandler>:
     3d4:	4840      	ldr	r0, [pc, #256]	; (4d8 <FLEXCOMM8_IRQHandler+0x80>)
     3d6:	4700      	bx	r0

000003d8 <USB0_NEEDCLK_IRQHandler>:
     3d8:	4840      	ldr	r0, [pc, #256]	; (4dc <FLEXCOMM8_IRQHandler+0x84>)
     3da:	4700      	bx	r0

000003dc <USB0_IRQHandler>:
     3dc:	4840      	ldr	r0, [pc, #256]	; (4e0 <FLEXCOMM8_IRQHandler+0x88>)
     3de:	4700      	bx	r0

000003e0 <RTC_IRQHandler>:
     3e0:	4840      	ldr	r0, [pc, #256]	; (4e4 <FLEXCOMM8_IRQHandler+0x8c>)
     3e2:	4700      	bx	r0

000003e4 <Reserved46_IRQHandler>:
     3e4:	4840      	ldr	r0, [pc, #256]	; (4e8 <FLEXCOMM8_IRQHandler+0x90>)
     3e6:	4700      	bx	r0

000003e8 <MAILBOX_IRQHandler>:
     3e8:	4840      	ldr	r0, [pc, #256]	; (4ec <FLEXCOMM8_IRQHandler+0x94>)
     3ea:	4700      	bx	r0

000003ec <PIN_INT4_IRQHandler>:
     3ec:	4840      	ldr	r0, [pc, #256]	; (4f0 <FLEXCOMM8_IRQHandler+0x98>)
     3ee:	4700      	bx	r0

000003f0 <PIN_INT5_IRQHandler>:
     3f0:	4840      	ldr	r0, [pc, #256]	; (4f4 <FLEXCOMM8_IRQHandler+0x9c>)
     3f2:	4700      	bx	r0

000003f4 <PIN_INT6_IRQHandler>:
     3f4:	4840      	ldr	r0, [pc, #256]	; (4f8 <FLEXCOMM8_IRQHandler+0xa0>)
     3f6:	4700      	bx	r0

000003f8 <PIN_INT7_IRQHandler>:
     3f8:	4840      	ldr	r0, [pc, #256]	; (4fc <FLEXCOMM8_IRQHandler+0xa4>)
     3fa:	4700      	bx	r0

000003fc <CTIMER2_IRQHandler>:
     3fc:	4840      	ldr	r0, [pc, #256]	; (500 <FLEXCOMM8_IRQHandler+0xa8>)
     3fe:	4700      	bx	r0

00000400 <CTIMER4_IRQHandler>:
     400:	4840      	ldr	r0, [pc, #256]	; (504 <FLEXCOMM8_IRQHandler+0xac>)
     402:	4700      	bx	r0

00000404 <OS_EVENT_IRQHandler>:
     404:	4840      	ldr	r0, [pc, #256]	; (508 <FLEXCOMM8_IRQHandler+0xb0>)
     406:	4700      	bx	r0

00000408 <Reserved55_IRQHandler>:
     408:	4840      	ldr	r0, [pc, #256]	; (50c <FLEXCOMM8_IRQHandler+0xb4>)
     40a:	4700      	bx	r0

0000040c <Reserved56_IRQHandler>:
     40c:	4840      	ldr	r0, [pc, #256]	; (510 <FLEXCOMM8_IRQHandler+0xb8>)
     40e:	4700      	bx	r0

00000410 <Reserved57_IRQHandler>:
     410:	4840      	ldr	r0, [pc, #256]	; (514 <FLEXCOMM8_IRQHandler+0xbc>)
     412:	4700      	bx	r0

00000414 <SDIO_IRQHandler>:
     414:	4840      	ldr	r0, [pc, #256]	; (518 <FLEXCOMM8_IRQHandler+0xc0>)
     416:	4700      	bx	r0

00000418 <Reserved59_IRQHandler>:
     418:	4840      	ldr	r0, [pc, #256]	; (51c <FLEXCOMM8_IRQHandler+0xc4>)
     41a:	4700      	bx	r0

0000041c <Reserved60_IRQHandler>:
     41c:	4840      	ldr	r0, [pc, #256]	; (520 <FLEXCOMM8_IRQHandler+0xc8>)
     41e:	4700      	bx	r0

00000420 <Reserved61_IRQHandler>:
     420:	4840      	ldr	r0, [pc, #256]	; (524 <FLEXCOMM8_IRQHandler+0xcc>)
     422:	4700      	bx	r0

00000424 <USB1_PHY_IRQHandler>:
     424:	4840      	ldr	r0, [pc, #256]	; (528 <FLEXCOMM8_IRQHandler+0xd0>)
     426:	4700      	bx	r0

00000428 <USB1_IRQHandler>:
     428:	4840      	ldr	r0, [pc, #256]	; (52c <FLEXCOMM8_IRQHandler+0xd4>)
     42a:	4700      	bx	r0

0000042c <USB1_NEEDCLK_IRQHandler>:
     42c:	4840      	ldr	r0, [pc, #256]	; (530 <FLEXCOMM8_IRQHandler+0xd8>)
     42e:	4700      	bx	r0

00000430 <SEC_HYPERVISOR_CALL_IRQHandler>:
     430:	4840      	ldr	r0, [pc, #256]	; (534 <FLEXCOMM8_IRQHandler+0xdc>)
     432:	4700      	bx	r0

00000434 <SEC_GPIO_INT0_IRQ0_IRQHandler>:
     434:	4840      	ldr	r0, [pc, #256]	; (538 <FLEXCOMM8_IRQHandler+0xe0>)
     436:	4700      	bx	r0

00000438 <SEC_GPIO_INT0_IRQ1_IRQHandler>:
     438:	4840      	ldr	r0, [pc, #256]	; (53c <FLEXCOMM8_IRQHandler+0xe4>)
     43a:	4700      	bx	r0

0000043c <PLU_IRQHandler>:
     43c:	4840      	ldr	r0, [pc, #256]	; (540 <FLEXCOMM8_IRQHandler+0xe8>)
     43e:	4700      	bx	r0

00000440 <SEC_VIO_IRQHandler>:
     440:	4840      	ldr	r0, [pc, #256]	; (544 <FLEXCOMM8_IRQHandler+0xec>)
     442:	4700      	bx	r0

00000444 <HASHCRYPT_IRQHandler>:
     444:	4840      	ldr	r0, [pc, #256]	; (548 <FLEXCOMM8_IRQHandler+0xf0>)
     446:	4700      	bx	r0

00000448 <CASER_IRQHandler>:
     448:	4840      	ldr	r0, [pc, #256]	; (54c <FLEXCOMM8_IRQHandler+0xf4>)
     44a:	4700      	bx	r0

0000044c <PUF_IRQHandler>:
     44c:	4840      	ldr	r0, [pc, #256]	; (550 <FLEXCOMM8_IRQHandler+0xf8>)
     44e:	4700      	bx	r0

00000450 <PQ_IRQHandler>:
     450:	4840      	ldr	r0, [pc, #256]	; (554 <FLEXCOMM8_IRQHandler+0xfc>)
     452:	4700      	bx	r0

00000454 <DMA1_IRQHandler>:
     454:	4840      	ldr	r0, [pc, #256]	; (558 <FLEXCOMM8_IRQHandler+0x100>)
     456:	4700      	bx	r0

00000458 <FLEXCOMM8_IRQHandler>:
     458:	4840      	ldr	r0, [pc, #256]	; (55c <FLEXCOMM8_IRQHandler+0x104>)
     45a:	4700      	bx	r0
     45c:	00000359 	.word	0x00000359
     460:	0000035d 	.word	0x0000035d
     464:	000052b1 	.word	0x000052b1
     468:	00005241 	.word	0x00005241
     46c:	0000502f 	.word	0x0000502f
     470:	00000355 	.word	0x00000355
     474:	00000355 	.word	0x00000355
     478:	00000355 	.word	0x00000355
     47c:	00000355 	.word	0x00000355
     480:	00000355 	.word	0x00000355
     484:	00000355 	.word	0x00000355
     488:	00000355 	.word	0x00000355
     48c:	00000355 	.word	0x00000355
     490:	00000355 	.word	0x00000355
     494:	00000355 	.word	0x00000355
     498:	00000355 	.word	0x00000355
     49c:	00000355 	.word	0x00000355
     4a0:	00000355 	.word	0x00000355
     4a4:	00000355 	.word	0x00000355
     4a8:	0000235b 	.word	0x0000235b
     4ac:	000023cf 	.word	0x000023cf
     4b0:	00002443 	.word	0x00002443
     4b4:	000024b7 	.word	0x000024b7
     4b8:	0000252b 	.word	0x0000252b
     4bc:	0000259f 	.word	0x0000259f
     4c0:	00002613 	.word	0x00002613
     4c4:	00002689 	.word	0x00002689
     4c8:	00000355 	.word	0x00000355
     4cc:	00000355 	.word	0x00000355
     4d0:	00000355 	.word	0x00000355
     4d4:	00000355 	.word	0x00000355
     4d8:	00000355 	.word	0x00000355
     4dc:	00000355 	.word	0x00000355
     4e0:	00000355 	.word	0x00000355
     4e4:	00000355 	.word	0x00000355
     4e8:	00000355 	.word	0x00000355
     4ec:	00000355 	.word	0x00000355
     4f0:	00000355 	.word	0x00000355
     4f4:	00000355 	.word	0x00000355
     4f8:	00000355 	.word	0x00000355
     4fc:	00000355 	.word	0x00000355
     500:	00000355 	.word	0x00000355
     504:	00000355 	.word	0x00000355
     508:	00000355 	.word	0x00000355
     50c:	00000355 	.word	0x00000355
     510:	00000355 	.word	0x00000355
     514:	00000355 	.word	0x00000355
     518:	00000355 	.word	0x00000355
     51c:	00000355 	.word	0x00000355
     520:	00000355 	.word	0x00000355
     524:	00000355 	.word	0x00000355
     528:	00000355 	.word	0x00000355
     52c:	00000355 	.word	0x00000355
     530:	00000355 	.word	0x00000355
     534:	00000355 	.word	0x00000355
     538:	00000355 	.word	0x00000355
     53c:	00000355 	.word	0x00000355
     540:	00000355 	.word	0x00000355
     544:	00000355 	.word	0x00000355
     548:	00000355 	.word	0x00000355
     54c:	00000355 	.word	0x00000355
     550:	00000355 	.word	0x00000355
     554:	00000355 	.word	0x00000355
     558:	00000355 	.word	0x00000355
     55c:	000026ff 	.word	0x000026ff

00000560 <__aeabi_drsub>:
     560:	f081 4100 	eor.w	r1, r1, #2147483648	; 0x80000000
     564:	e002      	b.n	56c <__adddf3>
     566:	bf00      	nop

00000568 <__aeabi_dsub>:
     568:	f083 4300 	eor.w	r3, r3, #2147483648	; 0x80000000

0000056c <__adddf3>:
     56c:	b530      	push	{r4, r5, lr}
     56e:	ea4f 0441 	mov.w	r4, r1, lsl #1
     572:	ea4f 0543 	mov.w	r5, r3, lsl #1
     576:	ea94 0f05 	teq	r4, r5
     57a:	bf08      	it	eq
     57c:	ea90 0f02 	teqeq	r0, r2
     580:	bf1f      	itttt	ne
     582:	ea54 0c00 	orrsne.w	ip, r4, r0
     586:	ea55 0c02 	orrsne.w	ip, r5, r2
     58a:	ea7f 5c64 	mvnsne.w	ip, r4, asr #21
     58e:	ea7f 5c65 	mvnsne.w	ip, r5, asr #21
     592:	f000 80e2 	beq.w	75a <__adddf3+0x1ee>
     596:	ea4f 5454 	mov.w	r4, r4, lsr #21
     59a:	ebd4 5555 	rsbs	r5, r4, r5, lsr #21
     59e:	bfb8      	it	lt
     5a0:	426d      	neglt	r5, r5
     5a2:	dd0c      	ble.n	5be <__adddf3+0x52>
     5a4:	442c      	add	r4, r5
     5a6:	ea80 0202 	eor.w	r2, r0, r2
     5aa:	ea81 0303 	eor.w	r3, r1, r3
     5ae:	ea82 0000 	eor.w	r0, r2, r0
     5b2:	ea83 0101 	eor.w	r1, r3, r1
     5b6:	ea80 0202 	eor.w	r2, r0, r2
     5ba:	ea81 0303 	eor.w	r3, r1, r3
     5be:	2d36      	cmp	r5, #54	; 0x36
     5c0:	bf88      	it	hi
     5c2:	bd30      	pophi	{r4, r5, pc}
     5c4:	f011 4f00 	tst.w	r1, #2147483648	; 0x80000000
     5c8:	ea4f 3101 	mov.w	r1, r1, lsl #12
     5cc:	f44f 1c80 	mov.w	ip, #1048576	; 0x100000
     5d0:	ea4c 3111 	orr.w	r1, ip, r1, lsr #12
     5d4:	d002      	beq.n	5dc <__adddf3+0x70>
     5d6:	4240      	negs	r0, r0
     5d8:	eb61 0141 	sbc.w	r1, r1, r1, lsl #1
     5dc:	f013 4f00 	tst.w	r3, #2147483648	; 0x80000000
     5e0:	ea4f 3303 	mov.w	r3, r3, lsl #12
     5e4:	ea4c 3313 	orr.w	r3, ip, r3, lsr #12
     5e8:	d002      	beq.n	5f0 <__adddf3+0x84>
     5ea:	4252      	negs	r2, r2
     5ec:	eb63 0343 	sbc.w	r3, r3, r3, lsl #1
     5f0:	ea94 0f05 	teq	r4, r5
     5f4:	f000 80a7 	beq.w	746 <__adddf3+0x1da>
     5f8:	f1a4 0401 	sub.w	r4, r4, #1
     5fc:	f1d5 0e20 	rsbs	lr, r5, #32
     600:	db0d      	blt.n	61e <__adddf3+0xb2>
     602:	fa02 fc0e 	lsl.w	ip, r2, lr
     606:	fa22 f205 	lsr.w	r2, r2, r5
     60a:	1880      	adds	r0, r0, r2
     60c:	f141 0100 	adc.w	r1, r1, #0
     610:	fa03 f20e 	lsl.w	r2, r3, lr
     614:	1880      	adds	r0, r0, r2
     616:	fa43 f305 	asr.w	r3, r3, r5
     61a:	4159      	adcs	r1, r3
     61c:	e00e      	b.n	63c <__adddf3+0xd0>
     61e:	f1a5 0520 	sub.w	r5, r5, #32
     622:	f10e 0e20 	add.w	lr, lr, #32
     626:	2a01      	cmp	r2, #1
     628:	fa03 fc0e 	lsl.w	ip, r3, lr
     62c:	bf28      	it	cs
     62e:	f04c 0c02 	orrcs.w	ip, ip, #2
     632:	fa43 f305 	asr.w	r3, r3, r5
     636:	18c0      	adds	r0, r0, r3
     638:	eb51 71e3 	adcs.w	r1, r1, r3, asr #31
     63c:	f001 4500 	and.w	r5, r1, #2147483648	; 0x80000000
     640:	d507      	bpl.n	652 <__adddf3+0xe6>
     642:	f04f 0e00 	mov.w	lr, #0
     646:	f1dc 0c00 	rsbs	ip, ip, #0
     64a:	eb7e 0000 	sbcs.w	r0, lr, r0
     64e:	eb6e 0101 	sbc.w	r1, lr, r1
     652:	f5b1 1f80 	cmp.w	r1, #1048576	; 0x100000
     656:	d31b      	bcc.n	690 <__adddf3+0x124>
     658:	f5b1 1f00 	cmp.w	r1, #2097152	; 0x200000
     65c:	d30c      	bcc.n	678 <__adddf3+0x10c>
     65e:	0849      	lsrs	r1, r1, #1
     660:	ea5f 0030 	movs.w	r0, r0, rrx
     664:	ea4f 0c3c 	mov.w	ip, ip, rrx
     668:	f104 0401 	add.w	r4, r4, #1
     66c:	ea4f 5244 	mov.w	r2, r4, lsl #21
     670:	f512 0f80 	cmn.w	r2, #4194304	; 0x400000
     674:	f080 809a 	bcs.w	7ac <__adddf3+0x240>
     678:	f1bc 4f00 	cmp.w	ip, #2147483648	; 0x80000000
     67c:	bf08      	it	eq
     67e:	ea5f 0c50 	movseq.w	ip, r0, lsr #1
     682:	f150 0000 	adcs.w	r0, r0, #0
     686:	eb41 5104 	adc.w	r1, r1, r4, lsl #20
     68a:	ea41 0105 	orr.w	r1, r1, r5
     68e:	bd30      	pop	{r4, r5, pc}
     690:	ea5f 0c4c 	movs.w	ip, ip, lsl #1
     694:	4140      	adcs	r0, r0
     696:	eb41 0101 	adc.w	r1, r1, r1
     69a:	3c01      	subs	r4, #1
     69c:	bf28      	it	cs
     69e:	f5b1 1f80 	cmpcs.w	r1, #1048576	; 0x100000
     6a2:	d2e9      	bcs.n	678 <__adddf3+0x10c>
     6a4:	f091 0f00 	teq	r1, #0
     6a8:	bf04      	itt	eq
     6aa:	4601      	moveq	r1, r0
     6ac:	2000      	moveq	r0, #0
     6ae:	fab1 f381 	clz	r3, r1
     6b2:	bf08      	it	eq
     6b4:	3320      	addeq	r3, #32
     6b6:	f1a3 030b 	sub.w	r3, r3, #11
     6ba:	f1b3 0220 	subs.w	r2, r3, #32
     6be:	da0c      	bge.n	6da <__adddf3+0x16e>
     6c0:	320c      	adds	r2, #12
     6c2:	dd08      	ble.n	6d6 <__adddf3+0x16a>
     6c4:	f102 0c14 	add.w	ip, r2, #20
     6c8:	f1c2 020c 	rsb	r2, r2, #12
     6cc:	fa01 f00c 	lsl.w	r0, r1, ip
     6d0:	fa21 f102 	lsr.w	r1, r1, r2
     6d4:	e00c      	b.n	6f0 <__adddf3+0x184>
     6d6:	f102 0214 	add.w	r2, r2, #20
     6da:	bfd8      	it	le
     6dc:	f1c2 0c20 	rsble	ip, r2, #32
     6e0:	fa01 f102 	lsl.w	r1, r1, r2
     6e4:	fa20 fc0c 	lsr.w	ip, r0, ip
     6e8:	bfdc      	itt	le
     6ea:	ea41 010c 	orrle.w	r1, r1, ip
     6ee:	4090      	lslle	r0, r2
     6f0:	1ae4      	subs	r4, r4, r3
     6f2:	bfa2      	ittt	ge
     6f4:	eb01 5104 	addge.w	r1, r1, r4, lsl #20
     6f8:	4329      	orrge	r1, r5
     6fa:	bd30      	popge	{r4, r5, pc}
     6fc:	ea6f 0404 	mvn.w	r4, r4
     700:	3c1f      	subs	r4, #31
     702:	da1c      	bge.n	73e <__adddf3+0x1d2>
     704:	340c      	adds	r4, #12
     706:	dc0e      	bgt.n	726 <__adddf3+0x1ba>
     708:	f104 0414 	add.w	r4, r4, #20
     70c:	f1c4 0220 	rsb	r2, r4, #32
     710:	fa20 f004 	lsr.w	r0, r0, r4
     714:	fa01 f302 	lsl.w	r3, r1, r2
     718:	ea40 0003 	orr.w	r0, r0, r3
     71c:	fa21 f304 	lsr.w	r3, r1, r4
     720:	ea45 0103 	orr.w	r1, r5, r3
     724:	bd30      	pop	{r4, r5, pc}
     726:	f1c4 040c 	rsb	r4, r4, #12
     72a:	f1c4 0220 	rsb	r2, r4, #32
     72e:	fa20 f002 	lsr.w	r0, r0, r2
     732:	fa01 f304 	lsl.w	r3, r1, r4
     736:	ea40 0003 	orr.w	r0, r0, r3
     73a:	4629      	mov	r1, r5
     73c:	bd30      	pop	{r4, r5, pc}
     73e:	fa21 f004 	lsr.w	r0, r1, r4
     742:	4629      	mov	r1, r5
     744:	bd30      	pop	{r4, r5, pc}
     746:	f094 0f00 	teq	r4, #0
     74a:	f483 1380 	eor.w	r3, r3, #1048576	; 0x100000
     74e:	bf06      	itte	eq
     750:	f481 1180 	eoreq.w	r1, r1, #1048576	; 0x100000
     754:	3401      	addeq	r4, #1
     756:	3d01      	subne	r5, #1
     758:	e74e      	b.n	5f8 <__adddf3+0x8c>
     75a:	ea7f 5c64 	mvns.w	ip, r4, asr #21
     75e:	bf18      	it	ne
     760:	ea7f 5c65 	mvnsne.w	ip, r5, asr #21
     764:	d029      	beq.n	7ba <__adddf3+0x24e>
     766:	ea94 0f05 	teq	r4, r5
     76a:	bf08      	it	eq
     76c:	ea90 0f02 	teqeq	r0, r2
     770:	d005      	beq.n	77e <__adddf3+0x212>
     772:	ea54 0c00 	orrs.w	ip, r4, r0
     776:	bf04      	itt	eq
     778:	4619      	moveq	r1, r3
     77a:	4610      	moveq	r0, r2
     77c:	bd30      	pop	{r4, r5, pc}
     77e:	ea91 0f03 	teq	r1, r3
     782:	bf1e      	ittt	ne
     784:	2100      	movne	r1, #0
     786:	2000      	movne	r0, #0
     788:	bd30      	popne	{r4, r5, pc}
     78a:	ea5f 5c54 	movs.w	ip, r4, lsr #21
     78e:	d105      	bne.n	79c <__adddf3+0x230>
     790:	0040      	lsls	r0, r0, #1
     792:	4149      	adcs	r1, r1
     794:	bf28      	it	cs
     796:	f041 4100 	orrcs.w	r1, r1, #2147483648	; 0x80000000
     79a:	bd30      	pop	{r4, r5, pc}
     79c:	f514 0480 	adds.w	r4, r4, #4194304	; 0x400000
     7a0:	bf3c      	itt	cc
     7a2:	f501 1180 	addcc.w	r1, r1, #1048576	; 0x100000
     7a6:	bd30      	popcc	{r4, r5, pc}
     7a8:	f001 4500 	and.w	r5, r1, #2147483648	; 0x80000000
     7ac:	f045 41fe 	orr.w	r1, r5, #2130706432	; 0x7f000000
     7b0:	f441 0170 	orr.w	r1, r1, #15728640	; 0xf00000
     7b4:	f04f 0000 	mov.w	r0, #0
     7b8:	bd30      	pop	{r4, r5, pc}
     7ba:	ea7f 5c64 	mvns.w	ip, r4, asr #21
     7be:	bf1a      	itte	ne
     7c0:	4619      	movne	r1, r3
     7c2:	4610      	movne	r0, r2
     7c4:	ea7f 5c65 	mvnseq.w	ip, r5, asr #21
     7c8:	bf1c      	itt	ne
     7ca:	460b      	movne	r3, r1
     7cc:	4602      	movne	r2, r0
     7ce:	ea50 3401 	orrs.w	r4, r0, r1, lsl #12
     7d2:	bf06      	itte	eq
     7d4:	ea52 3503 	orrseq.w	r5, r2, r3, lsl #12
     7d8:	ea91 0f03 	teqeq	r1, r3
     7dc:	f441 2100 	orrne.w	r1, r1, #524288	; 0x80000
     7e0:	bd30      	pop	{r4, r5, pc}
     7e2:	bf00      	nop

000007e4 <__aeabi_ui2d>:
     7e4:	f090 0f00 	teq	r0, #0
     7e8:	bf04      	itt	eq
     7ea:	2100      	moveq	r1, #0
     7ec:	4770      	bxeq	lr
     7ee:	b530      	push	{r4, r5, lr}
     7f0:	f44f 6480 	mov.w	r4, #1024	; 0x400
     7f4:	f104 0432 	add.w	r4, r4, #50	; 0x32
     7f8:	f04f 0500 	mov.w	r5, #0
     7fc:	f04f 0100 	mov.w	r1, #0
     800:	e750      	b.n	6a4 <__adddf3+0x138>
     802:	bf00      	nop

00000804 <__aeabi_i2d>:
     804:	f090 0f00 	teq	r0, #0
     808:	bf04      	itt	eq
     80a:	2100      	moveq	r1, #0
     80c:	4770      	bxeq	lr
     80e:	b530      	push	{r4, r5, lr}
     810:	f44f 6480 	mov.w	r4, #1024	; 0x400
     814:	f104 0432 	add.w	r4, r4, #50	; 0x32
     818:	f010 4500 	ands.w	r5, r0, #2147483648	; 0x80000000
     81c:	bf48      	it	mi
     81e:	4240      	negmi	r0, r0
     820:	f04f 0100 	mov.w	r1, #0
     824:	e73e      	b.n	6a4 <__adddf3+0x138>
     826:	bf00      	nop

00000828 <__aeabi_f2d>:
     828:	0042      	lsls	r2, r0, #1
     82a:	ea4f 01e2 	mov.w	r1, r2, asr #3
     82e:	ea4f 0131 	mov.w	r1, r1, rrx
     832:	ea4f 7002 	mov.w	r0, r2, lsl #28
     836:	bf1f      	itttt	ne
     838:	f012 437f 	andsne.w	r3, r2, #4278190080	; 0xff000000
     83c:	f093 4f7f 	teqne	r3, #4278190080	; 0xff000000
     840:	f081 5160 	eorne.w	r1, r1, #939524096	; 0x38000000
     844:	4770      	bxne	lr
     846:	f032 427f 	bics.w	r2, r2, #4278190080	; 0xff000000
     84a:	bf08      	it	eq
     84c:	4770      	bxeq	lr
     84e:	f093 4f7f 	teq	r3, #4278190080	; 0xff000000
     852:	bf04      	itt	eq
     854:	f441 2100 	orreq.w	r1, r1, #524288	; 0x80000
     858:	4770      	bxeq	lr
     85a:	b530      	push	{r4, r5, lr}
     85c:	f44f 7460 	mov.w	r4, #896	; 0x380
     860:	f001 4500 	and.w	r5, r1, #2147483648	; 0x80000000
     864:	f021 4100 	bic.w	r1, r1, #2147483648	; 0x80000000
     868:	e71c      	b.n	6a4 <__adddf3+0x138>
     86a:	bf00      	nop

0000086c <__aeabi_ul2d>:
     86c:	ea50 0201 	orrs.w	r2, r0, r1
     870:	bf08      	it	eq
     872:	4770      	bxeq	lr
     874:	b530      	push	{r4, r5, lr}
     876:	f04f 0500 	mov.w	r5, #0
     87a:	e00a      	b.n	892 <__aeabi_l2d+0x16>

0000087c <__aeabi_l2d>:
     87c:	ea50 0201 	orrs.w	r2, r0, r1
     880:	bf08      	it	eq
     882:	4770      	bxeq	lr
     884:	b530      	push	{r4, r5, lr}
     886:	f011 4500 	ands.w	r5, r1, #2147483648	; 0x80000000
     88a:	d502      	bpl.n	892 <__aeabi_l2d+0x16>
     88c:	4240      	negs	r0, r0
     88e:	eb61 0141 	sbc.w	r1, r1, r1, lsl #1
     892:	f44f 6480 	mov.w	r4, #1024	; 0x400
     896:	f104 0432 	add.w	r4, r4, #50	; 0x32
     89a:	ea5f 5c91 	movs.w	ip, r1, lsr #22
     89e:	f43f aed8 	beq.w	652 <__adddf3+0xe6>
     8a2:	f04f 0203 	mov.w	r2, #3
     8a6:	ea5f 0cdc 	movs.w	ip, ip, lsr #3
     8aa:	bf18      	it	ne
     8ac:	3203      	addne	r2, #3
     8ae:	ea5f 0cdc 	movs.w	ip, ip, lsr #3
     8b2:	bf18      	it	ne
     8b4:	3203      	addne	r2, #3
     8b6:	eb02 02dc 	add.w	r2, r2, ip, lsr #3
     8ba:	f1c2 0320 	rsb	r3, r2, #32
     8be:	fa00 fc03 	lsl.w	ip, r0, r3
     8c2:	fa20 f002 	lsr.w	r0, r0, r2
     8c6:	fa01 fe03 	lsl.w	lr, r1, r3
     8ca:	ea40 000e 	orr.w	r0, r0, lr
     8ce:	fa21 f102 	lsr.w	r1, r1, r2
     8d2:	4414      	add	r4, r2
     8d4:	e6bd      	b.n	652 <__adddf3+0xe6>
     8d6:	bf00      	nop

000008d8 <__aeabi_dmul>:
     8d8:	b570      	push	{r4, r5, r6, lr}
     8da:	f04f 0cff 	mov.w	ip, #255	; 0xff
     8de:	f44c 6ce0 	orr.w	ip, ip, #1792	; 0x700
     8e2:	ea1c 5411 	ands.w	r4, ip, r1, lsr #20
     8e6:	bf1d      	ittte	ne
     8e8:	ea1c 5513 	andsne.w	r5, ip, r3, lsr #20
     8ec:	ea94 0f0c 	teqne	r4, ip
     8f0:	ea95 0f0c 	teqne	r5, ip
     8f4:	f000 f8de 	bleq	ab4 <__aeabi_dmul+0x1dc>
     8f8:	442c      	add	r4, r5
     8fa:	ea81 0603 	eor.w	r6, r1, r3
     8fe:	ea21 514c 	bic.w	r1, r1, ip, lsl #21
     902:	ea23 534c 	bic.w	r3, r3, ip, lsl #21
     906:	ea50 3501 	orrs.w	r5, r0, r1, lsl #12
     90a:	bf18      	it	ne
     90c:	ea52 3503 	orrsne.w	r5, r2, r3, lsl #12
     910:	f441 1180 	orr.w	r1, r1, #1048576	; 0x100000
     914:	f443 1380 	orr.w	r3, r3, #1048576	; 0x100000
     918:	d038      	beq.n	98c <__aeabi_dmul+0xb4>
     91a:	fba0 ce02 	umull	ip, lr, r0, r2
     91e:	f04f 0500 	mov.w	r5, #0
     922:	fbe1 e502 	umlal	lr, r5, r1, r2
     926:	f006 4200 	and.w	r2, r6, #2147483648	; 0x80000000
     92a:	fbe0 e503 	umlal	lr, r5, r0, r3
     92e:	f04f 0600 	mov.w	r6, #0
     932:	fbe1 5603 	umlal	r5, r6, r1, r3
     936:	f09c 0f00 	teq	ip, #0
     93a:	bf18      	it	ne
     93c:	f04e 0e01 	orrne.w	lr, lr, #1
     940:	f1a4 04ff 	sub.w	r4, r4, #255	; 0xff
     944:	f5b6 7f00 	cmp.w	r6, #512	; 0x200
     948:	f564 7440 	sbc.w	r4, r4, #768	; 0x300
     94c:	d204      	bcs.n	958 <__aeabi_dmul+0x80>
     94e:	ea5f 0e4e 	movs.w	lr, lr, lsl #1
     952:	416d      	adcs	r5, r5
     954:	eb46 0606 	adc.w	r6, r6, r6
     958:	ea42 21c6 	orr.w	r1, r2, r6, lsl #11
     95c:	ea41 5155 	orr.w	r1, r1, r5, lsr #21
     960:	ea4f 20c5 	mov.w	r0, r5, lsl #11
     964:	ea40 505e 	orr.w	r0, r0, lr, lsr #21
     968:	ea4f 2ece 	mov.w	lr, lr, lsl #11
     96c:	f1b4 0cfd 	subs.w	ip, r4, #253	; 0xfd
     970:	bf88      	it	hi
     972:	f5bc 6fe0 	cmphi.w	ip, #1792	; 0x700
     976:	d81e      	bhi.n	9b6 <__aeabi_dmul+0xde>
     978:	f1be 4f00 	cmp.w	lr, #2147483648	; 0x80000000
     97c:	bf08      	it	eq
     97e:	ea5f 0e50 	movseq.w	lr, r0, lsr #1
     982:	f150 0000 	adcs.w	r0, r0, #0
     986:	eb41 5104 	adc.w	r1, r1, r4, lsl #20
     98a:	bd70      	pop	{r4, r5, r6, pc}
     98c:	f006 4600 	and.w	r6, r6, #2147483648	; 0x80000000
     990:	ea46 0101 	orr.w	r1, r6, r1
     994:	ea40 0002 	orr.w	r0, r0, r2
     998:	ea81 0103 	eor.w	r1, r1, r3
     99c:	ebb4 045c 	subs.w	r4, r4, ip, lsr #1
     9a0:	bfc2      	ittt	gt
     9a2:	ebd4 050c 	rsbsgt	r5, r4, ip
     9a6:	ea41 5104 	orrgt.w	r1, r1, r4, lsl #20
     9aa:	bd70      	popgt	{r4, r5, r6, pc}
     9ac:	f441 1180 	orr.w	r1, r1, #1048576	; 0x100000
     9b0:	f04f 0e00 	mov.w	lr, #0
     9b4:	3c01      	subs	r4, #1
     9b6:	f300 80ab 	bgt.w	b10 <__aeabi_dmul+0x238>
     9ba:	f114 0f36 	cmn.w	r4, #54	; 0x36
     9be:	bfde      	ittt	le
     9c0:	2000      	movle	r0, #0
     9c2:	f001 4100 	andle.w	r1, r1, #2147483648	; 0x80000000
     9c6:	bd70      	pople	{r4, r5, r6, pc}
     9c8:	f1c4 0400 	rsb	r4, r4, #0
     9cc:	3c20      	subs	r4, #32
     9ce:	da35      	bge.n	a3c <__aeabi_dmul+0x164>
     9d0:	340c      	adds	r4, #12
     9d2:	dc1b      	bgt.n	a0c <__aeabi_dmul+0x134>
     9d4:	f104 0414 	add.w	r4, r4, #20
     9d8:	f1c4 0520 	rsb	r5, r4, #32
     9dc:	fa00 f305 	lsl.w	r3, r0, r5
     9e0:	fa20 f004 	lsr.w	r0, r0, r4
     9e4:	fa01 f205 	lsl.w	r2, r1, r5
     9e8:	ea40 0002 	orr.w	r0, r0, r2
     9ec:	f001 4200 	and.w	r2, r1, #2147483648	; 0x80000000
     9f0:	f021 4100 	bic.w	r1, r1, #2147483648	; 0x80000000
     9f4:	eb10 70d3 	adds.w	r0, r0, r3, lsr #31
     9f8:	fa21 f604 	lsr.w	r6, r1, r4
     9fc:	eb42 0106 	adc.w	r1, r2, r6
     a00:	ea5e 0e43 	orrs.w	lr, lr, r3, lsl #1
     a04:	bf08      	it	eq
     a06:	ea20 70d3 	biceq.w	r0, r0, r3, lsr #31
     a0a:	bd70      	pop	{r4, r5, r6, pc}
     a0c:	f1c4 040c 	rsb	r4, r4, #12
     a10:	f1c4 0520 	rsb	r5, r4, #32
     a14:	fa00 f304 	lsl.w	r3, r0, r4
     a18:	fa20 f005 	lsr.w	r0, r0, r5
     a1c:	fa01 f204 	lsl.w	r2, r1, r4
     a20:	ea40 0002 	orr.w	r0, r0, r2
     a24:	f001 4100 	and.w	r1, r1, #2147483648	; 0x80000000
     a28:	eb10 70d3 	adds.w	r0, r0, r3, lsr #31
     a2c:	f141 0100 	adc.w	r1, r1, #0
     a30:	ea5e 0e43 	orrs.w	lr, lr, r3, lsl #1
     a34:	bf08      	it	eq
     a36:	ea20 70d3 	biceq.w	r0, r0, r3, lsr #31
     a3a:	bd70      	pop	{r4, r5, r6, pc}
     a3c:	f1c4 0520 	rsb	r5, r4, #32
     a40:	fa00 f205 	lsl.w	r2, r0, r5
     a44:	ea4e 0e02 	orr.w	lr, lr, r2
     a48:	fa20 f304 	lsr.w	r3, r0, r4
     a4c:	fa01 f205 	lsl.w	r2, r1, r5
     a50:	ea43 0302 	orr.w	r3, r3, r2
     a54:	fa21 f004 	lsr.w	r0, r1, r4
     a58:	f001 4100 	and.w	r1, r1, #2147483648	; 0x80000000
     a5c:	fa21 f204 	lsr.w	r2, r1, r4
     a60:	ea20 0002 	bic.w	r0, r0, r2
     a64:	eb00 70d3 	add.w	r0, r0, r3, lsr #31
     a68:	ea5e 0e43 	orrs.w	lr, lr, r3, lsl #1
     a6c:	bf08      	it	eq
     a6e:	ea20 70d3 	biceq.w	r0, r0, r3, lsr #31
     a72:	bd70      	pop	{r4, r5, r6, pc}
     a74:	f094 0f00 	teq	r4, #0
     a78:	d10f      	bne.n	a9a <__aeabi_dmul+0x1c2>
     a7a:	f001 4600 	and.w	r6, r1, #2147483648	; 0x80000000
     a7e:	0040      	lsls	r0, r0, #1
     a80:	eb41 0101 	adc.w	r1, r1, r1
     a84:	f411 1f80 	tst.w	r1, #1048576	; 0x100000
     a88:	bf08      	it	eq
     a8a:	3c01      	subeq	r4, #1
     a8c:	d0f7      	beq.n	a7e <__aeabi_dmul+0x1a6>
     a8e:	ea41 0106 	orr.w	r1, r1, r6
     a92:	f095 0f00 	teq	r5, #0
     a96:	bf18      	it	ne
     a98:	4770      	bxne	lr
     a9a:	f003 4600 	and.w	r6, r3, #2147483648	; 0x80000000
     a9e:	0052      	lsls	r2, r2, #1
     aa0:	eb43 0303 	adc.w	r3, r3, r3
     aa4:	f413 1f80 	tst.w	r3, #1048576	; 0x100000
     aa8:	bf08      	it	eq
     aaa:	3d01      	subeq	r5, #1
     aac:	d0f7      	beq.n	a9e <__aeabi_dmul+0x1c6>
     aae:	ea43 0306 	orr.w	r3, r3, r6
     ab2:	4770      	bx	lr
     ab4:	ea94 0f0c 	teq	r4, ip
     ab8:	ea0c 5513 	and.w	r5, ip, r3, lsr #20
     abc:	bf18      	it	ne
     abe:	ea95 0f0c 	teqne	r5, ip
     ac2:	d00c      	beq.n	ade <__aeabi_dmul+0x206>
     ac4:	ea50 0641 	orrs.w	r6, r0, r1, lsl #1
     ac8:	bf18      	it	ne
     aca:	ea52 0643 	orrsne.w	r6, r2, r3, lsl #1
     ace:	d1d1      	bne.n	a74 <__aeabi_dmul+0x19c>
     ad0:	ea81 0103 	eor.w	r1, r1, r3
     ad4:	f001 4100 	and.w	r1, r1, #2147483648	; 0x80000000
     ad8:	f04f 0000 	mov.w	r0, #0
     adc:	bd70      	pop	{r4, r5, r6, pc}
     ade:	ea50 0641 	orrs.w	r6, r0, r1, lsl #1
     ae2:	bf06      	itte	eq
     ae4:	4610      	moveq	r0, r2
     ae6:	4619      	moveq	r1, r3
     ae8:	ea52 0643 	orrsne.w	r6, r2, r3, lsl #1
     aec:	d019      	beq.n	b22 <__aeabi_dmul+0x24a>
     aee:	ea94 0f0c 	teq	r4, ip
     af2:	d102      	bne.n	afa <__aeabi_dmul+0x222>
     af4:	ea50 3601 	orrs.w	r6, r0, r1, lsl #12
     af8:	d113      	bne.n	b22 <__aeabi_dmul+0x24a>
     afa:	ea95 0f0c 	teq	r5, ip
     afe:	d105      	bne.n	b0c <__aeabi_dmul+0x234>
     b00:	ea52 3603 	orrs.w	r6, r2, r3, lsl #12
     b04:	bf1c      	itt	ne
     b06:	4610      	movne	r0, r2
     b08:	4619      	movne	r1, r3
     b0a:	d10a      	bne.n	b22 <__aeabi_dmul+0x24a>
     b0c:	ea81 0103 	eor.w	r1, r1, r3
     b10:	f001 4100 	and.w	r1, r1, #2147483648	; 0x80000000
     b14:	f041 41fe 	orr.w	r1, r1, #2130706432	; 0x7f000000
     b18:	f441 0170 	orr.w	r1, r1, #15728640	; 0xf00000
     b1c:	f04f 0000 	mov.w	r0, #0
     b20:	bd70      	pop	{r4, r5, r6, pc}
     b22:	f041 41fe 	orr.w	r1, r1, #2130706432	; 0x7f000000
     b26:	f441 0178 	orr.w	r1, r1, #16252928	; 0xf80000
     b2a:	bd70      	pop	{r4, r5, r6, pc}

00000b2c <__aeabi_ddiv>:
     b2c:	b570      	push	{r4, r5, r6, lr}
     b2e:	f04f 0cff 	mov.w	ip, #255	; 0xff
     b32:	f44c 6ce0 	orr.w	ip, ip, #1792	; 0x700
     b36:	ea1c 5411 	ands.w	r4, ip, r1, lsr #20
     b3a:	bf1d      	ittte	ne
     b3c:	ea1c 5513 	andsne.w	r5, ip, r3, lsr #20
     b40:	ea94 0f0c 	teqne	r4, ip
     b44:	ea95 0f0c 	teqne	r5, ip
     b48:	f000 f8a7 	bleq	c9a <__aeabi_ddiv+0x16e>
     b4c:	eba4 0405 	sub.w	r4, r4, r5
     b50:	ea81 0e03 	eor.w	lr, r1, r3
     b54:	ea52 3503 	orrs.w	r5, r2, r3, lsl #12
     b58:	ea4f 3101 	mov.w	r1, r1, lsl #12
     b5c:	f000 8088 	beq.w	c70 <__aeabi_ddiv+0x144>
     b60:	ea4f 3303 	mov.w	r3, r3, lsl #12
     b64:	f04f 5580 	mov.w	r5, #268435456	; 0x10000000
     b68:	ea45 1313 	orr.w	r3, r5, r3, lsr #4
     b6c:	ea43 6312 	orr.w	r3, r3, r2, lsr #24
     b70:	ea4f 2202 	mov.w	r2, r2, lsl #8
     b74:	ea45 1511 	orr.w	r5, r5, r1, lsr #4
     b78:	ea45 6510 	orr.w	r5, r5, r0, lsr #24
     b7c:	ea4f 2600 	mov.w	r6, r0, lsl #8
     b80:	f00e 4100 	and.w	r1, lr, #2147483648	; 0x80000000
     b84:	429d      	cmp	r5, r3
     b86:	bf08      	it	eq
     b88:	4296      	cmpeq	r6, r2
     b8a:	f144 04fd 	adc.w	r4, r4, #253	; 0xfd
     b8e:	f504 7440 	add.w	r4, r4, #768	; 0x300
     b92:	d202      	bcs.n	b9a <__aeabi_ddiv+0x6e>
     b94:	085b      	lsrs	r3, r3, #1
     b96:	ea4f 0232 	mov.w	r2, r2, rrx
     b9a:	1ab6      	subs	r6, r6, r2
     b9c:	eb65 0503 	sbc.w	r5, r5, r3
     ba0:	085b      	lsrs	r3, r3, #1
     ba2:	ea4f 0232 	mov.w	r2, r2, rrx
     ba6:	f44f 1080 	mov.w	r0, #1048576	; 0x100000
     baa:	f44f 2c00 	mov.w	ip, #524288	; 0x80000
     bae:	ebb6 0e02 	subs.w	lr, r6, r2
     bb2:	eb75 0e03 	sbcs.w	lr, r5, r3
     bb6:	bf22      	ittt	cs
     bb8:	1ab6      	subcs	r6, r6, r2
     bba:	4675      	movcs	r5, lr
     bbc:	ea40 000c 	orrcs.w	r0, r0, ip
     bc0:	085b      	lsrs	r3, r3, #1
     bc2:	ea4f 0232 	mov.w	r2, r2, rrx
     bc6:	ebb6 0e02 	subs.w	lr, r6, r2
     bca:	eb75 0e03 	sbcs.w	lr, r5, r3
     bce:	bf22      	ittt	cs
     bd0:	1ab6      	subcs	r6, r6, r2
     bd2:	4675      	movcs	r5, lr
     bd4:	ea40 005c 	orrcs.w	r0, r0, ip, lsr #1
     bd8:	085b      	lsrs	r3, r3, #1
     bda:	ea4f 0232 	mov.w	r2, r2, rrx
     bde:	ebb6 0e02 	subs.w	lr, r6, r2
     be2:	eb75 0e03 	sbcs.w	lr, r5, r3
     be6:	bf22      	ittt	cs
     be8:	1ab6      	subcs	r6, r6, r2
     bea:	4675      	movcs	r5, lr
     bec:	ea40 009c 	orrcs.w	r0, r0, ip, lsr #2
     bf0:	085b      	lsrs	r3, r3, #1
     bf2:	ea4f 0232 	mov.w	r2, r2, rrx
     bf6:	ebb6 0e02 	subs.w	lr, r6, r2
     bfa:	eb75 0e03 	sbcs.w	lr, r5, r3
     bfe:	bf22      	ittt	cs
     c00:	1ab6      	subcs	r6, r6, r2
     c02:	4675      	movcs	r5, lr
     c04:	ea40 00dc 	orrcs.w	r0, r0, ip, lsr #3
     c08:	ea55 0e06 	orrs.w	lr, r5, r6
     c0c:	d018      	beq.n	c40 <__aeabi_ddiv+0x114>
     c0e:	ea4f 1505 	mov.w	r5, r5, lsl #4
     c12:	ea45 7516 	orr.w	r5, r5, r6, lsr #28
     c16:	ea4f 1606 	mov.w	r6, r6, lsl #4
     c1a:	ea4f 03c3 	mov.w	r3, r3, lsl #3
     c1e:	ea43 7352 	orr.w	r3, r3, r2, lsr #29
     c22:	ea4f 02c2 	mov.w	r2, r2, lsl #3
     c26:	ea5f 1c1c 	movs.w	ip, ip, lsr #4
     c2a:	d1c0      	bne.n	bae <__aeabi_ddiv+0x82>
     c2c:	f411 1f80 	tst.w	r1, #1048576	; 0x100000
     c30:	d10b      	bne.n	c4a <__aeabi_ddiv+0x11e>
     c32:	ea41 0100 	orr.w	r1, r1, r0
     c36:	f04f 0000 	mov.w	r0, #0
     c3a:	f04f 4c00 	mov.w	ip, #2147483648	; 0x80000000
     c3e:	e7b6      	b.n	bae <__aeabi_ddiv+0x82>
     c40:	f411 1f80 	tst.w	r1, #1048576	; 0x100000
     c44:	bf04      	itt	eq
     c46:	4301      	orreq	r1, r0
     c48:	2000      	moveq	r0, #0
     c4a:	f1b4 0cfd 	subs.w	ip, r4, #253	; 0xfd
     c4e:	bf88      	it	hi
     c50:	f5bc 6fe0 	cmphi.w	ip, #1792	; 0x700
     c54:	f63f aeaf 	bhi.w	9b6 <__aeabi_dmul+0xde>
     c58:	ebb5 0c03 	subs.w	ip, r5, r3
     c5c:	bf04      	itt	eq
     c5e:	ebb6 0c02 	subseq.w	ip, r6, r2
     c62:	ea5f 0c50 	movseq.w	ip, r0, lsr #1
     c66:	f150 0000 	adcs.w	r0, r0, #0
     c6a:	eb41 5104 	adc.w	r1, r1, r4, lsl #20
     c6e:	bd70      	pop	{r4, r5, r6, pc}
     c70:	f00e 4e00 	and.w	lr, lr, #2147483648	; 0x80000000
     c74:	ea4e 3111 	orr.w	r1, lr, r1, lsr #12
     c78:	eb14 045c 	adds.w	r4, r4, ip, lsr #1
     c7c:	bfc2      	ittt	gt
     c7e:	ebd4 050c 	rsbsgt	r5, r4, ip
     c82:	ea41 5104 	orrgt.w	r1, r1, r4, lsl #20
     c86:	bd70      	popgt	{r4, r5, r6, pc}
     c88:	f441 1180 	orr.w	r1, r1, #1048576	; 0x100000
     c8c:	f04f 0e00 	mov.w	lr, #0
     c90:	3c01      	subs	r4, #1
     c92:	e690      	b.n	9b6 <__aeabi_dmul+0xde>
     c94:	ea45 0e06 	orr.w	lr, r5, r6
     c98:	e68d      	b.n	9b6 <__aeabi_dmul+0xde>
     c9a:	ea0c 5513 	and.w	r5, ip, r3, lsr #20
     c9e:	ea94 0f0c 	teq	r4, ip
     ca2:	bf08      	it	eq
     ca4:	ea95 0f0c 	teqeq	r5, ip
     ca8:	f43f af3b 	beq.w	b22 <__aeabi_dmul+0x24a>
     cac:	ea94 0f0c 	teq	r4, ip
     cb0:	d10a      	bne.n	cc8 <__aeabi_ddiv+0x19c>
     cb2:	ea50 3401 	orrs.w	r4, r0, r1, lsl #12
     cb6:	f47f af34 	bne.w	b22 <__aeabi_dmul+0x24a>
     cba:	ea95 0f0c 	teq	r5, ip
     cbe:	f47f af25 	bne.w	b0c <__aeabi_dmul+0x234>
     cc2:	4610      	mov	r0, r2
     cc4:	4619      	mov	r1, r3
     cc6:	e72c      	b.n	b22 <__aeabi_dmul+0x24a>
     cc8:	ea95 0f0c 	teq	r5, ip
     ccc:	d106      	bne.n	cdc <__aeabi_ddiv+0x1b0>
     cce:	ea52 3503 	orrs.w	r5, r2, r3, lsl #12
     cd2:	f43f aefd 	beq.w	ad0 <__aeabi_dmul+0x1f8>
     cd6:	4610      	mov	r0, r2
     cd8:	4619      	mov	r1, r3
     cda:	e722      	b.n	b22 <__aeabi_dmul+0x24a>
     cdc:	ea50 0641 	orrs.w	r6, r0, r1, lsl #1
     ce0:	bf18      	it	ne
     ce2:	ea52 0643 	orrsne.w	r6, r2, r3, lsl #1
     ce6:	f47f aec5 	bne.w	a74 <__aeabi_dmul+0x19c>
     cea:	ea50 0441 	orrs.w	r4, r0, r1, lsl #1
     cee:	f47f af0d 	bne.w	b0c <__aeabi_dmul+0x234>
     cf2:	ea52 0543 	orrs.w	r5, r2, r3, lsl #1
     cf6:	f47f aeeb 	bne.w	ad0 <__aeabi_dmul+0x1f8>
     cfa:	e712      	b.n	b22 <__aeabi_dmul+0x24a>

00000cfc <__gedf2>:
     cfc:	f04f 3cff 	mov.w	ip, #4294967295	; 0xffffffff
     d00:	e006      	b.n	d10 <__cmpdf2+0x4>
     d02:	bf00      	nop

00000d04 <__ledf2>:
     d04:	f04f 0c01 	mov.w	ip, #1
     d08:	e002      	b.n	d10 <__cmpdf2+0x4>
     d0a:	bf00      	nop

00000d0c <__cmpdf2>:
     d0c:	f04f 0c01 	mov.w	ip, #1
     d10:	f84d cd04 	str.w	ip, [sp, #-4]!
     d14:	ea4f 0c41 	mov.w	ip, r1, lsl #1
     d18:	ea7f 5c6c 	mvns.w	ip, ip, asr #21
     d1c:	ea4f 0c43 	mov.w	ip, r3, lsl #1
     d20:	bf18      	it	ne
     d22:	ea7f 5c6c 	mvnsne.w	ip, ip, asr #21
     d26:	d01b      	beq.n	d60 <__cmpdf2+0x54>
     d28:	b001      	add	sp, #4
     d2a:	ea50 0c41 	orrs.w	ip, r0, r1, lsl #1
     d2e:	bf0c      	ite	eq
     d30:	ea52 0c43 	orrseq.w	ip, r2, r3, lsl #1
     d34:	ea91 0f03 	teqne	r1, r3
     d38:	bf02      	ittt	eq
     d3a:	ea90 0f02 	teqeq	r0, r2
     d3e:	2000      	moveq	r0, #0
     d40:	4770      	bxeq	lr
     d42:	f110 0f00 	cmn.w	r0, #0
     d46:	ea91 0f03 	teq	r1, r3
     d4a:	bf58      	it	pl
     d4c:	4299      	cmppl	r1, r3
     d4e:	bf08      	it	eq
     d50:	4290      	cmpeq	r0, r2
     d52:	bf2c      	ite	cs
     d54:	17d8      	asrcs	r0, r3, #31
     d56:	ea6f 70e3 	mvncc.w	r0, r3, asr #31
     d5a:	f040 0001 	orr.w	r0, r0, #1
     d5e:	4770      	bx	lr
     d60:	ea4f 0c41 	mov.w	ip, r1, lsl #1
     d64:	ea7f 5c6c 	mvns.w	ip, ip, asr #21
     d68:	d102      	bne.n	d70 <__cmpdf2+0x64>
     d6a:	ea50 3c01 	orrs.w	ip, r0, r1, lsl #12
     d6e:	d107      	bne.n	d80 <__cmpdf2+0x74>
     d70:	ea4f 0c43 	mov.w	ip, r3, lsl #1
     d74:	ea7f 5c6c 	mvns.w	ip, ip, asr #21
     d78:	d1d6      	bne.n	d28 <__cmpdf2+0x1c>
     d7a:	ea52 3c03 	orrs.w	ip, r2, r3, lsl #12
     d7e:	d0d3      	beq.n	d28 <__cmpdf2+0x1c>
     d80:	f85d 0b04 	ldr.w	r0, [sp], #4
     d84:	4770      	bx	lr
     d86:	bf00      	nop

00000d88 <__aeabi_cdrcmple>:
     d88:	4684      	mov	ip, r0
     d8a:	4610      	mov	r0, r2
     d8c:	4662      	mov	r2, ip
     d8e:	468c      	mov	ip, r1
     d90:	4619      	mov	r1, r3
     d92:	4663      	mov	r3, ip
     d94:	e000      	b.n	d98 <__aeabi_cdcmpeq>
     d96:	bf00      	nop

00000d98 <__aeabi_cdcmpeq>:
     d98:	b501      	push	{r0, lr}
     d9a:	f7ff ffb7 	bl	d0c <__cmpdf2>
     d9e:	2800      	cmp	r0, #0
     da0:	bf48      	it	mi
     da2:	f110 0f00 	cmnmi.w	r0, #0
     da6:	bd01      	pop	{r0, pc}

00000da8 <__aeabi_dcmpeq>:
     da8:	f84d ed08 	str.w	lr, [sp, #-8]!
     dac:	f7ff fff4 	bl	d98 <__aeabi_cdcmpeq>
     db0:	bf0c      	ite	eq
     db2:	2001      	moveq	r0, #1
     db4:	2000      	movne	r0, #0
     db6:	f85d fb08 	ldr.w	pc, [sp], #8
     dba:	bf00      	nop

00000dbc <__aeabi_dcmplt>:
     dbc:	f84d ed08 	str.w	lr, [sp, #-8]!
     dc0:	f7ff ffea 	bl	d98 <__aeabi_cdcmpeq>
     dc4:	bf34      	ite	cc
     dc6:	2001      	movcc	r0, #1
     dc8:	2000      	movcs	r0, #0
     dca:	f85d fb08 	ldr.w	pc, [sp], #8
     dce:	bf00      	nop

00000dd0 <__aeabi_dcmple>:
     dd0:	f84d ed08 	str.w	lr, [sp, #-8]!
     dd4:	f7ff ffe0 	bl	d98 <__aeabi_cdcmpeq>
     dd8:	bf94      	ite	ls
     dda:	2001      	movls	r0, #1
     ddc:	2000      	movhi	r0, #0
     dde:	f85d fb08 	ldr.w	pc, [sp], #8
     de2:	bf00      	nop

00000de4 <__aeabi_dcmpge>:
     de4:	f84d ed08 	str.w	lr, [sp, #-8]!
     de8:	f7ff ffce 	bl	d88 <__aeabi_cdrcmple>
     dec:	bf94      	ite	ls
     dee:	2001      	movls	r0, #1
     df0:	2000      	movhi	r0, #0
     df2:	f85d fb08 	ldr.w	pc, [sp], #8
     df6:	bf00      	nop

00000df8 <__aeabi_dcmpgt>:
     df8:	f84d ed08 	str.w	lr, [sp, #-8]!
     dfc:	f7ff ffc4 	bl	d88 <__aeabi_cdrcmple>
     e00:	bf34      	ite	cc
     e02:	2001      	movcc	r0, #1
     e04:	2000      	movcs	r0, #0
     e06:	f85d fb08 	ldr.w	pc, [sp], #8
     e0a:	bf00      	nop

00000e0c <__aeabi_dcmpun>:
     e0c:	ea4f 0c41 	mov.w	ip, r1, lsl #1
     e10:	ea7f 5c6c 	mvns.w	ip, ip, asr #21
     e14:	d102      	bne.n	e1c <__aeabi_dcmpun+0x10>
     e16:	ea50 3c01 	orrs.w	ip, r0, r1, lsl #12
     e1a:	d10a      	bne.n	e32 <__aeabi_dcmpun+0x26>
     e1c:	ea4f 0c43 	mov.w	ip, r3, lsl #1
     e20:	ea7f 5c6c 	mvns.w	ip, ip, asr #21
     e24:	d102      	bne.n	e2c <__aeabi_dcmpun+0x20>
     e26:	ea52 3c03 	orrs.w	ip, r2, r3, lsl #12
     e2a:	d102      	bne.n	e32 <__aeabi_dcmpun+0x26>
     e2c:	f04f 0000 	mov.w	r0, #0
     e30:	4770      	bx	lr
     e32:	f04f 0001 	mov.w	r0, #1
     e36:	4770      	bx	lr

00000e38 <__aeabi_d2iz>:
     e38:	ea4f 0241 	mov.w	r2, r1, lsl #1
     e3c:	f512 1200 	adds.w	r2, r2, #2097152	; 0x200000
     e40:	d215      	bcs.n	e6e <__aeabi_d2iz+0x36>
     e42:	d511      	bpl.n	e68 <__aeabi_d2iz+0x30>
     e44:	f46f 7378 	mvn.w	r3, #992	; 0x3e0
     e48:	ebb3 5262 	subs.w	r2, r3, r2, asr #21
     e4c:	d912      	bls.n	e74 <__aeabi_d2iz+0x3c>
     e4e:	ea4f 23c1 	mov.w	r3, r1, lsl #11
     e52:	f043 4300 	orr.w	r3, r3, #2147483648	; 0x80000000
     e56:	ea43 5350 	orr.w	r3, r3, r0, lsr #21
     e5a:	f011 4f00 	tst.w	r1, #2147483648	; 0x80000000
     e5e:	fa23 f002 	lsr.w	r0, r3, r2
     e62:	bf18      	it	ne
     e64:	4240      	negne	r0, r0
     e66:	4770      	bx	lr
     e68:	f04f 0000 	mov.w	r0, #0
     e6c:	4770      	bx	lr
     e6e:	ea50 3001 	orrs.w	r0, r0, r1, lsl #12
     e72:	d105      	bne.n	e80 <__aeabi_d2iz+0x48>
     e74:	f011 4000 	ands.w	r0, r1, #2147483648	; 0x80000000
     e78:	bf08      	it	eq
     e7a:	f06f 4000 	mvneq.w	r0, #2147483648	; 0x80000000
     e7e:	4770      	bx	lr
     e80:	f04f 0000 	mov.w	r0, #0
     e84:	4770      	bx	lr
     e86:	bf00      	nop

00000e88 <__aeabi_ldivmod>:
     e88:	b97b      	cbnz	r3, eaa <__aeabi_ldivmod+0x22>
     e8a:	b972      	cbnz	r2, eaa <__aeabi_ldivmod+0x22>
     e8c:	2900      	cmp	r1, #0
     e8e:	bfbe      	ittt	lt
     e90:	2000      	movlt	r0, #0
     e92:	f04f 4100 	movlt.w	r1, #2147483648	; 0x80000000
     e96:	e006      	blt.n	ea6 <__aeabi_ldivmod+0x1e>
     e98:	bf08      	it	eq
     e9a:	2800      	cmpeq	r0, #0
     e9c:	bf1c      	itt	ne
     e9e:	f06f 4100 	mvnne.w	r1, #2147483648	; 0x80000000
     ea2:	f04f 30ff 	movne.w	r0, #4294967295	; 0xffffffff
     ea6:	f000 ba03 	b.w	12b0 <__aeabi_idiv0>
     eaa:	f1ad 0c08 	sub.w	ip, sp, #8
     eae:	e96d ce04 	strd	ip, lr, [sp, #-16]!
     eb2:	2900      	cmp	r1, #0
     eb4:	db09      	blt.n	eca <__aeabi_ldivmod+0x42>
     eb6:	2b00      	cmp	r3, #0
     eb8:	db1a      	blt.n	ef0 <__aeabi_ldivmod+0x68>
     eba:	f000 f883 	bl	fc4 <__udivmoddi4>
     ebe:	f8dd e004 	ldr.w	lr, [sp, #4]
     ec2:	e9dd 2302 	ldrd	r2, r3, [sp, #8]
     ec6:	b004      	add	sp, #16
     ec8:	4770      	bx	lr
     eca:	4240      	negs	r0, r0
     ecc:	eb61 0141 	sbc.w	r1, r1, r1, lsl #1
     ed0:	2b00      	cmp	r3, #0
     ed2:	db1b      	blt.n	f0c <__aeabi_ldivmod+0x84>
     ed4:	f000 f876 	bl	fc4 <__udivmoddi4>
     ed8:	f8dd e004 	ldr.w	lr, [sp, #4]
     edc:	e9dd 2302 	ldrd	r2, r3, [sp, #8]
     ee0:	b004      	add	sp, #16
     ee2:	4240      	negs	r0, r0
     ee4:	eb61 0141 	sbc.w	r1, r1, r1, lsl #1
     ee8:	4252      	negs	r2, r2
     eea:	eb63 0343 	sbc.w	r3, r3, r3, lsl #1
     eee:	4770      	bx	lr
     ef0:	4252      	negs	r2, r2
     ef2:	eb63 0343 	sbc.w	r3, r3, r3, lsl #1
     ef6:	f000 f865 	bl	fc4 <__udivmoddi4>
     efa:	f8dd e004 	ldr.w	lr, [sp, #4]
     efe:	e9dd 2302 	ldrd	r2, r3, [sp, #8]
     f02:	b004      	add	sp, #16
     f04:	4240      	negs	r0, r0
     f06:	eb61 0141 	sbc.w	r1, r1, r1, lsl #1
     f0a:	4770      	bx	lr
     f0c:	4252      	negs	r2, r2
     f0e:	eb63 0343 	sbc.w	r3, r3, r3, lsl #1
     f12:	f000 f857 	bl	fc4 <__udivmoddi4>
     f16:	f8dd e004 	ldr.w	lr, [sp, #4]
     f1a:	e9dd 2302 	ldrd	r2, r3, [sp, #8]
     f1e:	b004      	add	sp, #16
     f20:	4252      	negs	r2, r2
     f22:	eb63 0343 	sbc.w	r3, r3, r3, lsl #1
     f26:	4770      	bx	lr

00000f28 <__aeabi_uldivmod>:
     f28:	b953      	cbnz	r3, f40 <__aeabi_uldivmod+0x18>
     f2a:	b94a      	cbnz	r2, f40 <__aeabi_uldivmod+0x18>
     f2c:	2900      	cmp	r1, #0
     f2e:	bf08      	it	eq
     f30:	2800      	cmpeq	r0, #0
     f32:	bf1c      	itt	ne
     f34:	f04f 31ff 	movne.w	r1, #4294967295	; 0xffffffff
     f38:	f04f 30ff 	movne.w	r0, #4294967295	; 0xffffffff
     f3c:	f000 b9b8 	b.w	12b0 <__aeabi_idiv0>
     f40:	f1ad 0c08 	sub.w	ip, sp, #8
     f44:	e96d ce04 	strd	ip, lr, [sp, #-16]!
     f48:	f000 f83c 	bl	fc4 <__udivmoddi4>
     f4c:	f8dd e004 	ldr.w	lr, [sp, #4]
     f50:	e9dd 2302 	ldrd	r2, r3, [sp, #8]
     f54:	b004      	add	sp, #16
     f56:	4770      	bx	lr

00000f58 <__aeabi_d2lz>:
     f58:	b538      	push	{r3, r4, r5, lr}
     f5a:	2200      	movs	r2, #0
     f5c:	2300      	movs	r3, #0
     f5e:	4604      	mov	r4, r0
     f60:	460d      	mov	r5, r1
     f62:	f7ff ff2b 	bl	dbc <__aeabi_dcmplt>
     f66:	b928      	cbnz	r0, f74 <__aeabi_d2lz+0x1c>
     f68:	4620      	mov	r0, r4
     f6a:	4629      	mov	r1, r5
     f6c:	e8bd 4038 	ldmia.w	sp!, {r3, r4, r5, lr}
     f70:	f000 b80a 	b.w	f88 <__aeabi_d2ulz>
     f74:	4620      	mov	r0, r4
     f76:	f105 4100 	add.w	r1, r5, #2147483648	; 0x80000000
     f7a:	f000 f805 	bl	f88 <__aeabi_d2ulz>
     f7e:	4240      	negs	r0, r0
     f80:	eb61 0141 	sbc.w	r1, r1, r1, lsl #1
     f84:	bd38      	pop	{r3, r4, r5, pc}
     f86:	bf00      	nop

00000f88 <__aeabi_d2ulz>:
     f88:	b5d0      	push	{r4, r6, r7, lr}
     f8a:	2200      	movs	r2, #0
     f8c:	4b0b      	ldr	r3, [pc, #44]	; (fbc <__aeabi_d2ulz+0x34>)
     f8e:	4606      	mov	r6, r0
     f90:	460f      	mov	r7, r1
     f92:	f7ff fca1 	bl	8d8 <__aeabi_dmul>
     f96:	f000 f98d 	bl	12b4 <__aeabi_d2uiz>
     f9a:	4604      	mov	r4, r0
     f9c:	f7ff fc22 	bl	7e4 <__aeabi_ui2d>
     fa0:	2200      	movs	r2, #0
     fa2:	4b07      	ldr	r3, [pc, #28]	; (fc0 <__aeabi_d2ulz+0x38>)
     fa4:	f7ff fc98 	bl	8d8 <__aeabi_dmul>
     fa8:	4602      	mov	r2, r0
     faa:	460b      	mov	r3, r1
     fac:	4630      	mov	r0, r6
     fae:	4639      	mov	r1, r7
     fb0:	f7ff fada 	bl	568 <__aeabi_dsub>
     fb4:	f000 f97e 	bl	12b4 <__aeabi_d2uiz>
     fb8:	4621      	mov	r1, r4
     fba:	bdd0      	pop	{r4, r6, r7, pc}
     fbc:	3df00000 	.word	0x3df00000
     fc0:	41f00000 	.word	0x41f00000

00000fc4 <__udivmoddi4>:
     fc4:	e92d 4ff0 	stmdb	sp!, {r4, r5, r6, r7, r8, r9, sl, fp, lr}
     fc8:	9d09      	ldr	r5, [sp, #36]	; 0x24
     fca:	460e      	mov	r6, r1
     fcc:	4604      	mov	r4, r0
     fce:	460f      	mov	r7, r1
     fd0:	2b00      	cmp	r3, #0
     fd2:	d147      	bne.n	1064 <__udivmoddi4+0xa0>
     fd4:	428a      	cmp	r2, r1
     fd6:	4694      	mov	ip, r2
     fd8:	d95f      	bls.n	109a <__udivmoddi4+0xd6>
     fda:	fab2 f382 	clz	r3, r2
     fde:	b143      	cbz	r3, ff2 <__udivmoddi4+0x2e>
     fe0:	fa02 fc03 	lsl.w	ip, r2, r3
     fe4:	f1c3 0220 	rsb	r2, r3, #32
     fe8:	409f      	lsls	r7, r3
     fea:	409c      	lsls	r4, r3
     fec:	fa20 f202 	lsr.w	r2, r0, r2
     ff0:	4317      	orrs	r7, r2
     ff2:	ea4f 461c 	mov.w	r6, ip, lsr #16
     ff6:	fa1f fe8c 	uxth.w	lr, ip
     ffa:	0c22      	lsrs	r2, r4, #16
     ffc:	fbb7 f1f6 	udiv	r1, r7, r6
    1000:	fb06 7711 	mls	r7, r6, r1, r7
    1004:	fb01 f00e 	mul.w	r0, r1, lr
    1008:	ea42 4207 	orr.w	r2, r2, r7, lsl #16
    100c:	4290      	cmp	r0, r2
    100e:	d908      	bls.n	1022 <__udivmoddi4+0x5e>
    1010:	eb1c 0202 	adds.w	r2, ip, r2
    1014:	f101 37ff 	add.w	r7, r1, #4294967295	; 0xffffffff
    1018:	d202      	bcs.n	1020 <__udivmoddi4+0x5c>
    101a:	4290      	cmp	r0, r2
    101c:	f200 8137 	bhi.w	128e <__udivmoddi4+0x2ca>
    1020:	4639      	mov	r1, r7
    1022:	1a12      	subs	r2, r2, r0
    1024:	b2a4      	uxth	r4, r4
    1026:	fbb2 f0f6 	udiv	r0, r2, r6
    102a:	fb06 2210 	mls	r2, r6, r0, r2
    102e:	fb00 fe0e 	mul.w	lr, r0, lr
    1032:	ea44 4402 	orr.w	r4, r4, r2, lsl #16
    1036:	45a6      	cmp	lr, r4
    1038:	d908      	bls.n	104c <__udivmoddi4+0x88>
    103a:	eb1c 0404 	adds.w	r4, ip, r4
    103e:	f100 32ff 	add.w	r2, r0, #4294967295	; 0xffffffff
    1042:	d202      	bcs.n	104a <__udivmoddi4+0x86>
    1044:	45a6      	cmp	lr, r4
    1046:	f200 811c 	bhi.w	1282 <__udivmoddi4+0x2be>
    104a:	4610      	mov	r0, r2
    104c:	ea40 4001 	orr.w	r0, r0, r1, lsl #16
    1050:	eba4 040e 	sub.w	r4, r4, lr
    1054:	2100      	movs	r1, #0
    1056:	b11d      	cbz	r5, 1060 <__udivmoddi4+0x9c>
    1058:	40dc      	lsrs	r4, r3
    105a:	2300      	movs	r3, #0
    105c:	e9c5 4300 	strd	r4, r3, [r5]
    1060:	e8bd 8ff0 	ldmia.w	sp!, {r4, r5, r6, r7, r8, r9, sl, fp, pc}
    1064:	428b      	cmp	r3, r1
    1066:	d908      	bls.n	107a <__udivmoddi4+0xb6>
    1068:	2d00      	cmp	r5, #0
    106a:	f000 80fe 	beq.w	126a <__udivmoddi4+0x2a6>
    106e:	2100      	movs	r1, #0
    1070:	e9c5 0600 	strd	r0, r6, [r5]
    1074:	4608      	mov	r0, r1
    1076:	e8bd 8ff0 	ldmia.w	sp!, {r4, r5, r6, r7, r8, r9, sl, fp, pc}
    107a:	fab3 f183 	clz	r1, r3
    107e:	2900      	cmp	r1, #0
    1080:	d14c      	bne.n	111c <__udivmoddi4+0x158>
    1082:	42b3      	cmp	r3, r6
    1084:	f0c0 80f4 	bcc.w	1270 <__udivmoddi4+0x2ac>
    1088:	4282      	cmp	r2, r0
    108a:	f240 80f1 	bls.w	1270 <__udivmoddi4+0x2ac>
    108e:	4608      	mov	r0, r1
    1090:	2d00      	cmp	r5, #0
    1092:	d0e5      	beq.n	1060 <__udivmoddi4+0x9c>
    1094:	e9c5 4700 	strd	r4, r7, [r5]
    1098:	e7e2      	b.n	1060 <__udivmoddi4+0x9c>
    109a:	b902      	cbnz	r2, 109e <__udivmoddi4+0xda>
    109c:	deff      	udf	#255	; 0xff
    109e:	fab2 f382 	clz	r3, r2
    10a2:	2b00      	cmp	r3, #0
    10a4:	f040 80a1 	bne.w	11ea <__udivmoddi4+0x226>
    10a8:	1a8a      	subs	r2, r1, r2
    10aa:	ea4f 4e1c 	mov.w	lr, ip, lsr #16
    10ae:	fa1f f78c 	uxth.w	r7, ip
    10b2:	2101      	movs	r1, #1
    10b4:	fbb2 f6fe 	udiv	r6, r2, lr
    10b8:	fb0e 2016 	mls	r0, lr, r6, r2
    10bc:	0c22      	lsrs	r2, r4, #16
    10be:	ea42 4200 	orr.w	r2, r2, r0, lsl #16
    10c2:	fb07 f006 	mul.w	r0, r7, r6
    10c6:	4290      	cmp	r0, r2
    10c8:	d90f      	bls.n	10ea <__udivmoddi4+0x126>
    10ca:	eb1c 0202 	adds.w	r2, ip, r2
    10ce:	f106 38ff 	add.w	r8, r6, #4294967295	; 0xffffffff
    10d2:	bf2c      	ite	cs
    10d4:	f04f 0901 	movcs.w	r9, #1
    10d8:	f04f 0900 	movcc.w	r9, #0
    10dc:	4290      	cmp	r0, r2
    10de:	d903      	bls.n	10e8 <__udivmoddi4+0x124>
    10e0:	f1b9 0f00 	cmp.w	r9, #0
    10e4:	f000 80d0 	beq.w	1288 <__udivmoddi4+0x2c4>
    10e8:	4646      	mov	r6, r8
    10ea:	1a12      	subs	r2, r2, r0
    10ec:	b2a4      	uxth	r4, r4
    10ee:	fbb2 f0fe 	udiv	r0, r2, lr
    10f2:	fb0e 2210 	mls	r2, lr, r0, r2
    10f6:	fb00 f707 	mul.w	r7, r0, r7
    10fa:	ea44 4402 	orr.w	r4, r4, r2, lsl #16
    10fe:	42a7      	cmp	r7, r4
    1100:	d908      	bls.n	1114 <__udivmoddi4+0x150>
    1102:	eb1c 0404 	adds.w	r4, ip, r4
    1106:	f100 32ff 	add.w	r2, r0, #4294967295	; 0xffffffff
    110a:	d202      	bcs.n	1112 <__udivmoddi4+0x14e>
    110c:	42a7      	cmp	r7, r4
    110e:	f200 80b5 	bhi.w	127c <__udivmoddi4+0x2b8>
    1112:	4610      	mov	r0, r2
    1114:	1be4      	subs	r4, r4, r7
    1116:	ea40 4006 	orr.w	r0, r0, r6, lsl #16
    111a:	e79c      	b.n	1056 <__udivmoddi4+0x92>
    111c:	f1c1 0420 	rsb	r4, r1, #32
    1120:	408b      	lsls	r3, r1
    1122:	fa06 fc01 	lsl.w	ip, r6, r1
    1126:	fa00 fe01 	lsl.w	lr, r0, r1
    112a:	fa22 f704 	lsr.w	r7, r2, r4
    112e:	40e6      	lsrs	r6, r4
    1130:	408a      	lsls	r2, r1
    1132:	431f      	orrs	r7, r3
    1134:	fa20 f304 	lsr.w	r3, r0, r4
    1138:	ea4f 4817 	mov.w	r8, r7, lsr #16
    113c:	ea43 030c 	orr.w	r3, r3, ip
    1140:	fa1f fc87 	uxth.w	ip, r7
    1144:	ea4f 4913 	mov.w	r9, r3, lsr #16
    1148:	fbb6 f0f8 	udiv	r0, r6, r8
    114c:	fb08 6610 	mls	r6, r8, r0, r6
    1150:	ea49 4606 	orr.w	r6, r9, r6, lsl #16
    1154:	fb00 f90c 	mul.w	r9, r0, ip
    1158:	45b1      	cmp	r9, r6
    115a:	d90e      	bls.n	117a <__udivmoddi4+0x1b6>
    115c:	19be      	adds	r6, r7, r6
    115e:	f100 3aff 	add.w	sl, r0, #4294967295	; 0xffffffff
    1162:	bf2c      	ite	cs
    1164:	f04f 0b01 	movcs.w	fp, #1
    1168:	f04f 0b00 	movcc.w	fp, #0
    116c:	45b1      	cmp	r9, r6
    116e:	d903      	bls.n	1178 <__udivmoddi4+0x1b4>
    1170:	f1bb 0f00 	cmp.w	fp, #0
    1174:	f000 808e 	beq.w	1294 <__udivmoddi4+0x2d0>
    1178:	4650      	mov	r0, sl
    117a:	eba6 0609 	sub.w	r6, r6, r9
    117e:	fa1f f983 	uxth.w	r9, r3
    1182:	fbb6 f3f8 	udiv	r3, r6, r8
    1186:	fb08 6613 	mls	r6, r8, r3, r6
    118a:	fb03 fc0c 	mul.w	ip, r3, ip
    118e:	ea49 4606 	orr.w	r6, r9, r6, lsl #16
    1192:	45b4      	cmp	ip, r6
    1194:	d906      	bls.n	11a4 <__udivmoddi4+0x1e0>
    1196:	19be      	adds	r6, r7, r6
    1198:	f103 38ff 	add.w	r8, r3, #4294967295	; 0xffffffff
    119c:	d201      	bcs.n	11a2 <__udivmoddi4+0x1de>
    119e:	45b4      	cmp	ip, r6
    11a0:	d87e      	bhi.n	12a0 <__udivmoddi4+0x2dc>
    11a2:	4643      	mov	r3, r8
    11a4:	ea43 4000 	orr.w	r0, r3, r0, lsl #16
    11a8:	eba6 060c 	sub.w	r6, r6, ip
    11ac:	fba0 8c02 	umull	r8, ip, r0, r2
    11b0:	4566      	cmp	r6, ip
    11b2:	4643      	mov	r3, r8
    11b4:	46e1      	mov	r9, ip
    11b6:	d302      	bcc.n	11be <__udivmoddi4+0x1fa>
    11b8:	d107      	bne.n	11ca <__udivmoddi4+0x206>
    11ba:	45c6      	cmp	lr, r8
    11bc:	d205      	bcs.n	11ca <__udivmoddi4+0x206>
    11be:	ebb8 0302 	subs.w	r3, r8, r2
    11c2:	eb6c 0c07 	sbc.w	ip, ip, r7
    11c6:	3801      	subs	r0, #1
    11c8:	46e1      	mov	r9, ip
    11ca:	2d00      	cmp	r5, #0
    11cc:	d06e      	beq.n	12ac <__udivmoddi4+0x2e8>
    11ce:	ebbe 0203 	subs.w	r2, lr, r3
    11d2:	eb66 0609 	sbc.w	r6, r6, r9
    11d6:	fa22 f301 	lsr.w	r3, r2, r1
    11da:	fa06 f404 	lsl.w	r4, r6, r4
    11de:	40ce      	lsrs	r6, r1
    11e0:	2100      	movs	r1, #0
    11e2:	431c      	orrs	r4, r3
    11e4:	e9c5 4600 	strd	r4, r6, [r5]
    11e8:	e73a      	b.n	1060 <__udivmoddi4+0x9c>
    11ea:	fa02 fc03 	lsl.w	ip, r2, r3
    11ee:	f1c3 0220 	rsb	r2, r3, #32
    11f2:	4099      	lsls	r1, r3
    11f4:	409c      	lsls	r4, r3
    11f6:	40d6      	lsrs	r6, r2
    11f8:	ea4f 4e1c 	mov.w	lr, ip, lsr #16
    11fc:	fa20 f202 	lsr.w	r2, r0, r2
    1200:	fa1f f78c 	uxth.w	r7, ip
    1204:	fbb6 f0fe 	udiv	r0, r6, lr
    1208:	430a      	orrs	r2, r1
    120a:	fb0e 6610 	mls	r6, lr, r0, r6
    120e:	0c11      	lsrs	r1, r2, #16
    1210:	ea41 4106 	orr.w	r1, r1, r6, lsl #16
    1214:	fb00 f607 	mul.w	r6, r0, r7
    1218:	428e      	cmp	r6, r1
    121a:	d90e      	bls.n	123a <__udivmoddi4+0x276>
    121c:	eb1c 0101 	adds.w	r1, ip, r1
    1220:	f100 38ff 	add.w	r8, r0, #4294967295	; 0xffffffff
    1224:	bf2c      	ite	cs
    1226:	f04f 0901 	movcs.w	r9, #1
    122a:	f04f 0900 	movcc.w	r9, #0
    122e:	428e      	cmp	r6, r1
    1230:	d902      	bls.n	1238 <__udivmoddi4+0x274>
    1232:	f1b9 0f00 	cmp.w	r9, #0
    1236:	d030      	beq.n	129a <__udivmoddi4+0x2d6>
    1238:	4640      	mov	r0, r8
    123a:	1b89      	subs	r1, r1, r6
    123c:	b292      	uxth	r2, r2
    123e:	fbb1 f6fe 	udiv	r6, r1, lr
    1242:	fb0e 1116 	mls	r1, lr, r6, r1
    1246:	ea42 4201 	orr.w	r2, r2, r1, lsl #16
    124a:	fb06 f107 	mul.w	r1, r6, r7
    124e:	4291      	cmp	r1, r2
    1250:	d907      	bls.n	1262 <__udivmoddi4+0x29e>
    1252:	eb1c 0202 	adds.w	r2, ip, r2
    1256:	f106 38ff 	add.w	r8, r6, #4294967295	; 0xffffffff
    125a:	d201      	bcs.n	1260 <__udivmoddi4+0x29c>
    125c:	4291      	cmp	r1, r2
    125e:	d822      	bhi.n	12a6 <__udivmoddi4+0x2e2>
    1260:	4646      	mov	r6, r8
    1262:	1a52      	subs	r2, r2, r1
    1264:	ea46 4100 	orr.w	r1, r6, r0, lsl #16
    1268:	e724      	b.n	10b4 <__udivmoddi4+0xf0>
    126a:	4629      	mov	r1, r5
    126c:	4628      	mov	r0, r5
    126e:	e6f7      	b.n	1060 <__udivmoddi4+0x9c>
    1270:	1a84      	subs	r4, r0, r2
    1272:	eb66 0203 	sbc.w	r2, r6, r3
    1276:	2001      	movs	r0, #1
    1278:	4617      	mov	r7, r2
    127a:	e709      	b.n	1090 <__udivmoddi4+0xcc>
    127c:	4464      	add	r4, ip
    127e:	3802      	subs	r0, #2
    1280:	e748      	b.n	1114 <__udivmoddi4+0x150>
    1282:	4464      	add	r4, ip
    1284:	3802      	subs	r0, #2
    1286:	e6e1      	b.n	104c <__udivmoddi4+0x88>
    1288:	3e02      	subs	r6, #2
    128a:	4462      	add	r2, ip
    128c:	e72d      	b.n	10ea <__udivmoddi4+0x126>
    128e:	3902      	subs	r1, #2
    1290:	4462      	add	r2, ip
    1292:	e6c6      	b.n	1022 <__udivmoddi4+0x5e>
    1294:	3802      	subs	r0, #2
    1296:	443e      	add	r6, r7
    1298:	e76f      	b.n	117a <__udivmoddi4+0x1b6>
    129a:	3802      	subs	r0, #2
    129c:	4461      	add	r1, ip
    129e:	e7cc      	b.n	123a <__udivmoddi4+0x276>
    12a0:	3b02      	subs	r3, #2
    12a2:	443e      	add	r6, r7
    12a4:	e77e      	b.n	11a4 <__udivmoddi4+0x1e0>
    12a6:	3e02      	subs	r6, #2
    12a8:	4462      	add	r2, ip
    12aa:	e7da      	b.n	1262 <__udivmoddi4+0x29e>
    12ac:	4629      	mov	r1, r5
    12ae:	e6d7      	b.n	1060 <__udivmoddi4+0x9c>

000012b0 <__aeabi_idiv0>:
    12b0:	4770      	bx	lr
    12b2:	bf00      	nop

000012b4 <__aeabi_d2uiz>:
    12b4:	004a      	lsls	r2, r1, #1
    12b6:	d211      	bcs.n	12dc <__aeabi_d2uiz+0x28>
    12b8:	f512 1200 	adds.w	r2, r2, #2097152	; 0x200000
    12bc:	d211      	bcs.n	12e2 <__aeabi_d2uiz+0x2e>
    12be:	d50d      	bpl.n	12dc <__aeabi_d2uiz+0x28>
    12c0:	f46f 7378 	mvn.w	r3, #992	; 0x3e0
    12c4:	ebb3 5262 	subs.w	r2, r3, r2, asr #21
    12c8:	d40e      	bmi.n	12e8 <__aeabi_d2uiz+0x34>
    12ca:	ea4f 23c1 	mov.w	r3, r1, lsl #11
    12ce:	f043 4300 	orr.w	r3, r3, #2147483648	; 0x80000000
    12d2:	ea43 5350 	orr.w	r3, r3, r0, lsr #21
    12d6:	fa23 f002 	lsr.w	r0, r3, r2
    12da:	4770      	bx	lr
    12dc:	f04f 0000 	mov.w	r0, #0
    12e0:	4770      	bx	lr
    12e2:	ea50 3001 	orrs.w	r0, r0, r1, lsl #12
    12e6:	d102      	bne.n	12ee <__aeabi_d2uiz+0x3a>
    12e8:	f04f 30ff 	mov.w	r0, #4294967295	; 0xffffffff
    12ec:	4770      	bx	lr
    12ee:	f04f 0000 	mov.w	r0, #0
    12f2:	4770      	bx	lr

000012f4 <__aeabi_memset>:
    12f4:	b470      	push	{r4, r5, r6}
    12f6:	0784      	lsls	r4, r0, #30
    12f8:	d046      	beq.n	1388 <__aeabi_memset+0x94>
    12fa:	1e4c      	subs	r4, r1, #1
    12fc:	2900      	cmp	r1, #0
    12fe:	d041      	beq.n	1384 <__aeabi_memset+0x90>
    1300:	b2d5      	uxtb	r5, r2
    1302:	4603      	mov	r3, r0
    1304:	e002      	b.n	130c <__aeabi_memset+0x18>
    1306:	1e61      	subs	r1, r4, #1
    1308:	b3e4      	cbz	r4, 1384 <__aeabi_memset+0x90>
    130a:	460c      	mov	r4, r1
    130c:	f803 5b01 	strb.w	r5, [r3], #1
    1310:	0799      	lsls	r1, r3, #30
    1312:	d1f8      	bne.n	1306 <__aeabi_memset+0x12>
    1314:	2c03      	cmp	r4, #3
    1316:	d92e      	bls.n	1376 <__aeabi_memset+0x82>
    1318:	b2d5      	uxtb	r5, r2
    131a:	ea45 2505 	orr.w	r5, r5, r5, lsl #8
    131e:	2c0f      	cmp	r4, #15
    1320:	ea45 4505 	orr.w	r5, r5, r5, lsl #16
    1324:	d919      	bls.n	135a <__aeabi_memset+0x66>
    1326:	4626      	mov	r6, r4
    1328:	f103 0110 	add.w	r1, r3, #16
    132c:	3e10      	subs	r6, #16
    132e:	2e0f      	cmp	r6, #15
    1330:	f841 5c10 	str.w	r5, [r1, #-16]
    1334:	f841 5c0c 	str.w	r5, [r1, #-12]
    1338:	f841 5c08 	str.w	r5, [r1, #-8]
    133c:	f841 5c04 	str.w	r5, [r1, #-4]
    1340:	f101 0110 	add.w	r1, r1, #16
    1344:	d8f2      	bhi.n	132c <__aeabi_memset+0x38>
    1346:	f1a4 0110 	sub.w	r1, r4, #16
    134a:	f021 010f 	bic.w	r1, r1, #15
    134e:	f004 040f 	and.w	r4, r4, #15
    1352:	3110      	adds	r1, #16
    1354:	2c03      	cmp	r4, #3
    1356:	440b      	add	r3, r1
    1358:	d90d      	bls.n	1376 <__aeabi_memset+0x82>
    135a:	461e      	mov	r6, r3
    135c:	4621      	mov	r1, r4
    135e:	3904      	subs	r1, #4
    1360:	2903      	cmp	r1, #3
    1362:	f846 5b04 	str.w	r5, [r6], #4
    1366:	d8fa      	bhi.n	135e <__aeabi_memset+0x6a>
    1368:	1f21      	subs	r1, r4, #4
    136a:	f021 0103 	bic.w	r1, r1, #3
    136e:	3104      	adds	r1, #4
    1370:	440b      	add	r3, r1
    1372:	f004 0403 	and.w	r4, r4, #3
    1376:	b12c      	cbz	r4, 1384 <__aeabi_memset+0x90>
    1378:	b2d2      	uxtb	r2, r2
    137a:	441c      	add	r4, r3
    137c:	f803 2b01 	strb.w	r2, [r3], #1
    1380:	42a3      	cmp	r3, r4
    1382:	d1fb      	bne.n	137c <__aeabi_memset+0x88>
    1384:	bc70      	pop	{r4, r5, r6}
    1386:	4770      	bx	lr
    1388:	460c      	mov	r4, r1
    138a:	4603      	mov	r3, r0
    138c:	e7c2      	b.n	1314 <__aeabi_memset+0x20>
	...

00001390 <memcpy>:
    1390:	4684      	mov	ip, r0
    1392:	ea41 0300 	orr.w	r3, r1, r0
    1396:	f013 0303 	ands.w	r3, r3, #3
    139a:	d149      	bne.n	1430 <memcpy+0xa0>
    139c:	3a40      	subs	r2, #64	; 0x40
    139e:	d323      	bcc.n	13e8 <memcpy+0x58>
    13a0:	680b      	ldr	r3, [r1, #0]
    13a2:	6003      	str	r3, [r0, #0]
    13a4:	684b      	ldr	r3, [r1, #4]
    13a6:	6043      	str	r3, [r0, #4]
    13a8:	688b      	ldr	r3, [r1, #8]
    13aa:	6083      	str	r3, [r0, #8]
    13ac:	68cb      	ldr	r3, [r1, #12]
    13ae:	60c3      	str	r3, [r0, #12]
    13b0:	690b      	ldr	r3, [r1, #16]
    13b2:	6103      	str	r3, [r0, #16]
    13b4:	694b      	ldr	r3, [r1, #20]
    13b6:	6143      	str	r3, [r0, #20]
    13b8:	698b      	ldr	r3, [r1, #24]
    13ba:	6183      	str	r3, [r0, #24]
    13bc:	69cb      	ldr	r3, [r1, #28]
    13be:	61c3      	str	r3, [r0, #28]
    13c0:	6a0b      	ldr	r3, [r1, #32]
    13c2:	6203      	str	r3, [r0, #32]
    13c4:	6a4b      	ldr	r3, [r1, #36]	; 0x24
    13c6:	6243      	str	r3, [r0, #36]	; 0x24
    13c8:	6a8b      	ldr	r3, [r1, #40]	; 0x28
    13ca:	6283      	str	r3, [r0, #40]	; 0x28
    13cc:	6acb      	ldr	r3, [r1, #44]	; 0x2c
    13ce:	62c3      	str	r3, [r0, #44]	; 0x2c
    13d0:	6b0b      	ldr	r3, [r1, #48]	; 0x30
    13d2:	6303      	str	r3, [r0, #48]	; 0x30
    13d4:	6b4b      	ldr	r3, [r1, #52]	; 0x34
    13d6:	6343      	str	r3, [r0, #52]	; 0x34
    13d8:	6b8b      	ldr	r3, [r1, #56]	; 0x38
    13da:	6383      	str	r3, [r0, #56]	; 0x38
    13dc:	6bcb      	ldr	r3, [r1, #60]	; 0x3c
    13de:	63c3      	str	r3, [r0, #60]	; 0x3c
    13e0:	3040      	adds	r0, #64	; 0x40
    13e2:	3140      	adds	r1, #64	; 0x40
    13e4:	3a40      	subs	r2, #64	; 0x40
    13e6:	d2db      	bcs.n	13a0 <memcpy+0x10>
    13e8:	3230      	adds	r2, #48	; 0x30
    13ea:	d30b      	bcc.n	1404 <memcpy+0x74>
    13ec:	680b      	ldr	r3, [r1, #0]
    13ee:	6003      	str	r3, [r0, #0]
    13f0:	684b      	ldr	r3, [r1, #4]
    13f2:	6043      	str	r3, [r0, #4]
    13f4:	688b      	ldr	r3, [r1, #8]
    13f6:	6083      	str	r3, [r0, #8]
    13f8:	68cb      	ldr	r3, [r1, #12]
    13fa:	60c3      	str	r3, [r0, #12]
    13fc:	3010      	adds	r0, #16
    13fe:	3110      	adds	r1, #16
    1400:	3a10      	subs	r2, #16
    1402:	d2f3      	bcs.n	13ec <memcpy+0x5c>
    1404:	320c      	adds	r2, #12
    1406:	d305      	bcc.n	1414 <memcpy+0x84>
    1408:	f851 3b04 	ldr.w	r3, [r1], #4
    140c:	f840 3b04 	str.w	r3, [r0], #4
    1410:	3a04      	subs	r2, #4
    1412:	d2f9      	bcs.n	1408 <memcpy+0x78>
    1414:	3204      	adds	r2, #4
    1416:	d008      	beq.n	142a <memcpy+0x9a>
    1418:	07d2      	lsls	r2, r2, #31
    141a:	bf1c      	itt	ne
    141c:	f811 3b01 	ldrbne.w	r3, [r1], #1
    1420:	f800 3b01 	strbne.w	r3, [r0], #1
    1424:	d301      	bcc.n	142a <memcpy+0x9a>
    1426:	880b      	ldrh	r3, [r1, #0]
    1428:	8003      	strh	r3, [r0, #0]
    142a:	4660      	mov	r0, ip
    142c:	4770      	bx	lr
    142e:	bf00      	nop
    1430:	2a08      	cmp	r2, #8
    1432:	d313      	bcc.n	145c <memcpy+0xcc>
    1434:	078b      	lsls	r3, r1, #30
    1436:	d0b1      	beq.n	139c <memcpy+0xc>
    1438:	f010 0303 	ands.w	r3, r0, #3
    143c:	d0ae      	beq.n	139c <memcpy+0xc>
    143e:	f1c3 0304 	rsb	r3, r3, #4
    1442:	1ad2      	subs	r2, r2, r3
    1444:	07db      	lsls	r3, r3, #31
    1446:	bf1c      	itt	ne
    1448:	f811 3b01 	ldrbne.w	r3, [r1], #1
    144c:	f800 3b01 	strbne.w	r3, [r0], #1
    1450:	d3a4      	bcc.n	139c <memcpy+0xc>
    1452:	f831 3b02 	ldrh.w	r3, [r1], #2
    1456:	f820 3b02 	strh.w	r3, [r0], #2
    145a:	e79f      	b.n	139c <memcpy+0xc>
    145c:	3a04      	subs	r2, #4
    145e:	d3d9      	bcc.n	1414 <memcpy+0x84>
    1460:	3a01      	subs	r2, #1
    1462:	f811 3b01 	ldrb.w	r3, [r1], #1
    1466:	f800 3b01 	strb.w	r3, [r0], #1
    146a:	d2f9      	bcs.n	1460 <memcpy+0xd0>
    146c:	780b      	ldrb	r3, [r1, #0]
    146e:	7003      	strb	r3, [r0, #0]
    1470:	784b      	ldrb	r3, [r1, #1]
    1472:	7043      	strb	r3, [r0, #1]
    1474:	788b      	ldrb	r3, [r1, #2]
    1476:	7083      	strb	r3, [r0, #2]
    1478:	4660      	mov	r0, ip
    147a:	4770      	bx	lr

0000147c <SystemInit>:
    147c:	b580      	push	{r7, lr}
    147e:	466f      	mov	r7, sp
    1480:	f64e 5188 	movw	r1, #60808	; 0xed88
    1484:	f2ce 0100 	movt	r1, #57344	; 0xe000
    1488:	6808      	ldr	r0, [r1, #0]
    148a:	f440 0070 	orr.w	r0, r0, #15728640	; 0xf00000
    148e:	6008      	str	r0, [r1, #0]
    1490:	6808      	ldr	r0, [r1, #0]
    1492:	f040 000f 	orr.w	r0, r0, #15
    1496:	6008      	str	r0, [r1, #0]
    1498:	f64e 518c 	movw	r1, #60812	; 0xed8c
    149c:	f2ce 0100 	movt	r1, #57344	; 0xe000
    14a0:	6808      	ldr	r0, [r1, #0]
    14a2:	f640 4203 	movw	r2, #3075	; 0xc03
    14a6:	4310      	orrs	r0, r2
    14a8:	6008      	str	r0, [r1, #0]
    14aa:	f240 0000 	movw	r0, #0
    14ae:	f2c0 0000 	movt	r0, #0
    14b2:	f64e 5108 	movw	r1, #60680	; 0xed08
    14b6:	f2ce 0100 	movt	r1, #57344	; 0xe000
    14ba:	6008      	str	r0, [r1, #0]
    14bc:	f240 3108 	movw	r1, #776	; 0x308
    14c0:	f2c4 0100 	movt	r1, #16384	; 0x4000
    14c4:	2000      	movs	r0, #0
    14c6:	6008      	str	r0, [r1, #0]
    14c8:	f240 2120 	movw	r1, #544	; 0x220
    14cc:	f2c4 0100 	movt	r1, #16384	; 0x4000
    14d0:	2078      	movs	r0, #120	; 0x78
    14d2:	6008      	str	r0, [r1, #0]
    14d4:	f000 f801 	bl	14da <SystemInitHook>
    14d8:	bd80      	pop	{r7, pc}

000014da <SystemInitHook>:
    14da:	4770      	bx	lr

000014dc <SDK_DelayAtLeastUs>:
    14dc:	b580      	push	{r7, lr}
    14de:	466f      	mov	r7, sp
    14e0:	b084      	sub	sp, #16
    14e2:	9102      	str	r1, [sp, #8]
    14e4:	9003      	str	r0, [sp, #12]
    14e6:	b340      	cbz	r0, 153a <SDK_DelayAtLeastUs+0x5e>
    14e8:	e7ff      	b.n	14ea <SDK_DelayAtLeastUs+0xe>
    14ea:	9803      	ldr	r0, [sp, #12]
    14ec:	9902      	ldr	r1, [sp, #8]
    14ee:	fba0 0101 	umull	r0, r1, r0, r1
    14f2:	f244 2240 	movw	r2, #16960	; 0x4240
    14f6:	f2c0 020f 	movt	r2, #15
    14fa:	2300      	movs	r3, #0
    14fc:	f7ff fd14 	bl	f28 <__aeabi_uldivmod>
    1500:	460a      	mov	r2, r1
    1502:	9200      	str	r2, [sp, #0]
    1504:	9001      	str	r0, [sp, #4]
    1506:	b909      	cbnz	r1, 150c <SDK_DelayAtLeastUs+0x30>
    1508:	e7ff      	b.n	150a <SDK_DelayAtLeastUs+0x2e>
    150a:	e00e      	b.n	152a <SDK_DelayAtLeastUs+0x4e>
    150c:	f248 7074 	movw	r0, #34676	; 0x8774
    1510:	f2c0 0000 	movt	r0, #0
    1514:	f248 72e5 	movw	r2, #34789	; 0x87e5
    1518:	f2c0 0200 	movt	r2, #0
    151c:	f248 73f8 	movw	r3, #34808	; 0x87f8
    1520:	f2c0 0300 	movt	r3, #0
    1524:	21d5      	movs	r1, #213	; 0xd5
    1526:	f003 fd0c 	bl	4f42 <__assert_func>
    152a:	9900      	ldr	r1, [sp, #0]
    152c:	9801      	ldr	r0, [sp, #4]
    152e:	0880      	lsrs	r0, r0, #2
    1530:	ea40 7081 	orr.w	r0, r0, r1, lsl #30
    1534:	f000 f803 	bl	153e <DelayLoop>
    1538:	e7ff      	b.n	153a <SDK_DelayAtLeastUs+0x5e>
    153a:	b004      	add	sp, #16
    153c:	bd80      	pop	{r7, pc}

0000153e <DelayLoop>:
    153e:	4600      	mov	r0, r0

00001540 <loop>:
    1540:	f1a0 0001 	sub.w	r0, r0, #1
    1544:	2800      	cmp	r0, #0
    1546:	d1fb      	bne.n	1540 <loop>
    1548:	4770      	bx	lr

0000154a <CLOCK_AttachClk>:
    154a:	b089      	sub	sp, #36	; 0x24
    154c:	9008      	str	r0, [sp, #32]
    154e:	f1b0 4f00 	cmp.w	r0, #2147483648	; 0x80000000
    1552:	d045      	beq.n	15e0 <CLOCK_AttachClk+0x96>
    1554:	e7ff      	b.n	1556 <CLOCK_AttachClk+0xc>
    1556:	9908      	ldr	r1, [sp, #32]
    1558:	2000      	movs	r0, #0
    155a:	9106      	str	r1, [sp, #24]
    155c:	9007      	str	r0, [sp, #28]
    155e:	e7ff      	b.n	1560 <CLOCK_AttachClk+0x16>
    1560:	9906      	ldr	r1, [sp, #24]
    1562:	9807      	ldr	r0, [sp, #28]
    1564:	9004      	str	r0, [sp, #16]
    1566:	9105      	str	r1, [sp, #20]
    1568:	2801      	cmp	r0, #1
    156a:	d838      	bhi.n	15de <CLOCK_AttachClk+0x94>
    156c:	e7ff      	b.n	156e <CLOCK_AttachClk+0x24>
    156e:	9805      	ldr	r0, [sp, #20]
    1570:	b908      	cbnz	r0, 1576 <CLOCK_AttachClk+0x2c>
    1572:	e7ff      	b.n	1574 <CLOCK_AttachClk+0x2a>
    1574:	e033      	b.n	15de <CLOCK_AttachClk+0x94>
    1576:	9805      	ldr	r0, [sp, #20]
    1578:	f36f 301f 	bfc	r0, #12, #20
    157c:	4601      	mov	r1, r0
    157e:	9103      	str	r1, [sp, #12]
    1580:	b318      	cbz	r0, 15ca <CLOCK_AttachClk+0x80>
    1582:	e7ff      	b.n	1584 <CLOCK_AttachClk+0x3a>
    1584:	9903      	ldr	r1, [sp, #12]
    1586:	b2c8      	uxtb	r0, r1
    1588:	4602      	mov	r2, r0
    158a:	9201      	str	r2, [sp, #4]
    158c:	f401 6270 	and.w	r2, r1, #3840	; 0xf00
    1590:	f04f 31ff 	mov.w	r1, #4294967295	; 0xffffffff
    1594:	eb01 2112 	add.w	r1, r1, r2, lsr #8
    1598:	9102      	str	r1, [sp, #8]
    159a:	283f      	cmp	r0, #63	; 0x3f
    159c:	d109      	bne.n	15b2 <CLOCK_AttachClk+0x68>
    159e:	e7ff      	b.n	15a0 <CLOCK_AttachClk+0x56>
    15a0:	9a02      	ldr	r2, [sp, #8]
    15a2:	2198      	movs	r1, #152	; 0x98
    15a4:	f2c4 0102 	movt	r1, #16386	; 0x4002
    15a8:	6808      	ldr	r0, [r1, #0]
    15aa:	f362 0000 	bfi	r0, r2, #0, #1
    15ae:	6008      	str	r0, [r1, #0]
    15b0:	e00a      	b.n	15c8 <CLOCK_AttachClk+0x7e>
    15b2:	9901      	ldr	r1, [sp, #4]
    15b4:	9802      	ldr	r0, [sp, #8]
    15b6:	b2c0      	uxtb	r0, r0
    15b8:	b2ca      	uxtb	r2, r1
    15ba:	f240 2160 	movw	r1, #608	; 0x260
    15be:	f2c4 0100 	movt	r1, #16384	; 0x4000
    15c2:	f841 0022 	str.w	r0, [r1, r2, lsl #2]
    15c6:	e7ff      	b.n	15c8 <CLOCK_AttachClk+0x7e>
    15c8:	e7ff      	b.n	15ca <CLOCK_AttachClk+0x80>
    15ca:	9805      	ldr	r0, [sp, #20]
    15cc:	0b00      	lsrs	r0, r0, #12
    15ce:	9000      	str	r0, [sp, #0]
    15d0:	e7ff      	b.n	15d2 <CLOCK_AttachClk+0x88>
    15d2:	9900      	ldr	r1, [sp, #0]
    15d4:	9804      	ldr	r0, [sp, #16]
    15d6:	3001      	adds	r0, #1
    15d8:	9106      	str	r1, [sp, #24]
    15da:	9007      	str	r0, [sp, #28]
    15dc:	e7c0      	b.n	1560 <CLOCK_AttachClk+0x16>
    15de:	e7ff      	b.n	15e0 <CLOCK_AttachClk+0x96>
    15e0:	b009      	add	sp, #36	; 0x24
    15e2:	4770      	bx	lr

000015e4 <CLOCK_SetClkDiv>:
    15e4:	b083      	sub	sp, #12
    15e6:	9100      	str	r1, [sp, #0]
    15e8:	4601      	mov	r1, r0
    15ea:	9101      	str	r1, [sp, #4]
    15ec:	9202      	str	r2, [sp, #8]
    15ee:	2808      	cmp	r0, #8
    15f0:	db12      	blt.n	1618 <CLOCK_SetClkDiv+0x34>
    15f2:	e7ff      	b.n	15f4 <CLOCK_SetClkDiv+0x10>
    15f4:	9801      	ldr	r0, [sp, #4]
    15f6:	b2c0      	uxtb	r0, r0
    15f8:	280f      	cmp	r0, #15
    15fa:	dc0d      	bgt.n	1618 <CLOCK_SetClkDiv+0x34>
    15fc:	e7ff      	b.n	15fe <CLOCK_SetClkDiv+0x1a>
    15fe:	9901      	ldr	r1, [sp, #4]
    1600:	9a00      	ldr	r2, [sp, #0]
    1602:	20ff      	movs	r0, #255	; 0xff
    1604:	f362 200f 	bfi	r0, r2, #8, #8
    1608:	b2ca      	uxtb	r2, r1
    160a:	f240 3100 	movw	r1, #768	; 0x300
    160e:	f2c4 0100 	movt	r1, #16384	; 0x4000
    1612:	f841 0022 	str.w	r0, [r1, r2, lsl #2]
    1616:	e028      	b.n	166a <CLOCK_SetClkDiv+0x86>
    1618:	9802      	ldr	r0, [sp, #8]
    161a:	07c0      	lsls	r0, r0, #31
    161c:	b158      	cbz	r0, 1636 <CLOCK_SetClkDiv+0x52>
    161e:	e7ff      	b.n	1620 <CLOCK_SetClkDiv+0x3c>
    1620:	9801      	ldr	r0, [sp, #4]
    1622:	b2c2      	uxtb	r2, r0
    1624:	f240 3100 	movw	r1, #768	; 0x300
    1628:	f2c4 0100 	movt	r1, #16384	; 0x4000
    162c:	f04f 5000 	mov.w	r0, #536870912	; 0x20000000
    1630:	f841 0022 	str.w	r0, [r1, r2, lsl #2]
    1634:	e7ff      	b.n	1636 <CLOCK_SetClkDiv+0x52>
    1636:	9800      	ldr	r0, [sp, #0]
    1638:	b958      	cbnz	r0, 1652 <CLOCK_SetClkDiv+0x6e>
    163a:	e7ff      	b.n	163c <CLOCK_SetClkDiv+0x58>
    163c:	9801      	ldr	r0, [sp, #4]
    163e:	b2c2      	uxtb	r2, r0
    1640:	f240 3100 	movw	r1, #768	; 0x300
    1644:	f2c4 0100 	movt	r1, #16384	; 0x4000
    1648:	f04f 4080 	mov.w	r0, #1073741824	; 0x40000000
    164c:	f841 0022 	str.w	r0, [r1, r2, lsl #2]
    1650:	e00a      	b.n	1668 <CLOCK_SetClkDiv+0x84>
    1652:	9901      	ldr	r1, [sp, #4]
    1654:	9800      	ldr	r0, [sp, #0]
    1656:	3801      	subs	r0, #1
    1658:	b2ca      	uxtb	r2, r1
    165a:	f240 3100 	movw	r1, #768	; 0x300
    165e:	f2c4 0100 	movt	r1, #16384	; 0x4000
    1662:	f841 0022 	str.w	r0, [r1, r2, lsl #2]
    1666:	e7ff      	b.n	1668 <CLOCK_SetClkDiv+0x84>
    1668:	e7ff      	b.n	166a <CLOCK_SetClkDiv+0x86>
    166a:	b003      	add	sp, #12
    166c:	4770      	bx	lr

0000166e <CLOCK_SetupFROClocking>:
    166e:	b580      	push	{r7, lr}
    1670:	466f      	mov	r7, sp
    1672:	b082      	sub	sp, #8
    1674:	9001      	str	r0, [sp, #4]
    1676:	f641 3100 	movw	r1, #6912	; 0x1b00
    167a:	f2c0 01b7 	movt	r1, #183	; 0xb7
    167e:	4288      	cmp	r0, r1
    1680:	d013      	beq.n	16aa <CLOCK_SetupFROClocking+0x3c>
    1682:	e7ff      	b.n	1684 <CLOCK_SetupFROClocking+0x16>
    1684:	9801      	ldr	r0, [sp, #4]
    1686:	f646 4100 	movw	r1, #27648	; 0x6c00
    168a:	f2c0 21dc 	movt	r1, #732	; 0x2dc
    168e:	4288      	cmp	r0, r1
    1690:	d00b      	beq.n	16aa <CLOCK_SetupFROClocking+0x3c>
    1692:	e7ff      	b.n	1694 <CLOCK_SetupFROClocking+0x26>
    1694:	9801      	ldr	r0, [sp, #4]
    1696:	f64d 0100 	movw	r1, #55296	; 0xd800
    169a:	f2c0 51b8 	movt	r1, #1464	; 0x5b8
    169e:	4288      	cmp	r0, r1
    16a0:	d003      	beq.n	16aa <CLOCK_SetupFROClocking+0x3c>
    16a2:	e7ff      	b.n	16a4 <CLOCK_SetupFROClocking+0x36>
    16a4:	2001      	movs	r0, #1
    16a6:	9000      	str	r0, [sp, #0]
    16a8:	e02b      	b.n	1702 <CLOCK_SetupFROClocking+0x94>
    16aa:	f240 1148 	movw	r1, #328	; 0x148
    16ae:	f2c4 0100 	movt	r1, #16384	; 0x4000
    16b2:	f04f 6000 	mov.w	r0, #134217728	; 0x8000000
    16b6:	6008      	str	r0, [r1, #0]
    16b8:	f240 2128 	movw	r1, #552	; 0x228
    16bc:	f2c4 0100 	movt	r1, #16384	; 0x4000
    16c0:	6008      	str	r0, [r1, #0]
    16c2:	2020      	movs	r0, #32
    16c4:	f000 f820 	bl	1708 <POWER_DisablePD>
    16c8:	9801      	ldr	r0, [sp, #4]
    16ca:	f64d 0100 	movw	r1, #55296	; 0xd800
    16ce:	f2c0 51b8 	movt	r1, #1464	; 0x5b8
    16d2:	4288      	cmp	r0, r1
    16d4:	d109      	bne.n	16ea <CLOCK_SetupFROClocking+0x7c>
    16d6:	e7ff      	b.n	16d8 <CLOCK_SetupFROClocking+0x6a>
    16d8:	f243 0110 	movw	r1, #12304	; 0x3010
    16dc:	f2c4 0101 	movt	r1, #16385	; 0x4001
    16e0:	6808      	ldr	r0, [r1, #0]
    16e2:	f040 4080 	orr.w	r0, r0, #1073741824	; 0x40000000
    16e6:	6008      	str	r0, [r1, #0]
    16e8:	e008      	b.n	16fc <CLOCK_SetupFROClocking+0x8e>
    16ea:	f243 0110 	movw	r1, #12304	; 0x3010
    16ee:	f2c4 0101 	movt	r1, #16385	; 0x4001
    16f2:	6808      	ldr	r0, [r1, #0]
    16f4:	f440 4080 	orr.w	r0, r0, #16384	; 0x4000
    16f8:	6008      	str	r0, [r1, #0]
    16fa:	e7ff      	b.n	16fc <CLOCK_SetupFROClocking+0x8e>
    16fc:	2000      	movs	r0, #0
    16fe:	9000      	str	r0, [sp, #0]
    1700:	e7ff      	b.n	1702 <CLOCK_SetupFROClocking+0x94>
    1702:	9800      	ldr	r0, [sp, #0]
    1704:	b002      	add	sp, #8
    1706:	bd80      	pop	{r7, pc}

00001708 <POWER_DisablePD>:
    1708:	21c8      	movs	r1, #200	; 0xc8
    170a:	f2c4 0102 	movt	r1, #16386	; 0x4002
    170e:	6008      	str	r0, [r1, #0]
    1710:	4770      	bx	lr

00001712 <CLOCK_SetFLASHAccessCyclesForFreq>:
    1712:	b08f      	sub	sp, #60	; 0x3c
    1714:	900d      	str	r0, [sp, #52]	; 0x34
    1716:	f240 4100 	movw	r1, #1024	; 0x400
    171a:	f2c4 0100 	movt	r1, #16384	; 0x4000
    171e:	6809      	ldr	r1, [r1, #0]
    1720:	f001 0120 	and.w	r1, r1, #32
    1724:	910e      	str	r1, [sp, #56]	; 0x38
    1726:	f64d 01c0 	movw	r1, #55488	; 0xd8c0
    172a:	f2c0 01a7 	movt	r1, #167	; 0xa7
    172e:	4288      	cmp	r0, r1
    1730:	d803      	bhi.n	173a <CLOCK_SetFLASHAccessCyclesForFreq+0x28>
    1732:	e7ff      	b.n	1734 <CLOCK_SetFLASHAccessCyclesForFreq+0x22>
    1734:	2000      	movs	r0, #0
    1736:	900c      	str	r0, [sp, #48]	; 0x30
    1738:	e09c      	b.n	1874 <CLOCK_SetFLASHAccessCyclesForFreq+0x162>
    173a:	980d      	ldr	r0, [sp, #52]	; 0x34
    173c:	f24b 1180 	movw	r1, #45440	; 0xb180
    1740:	f2c0 114f 	movt	r1, #335	; 0x14f
    1744:	4288      	cmp	r0, r1
    1746:	d803      	bhi.n	1750 <CLOCK_SetFLASHAccessCyclesForFreq+0x3e>
    1748:	e7ff      	b.n	174a <CLOCK_SetFLASHAccessCyclesForFreq+0x38>
    174a:	2001      	movs	r0, #1
    174c:	900b      	str	r0, [sp, #44]	; 0x2c
    174e:	e08e      	b.n	186e <CLOCK_SetFLASHAccessCyclesForFreq+0x15c>
    1750:	980d      	ldr	r0, [sp, #52]	; 0x34
    1752:	f648 2140 	movw	r1, #35392	; 0x8a40
    1756:	f2c0 11f7 	movt	r1, #503	; 0x1f7
    175a:	4288      	cmp	r0, r1
    175c:	d803      	bhi.n	1766 <CLOCK_SetFLASHAccessCyclesForFreq+0x54>
    175e:	e7ff      	b.n	1760 <CLOCK_SetFLASHAccessCyclesForFreq+0x4e>
    1760:	2002      	movs	r0, #2
    1762:	900a      	str	r0, [sp, #40]	; 0x28
    1764:	e080      	b.n	1868 <CLOCK_SetFLASHAccessCyclesForFreq+0x156>
    1766:	980d      	ldr	r0, [sp, #52]	; 0x34
    1768:	f246 3100 	movw	r1, #25344	; 0x6300
    176c:	f2c0 219f 	movt	r1, #671	; 0x29f
    1770:	4288      	cmp	r0, r1
    1772:	d803      	bhi.n	177c <CLOCK_SetFLASHAccessCyclesForFreq+0x6a>
    1774:	e7ff      	b.n	1776 <CLOCK_SetFLASHAccessCyclesForFreq+0x64>
    1776:	2003      	movs	r0, #3
    1778:	9009      	str	r0, [sp, #36]	; 0x24
    177a:	e072      	b.n	1862 <CLOCK_SetFLASHAccessCyclesForFreq+0x150>
    177c:	980d      	ldr	r0, [sp, #52]	; 0x34
    177e:	f643 31c0 	movw	r1, #15296	; 0x3bc0
    1782:	f2c0 3147 	movt	r1, #839	; 0x347
    1786:	4288      	cmp	r0, r1
    1788:	d803      	bhi.n	1792 <CLOCK_SetFLASHAccessCyclesForFreq+0x80>
    178a:	e7ff      	b.n	178c <CLOCK_SetFLASHAccessCyclesForFreq+0x7a>
    178c:	2004      	movs	r0, #4
    178e:	9008      	str	r0, [sp, #32]
    1790:	e064      	b.n	185c <CLOCK_SetFLASHAccessCyclesForFreq+0x14a>
    1792:	980d      	ldr	r0, [sp, #52]	; 0x34
    1794:	f241 4180 	movw	r1, #5248	; 0x1480
    1798:	f2c0 31ef 	movt	r1, #1007	; 0x3ef
    179c:	4288      	cmp	r0, r1
    179e:	d803      	bhi.n	17a8 <CLOCK_SetFLASHAccessCyclesForFreq+0x96>
    17a0:	e7ff      	b.n	17a2 <CLOCK_SetFLASHAccessCyclesForFreq+0x90>
    17a2:	2005      	movs	r0, #5
    17a4:	9007      	str	r0, [sp, #28]
    17a6:	e056      	b.n	1856 <CLOCK_SetFLASHAccessCyclesForFreq+0x144>
    17a8:	980d      	ldr	r0, [sp, #52]	; 0x34
    17aa:	f64e 5140 	movw	r1, #60736	; 0xed40
    17ae:	f2c0 4196 	movt	r1, #1174	; 0x496
    17b2:	4288      	cmp	r0, r1
    17b4:	d803      	bhi.n	17be <CLOCK_SetFLASHAccessCyclesForFreq+0xac>
    17b6:	e7ff      	b.n	17b8 <CLOCK_SetFLASHAccessCyclesForFreq+0xa6>
    17b8:	2006      	movs	r0, #6
    17ba:	9006      	str	r0, [sp, #24]
    17bc:	e048      	b.n	1850 <CLOCK_SetFLASHAccessCyclesForFreq+0x13e>
    17be:	980d      	ldr	r0, [sp, #52]	; 0x34
    17c0:	f24c 6100 	movw	r1, #50688	; 0xc600
    17c4:	f2c0 513e 	movt	r1, #1342	; 0x53e
    17c8:	4288      	cmp	r0, r1
    17ca:	d803      	bhi.n	17d4 <CLOCK_SetFLASHAccessCyclesForFreq+0xc2>
    17cc:	e7ff      	b.n	17ce <CLOCK_SetFLASHAccessCyclesForFreq+0xbc>
    17ce:	2007      	movs	r0, #7
    17d0:	9005      	str	r0, [sp, #20]
    17d2:	e03a      	b.n	184a <CLOCK_SetFLASHAccessCyclesForFreq+0x138>
    17d4:	980d      	ldr	r0, [sp, #52]	; 0x34
    17d6:	f24e 1100 	movw	r1, #57600	; 0xe100
    17da:	f2c0 51f5 	movt	r1, #1525	; 0x5f5
    17de:	4288      	cmp	r0, r1
    17e0:	d803      	bhi.n	17ea <CLOCK_SetFLASHAccessCyclesForFreq+0xd8>
    17e2:	e7ff      	b.n	17e4 <CLOCK_SetFLASHAccessCyclesForFreq+0xd2>
    17e4:	2008      	movs	r0, #8
    17e6:	9004      	str	r0, [sp, #16]
    17e8:	e02c      	b.n	1844 <CLOCK_SetFLASHAccessCyclesForFreq+0x132>
    17ea:	980d      	ldr	r0, [sp, #52]	; 0x34
    17ec:	f24c 21c0 	movw	r1, #49856	; 0xc2c0
    17f0:	f2c0 61da 	movt	r1, #1754	; 0x6da
    17f4:	4288      	cmp	r0, r1
    17f6:	d803      	bhi.n	1800 <CLOCK_SetFLASHAccessCyclesForFreq+0xee>
    17f8:	e7ff      	b.n	17fa <CLOCK_SetFLASHAccessCyclesForFreq+0xe8>
    17fa:	2009      	movs	r0, #9
    17fc:	9003      	str	r0, [sp, #12]
    17fe:	e01e      	b.n	183e <CLOCK_SetFLASHAccessCyclesForFreq+0x12c>
    1800:	980d      	ldr	r0, [sp, #52]	; 0x34
    1802:	f24a 4180 	movw	r1, #42112	; 0xa480
    1806:	f2c0 71bf 	movt	r1, #1983	; 0x7bf
    180a:	4288      	cmp	r0, r1
    180c:	d803      	bhi.n	1816 <CLOCK_SetFLASHAccessCyclesForFreq+0x104>
    180e:	e7ff      	b.n	1810 <CLOCK_SetFLASHAccessCyclesForFreq+0xfe>
    1810:	200a      	movs	r0, #10
    1812:	9002      	str	r0, [sp, #8]
    1814:	e010      	b.n	1838 <CLOCK_SetFLASHAccessCyclesForFreq+0x126>
    1816:	980d      	ldr	r0, [sp, #52]	; 0x34
    1818:	f24d 1180 	movw	r1, #53632	; 0xd180
    181c:	f6c0 01f0 	movt	r1, #2288	; 0x8f0
    1820:	4288      	cmp	r0, r1
    1822:	d803      	bhi.n	182c <CLOCK_SetFLASHAccessCyclesForFreq+0x11a>
    1824:	e7ff      	b.n	1826 <CLOCK_SetFLASHAccessCyclesForFreq+0x114>
    1826:	200b      	movs	r0, #11
    1828:	9001      	str	r0, [sp, #4]
    182a:	e002      	b.n	1832 <CLOCK_SetFLASHAccessCyclesForFreq+0x120>
    182c:	200c      	movs	r0, #12
    182e:	9001      	str	r0, [sp, #4]
    1830:	e7ff      	b.n	1832 <CLOCK_SetFLASHAccessCyclesForFreq+0x120>
    1832:	9801      	ldr	r0, [sp, #4]
    1834:	9002      	str	r0, [sp, #8]
    1836:	e7ff      	b.n	1838 <CLOCK_SetFLASHAccessCyclesForFreq+0x126>
    1838:	9802      	ldr	r0, [sp, #8]
    183a:	9003      	str	r0, [sp, #12]
    183c:	e7ff      	b.n	183e <CLOCK_SetFLASHAccessCyclesForFreq+0x12c>
    183e:	9803      	ldr	r0, [sp, #12]
    1840:	9004      	str	r0, [sp, #16]
    1842:	e7ff      	b.n	1844 <CLOCK_SetFLASHAccessCyclesForFreq+0x132>
    1844:	9804      	ldr	r0, [sp, #16]
    1846:	9005      	str	r0, [sp, #20]
    1848:	e7ff      	b.n	184a <CLOCK_SetFLASHAccessCyclesForFreq+0x138>
    184a:	9805      	ldr	r0, [sp, #20]
    184c:	9006      	str	r0, [sp, #24]
    184e:	e7ff      	b.n	1850 <CLOCK_SetFLASHAccessCyclesForFreq+0x13e>
    1850:	9806      	ldr	r0, [sp, #24]
    1852:	9007      	str	r0, [sp, #28]
    1854:	e7ff      	b.n	1856 <CLOCK_SetFLASHAccessCyclesForFreq+0x144>
    1856:	9807      	ldr	r0, [sp, #28]
    1858:	9008      	str	r0, [sp, #32]
    185a:	e7ff      	b.n	185c <CLOCK_SetFLASHAccessCyclesForFreq+0x14a>
    185c:	9808      	ldr	r0, [sp, #32]
    185e:	9009      	str	r0, [sp, #36]	; 0x24
    1860:	e7ff      	b.n	1862 <CLOCK_SetFLASHAccessCyclesForFreq+0x150>
    1862:	9809      	ldr	r0, [sp, #36]	; 0x24
    1864:	900a      	str	r0, [sp, #40]	; 0x28
    1866:	e7ff      	b.n	1868 <CLOCK_SetFLASHAccessCyclesForFreq+0x156>
    1868:	980a      	ldr	r0, [sp, #40]	; 0x28
    186a:	900b      	str	r0, [sp, #44]	; 0x2c
    186c:	e7ff      	b.n	186e <CLOCK_SetFLASHAccessCyclesForFreq+0x15c>
    186e:	980b      	ldr	r0, [sp, #44]	; 0x2c
    1870:	900c      	str	r0, [sp, #48]	; 0x30
    1872:	e7ff      	b.n	1874 <CLOCK_SetFLASHAccessCyclesForFreq+0x162>
    1874:	9a0c      	ldr	r2, [sp, #48]	; 0x30
    1876:	9200      	str	r2, [sp, #0]
    1878:	f240 4100 	movw	r1, #1024	; 0x400
    187c:	f2c4 0100 	movt	r1, #16384	; 0x4000
    1880:	6808      	ldr	r0, [r1, #0]
    1882:	f020 0020 	bic.w	r0, r0, #32
    1886:	6008      	str	r0, [r1, #0]
    1888:	f644 71e8 	movw	r1, #20456	; 0x4fe8
    188c:	f2c4 0103 	movt	r1, #16387	; 0x4003
    1890:	201f      	movs	r0, #31
    1892:	6008      	str	r0, [r1, #0]
    1894:	f244 0180 	movw	r1, #16512	; 0x4080
    1898:	f2c4 0103 	movt	r1, #16387	; 0x4003
    189c:	6808      	ldr	r0, [r1, #0]
    189e:	f362 0003 	bfi	r0, r2, #0, #4
    18a2:	6008      	str	r0, [r1, #0]
    18a4:	f244 0100 	movw	r1, #16384	; 0x4000
    18a8:	f2c4 0103 	movt	r1, #16387	; 0x4003
    18ac:	2002      	movs	r0, #2
    18ae:	6008      	str	r0, [r1, #0]
    18b0:	e7ff      	b.n	18b2 <CLOCK_SetFLASHAccessCyclesForFreq+0x1a0>
    18b2:	f644 70e0 	movw	r0, #20448	; 0x4fe0
    18b6:	f2c4 0003 	movt	r0, #16387	; 0x4003
    18ba:	6800      	ldr	r0, [r0, #0]
    18bc:	0740      	lsls	r0, r0, #29
    18be:	2800      	cmp	r0, #0
    18c0:	d401      	bmi.n	18c6 <CLOCK_SetFLASHAccessCyclesForFreq+0x1b4>
    18c2:	e7ff      	b.n	18c4 <CLOCK_SetFLASHAccessCyclesForFreq+0x1b2>
    18c4:	e7f5      	b.n	18b2 <CLOCK_SetFLASHAccessCyclesForFreq+0x1a0>
    18c6:	9a0e      	ldr	r2, [sp, #56]	; 0x38
    18c8:	9b00      	ldr	r3, [sp, #0]
    18ca:	f240 4100 	movw	r1, #1024	; 0x400
    18ce:	f2c4 0100 	movt	r1, #16384	; 0x4000
    18d2:	6808      	ldr	r0, [r1, #0]
    18d4:	f363 300f 	bfi	r0, r3, #12, #4
    18d8:	6008      	str	r0, [r1, #0]
    18da:	6808      	ldr	r0, [r1, #0]
    18dc:	4310      	orrs	r0, r2
    18de:	6008      	str	r0, [r1, #0]
    18e0:	b00f      	add	sp, #60	; 0x3c
    18e2:	4770      	bx	lr

000018e4 <CLOCK_SetupExtClocking>:
    18e4:	b580      	push	{r7, lr}
    18e6:	466f      	mov	r7, sp
    18e8:	b082      	sub	sp, #8
    18ea:	9001      	str	r0, [sp, #4]
    18ec:	f644 0101 	movw	r1, #18433	; 0x4801
    18f0:	f2c0 11e8 	movt	r1, #488	; 0x1e8
    18f4:	4288      	cmp	r0, r1
    18f6:	d303      	bcc.n	1900 <CLOCK_SetupExtClocking+0x1c>
    18f8:	e7ff      	b.n	18fa <CLOCK_SetupExtClocking+0x16>
    18fa:	2001      	movs	r0, #1
    18fc:	9000      	str	r0, [sp, #0]
    18fe:	e022      	b.n	1946 <CLOCK_SetupExtClocking+0x62>
    1900:	f44f 7080 	mov.w	r0, #256	; 0x100
    1904:	f7ff ff00 	bl	1708 <POWER_DisablePD>
    1908:	f44f 1080 	mov.w	r0, #1048576	; 0x100000
    190c:	f7ff fefc 	bl	1708 <POWER_DisablePD>
    1910:	f640 2118 	movw	r1, #2584	; 0xa18
    1914:	f2c4 0100 	movt	r1, #16384	; 0x4000
    1918:	6808      	ldr	r0, [r1, #0]
    191a:	f040 0020 	orr.w	r0, r0, #32
    191e:	6008      	str	r0, [r1, #0]
    1920:	e7ff      	b.n	1922 <CLOCK_SetupExtClocking+0x3e>
    1922:	f243 0024 	movw	r0, #12324	; 0x3024
    1926:	f2c4 0001 	movt	r0, #16385	; 0x4001
    192a:	6800      	ldr	r0, [r0, #0]
    192c:	07c0      	lsls	r0, r0, #31
    192e:	b908      	cbnz	r0, 1934 <CLOCK_SetupExtClocking+0x50>
    1930:	e7ff      	b.n	1932 <CLOCK_SetupExtClocking+0x4e>
    1932:	e7f6      	b.n	1922 <CLOCK_SetupExtClocking+0x3e>
    1934:	9801      	ldr	r0, [sp, #4]
    1936:	f240 0104 	movw	r1, #4
    193a:	f2c2 0100 	movt	r1, #8192	; 0x2000
    193e:	6008      	str	r0, [r1, #0]
    1940:	2000      	movs	r0, #0
    1942:	9000      	str	r0, [sp, #0]
    1944:	e7ff      	b.n	1946 <CLOCK_SetupExtClocking+0x62>
    1946:	9800      	ldr	r0, [sp, #0]
    1948:	b002      	add	sp, #8
    194a:	bd80      	pop	{r7, pc}

0000194c <CLOCK_GetExtClkFreq>:
    194c:	b081      	sub	sp, #4
    194e:	f243 0020 	movw	r0, #12320	; 0x3020
    1952:	f2c4 0001 	movt	r0, #16385	; 0x4001
    1956:	6800      	ldr	r0, [r0, #0]
    1958:	01c0      	lsls	r0, r0, #7
    195a:	2800      	cmp	r0, #0
    195c:	d507      	bpl.n	196e <CLOCK_GetExtClkFreq+0x22>
    195e:	e7ff      	b.n	1960 <CLOCK_GetExtClkFreq+0x14>
    1960:	f240 0004 	movw	r0, #4
    1964:	f2c2 0000 	movt	r0, #8192	; 0x2000
    1968:	6800      	ldr	r0, [r0, #0]
    196a:	9000      	str	r0, [sp, #0]
    196c:	e002      	b.n	1974 <CLOCK_GetExtClkFreq+0x28>
    196e:	2000      	movs	r0, #0
    1970:	9000      	str	r0, [sp, #0]
    1972:	e7ff      	b.n	1974 <CLOCK_GetExtClkFreq+0x28>
    1974:	9800      	ldr	r0, [sp, #0]
    1976:	b001      	add	sp, #4
    1978:	4770      	bx	lr

0000197a <CLOCK_GetFro1MFreq>:
    197a:	f640 2018 	movw	r0, #2584	; 0xa18
    197e:	f2c4 0000 	movt	r0, #16384	; 0x4000
    1982:	6800      	ldr	r0, [r0, #0]
    1984:	f000 0040 	and.w	r0, r0, #64	; 0x40
    1988:	2800      	cmp	r0, #0
    198a:	bf1c      	itt	ne
    198c:	f244 2040 	movwne	r0, #16960	; 0x4240
    1990:	f2c0 000f 	movtne	r0, #15
    1994:	4770      	bx	lr

00001996 <CLOCK_GetOsc32KFreq>:
    1996:	b082      	sub	sp, #8
    1998:	20b8      	movs	r0, #184	; 0xb8
    199a:	f2c4 0002 	movt	r0, #16386	; 0x4002
    199e:	6800      	ldr	r0, [r0, #0]
    19a0:	0640      	lsls	r0, r0, #25
    19a2:	2800      	cmp	r0, #0
    19a4:	d40b      	bmi.n	19be <CLOCK_GetOsc32KFreq+0x28>
    19a6:	e7ff      	b.n	19a8 <CLOCK_GetOsc32KFreq+0x12>
    19a8:	2098      	movs	r0, #152	; 0x98
    19aa:	f2c4 0002 	movt	r0, #16386	; 0x4002
    19ae:	6800      	ldr	r0, [r0, #0]
    19b0:	07c0      	lsls	r0, r0, #31
    19b2:	b920      	cbnz	r0, 19be <CLOCK_GetOsc32KFreq+0x28>
    19b4:	e7ff      	b.n	19b6 <CLOCK_GetOsc32KFreq+0x20>
    19b6:	f44f 4000 	mov.w	r0, #32768	; 0x8000
    19ba:	9001      	str	r0, [sp, #4]
    19bc:	e01a      	b.n	19f4 <CLOCK_GetOsc32KFreq+0x5e>
    19be:	20b8      	movs	r0, #184	; 0xb8
    19c0:	f2c4 0002 	movt	r0, #16386	; 0x4002
    19c4:	6801      	ldr	r1, [r0, #0]
    19c6:	2000      	movs	r0, #0
    19c8:	0609      	lsls	r1, r1, #24
    19ca:	2900      	cmp	r1, #0
    19cc:	9000      	str	r0, [sp, #0]
    19ce:	d408      	bmi.n	19e2 <CLOCK_GetOsc32KFreq+0x4c>
    19d0:	e7ff      	b.n	19d2 <CLOCK_GetOsc32KFreq+0x3c>
    19d2:	2098      	movs	r0, #152	; 0x98
    19d4:	f2c4 0002 	movt	r0, #16386	; 0x4002
    19d8:	6800      	ldr	r0, [r0, #0]
    19da:	f000 0001 	and.w	r0, r0, #1
    19de:	9000      	str	r0, [sp, #0]
    19e0:	e7ff      	b.n	19e2 <CLOCK_GetOsc32KFreq+0x4c>
    19e2:	9800      	ldr	r0, [sp, #0]
    19e4:	f000 0001 	and.w	r0, r0, #1
    19e8:	2800      	cmp	r0, #0
    19ea:	bf18      	it	ne
    19ec:	f44f 4000 	movne.w	r0, #32768	; 0x8000
    19f0:	9001      	str	r0, [sp, #4]
    19f2:	e7ff      	b.n	19f4 <CLOCK_GetOsc32KFreq+0x5e>
    19f4:	9801      	ldr	r0, [sp, #4]
    19f6:	b002      	add	sp, #8
    19f8:	4770      	bx	lr
	...

000019fc <CLOCK_GetPLL0InClockRate>:
    19fc:	b580      	push	{r7, lr}
    19fe:	466f      	mov	r7, sp
    1a00:	b082      	sub	sp, #8
    1a02:	f240 2090 	movw	r0, #656	; 0x290
    1a06:	f2c4 0000 	movt	r0, #16384	; 0x4000
    1a0a:	6800      	ldr	r0, [r0, #0]
    1a0c:	f000 0007 	and.w	r0, r0, #7
    1a10:	4601      	mov	r1, r0
    1a12:	9101      	str	r1, [sp, #4]
    1a14:	2803      	cmp	r0, #3
    1a16:	d816      	bhi.n	1a46 <CLOCK_GetPLL0InClockRate+0x4a>
    1a18:	9901      	ldr	r1, [sp, #4]
    1a1a:	e8df f001 	tbb	[pc, r1]
    1a1e:	0802      	.short	0x0802
    1a20:	100c      	.short	0x100c
    1a22:	f641 3000 	movw	r0, #6912	; 0x1b00
    1a26:	f2c0 00b7 	movt	r0, #183	; 0xb7
    1a2a:	9000      	str	r0, [sp, #0]
    1a2c:	e00e      	b.n	1a4c <CLOCK_GetPLL0InClockRate+0x50>
    1a2e:	f7ff ff8d 	bl	194c <CLOCK_GetExtClkFreq>
    1a32:	9000      	str	r0, [sp, #0]
    1a34:	e00a      	b.n	1a4c <CLOCK_GetPLL0InClockRate+0x50>
    1a36:	f7ff ffa0 	bl	197a <CLOCK_GetFro1MFreq>
    1a3a:	9000      	str	r0, [sp, #0]
    1a3c:	e006      	b.n	1a4c <CLOCK_GetPLL0InClockRate+0x50>
    1a3e:	f7ff ffaa 	bl	1996 <CLOCK_GetOsc32KFreq>
    1a42:	9000      	str	r0, [sp, #0]
    1a44:	e002      	b.n	1a4c <CLOCK_GetPLL0InClockRate+0x50>
    1a46:	2000      	movs	r0, #0
    1a48:	9000      	str	r0, [sp, #0]
    1a4a:	e7ff      	b.n	1a4c <CLOCK_GetPLL0InClockRate+0x50>
    1a4c:	9800      	ldr	r0, [sp, #0]
    1a4e:	b002      	add	sp, #8
    1a50:	bd80      	pop	{r7, pc}

00001a52 <findPll0PreDiv>:
    1a52:	b082      	sub	sp, #8
    1a54:	f240 5080 	movw	r0, #1408	; 0x580
    1a58:	f2c4 0000 	movt	r0, #16384	; 0x4000
    1a5c:	6801      	ldr	r1, [r0, #0]
    1a5e:	2001      	movs	r0, #1
    1a60:	0309      	lsls	r1, r1, #12
    1a62:	2900      	cmp	r1, #0
    1a64:	9001      	str	r0, [sp, #4]
    1a66:	d410      	bmi.n	1a8a <findPll0PreDiv+0x38>
    1a68:	e7ff      	b.n	1a6a <findPll0PreDiv+0x18>
    1a6a:	f240 5088 	movw	r0, #1416	; 0x588
    1a6e:	f2c4 0000 	movt	r0, #16384	; 0x4000
    1a72:	6800      	ldr	r0, [r0, #0]
    1a74:	b2c1      	uxtb	r1, r0
    1a76:	4608      	mov	r0, r1
    1a78:	9000      	str	r0, [sp, #0]
    1a7a:	b919      	cbnz	r1, 1a84 <findPll0PreDiv+0x32>
    1a7c:	e7ff      	b.n	1a7e <findPll0PreDiv+0x2c>
    1a7e:	2001      	movs	r0, #1
    1a80:	9000      	str	r0, [sp, #0]
    1a82:	e7ff      	b.n	1a84 <findPll0PreDiv+0x32>
    1a84:	9800      	ldr	r0, [sp, #0]
    1a86:	9001      	str	r0, [sp, #4]
    1a88:	e7ff      	b.n	1a8a <findPll0PreDiv+0x38>
    1a8a:	9801      	ldr	r0, [sp, #4]
    1a8c:	b002      	add	sp, #8
    1a8e:	4770      	bx	lr

00001a90 <POWER_EnablePD>:
    1a90:	21c0      	movs	r1, #192	; 0xc0
    1a92:	f2c4 0102 	movt	r1, #16386	; 0x4002
    1a96:	6008      	str	r0, [r1, #0]
    1a98:	4770      	bx	lr

00001a9a <CLOCK_IsPLL0Locked>:
    1a9a:	f240 5084 	movw	r0, #1412	; 0x584
    1a9e:	f2c4 0000 	movt	r0, #16384	; 0x4000
    1aa2:	6800      	ldr	r0, [r0, #0]
    1aa4:	f000 0001 	and.w	r0, r0, #1
    1aa8:	4770      	bx	lr

00001aaa <CLOCK_SetPLL0Freq>:
    1aaa:	b580      	push	{r7, lr}
    1aac:	466f      	mov	r7, sp
    1aae:	b08a      	sub	sp, #40	; 0x28
    1ab0:	9009      	str	r0, [sp, #36]	; 0x24
    1ab2:	f44f 7000 	mov.w	r0, #512	; 0x200
    1ab6:	9007      	str	r0, [sp, #28]
    1ab8:	f7ff ffea 	bl	1a90 <POWER_EnablePD>
    1abc:	f44f 0000 	mov.w	r0, #8388608	; 0x800000
    1ac0:	9008      	str	r0, [sp, #32]
    1ac2:	f7ff ffe5 	bl	1a90 <POWER_EnablePD>
    1ac6:	9807      	ldr	r0, [sp, #28]
    1ac8:	9909      	ldr	r1, [sp, #36]	; 0x24
    1aca:	680a      	ldr	r2, [r1, #0]
    1acc:	f240 5380 	movw	r3, #1408	; 0x580
    1ad0:	f2c4 0300 	movt	r3, #16384	; 0x4000
    1ad4:	601a      	str	r2, [r3, #0]
    1ad6:	684a      	ldr	r2, [r1, #4]
    1ad8:	f240 5388 	movw	r3, #1416	; 0x588
    1adc:	f2c4 0300 	movt	r3, #16384	; 0x4000
    1ae0:	601a      	str	r2, [r3, #0]
    1ae2:	684a      	ldr	r2, [r1, #4]
    1ae4:	f442 7280 	orr.w	r2, r2, #256	; 0x100
    1ae8:	601a      	str	r2, [r3, #0]
    1aea:	688a      	ldr	r2, [r1, #8]
    1aec:	f240 538c 	movw	r3, #1420	; 0x58c
    1af0:	f2c4 0300 	movt	r3, #16384	; 0x4000
    1af4:	601a      	str	r2, [r3, #0]
    1af6:	688a      	ldr	r2, [r1, #8]
    1af8:	f042 0220 	orr.w	r2, r2, #32
    1afc:	601a      	str	r2, [r3, #0]
    1afe:	690a      	ldr	r2, [r1, #16]
    1b00:	f240 5390 	movw	r3, #1424	; 0x590
    1b04:	f2c4 0300 	movt	r3, #16384	; 0x4000
    1b08:	601a      	str	r2, [r3, #0]
    1b0a:	694b      	ldr	r3, [r1, #20]
    1b0c:	f240 5294 	movw	r2, #1428	; 0x594
    1b10:	f2c4 0200 	movt	r2, #16384	; 0x4000
    1b14:	6013      	str	r3, [r2, #0]
    1b16:	6949      	ldr	r1, [r1, #20]
    1b18:	2302      	movs	r3, #2
    1b1a:	f2c0 4300 	movt	r3, #1024	; 0x400
    1b1e:	4319      	orrs	r1, r3
    1b20:	6011      	str	r1, [r2, #0]
    1b22:	f7ff fdf1 	bl	1708 <POWER_DisablePD>
    1b26:	9808      	ldr	r0, [sp, #32]
    1b28:	f7ff fdee 	bl	1708 <POWER_DisablePD>
    1b2c:	9809      	ldr	r0, [sp, #36]	; 0x24
    1b2e:	7f00      	ldrb	r0, [r0, #28]
    1b30:	0780      	lsls	r0, r0, #30
    1b32:	2800      	cmp	r0, #0
    1b34:	d55b      	bpl.n	1bee <CLOCK_SetPLL0Freq+0x144>
    1b36:	e7ff      	b.n	1b38 <CLOCK_SetPLL0Freq+0x8e>
    1b38:	f240 5094 	movw	r0, #1428	; 0x594
    1b3c:	f2c4 0000 	movt	r0, #16384	; 0x4000
    1b40:	6800      	ldr	r0, [r0, #0]
    1b42:	00c0      	lsls	r0, r0, #3
    1b44:	2800      	cmp	r0, #0
    1b46:	d548      	bpl.n	1bda <CLOCK_SetPLL0Freq+0x130>
    1b48:	e7ff      	b.n	1b4a <CLOCK_SetPLL0Freq+0xa0>
    1b4a:	f7ff ff57 	bl	19fc <CLOCK_GetPLL0InClockRate>
    1b4e:	9005      	str	r0, [sp, #20]
    1b50:	f7ff ff7f 	bl	1a52 <findPll0PreDiv>
    1b54:	4601      	mov	r1, r0
    1b56:	9805      	ldr	r0, [sp, #20]
    1b58:	fbb0 f0f1 	udiv	r0, r0, r1
    1b5c:	f248 4100 	movw	r1, #33792	; 0x8400
    1b60:	f2c1 71d7 	movt	r1, #6103	; 0x17d7
    1b64:	fbb1 f1f0 	udiv	r1, r1, r0
    1b68:	f501 71fa 	add.w	r1, r1, #500	; 0x1f4
    1b6c:	9106      	str	r1, [sp, #24]
    1b6e:	f642 41ff 	movw	r1, #11519	; 0x2cff
    1b72:	f2c0 1131 	movt	r1, #305	; 0x131
    1b76:	4288      	cmp	r0, r1
    1b78:	d826      	bhi.n	1bc8 <CLOCK_SetPLL0Freq+0x11e>
    1b7a:	e7ff      	b.n	1b7c <CLOCK_SetPLL0Freq+0xd2>
    1b7c:	2000      	movs	r0, #0
    1b7e:	9004      	str	r0, [sp, #16]
    1b80:	e7ff      	b.n	1b82 <CLOCK_SetPLL0Freq+0xd8>
    1b82:	9804      	ldr	r0, [sp, #16]
    1b84:	9002      	str	r0, [sp, #8]
    1b86:	f7ff ff88 	bl	1a9a <CLOCK_IsPLL0Locked>
    1b8a:	4601      	mov	r1, r0
    1b8c:	2000      	movs	r0, #0
    1b8e:	9003      	str	r0, [sp, #12]
    1b90:	b941      	cbnz	r1, 1ba4 <CLOCK_SetPLL0Freq+0xfa>
    1b92:	e7ff      	b.n	1b94 <CLOCK_SetPLL0Freq+0xea>
    1b94:	9902      	ldr	r1, [sp, #8]
    1b96:	9a06      	ldr	r2, [sp, #24]
    1b98:	2000      	movs	r0, #0
    1b9a:	4291      	cmp	r1, r2
    1b9c:	bf38      	it	cc
    1b9e:	2001      	movcc	r0, #1
    1ba0:	9003      	str	r0, [sp, #12]
    1ba2:	e7ff      	b.n	1ba4 <CLOCK_SetPLL0Freq+0xfa>
    1ba4:	9803      	ldr	r0, [sp, #12]
    1ba6:	07c0      	lsls	r0, r0, #31
    1ba8:	b168      	cbz	r0, 1bc6 <CLOCK_SetPLL0Freq+0x11c>
    1baa:	e7ff      	b.n	1bac <CLOCK_SetPLL0Freq+0x102>
    1bac:	9802      	ldr	r0, [sp, #8]
    1bae:	3064      	adds	r0, #100	; 0x64
    1bb0:	9001      	str	r0, [sp, #4]
    1bb2:	2064      	movs	r0, #100	; 0x64
    1bb4:	f24d 1180 	movw	r1, #53632	; 0xd180
    1bb8:	f6c0 01f0 	movt	r1, #2288	; 0x8f0
    1bbc:	f7ff fc8e 	bl	14dc <SDK_DelayAtLeastUs>
    1bc0:	9801      	ldr	r0, [sp, #4]
    1bc2:	9004      	str	r0, [sp, #16]
    1bc4:	e7dd      	b.n	1b82 <CLOCK_SetPLL0Freq+0xd8>
    1bc6:	e007      	b.n	1bd8 <CLOCK_SetPLL0Freq+0x12e>
    1bc8:	9806      	ldr	r0, [sp, #24]
    1bca:	f24d 1180 	movw	r1, #53632	; 0xd180
    1bce:	f6c0 01f0 	movt	r1, #2288	; 0x8f0
    1bd2:	f7ff fc83 	bl	14dc <SDK_DelayAtLeastUs>
    1bd6:	e7ff      	b.n	1bd8 <CLOCK_SetPLL0Freq+0x12e>
    1bd8:	e008      	b.n	1bec <CLOCK_SetPLL0Freq+0x142>
    1bda:	f241 7070 	movw	r0, #6000	; 0x1770
    1bde:	f24d 1180 	movw	r1, #53632	; 0xd180
    1be2:	f6c0 01f0 	movt	r1, #2288	; 0x8f0
    1be6:	f7ff fc79 	bl	14dc <SDK_DelayAtLeastUs>
    1bea:	e7ff      	b.n	1bec <CLOCK_SetPLL0Freq+0x142>
    1bec:	e7ff      	b.n	1bee <CLOCK_SetPLL0Freq+0x144>
    1bee:	9809      	ldr	r0, [sp, #36]	; 0x24
    1bf0:	6980      	ldr	r0, [r0, #24]
    1bf2:	f240 4158 	movw	r1, #1112	; 0x458
    1bf6:	f2c2 0100 	movt	r1, #8192	; 0x2000
    1bfa:	6008      	str	r0, [r1, #0]
    1bfc:	2000      	movs	r0, #0
    1bfe:	b00a      	add	sp, #40	; 0x28
    1c00:	bd80      	pop	{r7, pc}

00001c02 <POWER_SetVoltageForFreq>:
    1c02:	b580      	push	{r7, lr}
    1c04:	466f      	mov	r7, sp
    1c06:	b084      	sub	sp, #16
    1c08:	9003      	str	r0, [sp, #12]
    1c0a:	f24e 1100 	movw	r1, #57600	; 0xe100
    1c0e:	f2c0 51f5 	movt	r1, #1525	; 0x5f5
    1c12:	4288      	cmp	r0, r1
    1c14:	d808      	bhi.n	1c28 <POWER_SetVoltageForFreq+0x26>
    1c16:	e7ff      	b.n	1c18 <POWER_SetVoltageForFreq+0x16>
    1c18:	2000      	movs	r0, #0
    1c1a:	9002      	str	r0, [sp, #8]
    1c1c:	f000 f81f 	bl	1c5e <lowpower_set_dcdc_power_profile>
    1c20:	9802      	ldr	r0, [sp, #8]
    1c22:	f000 f890 	bl	1d46 <lowpower_set_voltage_for_process>
    1c26:	e018      	b.n	1c5a <POWER_SetVoltageForFreq+0x58>
    1c28:	9803      	ldr	r0, [sp, #12]
    1c2a:	f24a 4180 	movw	r1, #42112	; 0xa480
    1c2e:	f2c0 71bf 	movt	r1, #1983	; 0x7bf
    1c32:	4288      	cmp	r0, r1
    1c34:	d808      	bhi.n	1c48 <POWER_SetVoltageForFreq+0x46>
    1c36:	e7ff      	b.n	1c38 <POWER_SetVoltageForFreq+0x36>
    1c38:	2001      	movs	r0, #1
    1c3a:	9001      	str	r0, [sp, #4]
    1c3c:	f000 f80f 	bl	1c5e <lowpower_set_dcdc_power_profile>
    1c40:	9801      	ldr	r0, [sp, #4]
    1c42:	f000 f880 	bl	1d46 <lowpower_set_voltage_for_process>
    1c46:	e007      	b.n	1c58 <POWER_SetVoltageForFreq+0x56>
    1c48:	2002      	movs	r0, #2
    1c4a:	9000      	str	r0, [sp, #0]
    1c4c:	f000 f807 	bl	1c5e <lowpower_set_dcdc_power_profile>
    1c50:	9800      	ldr	r0, [sp, #0]
    1c52:	f000 f878 	bl	1d46 <lowpower_set_voltage_for_process>
    1c56:	e7ff      	b.n	1c58 <POWER_SetVoltageForFreq+0x56>
    1c58:	e7ff      	b.n	1c5a <POWER_SetVoltageForFreq+0x58>
    1c5a:	b004      	add	sp, #16
    1c5c:	bd80      	pop	{r7, pc}

00001c5e <lowpower_set_dcdc_power_profile>:
    1c5e:	b087      	sub	sp, #28
    1c60:	4601      	mov	r1, r0
    1c62:	9106      	str	r1, [sp, #24]
    1c64:	b140      	cbz	r0, 1c78 <lowpower_set_dcdc_power_profile+0x1a>
    1c66:	e7ff      	b.n	1c68 <lowpower_set_dcdc_power_profile+0xa>
    1c68:	9806      	ldr	r0, [sp, #24]
    1c6a:	2801      	cmp	r0, #1
    1c6c:	d020      	beq.n	1cb0 <lowpower_set_dcdc_power_profile+0x52>
    1c6e:	e7ff      	b.n	1c70 <lowpower_set_dcdc_power_profile+0x12>
    1c70:	9806      	ldr	r0, [sp, #24]
    1c72:	2802      	cmp	r0, #2
    1c74:	d038      	beq.n	1ce8 <lowpower_set_dcdc_power_profile+0x8a>
    1c76:	e053      	b.n	1d20 <lowpower_set_dcdc_power_profile+0xc2>
    1c78:	f64f 40e0 	movw	r0, #64736	; 0xfce0
    1c7c:	f2c0 0009 	movt	r0, #9
    1c80:	6800      	ldr	r0, [r0, #0]
    1c82:	9004      	str	r0, [sp, #16]
    1c84:	f64f 41e4 	movw	r1, #64740	; 0xfce4
    1c88:	f2c0 0109 	movt	r1, #9
    1c8c:	6809      	ldr	r1, [r1, #0]
    1c8e:	9105      	str	r1, [sp, #20]
    1c90:	07c0      	lsls	r0, r0, #31
    1c92:	b160      	cbz	r0, 1cae <lowpower_set_dcdc_power_profile+0x50>
    1c94:	e7ff      	b.n	1c96 <lowpower_set_dcdc_power_profile+0x38>
    1c96:	9805      	ldr	r0, [sp, #20]
    1c98:	9904      	ldr	r1, [sp, #16]
    1c9a:	0849      	lsrs	r1, r1, #1
    1c9c:	2210      	movs	r2, #16
    1c9e:	f2c4 0202 	movt	r2, #16386	; 0x4002
    1ca2:	6011      	str	r1, [r2, #0]
    1ca4:	2114      	movs	r1, #20
    1ca6:	f2c4 0102 	movt	r1, #16386	; 0x4002
    1caa:	6008      	str	r0, [r1, #0]
    1cac:	e7ff      	b.n	1cae <lowpower_set_dcdc_power_profile+0x50>
    1cae:	e048      	b.n	1d42 <lowpower_set_dcdc_power_profile+0xe4>
    1cb0:	f64f 40e8 	movw	r0, #64744	; 0xfce8
    1cb4:	f2c0 0009 	movt	r0, #9
    1cb8:	6800      	ldr	r0, [r0, #0]
    1cba:	9002      	str	r0, [sp, #8]
    1cbc:	f64f 41ec 	movw	r1, #64748	; 0xfcec
    1cc0:	f2c0 0109 	movt	r1, #9
    1cc4:	6809      	ldr	r1, [r1, #0]
    1cc6:	9103      	str	r1, [sp, #12]
    1cc8:	07c0      	lsls	r0, r0, #31
    1cca:	b160      	cbz	r0, 1ce6 <lowpower_set_dcdc_power_profile+0x88>
    1ccc:	e7ff      	b.n	1cce <lowpower_set_dcdc_power_profile+0x70>
    1cce:	9803      	ldr	r0, [sp, #12]
    1cd0:	9902      	ldr	r1, [sp, #8]
    1cd2:	0849      	lsrs	r1, r1, #1
    1cd4:	2210      	movs	r2, #16
    1cd6:	f2c4 0202 	movt	r2, #16386	; 0x4002
    1cda:	6011      	str	r1, [r2, #0]
    1cdc:	2114      	movs	r1, #20
    1cde:	f2c4 0102 	movt	r1, #16386	; 0x4002
    1ce2:	6008      	str	r0, [r1, #0]
    1ce4:	e7ff      	b.n	1ce6 <lowpower_set_dcdc_power_profile+0x88>
    1ce6:	e02c      	b.n	1d42 <lowpower_set_dcdc_power_profile+0xe4>
    1ce8:	f64f 40d8 	movw	r0, #64728	; 0xfcd8
    1cec:	f2c0 0009 	movt	r0, #9
    1cf0:	6800      	ldr	r0, [r0, #0]
    1cf2:	9000      	str	r0, [sp, #0]
    1cf4:	f64f 41dc 	movw	r1, #64732	; 0xfcdc
    1cf8:	f2c0 0109 	movt	r1, #9
    1cfc:	6809      	ldr	r1, [r1, #0]
    1cfe:	9101      	str	r1, [sp, #4]
    1d00:	07c0      	lsls	r0, r0, #31
    1d02:	b160      	cbz	r0, 1d1e <lowpower_set_dcdc_power_profile+0xc0>
    1d04:	e7ff      	b.n	1d06 <lowpower_set_dcdc_power_profile+0xa8>
    1d06:	9801      	ldr	r0, [sp, #4]
    1d08:	9900      	ldr	r1, [sp, #0]
    1d0a:	0849      	lsrs	r1, r1, #1
    1d0c:	2210      	movs	r2, #16
    1d0e:	f2c4 0202 	movt	r2, #16386	; 0x4002
    1d12:	6011      	str	r1, [r2, #0]
    1d14:	2114      	movs	r1, #20
    1d16:	f2c4 0102 	movt	r1, #16386	; 0x4002
    1d1a:	6008      	str	r0, [r1, #0]
    1d1c:	e7ff      	b.n	1d1e <lowpower_set_dcdc_power_profile+0xc0>
    1d1e:	e010      	b.n	1d42 <lowpower_set_dcdc_power_profile+0xe4>
    1d20:	2110      	movs	r1, #16
    1d22:	f2c4 0102 	movt	r1, #16386	; 0x4002
    1d26:	f644 6068 	movw	r0, #20072	; 0x4e68
    1d2a:	f2c0 100c 	movt	r0, #268	; 0x10c
    1d2e:	6008      	str	r0, [r1, #0]
    1d30:	2114      	movs	r1, #20
    1d32:	f2c4 0102 	movt	r1, #16386	; 0x4002
    1d36:	f643 2098 	movw	r0, #15000	; 0x3a98
    1d3a:	f2c0 1080 	movt	r0, #384	; 0x180
    1d3e:	6008      	str	r0, [r1, #0]
    1d40:	e7ff      	b.n	1d42 <lowpower_set_dcdc_power_profile+0xe4>
    1d42:	b007      	add	sp, #28
    1d44:	4770      	bx	lr

00001d46 <lowpower_set_voltage_for_process>:
    1d46:	b580      	push	{r7, lr}
    1d48:	466f      	mov	r7, sp
    1d4a:	b086      	sub	sp, #24
    1d4c:	9004      	str	r0, [sp, #16]
    1d4e:	f000 f85b 	bl	1e08 <lowpower_get_part_process_corner>
    1d52:	4601      	mov	r1, r0
    1d54:	9105      	str	r1, [sp, #20]
    1d56:	b120      	cbz	r0, 1d62 <lowpower_set_voltage_for_process+0x1c>
    1d58:	e7ff      	b.n	1d5a <lowpower_set_voltage_for_process+0x14>
    1d5a:	9805      	ldr	r0, [sp, #20]
    1d5c:	2802      	cmp	r0, #2
    1d5e:	d01b      	beq.n	1d98 <lowpower_set_voltage_for_process+0x52>
    1d60:	e035      	b.n	1dce <lowpower_set_voltage_for_process+0x88>
    1d62:	9804      	ldr	r0, [sp, #16]
    1d64:	b2c0      	uxtb	r0, r0
    1d66:	4601      	mov	r1, r0
    1d68:	9103      	str	r1, [sp, #12]
    1d6a:	2801      	cmp	r0, #1
    1d6c:	d004      	beq.n	1d78 <lowpower_set_voltage_for_process+0x32>
    1d6e:	e7ff      	b.n	1d70 <lowpower_set_voltage_for_process+0x2a>
    1d70:	9803      	ldr	r0, [sp, #12]
    1d72:	2802      	cmp	r0, #2
    1d74:	d005      	beq.n	1d82 <lowpower_set_voltage_for_process+0x3c>
    1d76:	e009      	b.n	1d8c <lowpower_set_voltage_for_process+0x46>
    1d78:	f240 407e 	movw	r0, #1150	; 0x47e
    1d7c:	f000 f89b 	bl	1eb6 <lowpower_set_system_voltage>
    1d80:	e009      	b.n	1d96 <lowpower_set_voltage_for_process+0x50>
    1d82:	f44f 6096 	mov.w	r0, #1200	; 0x4b0
    1d86:	f000 f896 	bl	1eb6 <lowpower_set_system_voltage>
    1d8a:	e004      	b.n	1d96 <lowpower_set_voltage_for_process+0x50>
    1d8c:	f240 4033 	movw	r0, #1075	; 0x433
    1d90:	f000 f891 	bl	1eb6 <lowpower_set_system_voltage>
    1d94:	e7ff      	b.n	1d96 <lowpower_set_voltage_for_process+0x50>
    1d96:	e035      	b.n	1e04 <lowpower_set_voltage_for_process+0xbe>
    1d98:	9804      	ldr	r0, [sp, #16]
    1d9a:	b2c0      	uxtb	r0, r0
    1d9c:	4601      	mov	r1, r0
    1d9e:	9102      	str	r1, [sp, #8]
    1da0:	2801      	cmp	r0, #1
    1da2:	d004      	beq.n	1dae <lowpower_set_voltage_for_process+0x68>
    1da4:	e7ff      	b.n	1da6 <lowpower_set_voltage_for_process+0x60>
    1da6:	9802      	ldr	r0, [sp, #8]
    1da8:	2802      	cmp	r0, #2
    1daa:	d005      	beq.n	1db8 <lowpower_set_voltage_for_process+0x72>
    1dac:	e009      	b.n	1dc2 <lowpower_set_voltage_for_process+0x7c>
    1dae:	f240 4001 	movw	r0, #1025	; 0x401
    1db2:	f000 f880 	bl	1eb6 <lowpower_set_system_voltage>
    1db6:	e009      	b.n	1dcc <lowpower_set_voltage_for_process+0x86>
    1db8:	f240 401a 	movw	r0, #1050	; 0x41a
    1dbc:	f000 f87b 	bl	1eb6 <lowpower_set_system_voltage>
    1dc0:	e004      	b.n	1dcc <lowpower_set_voltage_for_process+0x86>
    1dc2:	f44f 707a 	mov.w	r0, #1000	; 0x3e8
    1dc6:	f000 f876 	bl	1eb6 <lowpower_set_system_voltage>
    1dca:	e7ff      	b.n	1dcc <lowpower_set_voltage_for_process+0x86>
    1dcc:	e01a      	b.n	1e04 <lowpower_set_voltage_for_process+0xbe>
    1dce:	9804      	ldr	r0, [sp, #16]
    1dd0:	b2c0      	uxtb	r0, r0
    1dd2:	4601      	mov	r1, r0
    1dd4:	9101      	str	r1, [sp, #4]
    1dd6:	2801      	cmp	r0, #1
    1dd8:	d004      	beq.n	1de4 <lowpower_set_voltage_for_process+0x9e>
    1dda:	e7ff      	b.n	1ddc <lowpower_set_voltage_for_process+0x96>
    1ddc:	9801      	ldr	r0, [sp, #4]
    1dde:	2802      	cmp	r0, #2
    1de0:	d005      	beq.n	1dee <lowpower_set_voltage_for_process+0xa8>
    1de2:	e009      	b.n	1df8 <lowpower_set_voltage_for_process+0xb2>
    1de4:	f240 404c 	movw	r0, #1100	; 0x44c
    1de8:	f000 f865 	bl	1eb6 <lowpower_set_system_voltage>
    1dec:	e009      	b.n	1e02 <lowpower_set_voltage_for_process+0xbc>
    1dee:	f240 407e 	movw	r0, #1150	; 0x47e
    1df2:	f000 f860 	bl	1eb6 <lowpower_set_system_voltage>
    1df6:	e004      	b.n	1e02 <lowpower_set_voltage_for_process+0xbc>
    1df8:	f44f 707a 	mov.w	r0, #1000	; 0x3e8
    1dfc:	f000 f85b 	bl	1eb6 <lowpower_set_system_voltage>
    1e00:	e7ff      	b.n	1e02 <lowpower_set_voltage_for_process+0xbc>
    1e02:	e7ff      	b.n	1e04 <lowpower_set_voltage_for_process+0xbe>
    1e04:	b006      	add	sp, #24
    1e06:	bd80      	pop	{r7, pc}

00001e08 <lowpower_get_part_process_corner>:
    1e08:	b08a      	sub	sp, #40	; 0x28
    1e0a:	f64f 5030 	movw	r0, #64816	; 0xfd30
    1e0e:	f2c0 0009 	movt	r0, #9
    1e12:	6800      	ldr	r0, [r0, #0]
    1e14:	9008      	str	r0, [sp, #32]
    1e16:	f64f 5140 	movw	r1, #64832	; 0xfd40
    1e1a:	f2c0 0109 	movt	r1, #9
    1e1e:	6809      	ldr	r1, [r1, #0]
    1e20:	9109      	str	r1, [sp, #36]	; 0x24
    1e22:	07c0      	lsls	r0, r0, #31
    1e24:	b120      	cbz	r0, 1e30 <lowpower_get_part_process_corner+0x28>
    1e26:	e7ff      	b.n	1e28 <lowpower_get_part_process_corner+0x20>
    1e28:	9808      	ldr	r0, [sp, #32]
    1e2a:	0840      	lsrs	r0, r0, #1
    1e2c:	9007      	str	r0, [sp, #28]
    1e2e:	e005      	b.n	1e3c <lowpower_get_part_process_corner+0x34>
    1e30:	f647 60a0 	movw	r0, #32416	; 0x7ea0
    1e34:	f2c0 1026 	movt	r0, #294	; 0x126
    1e38:	9007      	str	r0, [sp, #28]
    1e3a:	e7ff      	b.n	1e3c <lowpower_get_part_process_corner+0x34>
    1e3c:	9809      	ldr	r0, [sp, #36]	; 0x24
    1e3e:	9907      	ldr	r1, [sp, #28]
    1e40:	9106      	str	r1, [sp, #24]
    1e42:	07c0      	lsls	r0, r0, #31
    1e44:	b120      	cbz	r0, 1e50 <lowpower_get_part_process_corner+0x48>
    1e46:	e7ff      	b.n	1e48 <lowpower_get_part_process_corner+0x40>
    1e48:	9809      	ldr	r0, [sp, #36]	; 0x24
    1e4a:	0840      	lsrs	r0, r0, #1
    1e4c:	9005      	str	r0, [sp, #20]
    1e4e:	e005      	b.n	1e5c <lowpower_get_part_process_corner+0x54>
    1e50:	f647 60a0 	movw	r0, #32416	; 0x7ea0
    1e54:	f2c0 1026 	movt	r0, #294	; 0x126
    1e58:	9005      	str	r0, [sp, #20]
    1e5a:	e7ff      	b.n	1e5c <lowpower_get_part_process_corner+0x54>
    1e5c:	9906      	ldr	r1, [sp, #24]
    1e5e:	9805      	ldr	r0, [sp, #20]
    1e60:	9004      	str	r0, [sp, #16]
    1e62:	4288      	cmp	r0, r1
    1e64:	d803      	bhi.n	1e6e <lowpower_get_part_process_corner+0x66>
    1e66:	e7ff      	b.n	1e68 <lowpower_get_part_process_corner+0x60>
    1e68:	9804      	ldr	r0, [sp, #16]
    1e6a:	9003      	str	r0, [sp, #12]
    1e6c:	e002      	b.n	1e74 <lowpower_get_part_process_corner+0x6c>
    1e6e:	9806      	ldr	r0, [sp, #24]
    1e70:	9003      	str	r0, [sp, #12]
    1e72:	e7ff      	b.n	1e74 <lowpower_get_part_process_corner+0x6c>
    1e74:	9803      	ldr	r0, [sp, #12]
    1e76:	9002      	str	r0, [sp, #8]
    1e78:	f64d 71a0 	movw	r1, #57248	; 0xdfa0
    1e7c:	f2c0 1101 	movt	r1, #257	; 0x101
    1e80:	4288      	cmp	r0, r1
    1e82:	d803      	bhi.n	1e8c <lowpower_get_part_process_corner+0x84>
    1e84:	e7ff      	b.n	1e86 <lowpower_get_part_process_corner+0x7e>
    1e86:	2000      	movs	r0, #0
    1e88:	9001      	str	r0, [sp, #4]
    1e8a:	e010      	b.n	1eae <lowpower_get_part_process_corner+0xa6>
    1e8c:	9802      	ldr	r0, [sp, #8]
    1e8e:	f641 51a0 	movw	r1, #7584	; 0x1da0
    1e92:	f2c0 114b 	movt	r1, #331	; 0x14b
    1e96:	4288      	cmp	r0, r1
    1e98:	d803      	bhi.n	1ea2 <lowpower_get_part_process_corner+0x9a>
    1e9a:	e7ff      	b.n	1e9c <lowpower_get_part_process_corner+0x94>
    1e9c:	2001      	movs	r0, #1
    1e9e:	9000      	str	r0, [sp, #0]
    1ea0:	e002      	b.n	1ea8 <lowpower_get_part_process_corner+0xa0>
    1ea2:	2002      	movs	r0, #2
    1ea4:	9000      	str	r0, [sp, #0]
    1ea6:	e7ff      	b.n	1ea8 <lowpower_get_part_process_corner+0xa0>
    1ea8:	9800      	ldr	r0, [sp, #0]
    1eaa:	9001      	str	r0, [sp, #4]
    1eac:	e7ff      	b.n	1eae <lowpower_get_part_process_corner+0xa6>
    1eae:	9801      	ldr	r0, [sp, #4]
    1eb0:	b2c0      	uxtb	r0, r0
    1eb2:	b00a      	add	sp, #40	; 0x28
    1eb4:	4770      	bx	lr

00001eb6 <lowpower_set_system_voltage>:
    1eb6:	b580      	push	{r7, lr}
    1eb8:	466f      	mov	r7, sp
    1eba:	b09b      	sub	sp, #108	; 0x6c
    1ebc:	901a      	str	r0, [sp, #104]	; 0x68
    1ebe:	f240 31b6 	movw	r1, #950	; 0x3b6
    1ec2:	4288      	cmp	r0, r1
    1ec4:	d807      	bhi.n	1ed6 <lowpower_set_system_voltage+0x20>
    1ec6:	e7ff      	b.n	1ec8 <lowpower_set_system_voltage+0x12>
    1ec8:	2000      	movs	r0, #0
    1eca:	210a      	movs	r1, #10
    1ecc:	220f      	movs	r2, #15
    1ece:	9217      	str	r2, [sp, #92]	; 0x5c
    1ed0:	9118      	str	r1, [sp, #96]	; 0x60
    1ed2:	9019      	str	r0, [sp, #100]	; 0x64
    1ed4:	e0a7      	b.n	2026 <lowpower_set_system_voltage+0x170>
    1ed6:	981a      	ldr	r0, [sp, #104]	; 0x68
    1ed8:	0900      	lsrs	r0, r0, #4
    1eda:	283c      	cmp	r0, #60	; 0x3c
    1edc:	d807      	bhi.n	1eee <lowpower_set_system_voltage+0x38>
    1ede:	e7ff      	b.n	1ee0 <lowpower_set_system_voltage+0x2a>
    1ee0:	2001      	movs	r0, #1
    1ee2:	210c      	movs	r1, #12
    1ee4:	2211      	movs	r2, #17
    1ee6:	9214      	str	r2, [sp, #80]	; 0x50
    1ee8:	9115      	str	r1, [sp, #84]	; 0x54
    1eea:	9016      	str	r0, [sp, #88]	; 0x58
    1eec:	e094      	b.n	2018 <lowpower_set_system_voltage+0x162>
    1eee:	981a      	ldr	r0, [sp, #104]	; 0x68
    1ef0:	f5b0 7f7a 	cmp.w	r0, #1000	; 0x3e8
    1ef4:	d807      	bhi.n	1f06 <lowpower_set_system_voltage+0x50>
    1ef6:	e7ff      	b.n	1ef8 <lowpower_set_system_voltage+0x42>
    1ef8:	2002      	movs	r0, #2
    1efa:	210e      	movs	r1, #14
    1efc:	2213      	movs	r2, #19
    1efe:	9211      	str	r2, [sp, #68]	; 0x44
    1f00:	9112      	str	r1, [sp, #72]	; 0x48
    1f02:	9013      	str	r0, [sp, #76]	; 0x4c
    1f04:	e081      	b.n	200a <lowpower_set_system_voltage+0x154>
    1f06:	981a      	ldr	r0, [sp, #104]	; 0x68
    1f08:	f240 4101 	movw	r1, #1025	; 0x401
    1f0c:	4288      	cmp	r0, r1
    1f0e:	d807      	bhi.n	1f20 <lowpower_set_system_voltage+0x6a>
    1f10:	e7ff      	b.n	1f12 <lowpower_set_system_voltage+0x5c>
    1f12:	2003      	movs	r0, #3
    1f14:	2111      	movs	r1, #17
    1f16:	2216      	movs	r2, #22
    1f18:	920e      	str	r2, [sp, #56]	; 0x38
    1f1a:	910f      	str	r1, [sp, #60]	; 0x3c
    1f1c:	9010      	str	r0, [sp, #64]	; 0x40
    1f1e:	e06d      	b.n	1ffc <lowpower_set_system_voltage+0x146>
    1f20:	981a      	ldr	r0, [sp, #104]	; 0x68
    1f22:	f240 411a 	movw	r1, #1050	; 0x41a
    1f26:	4288      	cmp	r0, r1
    1f28:	d807      	bhi.n	1f3a <lowpower_set_system_voltage+0x84>
    1f2a:	e7ff      	b.n	1f2c <lowpower_set_system_voltage+0x76>
    1f2c:	2004      	movs	r0, #4
    1f2e:	2114      	movs	r1, #20
    1f30:	2219      	movs	r2, #25
    1f32:	920b      	str	r2, [sp, #44]	; 0x2c
    1f34:	910c      	str	r1, [sp, #48]	; 0x30
    1f36:	900d      	str	r0, [sp, #52]	; 0x34
    1f38:	e059      	b.n	1fee <lowpower_set_system_voltage+0x138>
    1f3a:	981a      	ldr	r0, [sp, #104]	; 0x68
    1f3c:	f240 4133 	movw	r1, #1075	; 0x433
    1f40:	4288      	cmp	r0, r1
    1f42:	d807      	bhi.n	1f54 <lowpower_set_system_voltage+0x9e>
    1f44:	e7ff      	b.n	1f46 <lowpower_set_system_voltage+0x90>
    1f46:	2005      	movs	r0, #5
    1f48:	2116      	movs	r1, #22
    1f4a:	221b      	movs	r2, #27
    1f4c:	9208      	str	r2, [sp, #32]
    1f4e:	9109      	str	r1, [sp, #36]	; 0x24
    1f50:	900a      	str	r0, [sp, #40]	; 0x28
    1f52:	e045      	b.n	1fe0 <lowpower_set_system_voltage+0x12a>
    1f54:	981a      	ldr	r0, [sp, #104]	; 0x68
    1f56:	f240 414c 	movw	r1, #1100	; 0x44c
    1f5a:	4288      	cmp	r0, r1
    1f5c:	d807      	bhi.n	1f6e <lowpower_set_system_voltage+0xb8>
    1f5e:	e7ff      	b.n	1f60 <lowpower_set_system_voltage+0xaa>
    1f60:	2006      	movs	r0, #6
    1f62:	2118      	movs	r1, #24
    1f64:	221d      	movs	r2, #29
    1f66:	9205      	str	r2, [sp, #20]
    1f68:	9106      	str	r1, [sp, #24]
    1f6a:	9007      	str	r0, [sp, #28]
    1f6c:	e031      	b.n	1fd2 <lowpower_set_system_voltage+0x11c>
    1f6e:	981a      	ldr	r0, [sp, #104]	; 0x68
    1f70:	f240 4165 	movw	r1, #1125	; 0x465
    1f74:	4288      	cmp	r0, r1
    1f76:	d807      	bhi.n	1f88 <lowpower_set_system_voltage+0xd2>
    1f78:	e7ff      	b.n	1f7a <lowpower_set_system_voltage+0xc4>
    1f7a:	2007      	movs	r0, #7
    1f7c:	211b      	movs	r1, #27
    1f7e:	221e      	movs	r2, #30
    1f80:	9202      	str	r2, [sp, #8]
    1f82:	9103      	str	r1, [sp, #12]
    1f84:	9004      	str	r0, [sp, #16]
    1f86:	e01d      	b.n	1fc4 <lowpower_set_system_voltage+0x10e>
    1f88:	981a      	ldr	r0, [sp, #104]	; 0x68
    1f8a:	f240 417e 	movw	r1, #1150	; 0x47e
    1f8e:	4288      	cmp	r0, r1
    1f90:	d803      	bhi.n	1f9a <lowpower_set_system_voltage+0xe4>
    1f92:	e7ff      	b.n	1f94 <lowpower_set_system_voltage+0xde>
    1f94:	2008      	movs	r0, #8
    1f96:	9001      	str	r0, [sp, #4]
    1f98:	e00d      	b.n	1fb6 <lowpower_set_system_voltage+0x100>
    1f9a:	981a      	ldr	r0, [sp, #104]	; 0x68
    1f9c:	08c0      	lsrs	r0, r0, #3
    1f9e:	2892      	cmp	r0, #146	; 0x92
    1fa0:	d803      	bhi.n	1faa <lowpower_set_system_voltage+0xf4>
    1fa2:	e7ff      	b.n	1fa4 <lowpower_set_system_voltage+0xee>
    1fa4:	2009      	movs	r0, #9
    1fa6:	9000      	str	r0, [sp, #0]
    1fa8:	e002      	b.n	1fb0 <lowpower_set_system_voltage+0xfa>
    1faa:	200a      	movs	r0, #10
    1fac:	9000      	str	r0, [sp, #0]
    1fae:	e7ff      	b.n	1fb0 <lowpower_set_system_voltage+0xfa>
    1fb0:	9800      	ldr	r0, [sp, #0]
    1fb2:	9001      	str	r0, [sp, #4]
    1fb4:	e7ff      	b.n	1fb6 <lowpower_set_system_voltage+0x100>
    1fb6:	9801      	ldr	r0, [sp, #4]
    1fb8:	211e      	movs	r1, #30
    1fba:	221f      	movs	r2, #31
    1fbc:	9202      	str	r2, [sp, #8]
    1fbe:	9103      	str	r1, [sp, #12]
    1fc0:	9004      	str	r0, [sp, #16]
    1fc2:	e7ff      	b.n	1fc4 <lowpower_set_system_voltage+0x10e>
    1fc4:	9a02      	ldr	r2, [sp, #8]
    1fc6:	9903      	ldr	r1, [sp, #12]
    1fc8:	9804      	ldr	r0, [sp, #16]
    1fca:	9205      	str	r2, [sp, #20]
    1fcc:	9106      	str	r1, [sp, #24]
    1fce:	9007      	str	r0, [sp, #28]
    1fd0:	e7ff      	b.n	1fd2 <lowpower_set_system_voltage+0x11c>
    1fd2:	9a05      	ldr	r2, [sp, #20]
    1fd4:	9906      	ldr	r1, [sp, #24]
    1fd6:	9807      	ldr	r0, [sp, #28]
    1fd8:	9208      	str	r2, [sp, #32]
    1fda:	9109      	str	r1, [sp, #36]	; 0x24
    1fdc:	900a      	str	r0, [sp, #40]	; 0x28
    1fde:	e7ff      	b.n	1fe0 <lowpower_set_system_voltage+0x12a>
    1fe0:	9a08      	ldr	r2, [sp, #32]
    1fe2:	9909      	ldr	r1, [sp, #36]	; 0x24
    1fe4:	980a      	ldr	r0, [sp, #40]	; 0x28
    1fe6:	920b      	str	r2, [sp, #44]	; 0x2c
    1fe8:	910c      	str	r1, [sp, #48]	; 0x30
    1fea:	900d      	str	r0, [sp, #52]	; 0x34
    1fec:	e7ff      	b.n	1fee <lowpower_set_system_voltage+0x138>
    1fee:	9a0b      	ldr	r2, [sp, #44]	; 0x2c
    1ff0:	990c      	ldr	r1, [sp, #48]	; 0x30
    1ff2:	980d      	ldr	r0, [sp, #52]	; 0x34
    1ff4:	920e      	str	r2, [sp, #56]	; 0x38
    1ff6:	910f      	str	r1, [sp, #60]	; 0x3c
    1ff8:	9010      	str	r0, [sp, #64]	; 0x40
    1ffa:	e7ff      	b.n	1ffc <lowpower_set_system_voltage+0x146>
    1ffc:	9a0e      	ldr	r2, [sp, #56]	; 0x38
    1ffe:	990f      	ldr	r1, [sp, #60]	; 0x3c
    2000:	9810      	ldr	r0, [sp, #64]	; 0x40
    2002:	9211      	str	r2, [sp, #68]	; 0x44
    2004:	9112      	str	r1, [sp, #72]	; 0x48
    2006:	9013      	str	r0, [sp, #76]	; 0x4c
    2008:	e7ff      	b.n	200a <lowpower_set_system_voltage+0x154>
    200a:	9a11      	ldr	r2, [sp, #68]	; 0x44
    200c:	9912      	ldr	r1, [sp, #72]	; 0x48
    200e:	9813      	ldr	r0, [sp, #76]	; 0x4c
    2010:	9214      	str	r2, [sp, #80]	; 0x50
    2012:	9115      	str	r1, [sp, #84]	; 0x54
    2014:	9016      	str	r0, [sp, #88]	; 0x58
    2016:	e7ff      	b.n	2018 <lowpower_set_system_voltage+0x162>
    2018:	9a14      	ldr	r2, [sp, #80]	; 0x50
    201a:	9915      	ldr	r1, [sp, #84]	; 0x54
    201c:	9816      	ldr	r0, [sp, #88]	; 0x58
    201e:	9217      	str	r2, [sp, #92]	; 0x5c
    2020:	9118      	str	r1, [sp, #96]	; 0x60
    2022:	9019      	str	r0, [sp, #100]	; 0x64
    2024:	e7ff      	b.n	2026 <lowpower_set_system_voltage+0x170>
    2026:	9b17      	ldr	r3, [sp, #92]	; 0x5c
    2028:	f8dd c060 	ldr.w	ip, [sp, #96]	; 0x60
    202c:	9a19      	ldr	r2, [sp, #100]	; 0x64
    202e:	211c      	movs	r1, #28
    2030:	f2c4 0102 	movt	r1, #16386	; 0x4002
    2034:	6808      	ldr	r0, [r1, #0]
    2036:	f647 4e1f 	movw	lr, #31775	; 0x7c1f
    203a:	ea20 000e 	bic.w	r0, r0, lr
    203e:	f00c 0c1f 	and.w	ip, ip, #31
    2042:	4460      	add	r0, ip
    2044:	f003 031f 	and.w	r3, r3, #31
    2048:	ea40 2083 	orr.w	r0, r0, r3, lsl #10
    204c:	6008      	str	r0, [r1, #0]
    204e:	2110      	movs	r1, #16
    2050:	f2c4 0102 	movt	r1, #16386	; 0x4002
    2054:	6808      	ldr	r0, [r1, #0]
    2056:	f362 4054 	bfi	r0, r2, #17, #4
    205a:	6008      	str	r0, [r1, #0]
    205c:	b01b      	add	sp, #108	; 0x6c
    205e:	bd80      	pop	{r7, pc}

00002060 <RESET_SetPeripheralReset>:
    2060:	b580      	push	{r7, lr}
    2062:	466f      	mov	r7, sp
    2064:	b082      	sub	sp, #8
    2066:	0c01      	lsrs	r1, r0, #16
    2068:	9100      	str	r1, [sp, #0]
    206a:	b280      	uxth	r0, r0
    206c:	2101      	movs	r1, #1
    206e:	4081      	lsls	r1, r0
    2070:	9101      	str	r1, [sp, #4]
    2072:	281f      	cmp	r0, #31
    2074:	d801      	bhi.n	207a <RESET_SetPeripheralReset+0x1a>
    2076:	e7ff      	b.n	2078 <RESET_SetPeripheralReset+0x18>
    2078:	e00e      	b.n	2098 <RESET_SetPeripheralReset+0x38>
    207a:	f648 000c 	movw	r0, #34828	; 0x880c
    207e:	f2c0 0000 	movt	r0, #0
    2082:	f648 0220 	movw	r2, #34848	; 0x8820
    2086:	f2c0 0200 	movt	r2, #0
    208a:	f648 0339 	movw	r3, #34873	; 0x8839
    208e:	f2c0 0300 	movt	r3, #0
    2092:	2130      	movs	r1, #48	; 0x30
    2094:	f002 ff55 	bl	4f42 <__assert_func>
    2098:	9801      	ldr	r0, [sp, #4]
    209a:	9a00      	ldr	r2, [sp, #0]
    209c:	f240 1120 	movw	r1, #288	; 0x120
    20a0:	f2c4 0100 	movt	r1, #16384	; 0x4000
    20a4:	f841 0022 	str.w	r0, [r1, r2, lsl #2]
    20a8:	e7ff      	b.n	20aa <RESET_SetPeripheralReset+0x4a>
    20aa:	9901      	ldr	r1, [sp, #4]
    20ac:	9a00      	ldr	r2, [sp, #0]
    20ae:	f240 1000 	movw	r0, #256	; 0x100
    20b2:	f2c4 0000 	movt	r0, #16384	; 0x4000
    20b6:	f850 0022 	ldr.w	r0, [r0, r2, lsl #2]
    20ba:	4208      	tst	r0, r1
    20bc:	d101      	bne.n	20c2 <RESET_SetPeripheralReset+0x62>
    20be:	e7ff      	b.n	20c0 <RESET_SetPeripheralReset+0x60>
    20c0:	e7f3      	b.n	20aa <RESET_SetPeripheralReset+0x4a>
    20c2:	b002      	add	sp, #8
    20c4:	bd80      	pop	{r7, pc}

000020c6 <RESET_ClearPeripheralReset>:
    20c6:	b580      	push	{r7, lr}
    20c8:	466f      	mov	r7, sp
    20ca:	b082      	sub	sp, #8
    20cc:	0c01      	lsrs	r1, r0, #16
    20ce:	9100      	str	r1, [sp, #0]
    20d0:	b280      	uxth	r0, r0
    20d2:	2101      	movs	r1, #1
    20d4:	4081      	lsls	r1, r0
    20d6:	9101      	str	r1, [sp, #4]
    20d8:	281f      	cmp	r0, #31
    20da:	d801      	bhi.n	20e0 <RESET_ClearPeripheralReset+0x1a>
    20dc:	e7ff      	b.n	20de <RESET_ClearPeripheralReset+0x18>
    20de:	e00e      	b.n	20fe <RESET_ClearPeripheralReset+0x38>
    20e0:	f648 000c 	movw	r0, #34828	; 0x880c
    20e4:	f2c0 0000 	movt	r0, #0
    20e8:	f648 0246 	movw	r2, #34886	; 0x8846
    20ec:	f2c0 0200 	movt	r2, #0
    20f0:	f648 0339 	movw	r3, #34873	; 0x8839
    20f4:	f2c0 0300 	movt	r3, #0
    20f8:	2149      	movs	r1, #73	; 0x49
    20fa:	f002 ff22 	bl	4f42 <__assert_func>
    20fe:	9801      	ldr	r0, [sp, #4]
    2100:	9a00      	ldr	r2, [sp, #0]
    2102:	f240 1140 	movw	r1, #320	; 0x140
    2106:	f2c4 0100 	movt	r1, #16384	; 0x4000
    210a:	f841 0022 	str.w	r0, [r1, r2, lsl #2]
    210e:	e7ff      	b.n	2110 <RESET_ClearPeripheralReset+0x4a>
    2110:	9801      	ldr	r0, [sp, #4]
    2112:	9a00      	ldr	r2, [sp, #0]
    2114:	f240 1100 	movw	r1, #256	; 0x100
    2118:	f2c4 0100 	movt	r1, #16384	; 0x4000
    211c:	f851 1022 	ldr.w	r1, [r1, r2, lsl #2]
    2120:	4001      	ands	r1, r0
    2122:	4288      	cmp	r0, r1
    2124:	d101      	bne.n	212a <RESET_ClearPeripheralReset+0x64>
    2126:	e7ff      	b.n	2128 <RESET_ClearPeripheralReset+0x62>
    2128:	e7f2      	b.n	2110 <RESET_ClearPeripheralReset+0x4a>
    212a:	b002      	add	sp, #8
    212c:	bd80      	pop	{r7, pc}

0000212e <RESET_PeripheralReset>:
    212e:	b580      	push	{r7, lr}
    2130:	466f      	mov	r7, sp
    2132:	b082      	sub	sp, #8
    2134:	9001      	str	r0, [sp, #4]
    2136:	f7ff ff93 	bl	2060 <RESET_SetPeripheralReset>
    213a:	9801      	ldr	r0, [sp, #4]
    213c:	f7ff ffc3 	bl	20c6 <RESET_ClearPeripheralReset>
    2140:	b002      	add	sp, #8
    2142:	bd80      	pop	{r7, pc}

00002144 <GPIO_EnablePortClock>:
    2144:	b580      	push	{r7, lr}
    2146:	466f      	mov	r7, sp
    2148:	b082      	sub	sp, #8
    214a:	9101      	str	r1, [sp, #4]
    214c:	2903      	cmp	r1, #3
    214e:	d801      	bhi.n	2154 <GPIO_EnablePortClock+0x10>
    2150:	e7ff      	b.n	2152 <GPIO_EnablePortClock+0xe>
    2152:	e00e      	b.n	2172 <GPIO_EnablePortClock+0x2e>
    2154:	f648 0061 	movw	r0, #34913	; 0x8861
    2158:	f2c0 0000 	movt	r0, #0
    215c:	f648 0274 	movw	r2, #34932	; 0x8874
    2160:	f2c0 0200 	movt	r2, #0
    2164:	f648 0389 	movw	r3, #34953	; 0x8889
    2168:	f2c0 0300 	movt	r3, #0
    216c:	212d      	movs	r1, #45	; 0x2d
    216e:	f002 fee8 	bl	4f42 <__assert_func>
    2172:	9901      	ldr	r1, [sp, #4]
    2174:	f648 00ac 	movw	r0, #34988	; 0x88ac
    2178:	f2c0 0000 	movt	r0, #0
    217c:	f830 0011 	ldrh.w	r0, [r0, r1, lsl #1]
    2180:	f000 f847 	bl	2212 <CLOCK_EnableClock>
    2184:	b002      	add	sp, #8
    2186:	bd80      	pop	{r7, pc}

00002188 <GPIO_PinInit>:
    2188:	b580      	push	{r7, lr}
    218a:	466f      	mov	r7, sp
    218c:	b084      	sub	sp, #16
    218e:	9303      	str	r3, [sp, #12]
    2190:	9200      	str	r2, [sp, #0]
    2192:	9101      	str	r1, [sp, #4]
    2194:	9002      	str	r0, [sp, #8]
    2196:	f7ff ffd5 	bl	2144 <GPIO_EnablePortClock>
    219a:	9b03      	ldr	r3, [sp, #12]
    219c:	7818      	ldrb	r0, [r3, #0]
    219e:	b970      	cbnz	r0, 21be <GPIO_PinInit+0x36>
    21a0:	e7ff      	b.n	21a2 <GPIO_PinInit+0x1a>
    21a2:	9802      	ldr	r0, [sp, #8]
    21a4:	9901      	ldr	r1, [sp, #4]
    21a6:	9b00      	ldr	r3, [sp, #0]
    21a8:	2201      	movs	r2, #1
    21aa:	fa02 f303 	lsl.w	r3, r2, r3
    21ae:	eb00 0181 	add.w	r1, r0, r1, lsl #2
    21b2:	f44f 5200 	mov.w	r2, #8192	; 0x2000
    21b6:	5888      	ldr	r0, [r1, r2]
    21b8:	4398      	bics	r0, r3
    21ba:	5088      	str	r0, [r1, r2]
    21bc:	e027      	b.n	220e <GPIO_PinInit+0x86>
    21be:	9803      	ldr	r0, [sp, #12]
    21c0:	7840      	ldrb	r0, [r0, #1]
    21c2:	b958      	cbnz	r0, 21dc <GPIO_PinInit+0x54>
    21c4:	e7ff      	b.n	21c6 <GPIO_PinInit+0x3e>
    21c6:	9902      	ldr	r1, [sp, #8]
    21c8:	9a01      	ldr	r2, [sp, #4]
    21ca:	9b00      	ldr	r3, [sp, #0]
    21cc:	2001      	movs	r0, #1
    21ce:	4098      	lsls	r0, r3
    21d0:	eb01 0182 	add.w	r1, r1, r2, lsl #2
    21d4:	f44f 520a 	mov.w	r2, #8832	; 0x2280
    21d8:	5088      	str	r0, [r1, r2]
    21da:	e00a      	b.n	21f2 <GPIO_PinInit+0x6a>
    21dc:	9902      	ldr	r1, [sp, #8]
    21de:	9a01      	ldr	r2, [sp, #4]
    21e0:	9b00      	ldr	r3, [sp, #0]
    21e2:	2001      	movs	r0, #1
    21e4:	4098      	lsls	r0, r3
    21e6:	eb01 0182 	add.w	r1, r1, r2, lsl #2
    21ea:	f44f 5208 	mov.w	r2, #8704	; 0x2200
    21ee:	5088      	str	r0, [r1, r2]
    21f0:	e7ff      	b.n	21f2 <GPIO_PinInit+0x6a>
    21f2:	9802      	ldr	r0, [sp, #8]
    21f4:	9901      	ldr	r1, [sp, #4]
    21f6:	9b00      	ldr	r3, [sp, #0]
    21f8:	2201      	movs	r2, #1
    21fa:	fa02 f303 	lsl.w	r3, r2, r3
    21fe:	eb00 0181 	add.w	r1, r0, r1, lsl #2
    2202:	f44f 5200 	mov.w	r2, #8192	; 0x2000
    2206:	5888      	ldr	r0, [r1, r2]
    2208:	4318      	orrs	r0, r3
    220a:	5088      	str	r0, [r1, r2]
    220c:	e7ff      	b.n	220e <GPIO_PinInit+0x86>
    220e:	b004      	add	sp, #16
    2210:	bd80      	pop	{r7, pc}

00002212 <CLOCK_EnableClock>:
    2212:	0a02      	lsrs	r2, r0, #8
    2214:	b2c1      	uxtb	r1, r0
    2216:	2001      	movs	r0, #1
    2218:	4088      	lsls	r0, r1
    221a:	f240 2120 	movw	r1, #544	; 0x220
    221e:	f2c4 0100 	movt	r1, #16384	; 0x4000
    2222:	f841 0022 	str.w	r0, [r1, r2, lsl #2]
    2226:	4770      	bx	lr

00002228 <FLEXCOMM_GetInstance>:
    2228:	b580      	push	{r7, lr}
    222a:	466f      	mov	r7, sp
    222c:	b084      	sub	sp, #16
    222e:	9002      	str	r0, [sp, #8]
    2230:	2000      	movs	r0, #0
    2232:	9003      	str	r0, [sp, #12]
    2234:	e7ff      	b.n	2236 <FLEXCOMM_GetInstance+0xe>
    2236:	9803      	ldr	r0, [sp, #12]
    2238:	9001      	str	r0, [sp, #4]
    223a:	2808      	cmp	r0, #8
    223c:	d811      	bhi.n	2262 <FLEXCOMM_GetInstance+0x3a>
    223e:	e7ff      	b.n	2240 <FLEXCOMM_GetInstance+0x18>
    2240:	9802      	ldr	r0, [sp, #8]
    2242:	9a01      	ldr	r2, [sp, #4]
    2244:	f648 01b4 	movw	r1, #34996	; 0x88b4
    2248:	f2c0 0100 	movt	r1, #0
    224c:	f851 1022 	ldr.w	r1, [r1, r2, lsl #2]
    2250:	4288      	cmp	r0, r1
    2252:	d101      	bne.n	2258 <FLEXCOMM_GetInstance+0x30>
    2254:	e7ff      	b.n	2256 <FLEXCOMM_GetInstance+0x2e>
    2256:	e004      	b.n	2262 <FLEXCOMM_GetInstance+0x3a>
    2258:	e7ff      	b.n	225a <FLEXCOMM_GetInstance+0x32>
    225a:	9801      	ldr	r0, [sp, #4]
    225c:	3001      	adds	r0, #1
    225e:	9003      	str	r0, [sp, #12]
    2260:	e7e9      	b.n	2236 <FLEXCOMM_GetInstance+0xe>
    2262:	9801      	ldr	r0, [sp, #4]
    2264:	2808      	cmp	r0, #8
    2266:	d801      	bhi.n	226c <FLEXCOMM_GetInstance+0x44>
    2268:	e7ff      	b.n	226a <FLEXCOMM_GetInstance+0x42>
    226a:	e00e      	b.n	228a <FLEXCOMM_GetInstance+0x62>
    226c:	f648 00d8 	movw	r0, #35032	; 0x88d8
    2270:	f2c0 0000 	movt	r0, #0
    2274:	f648 02ef 	movw	r2, #35055	; 0x88ef
    2278:	f2c0 0200 	movt	r2, #0
    227c:	f648 1304 	movw	r3, #35076	; 0x8904
    2280:	f2c0 0300 	movt	r3, #0
    2284:	215f      	movs	r1, #95	; 0x5f
    2286:	f002 fe5c 	bl	4f42 <__assert_func>
    228a:	9801      	ldr	r0, [sp, #4]
    228c:	b004      	add	sp, #16
    228e:	bd80      	pop	{r7, pc}

00002290 <FLEXCOMM_Init>:
    2290:	b580      	push	{r7, lr}
    2292:	466f      	mov	r7, sp
    2294:	b084      	sub	sp, #16
    2296:	9103      	str	r1, [sp, #12]
    2298:	9002      	str	r0, [sp, #8]
    229a:	f7ff ffc5 	bl	2228 <FLEXCOMM_GetInstance>
    229e:	4601      	mov	r1, r0
    22a0:	9101      	str	r1, [sp, #4]
    22a2:	f648 204c 	movw	r0, #35404	; 0x8a4c
    22a6:	f2c0 0000 	movt	r0, #0
    22aa:	f830 0011 	ldrh.w	r0, [r0, r1, lsl #1]
    22ae:	f000 f810 	bl	22d2 <CLOCK_EnableClock>
    22b2:	9901      	ldr	r1, [sp, #4]
    22b4:	f648 2060 	movw	r0, #35424	; 0x8a60
    22b8:	f2c0 0000 	movt	r0, #0
    22bc:	f850 0021 	ldr.w	r0, [r0, r1, lsl #2]
    22c0:	f7ff ff35 	bl	212e <RESET_PeripheralReset>
    22c4:	9802      	ldr	r0, [sp, #8]
    22c6:	9903      	ldr	r1, [sp, #12]
    22c8:	2200      	movs	r2, #0
    22ca:	f000 f80d 	bl	22e8 <FLEXCOMM_SetPeriph>
    22ce:	b004      	add	sp, #16
    22d0:	bd80      	pop	{r7, pc}

000022d2 <CLOCK_EnableClock>:
    22d2:	0a02      	lsrs	r2, r0, #8
    22d4:	b2c1      	uxtb	r1, r0
    22d6:	2001      	movs	r0, #1
    22d8:	4088      	lsls	r0, r1
    22da:	f240 2120 	movw	r1, #544	; 0x220
    22de:	f2c4 0100 	movt	r1, #16384	; 0x4000
    22e2:	f841 0022 	str.w	r0, [r1, r2, lsl #2]
    22e6:	4770      	bx	lr

000022e8 <FLEXCOMM_SetPeriph>:
    22e8:	b580      	push	{r7, lr}
    22ea:	466f      	mov	r7, sp
    22ec:	b084      	sub	sp, #16
    22ee:	9201      	str	r2, [sp, #4]
    22f0:	9002      	str	r0, [sp, #8]
    22f2:	460a      	mov	r2, r1
    22f4:	9203      	str	r2, [sp, #12]
    22f6:	f000 fa3d 	bl	2774 <FLEXCOMM_PeripheralIsPresent>
    22fa:	b918      	cbnz	r0, 2304 <FLEXCOMM_SetPeriph+0x1c>
    22fc:	e7ff      	b.n	22fe <FLEXCOMM_SetPeriph+0x16>
    22fe:	2003      	movs	r0, #3
    2300:	9000      	str	r0, [sp, #0]
    2302:	e027      	b.n	2354 <FLEXCOMM_SetPeriph+0x6c>
    2304:	9802      	ldr	r0, [sp, #8]
    2306:	f8d0 0ff8 	ldr.w	r0, [r0, #4088]	; 0xff8
    230a:	0700      	lsls	r0, r0, #28
    230c:	2800      	cmp	r0, #0
    230e:	d50d      	bpl.n	232c <FLEXCOMM_SetPeriph+0x44>
    2310:	e7ff      	b.n	2312 <FLEXCOMM_SetPeriph+0x2a>
    2312:	9903      	ldr	r1, [sp, #12]
    2314:	9802      	ldr	r0, [sp, #8]
    2316:	f8d0 0ff8 	ldr.w	r0, [r0, #4088]	; 0xff8
    231a:	f000 0007 	and.w	r0, r0, #7
    231e:	b2c9      	uxtb	r1, r1
    2320:	4288      	cmp	r0, r1
    2322:	d003      	beq.n	232c <FLEXCOMM_SetPeriph+0x44>
    2324:	e7ff      	b.n	2326 <FLEXCOMM_SetPeriph+0x3e>
    2326:	2001      	movs	r0, #1
    2328:	9000      	str	r0, [sp, #0]
    232a:	e013      	b.n	2354 <FLEXCOMM_SetPeriph+0x6c>
    232c:	9801      	ldr	r0, [sp, #4]
    232e:	b140      	cbz	r0, 2342 <FLEXCOMM_SetPeriph+0x5a>
    2330:	e7ff      	b.n	2332 <FLEXCOMM_SetPeriph+0x4a>
    2332:	9902      	ldr	r1, [sp, #8]
    2334:	9803      	ldr	r0, [sp, #12]
    2336:	f040 0008 	orr.w	r0, r0, #8
    233a:	b2c0      	uxtb	r0, r0
    233c:	f8c1 0ff8 	str.w	r0, [r1, #4088]	; 0xff8
    2340:	e005      	b.n	234e <FLEXCOMM_SetPeriph+0x66>
    2342:	9902      	ldr	r1, [sp, #8]
    2344:	9803      	ldr	r0, [sp, #12]
    2346:	b2c0      	uxtb	r0, r0
    2348:	f8c1 0ff8 	str.w	r0, [r1, #4088]	; 0xff8
    234c:	e7ff      	b.n	234e <FLEXCOMM_SetPeriph+0x66>
    234e:	2000      	movs	r0, #0
    2350:	9000      	str	r0, [sp, #0]
    2352:	e7ff      	b.n	2354 <FLEXCOMM_SetPeriph+0x6c>
    2354:	9800      	ldr	r0, [sp, #0]
    2356:	b004      	add	sp, #16
    2358:	bd80      	pop	{r7, pc}

0000235a <FLEXCOMM0_DriverIRQHandler>:
    235a:	b580      	push	{r7, lr}
    235c:	466f      	mov	r7, sp
    235e:	b082      	sub	sp, #8
    2360:	f246 0000 	movw	r0, #24576	; 0x6000
    2364:	f2c4 0008 	movt	r0, #16392	; 0x4008
    2368:	f7ff ff5e 	bl	2228 <FLEXCOMM_GetInstance>
    236c:	4601      	mov	r1, r0
    236e:	4608      	mov	r0, r1
    2370:	9001      	str	r0, [sp, #4]
    2372:	f240 405c 	movw	r0, #1116	; 0x45c
    2376:	f2c2 0000 	movt	r0, #8192	; 0x2000
    237a:	f850 0021 	ldr.w	r0, [r0, r1, lsl #2]
    237e:	b108      	cbz	r0, 2384 <FLEXCOMM0_DriverIRQHandler+0x2a>
    2380:	e7ff      	b.n	2382 <FLEXCOMM0_DriverIRQHandler+0x28>
    2382:	e00e      	b.n	23a2 <FLEXCOMM0_DriverIRQHandler+0x48>
    2384:	f648 00d8 	movw	r0, #35032	; 0x88d8
    2388:	f2c0 0000 	movt	r0, #0
    238c:	f648 1231 	movw	r2, #35121	; 0x8931
    2390:	f2c0 0200 	movt	r2, #0
    2394:	f648 134c 	movw	r3, #35148	; 0x894c
    2398:	f2c0 0300 	movt	r3, #0
    239c:	21ac      	movs	r1, #172	; 0xac
    239e:	f002 fdd0 	bl	4f42 <__assert_func>
    23a2:	9b01      	ldr	r3, [sp, #4]
    23a4:	f240 405c 	movw	r0, #1116	; 0x45c
    23a8:	f2c2 0000 	movt	r0, #8192	; 0x2000
    23ac:	f850 2023 	ldr.w	r2, [r0, r3, lsl #2]
    23b0:	f648 00b4 	movw	r0, #34996	; 0x88b4
    23b4:	f2c0 0000 	movt	r0, #0
    23b8:	f850 0023 	ldr.w	r0, [r0, r3, lsl #2]
    23bc:	f240 4180 	movw	r1, #1152	; 0x480
    23c0:	f2c2 0100 	movt	r1, #8192	; 0x2000
    23c4:	f851 1023 	ldr.w	r1, [r1, r3, lsl #2]
    23c8:	4790      	blx	r2
    23ca:	b002      	add	sp, #8
    23cc:	bd80      	pop	{r7, pc}

000023ce <FLEXCOMM1_DriverIRQHandler>:
    23ce:	b580      	push	{r7, lr}
    23d0:	466f      	mov	r7, sp
    23d2:	b082      	sub	sp, #8
    23d4:	f247 0000 	movw	r0, #28672	; 0x7000
    23d8:	f2c4 0008 	movt	r0, #16392	; 0x4008
    23dc:	f7ff ff24 	bl	2228 <FLEXCOMM_GetInstance>
    23e0:	4601      	mov	r1, r0
    23e2:	4608      	mov	r0, r1
    23e4:	9001      	str	r0, [sp, #4]
    23e6:	f240 405c 	movw	r0, #1116	; 0x45c
    23ea:	f2c2 0000 	movt	r0, #8192	; 0x2000
    23ee:	f850 0021 	ldr.w	r0, [r0, r1, lsl #2]
    23f2:	b108      	cbz	r0, 23f8 <FLEXCOMM1_DriverIRQHandler+0x2a>
    23f4:	e7ff      	b.n	23f6 <FLEXCOMM1_DriverIRQHandler+0x28>
    23f6:	e00e      	b.n	2416 <FLEXCOMM1_DriverIRQHandler+0x48>
    23f8:	f648 00d8 	movw	r0, #35032	; 0x88d8
    23fc:	f2c0 0000 	movt	r0, #0
    2400:	f648 1273 	movw	r2, #35187	; 0x8973
    2404:	f2c0 0200 	movt	r2, #0
    2408:	f648 134c 	movw	r3, #35148	; 0x894c
    240c:	f2c0 0300 	movt	r3, #0
    2410:	21ba      	movs	r1, #186	; 0xba
    2412:	f002 fd96 	bl	4f42 <__assert_func>
    2416:	9b01      	ldr	r3, [sp, #4]
    2418:	f240 405c 	movw	r0, #1116	; 0x45c
    241c:	f2c2 0000 	movt	r0, #8192	; 0x2000
    2420:	f850 2023 	ldr.w	r2, [r0, r3, lsl #2]
    2424:	f648 00b4 	movw	r0, #34996	; 0x88b4
    2428:	f2c0 0000 	movt	r0, #0
    242c:	f850 0023 	ldr.w	r0, [r0, r3, lsl #2]
    2430:	f240 4180 	movw	r1, #1152	; 0x480
    2434:	f2c2 0100 	movt	r1, #8192	; 0x2000
    2438:	f851 1023 	ldr.w	r1, [r1, r3, lsl #2]
    243c:	4790      	blx	r2
    243e:	b002      	add	sp, #8
    2440:	bd80      	pop	{r7, pc}

00002442 <FLEXCOMM2_DriverIRQHandler>:
    2442:	b580      	push	{r7, lr}
    2444:	466f      	mov	r7, sp
    2446:	b082      	sub	sp, #8
    2448:	f248 0000 	movw	r0, #32768	; 0x8000
    244c:	f2c4 0008 	movt	r0, #16392	; 0x4008
    2450:	f7ff feea 	bl	2228 <FLEXCOMM_GetInstance>
    2454:	4601      	mov	r1, r0
    2456:	4608      	mov	r0, r1
    2458:	9001      	str	r0, [sp, #4]
    245a:	f240 405c 	movw	r0, #1116	; 0x45c
    245e:	f2c2 0000 	movt	r0, #8192	; 0x2000
    2462:	f850 0021 	ldr.w	r0, [r0, r1, lsl #2]
    2466:	b108      	cbz	r0, 246c <FLEXCOMM2_DriverIRQHandler+0x2a>
    2468:	e7ff      	b.n	246a <FLEXCOMM2_DriverIRQHandler+0x28>
    246a:	e00e      	b.n	248a <FLEXCOMM2_DriverIRQHandler+0x48>
    246c:	f648 00d8 	movw	r0, #35032	; 0x88d8
    2470:	f2c0 0000 	movt	r0, #0
    2474:	f648 128e 	movw	r2, #35214	; 0x898e
    2478:	f2c0 0200 	movt	r2, #0
    247c:	f648 134c 	movw	r3, #35148	; 0x894c
    2480:	f2c0 0300 	movt	r3, #0
    2484:	21c8      	movs	r1, #200	; 0xc8
    2486:	f002 fd5c 	bl	4f42 <__assert_func>
    248a:	9b01      	ldr	r3, [sp, #4]
    248c:	f240 405c 	movw	r0, #1116	; 0x45c
    2490:	f2c2 0000 	movt	r0, #8192	; 0x2000
    2494:	f850 2023 	ldr.w	r2, [r0, r3, lsl #2]
    2498:	f648 00b4 	movw	r0, #34996	; 0x88b4
    249c:	f2c0 0000 	movt	r0, #0
    24a0:	f850 0023 	ldr.w	r0, [r0, r3, lsl #2]
    24a4:	f240 4180 	movw	r1, #1152	; 0x480
    24a8:	f2c2 0100 	movt	r1, #8192	; 0x2000
    24ac:	f851 1023 	ldr.w	r1, [r1, r3, lsl #2]
    24b0:	4790      	blx	r2
    24b2:	b002      	add	sp, #8
    24b4:	bd80      	pop	{r7, pc}

000024b6 <FLEXCOMM3_DriverIRQHandler>:
    24b6:	b580      	push	{r7, lr}
    24b8:	466f      	mov	r7, sp
    24ba:	b082      	sub	sp, #8
    24bc:	f249 0000 	movw	r0, #36864	; 0x9000
    24c0:	f2c4 0008 	movt	r0, #16392	; 0x4008
    24c4:	f7ff feb0 	bl	2228 <FLEXCOMM_GetInstance>
    24c8:	4601      	mov	r1, r0
    24ca:	4608      	mov	r0, r1
    24cc:	9001      	str	r0, [sp, #4]
    24ce:	f240 405c 	movw	r0, #1116	; 0x45c
    24d2:	f2c2 0000 	movt	r0, #8192	; 0x2000
    24d6:	f850 0021 	ldr.w	r0, [r0, r1, lsl #2]
    24da:	b108      	cbz	r0, 24e0 <FLEXCOMM3_DriverIRQHandler+0x2a>
    24dc:	e7ff      	b.n	24de <FLEXCOMM3_DriverIRQHandler+0x28>
    24de:	e00e      	b.n	24fe <FLEXCOMM3_DriverIRQHandler+0x48>
    24e0:	f648 00d8 	movw	r0, #35032	; 0x88d8
    24e4:	f2c0 0000 	movt	r0, #0
    24e8:	f648 12a9 	movw	r2, #35241	; 0x89a9
    24ec:	f2c0 0200 	movt	r2, #0
    24f0:	f648 134c 	movw	r3, #35148	; 0x894c
    24f4:	f2c0 0300 	movt	r3, #0
    24f8:	21d6      	movs	r1, #214	; 0xd6
    24fa:	f002 fd22 	bl	4f42 <__assert_func>
    24fe:	9b01      	ldr	r3, [sp, #4]
    2500:	f240 405c 	movw	r0, #1116	; 0x45c
    2504:	f2c2 0000 	movt	r0, #8192	; 0x2000
    2508:	f850 2023 	ldr.w	r2, [r0, r3, lsl #2]
    250c:	f648 00b4 	movw	r0, #34996	; 0x88b4
    2510:	f2c0 0000 	movt	r0, #0
    2514:	f850 0023 	ldr.w	r0, [r0, r3, lsl #2]
    2518:	f240 4180 	movw	r1, #1152	; 0x480
    251c:	f2c2 0100 	movt	r1, #8192	; 0x2000
    2520:	f851 1023 	ldr.w	r1, [r1, r3, lsl #2]
    2524:	4790      	blx	r2
    2526:	b002      	add	sp, #8
    2528:	bd80      	pop	{r7, pc}

0000252a <FLEXCOMM4_DriverIRQHandler>:
    252a:	b580      	push	{r7, lr}
    252c:	466f      	mov	r7, sp
    252e:	b082      	sub	sp, #8
    2530:	f24a 0000 	movw	r0, #40960	; 0xa000
    2534:	f2c4 0008 	movt	r0, #16392	; 0x4008
    2538:	f7ff fe76 	bl	2228 <FLEXCOMM_GetInstance>
    253c:	4601      	mov	r1, r0
    253e:	4608      	mov	r0, r1
    2540:	9001      	str	r0, [sp, #4]
    2542:	f240 405c 	movw	r0, #1116	; 0x45c
    2546:	f2c2 0000 	movt	r0, #8192	; 0x2000
    254a:	f850 0021 	ldr.w	r0, [r0, r1, lsl #2]
    254e:	b108      	cbz	r0, 2554 <FLEXCOMM4_DriverIRQHandler+0x2a>
    2550:	e7ff      	b.n	2552 <FLEXCOMM4_DriverIRQHandler+0x28>
    2552:	e00e      	b.n	2572 <FLEXCOMM4_DriverIRQHandler+0x48>
    2554:	f648 00d8 	movw	r0, #35032	; 0x88d8
    2558:	f2c0 0000 	movt	r0, #0
    255c:	f648 12c4 	movw	r2, #35268	; 0x89c4
    2560:	f2c0 0200 	movt	r2, #0
    2564:	f648 134c 	movw	r3, #35148	; 0x894c
    2568:	f2c0 0300 	movt	r3, #0
    256c:	21e4      	movs	r1, #228	; 0xe4
    256e:	f002 fce8 	bl	4f42 <__assert_func>
    2572:	9b01      	ldr	r3, [sp, #4]
    2574:	f240 405c 	movw	r0, #1116	; 0x45c
    2578:	f2c2 0000 	movt	r0, #8192	; 0x2000
    257c:	f850 2023 	ldr.w	r2, [r0, r3, lsl #2]
    2580:	f648 00b4 	movw	r0, #34996	; 0x88b4
    2584:	f2c0 0000 	movt	r0, #0
    2588:	f850 0023 	ldr.w	r0, [r0, r3, lsl #2]
    258c:	f240 4180 	movw	r1, #1152	; 0x480
    2590:	f2c2 0100 	movt	r1, #8192	; 0x2000
    2594:	f851 1023 	ldr.w	r1, [r1, r3, lsl #2]
    2598:	4790      	blx	r2
    259a:	b002      	add	sp, #8
    259c:	bd80      	pop	{r7, pc}

0000259e <FLEXCOMM5_DriverIRQHandler>:
    259e:	b580      	push	{r7, lr}
    25a0:	466f      	mov	r7, sp
    25a2:	b082      	sub	sp, #8
    25a4:	f246 0000 	movw	r0, #24576	; 0x6000
    25a8:	f2c4 0009 	movt	r0, #16393	; 0x4009
    25ac:	f7ff fe3c 	bl	2228 <FLEXCOMM_GetInstance>
    25b0:	4601      	mov	r1, r0
    25b2:	4608      	mov	r0, r1
    25b4:	9001      	str	r0, [sp, #4]
    25b6:	f240 405c 	movw	r0, #1116	; 0x45c
    25ba:	f2c2 0000 	movt	r0, #8192	; 0x2000
    25be:	f850 0021 	ldr.w	r0, [r0, r1, lsl #2]
    25c2:	b108      	cbz	r0, 25c8 <FLEXCOMM5_DriverIRQHandler+0x2a>
    25c4:	e7ff      	b.n	25c6 <FLEXCOMM5_DriverIRQHandler+0x28>
    25c6:	e00e      	b.n	25e6 <FLEXCOMM5_DriverIRQHandler+0x48>
    25c8:	f648 00d8 	movw	r0, #35032	; 0x88d8
    25cc:	f2c0 0000 	movt	r0, #0
    25d0:	f648 12df 	movw	r2, #35295	; 0x89df
    25d4:	f2c0 0200 	movt	r2, #0
    25d8:	f648 134c 	movw	r3, #35148	; 0x894c
    25dc:	f2c0 0300 	movt	r3, #0
    25e0:	21f3      	movs	r1, #243	; 0xf3
    25e2:	f002 fcae 	bl	4f42 <__assert_func>
    25e6:	9b01      	ldr	r3, [sp, #4]
    25e8:	f240 405c 	movw	r0, #1116	; 0x45c
    25ec:	f2c2 0000 	movt	r0, #8192	; 0x2000
    25f0:	f850 2023 	ldr.w	r2, [r0, r3, lsl #2]
    25f4:	f648 00b4 	movw	r0, #34996	; 0x88b4
    25f8:	f2c0 0000 	movt	r0, #0
    25fc:	f850 0023 	ldr.w	r0, [r0, r3, lsl #2]
    2600:	f240 4180 	movw	r1, #1152	; 0x480
    2604:	f2c2 0100 	movt	r1, #8192	; 0x2000
    2608:	f851 1023 	ldr.w	r1, [r1, r3, lsl #2]
    260c:	4790      	blx	r2
    260e:	b002      	add	sp, #8
    2610:	bd80      	pop	{r7, pc}

00002612 <FLEXCOMM6_DriverIRQHandler>:
    2612:	b580      	push	{r7, lr}
    2614:	466f      	mov	r7, sp
    2616:	b082      	sub	sp, #8
    2618:	f247 0000 	movw	r0, #28672	; 0x7000
    261c:	f2c4 0009 	movt	r0, #16393	; 0x4009
    2620:	f7ff fe02 	bl	2228 <FLEXCOMM_GetInstance>
    2624:	4601      	mov	r1, r0
    2626:	4608      	mov	r0, r1
    2628:	9001      	str	r0, [sp, #4]
    262a:	f240 405c 	movw	r0, #1116	; 0x45c
    262e:	f2c2 0000 	movt	r0, #8192	; 0x2000
    2632:	f850 0021 	ldr.w	r0, [r0, r1, lsl #2]
    2636:	b108      	cbz	r0, 263c <FLEXCOMM6_DriverIRQHandler+0x2a>
    2638:	e7ff      	b.n	263a <FLEXCOMM6_DriverIRQHandler+0x28>
    263a:	e00f      	b.n	265c <FLEXCOMM6_DriverIRQHandler+0x4a>
    263c:	f648 00d8 	movw	r0, #35032	; 0x88d8
    2640:	f2c0 0000 	movt	r0, #0
    2644:	f648 12fa 	movw	r2, #35322	; 0x89fa
    2648:	f2c0 0200 	movt	r2, #0
    264c:	f648 134c 	movw	r3, #35148	; 0x894c
    2650:	f2c0 0300 	movt	r3, #0
    2654:	f240 1101 	movw	r1, #257	; 0x101
    2658:	f002 fc73 	bl	4f42 <__assert_func>
    265c:	9b01      	ldr	r3, [sp, #4]
    265e:	f240 405c 	movw	r0, #1116	; 0x45c
    2662:	f2c2 0000 	movt	r0, #8192	; 0x2000
    2666:	f850 2023 	ldr.w	r2, [r0, r3, lsl #2]
    266a:	f648 00b4 	movw	r0, #34996	; 0x88b4
    266e:	f2c0 0000 	movt	r0, #0
    2672:	f850 0023 	ldr.w	r0, [r0, r3, lsl #2]
    2676:	f240 4180 	movw	r1, #1152	; 0x480
    267a:	f2c2 0100 	movt	r1, #8192	; 0x2000
    267e:	f851 1023 	ldr.w	r1, [r1, r3, lsl #2]
    2682:	4790      	blx	r2
    2684:	b002      	add	sp, #8
    2686:	bd80      	pop	{r7, pc}

00002688 <FLEXCOMM7_DriverIRQHandler>:
    2688:	b580      	push	{r7, lr}
    268a:	466f      	mov	r7, sp
    268c:	b082      	sub	sp, #8
    268e:	f248 0000 	movw	r0, #32768	; 0x8000
    2692:	f2c4 0009 	movt	r0, #16393	; 0x4009
    2696:	f7ff fdc7 	bl	2228 <FLEXCOMM_GetInstance>
    269a:	4601      	mov	r1, r0
    269c:	4608      	mov	r0, r1
    269e:	9001      	str	r0, [sp, #4]
    26a0:	f240 405c 	movw	r0, #1116	; 0x45c
    26a4:	f2c2 0000 	movt	r0, #8192	; 0x2000
    26a8:	f850 0021 	ldr.w	r0, [r0, r1, lsl #2]
    26ac:	b108      	cbz	r0, 26b2 <FLEXCOMM7_DriverIRQHandler+0x2a>
    26ae:	e7ff      	b.n	26b0 <FLEXCOMM7_DriverIRQHandler+0x28>
    26b0:	e00f      	b.n	26d2 <FLEXCOMM7_DriverIRQHandler+0x4a>
    26b2:	f648 00d8 	movw	r0, #35032	; 0x88d8
    26b6:	f2c0 0000 	movt	r0, #0
    26ba:	f648 2215 	movw	r2, #35349	; 0x8a15
    26be:	f2c0 0200 	movt	r2, #0
    26c2:	f648 134c 	movw	r3, #35148	; 0x894c
    26c6:	f2c0 0300 	movt	r3, #0
    26ca:	f240 110f 	movw	r1, #271	; 0x10f
    26ce:	f002 fc38 	bl	4f42 <__assert_func>
    26d2:	9b01      	ldr	r3, [sp, #4]
    26d4:	f240 405c 	movw	r0, #1116	; 0x45c
    26d8:	f2c2 0000 	movt	r0, #8192	; 0x2000
    26dc:	f850 2023 	ldr.w	r2, [r0, r3, lsl #2]
    26e0:	f648 00b4 	movw	r0, #34996	; 0x88b4
    26e4:	f2c0 0000 	movt	r0, #0
    26e8:	f850 0023 	ldr.w	r0, [r0, r3, lsl #2]
    26ec:	f240 4180 	movw	r1, #1152	; 0x480
    26f0:	f2c2 0100 	movt	r1, #8192	; 0x2000
    26f4:	f851 1023 	ldr.w	r1, [r1, r3, lsl #2]
    26f8:	4790      	blx	r2
    26fa:	b002      	add	sp, #8
    26fc:	bd80      	pop	{r7, pc}

000026fe <FLEXCOMM8_DriverIRQHandler>:
    26fe:	b580      	push	{r7, lr}
    2700:	466f      	mov	r7, sp
    2702:	b082      	sub	sp, #8
    2704:	f24f 0000 	movw	r0, #61440	; 0xf000
    2708:	f2c4 0009 	movt	r0, #16393	; 0x4009
    270c:	f7ff fd8c 	bl	2228 <FLEXCOMM_GetInstance>
    2710:	4601      	mov	r1, r0
    2712:	4608      	mov	r0, r1
    2714:	9001      	str	r0, [sp, #4]
    2716:	f240 405c 	movw	r0, #1116	; 0x45c
    271a:	f2c2 0000 	movt	r0, #8192	; 0x2000
    271e:	f850 0021 	ldr.w	r0, [r0, r1, lsl #2]
    2722:	b108      	cbz	r0, 2728 <FLEXCOMM8_DriverIRQHandler+0x2a>
    2724:	e7ff      	b.n	2726 <FLEXCOMM8_DriverIRQHandler+0x28>
    2726:	e00f      	b.n	2748 <FLEXCOMM8_DriverIRQHandler+0x4a>
    2728:	f648 00d8 	movw	r0, #35032	; 0x88d8
    272c:	f2c0 0000 	movt	r0, #0
    2730:	f648 2230 	movw	r2, #35376	; 0x8a30
    2734:	f2c0 0200 	movt	r2, #0
    2738:	f648 134c 	movw	r3, #35148	; 0x894c
    273c:	f2c0 0300 	movt	r3, #0
    2740:	f240 111d 	movw	r1, #285	; 0x11d
    2744:	f002 fbfd 	bl	4f42 <__assert_func>
    2748:	9b01      	ldr	r3, [sp, #4]
    274a:	f240 405c 	movw	r0, #1116	; 0x45c
    274e:	f2c2 0000 	movt	r0, #8192	; 0x2000
    2752:	f850 2023 	ldr.w	r2, [r0, r3, lsl #2]
    2756:	f648 00b4 	movw	r0, #34996	; 0x88b4
    275a:	f2c0 0000 	movt	r0, #0
    275e:	f850 0023 	ldr.w	r0, [r0, r3, lsl #2]
    2762:	f240 4180 	movw	r1, #1152	; 0x480
    2766:	f2c2 0100 	movt	r1, #8192	; 0x2000
    276a:	f851 1023 	ldr.w	r1, [r1, r3, lsl #2]
    276e:	4790      	blx	r2
    2770:	b002      	add	sp, #8
    2772:	bd80      	pop	{r7, pc}

00002774 <FLEXCOMM_PeripheralIsPresent>:
    2774:	b083      	sub	sp, #12
    2776:	9001      	str	r0, [sp, #4]
    2778:	4608      	mov	r0, r1
    277a:	9002      	str	r0, [sp, #8]
    277c:	b919      	cbnz	r1, 2786 <FLEXCOMM_PeripheralIsPresent+0x12>
    277e:	e7ff      	b.n	2780 <FLEXCOMM_PeripheralIsPresent+0xc>
    2780:	2001      	movs	r0, #1
    2782:	9000      	str	r0, [sp, #0]
    2784:	e01f      	b.n	27c6 <FLEXCOMM_PeripheralIsPresent+0x52>
    2786:	9802      	ldr	r0, [sp, #8]
    2788:	b2c0      	uxtb	r0, r0
    278a:	2804      	cmp	r0, #4
    278c:	dc0c      	bgt.n	27a8 <FLEXCOMM_PeripheralIsPresent+0x34>
    278e:	e7ff      	b.n	2790 <FLEXCOMM_PeripheralIsPresent+0x1c>
    2790:	9a02      	ldr	r2, [sp, #8]
    2792:	9801      	ldr	r0, [sp, #4]
    2794:	f8d0 0ff8 	ldr.w	r0, [r0, #4088]	; 0xff8
    2798:	2103      	movs	r1, #3
    279a:	fa51 f182 	uxtab	r1, r1, r2
    279e:	40c8      	lsrs	r0, r1
    27a0:	f000 0001 	and.w	r0, r0, #1
    27a4:	9000      	str	r0, [sp, #0]
    27a6:	e00e      	b.n	27c6 <FLEXCOMM_PeripheralIsPresent+0x52>
    27a8:	9802      	ldr	r0, [sp, #8]
    27aa:	b2c0      	uxtb	r0, r0
    27ac:	2805      	cmp	r0, #5
    27ae:	d107      	bne.n	27c0 <FLEXCOMM_PeripheralIsPresent+0x4c>
    27b0:	e7ff      	b.n	27b2 <FLEXCOMM_PeripheralIsPresent+0x3e>
    27b2:	9801      	ldr	r0, [sp, #4]
    27b4:	f8d0 0ff8 	ldr.w	r0, [r0, #4088]	; 0xff8
    27b8:	b2c0      	uxtb	r0, r0
    27ba:	09c0      	lsrs	r0, r0, #7
    27bc:	9000      	str	r0, [sp, #0]
    27be:	e002      	b.n	27c6 <FLEXCOMM_PeripheralIsPresent+0x52>
    27c0:	2000      	movs	r0, #0
    27c2:	9000      	str	r0, [sp, #0]
    27c4:	e7ff      	b.n	27c6 <FLEXCOMM_PeripheralIsPresent+0x52>
    27c6:	9800      	ldr	r0, [sp, #0]
    27c8:	f000 0001 	and.w	r0, r0, #1
    27cc:	b003      	add	sp, #12
    27ce:	4770      	bx	lr

000027d0 <USART_Init>:
    27d0:	b5d0      	push	{r4, r6, r7, lr}
    27d2:	af02      	add	r7, sp, #8
    27d4:	b086      	sub	sp, #24
    27d6:	9203      	str	r2, [sp, #12]
    27d8:	9104      	str	r1, [sp, #16]
    27da:	9005      	str	r0, [sp, #20]
    27dc:	b138      	cbz	r0, 27ee <USART_Init+0x1e>
    27de:	e7ff      	b.n	27e0 <USART_Init+0x10>
    27e0:	9804      	ldr	r0, [sp, #16]
    27e2:	b120      	cbz	r0, 27ee <USART_Init+0x1e>
    27e4:	e7ff      	b.n	27e6 <USART_Init+0x16>
    27e6:	9803      	ldr	r0, [sp, #12]
    27e8:	b108      	cbz	r0, 27ee <USART_Init+0x1e>
    27ea:	e7ff      	b.n	27ec <USART_Init+0x1c>
    27ec:	e00e      	b.n	280c <USART_Init+0x3c>
    27ee:	f648 2084 	movw	r0, #35460	; 0x8a84
    27f2:	f2c0 0000 	movt	r0, #0
    27f6:	f648 3262 	movw	r2, #35682	; 0x8b62
    27fa:	f2c0 0200 	movt	r2, #0
    27fe:	f648 336d 	movw	r3, #35693	; 0x8b6d
    2802:	f2c0 0300 	movt	r3, #0
    2806:	21c6      	movs	r1, #198	; 0xc6
    2808:	f002 fb9b 	bl	4f42 <__assert_func>
    280c:	9805      	ldr	r0, [sp, #20]
    280e:	b130      	cbz	r0, 281e <USART_Init+0x4e>
    2810:	e7ff      	b.n	2812 <USART_Init+0x42>
    2812:	9804      	ldr	r0, [sp, #16]
    2814:	b118      	cbz	r0, 281e <USART_Init+0x4e>
    2816:	e7ff      	b.n	2818 <USART_Init+0x48>
    2818:	9803      	ldr	r0, [sp, #12]
    281a:	b918      	cbnz	r0, 2824 <USART_Init+0x54>
    281c:	e7ff      	b.n	281e <USART_Init+0x4e>
    281e:	2004      	movs	r0, #4
    2820:	9002      	str	r0, [sp, #8]
    2822:	e0b6      	b.n	2992 <USART_Init+0x1c2>
    2824:	9805      	ldr	r0, [sp, #20]
    2826:	2101      	movs	r1, #1
    2828:	f7ff fd32 	bl	2290 <FLEXCOMM_Init>
    282c:	4601      	mov	r1, r0
    282e:	9101      	str	r1, [sp, #4]
    2830:	b118      	cbz	r0, 283a <USART_Init+0x6a>
    2832:	e7ff      	b.n	2834 <USART_Init+0x64>
    2834:	9801      	ldr	r0, [sp, #4]
    2836:	9002      	str	r0, [sp, #8]
    2838:	e0ab      	b.n	2992 <USART_Init+0x1c2>
    283a:	9804      	ldr	r0, [sp, #16]
    283c:	7a40      	ldrb	r0, [r0, #9]
    283e:	07c0      	lsls	r0, r0, #31
    2840:	b1f0      	cbz	r0, 2880 <USART_Init+0xb0>
    2842:	e7ff      	b.n	2844 <USART_Init+0x74>
    2844:	9905      	ldr	r1, [sp, #20]
    2846:	9804      	ldr	r0, [sp, #16]
    2848:	f8d1 2e00 	ldr.w	r2, [r1, #3584]	; 0xe00
    284c:	f042 1201 	orr.w	r2, r2, #65537	; 0x10001
    2850:	f8c1 2e00 	str.w	r2, [r1, #3584]	; 0xe00
    2854:	f8d1 2e08 	ldr.w	r2, [r1, #3592]	; 0xe08
    2858:	f422 6270 	bic.w	r2, r2, #3840	; 0xf00
    285c:	f8c1 2e08 	str.w	r2, [r1, #3592]	; 0xe08
    2860:	7b40      	ldrb	r0, [r0, #13]
    2862:	f000 020f 	and.w	r2, r0, #15
    2866:	f8d1 0e08 	ldr.w	r0, [r1, #3592]	; 0xe08
    286a:	ea40 2002 	orr.w	r0, r0, r2, lsl #8
    286e:	f8c1 0e08 	str.w	r0, [r1, #3592]	; 0xe08
    2872:	f8d1 0e08 	ldr.w	r0, [r1, #3592]	; 0xe08
    2876:	f040 0001 	orr.w	r0, r0, #1
    287a:	f8c1 0e08 	str.w	r0, [r1, #3592]	; 0xe08
    287e:	e7ff      	b.n	2880 <USART_Init+0xb0>
    2880:	9804      	ldr	r0, [sp, #16]
    2882:	7a00      	ldrb	r0, [r0, #8]
    2884:	07c0      	lsls	r0, r0, #31
    2886:	b1f0      	cbz	r0, 28c6 <USART_Init+0xf6>
    2888:	e7ff      	b.n	288a <USART_Init+0xba>
    288a:	9905      	ldr	r1, [sp, #20]
    288c:	9804      	ldr	r0, [sp, #16]
    288e:	f8d1 2e00 	ldr.w	r2, [r1, #3584]	; 0xe00
    2892:	f042 1202 	orr.w	r2, r2, #131074	; 0x20002
    2896:	f8c1 2e00 	str.w	r2, [r1, #3584]	; 0xe00
    289a:	f8d1 2e08 	ldr.w	r2, [r1, #3592]	; 0xe08
    289e:	f422 2270 	bic.w	r2, r2, #983040	; 0xf0000
    28a2:	f8c1 2e08 	str.w	r2, [r1, #3592]	; 0xe08
    28a6:	7b80      	ldrb	r0, [r0, #14]
    28a8:	f000 020f 	and.w	r2, r0, #15
    28ac:	f8d1 0e08 	ldr.w	r0, [r1, #3592]	; 0xe08
    28b0:	ea40 4002 	orr.w	r0, r0, r2, lsl #16
    28b4:	f8c1 0e08 	str.w	r0, [r1, #3592]	; 0xe08
    28b8:	f8d1 0e08 	ldr.w	r0, [r1, #3592]	; 0xe08
    28bc:	f040 0002 	orr.w	r0, r0, #2
    28c0:	f8c1 0e08 	str.w	r0, [r1, #3592]	; 0xe08
    28c4:	e7ff      	b.n	28c6 <USART_Init+0xf6>
    28c6:	9804      	ldr	r0, [sp, #16]
    28c8:	9a05      	ldr	r2, [sp, #20]
    28ca:	f890 e004 	ldrb.w	lr, [r0, #4]
    28ce:	7944      	ldrb	r4, [r0, #5]
    28d0:	f890 c006 	ldrb.w	ip, [r0, #6]
    28d4:	79c3      	ldrb	r3, [r0, #7]
    28d6:	2140      	movs	r1, #64	; 0x40
    28d8:	ea01 1184 	and.w	r1, r1, r4, lsl #6
    28dc:	f36e 1105 	bfi	r1, lr, #4, #2
    28e0:	f00c 0c03 	and.w	ip, ip, #3
    28e4:	ea41 018c 	orr.w	r1, r1, ip, lsl #2
    28e8:	f003 0301 	and.w	r3, r3, #1
    28ec:	ea41 31c3 	orr.w	r1, r1, r3, lsl #15
    28f0:	7bc3      	ldrb	r3, [r0, #15]
    28f2:	f003 0c02 	and.w	ip, r3, #2
    28f6:	ea41 218c 	orr.w	r1, r1, ip, lsl #10
    28fa:	f003 0301 	and.w	r3, r3, #1
    28fe:	ea41 3183 	orr.w	r1, r1, r3, lsl #14
    2902:	7c03      	ldrb	r3, [r0, #16]
    2904:	f003 0301 	and.w	r3, r3, #1
    2908:	ea41 3103 	orr.w	r1, r1, r3, lsl #12
    290c:	7ac3      	ldrb	r3, [r0, #11]
    290e:	f003 0301 	and.w	r3, r3, #1
    2912:	ea41 11c3 	orr.w	r1, r1, r3, lsl #7
    2916:	7b03      	ldrb	r3, [r0, #12]
    2918:	f003 0301 	and.w	r3, r3, #1
    291c:	ea41 2143 	orr.w	r1, r1, r3, lsl #9
    2920:	f041 0101 	orr.w	r1, r1, #1
    2924:	6011      	str	r1, [r2, #0]
    2926:	7ac0      	ldrb	r0, [r0, #11]
    2928:	07c0      	lsls	r0, r0, #31
    292a:	b1d0      	cbz	r0, 2962 <USART_Init+0x192>
    292c:	e7ff      	b.n	292e <USART_Init+0x15e>
    292e:	9804      	ldr	r0, [sp, #16]
    2930:	6801      	ldr	r1, [r0, #0]
    2932:	f44f 5016 	mov.w	r0, #9600	; 0x2580
    2936:	fbb0 f0f1 	udiv	r0, r0, r1
    293a:	4348      	muls	r0, r1
    293c:	f5c0 5016 	rsb	r0, r0, #9600	; 0x2580
    2940:	b950      	cbnz	r0, 2958 <USART_Init+0x188>
    2942:	e7ff      	b.n	2944 <USART_Init+0x174>
    2944:	9905      	ldr	r1, [sp, #20]
    2946:	9804      	ldr	r0, [sp, #16]
    2948:	6802      	ldr	r2, [r0, #0]
    294a:	f44f 5016 	mov.w	r0, #9600	; 0x2580
    294e:	fbb0 f0f2 	udiv	r0, r0, r2
    2952:	3801      	subs	r0, #1
    2954:	6208      	str	r0, [r1, #32]
    2956:	e003      	b.n	2960 <USART_Init+0x190>
    2958:	f241 6051 	movw	r0, #5713	; 0x1651
    295c:	9002      	str	r0, [sp, #8]
    295e:	e018      	b.n	2992 <USART_Init+0x1c2>
    2960:	e00d      	b.n	297e <USART_Init+0x1ae>
    2962:	9a03      	ldr	r2, [sp, #12]
    2964:	9805      	ldr	r0, [sp, #20]
    2966:	9904      	ldr	r1, [sp, #16]
    2968:	6809      	ldr	r1, [r1, #0]
    296a:	f000 f815 	bl	2998 <USART_SetBaudRate>
    296e:	4601      	mov	r1, r0
    2970:	9100      	str	r1, [sp, #0]
    2972:	b118      	cbz	r0, 297c <USART_Init+0x1ac>
    2974:	e7ff      	b.n	2976 <USART_Init+0x1a6>
    2976:	9800      	ldr	r0, [sp, #0]
    2978:	9002      	str	r0, [sp, #8]
    297a:	e00a      	b.n	2992 <USART_Init+0x1c2>
    297c:	e7ff      	b.n	297e <USART_Init+0x1ae>
    297e:	9805      	ldr	r0, [sp, #20]
    2980:	9904      	ldr	r1, [sp, #16]
    2982:	7a89      	ldrb	r1, [r1, #10]
    2984:	f001 0101 	and.w	r1, r1, #1
    2988:	f000 f900 	bl	2b8c <USART_EnableContinuousSCLK>
    298c:	2000      	movs	r0, #0
    298e:	9002      	str	r0, [sp, #8]
    2990:	e7ff      	b.n	2992 <USART_Init+0x1c2>
    2992:	9802      	ldr	r0, [sp, #8]
    2994:	b006      	add	sp, #24
    2996:	bdd0      	pop	{r4, r6, r7, pc}

00002998 <USART_SetBaudRate>:
    2998:	b580      	push	{r7, lr}
    299a:	466f      	mov	r7, sp
    299c:	b09a      	sub	sp, #104	; 0x68
    299e:	9217      	str	r2, [sp, #92]	; 0x5c
    29a0:	9118      	str	r1, [sp, #96]	; 0x60
    29a2:	9019      	str	r0, [sp, #100]	; 0x64
    29a4:	b138      	cbz	r0, 29b6 <USART_SetBaudRate+0x1e>
    29a6:	e7ff      	b.n	29a8 <USART_SetBaudRate+0x10>
    29a8:	9818      	ldr	r0, [sp, #96]	; 0x60
    29aa:	b120      	cbz	r0, 29b6 <USART_SetBaudRate+0x1e>
    29ac:	e7ff      	b.n	29ae <USART_SetBaudRate+0x16>
    29ae:	9817      	ldr	r0, [sp, #92]	; 0x5c
    29b0:	b108      	cbz	r0, 29b6 <USART_SetBaudRate+0x1e>
    29b2:	e7ff      	b.n	29b4 <USART_SetBaudRate+0x1c>
    29b4:	e00f      	b.n	29d6 <USART_SetBaudRate+0x3e>
    29b6:	f648 2084 	movw	r0, #35460	; 0x8a84
    29ba:	f2c0 0000 	movt	r0, #0
    29be:	f648 32dd 	movw	r2, #35805	; 0x8bdd
    29c2:	f2c0 0200 	movt	r2, #0
    29c6:	f648 33ef 	movw	r3, #35823	; 0x8bef
    29ca:	f2c0 0300 	movt	r3, #0
    29ce:	f240 11af 	movw	r1, #431	; 0x1af
    29d2:	f002 fab6 	bl	4f42 <__assert_func>
    29d6:	9819      	ldr	r0, [sp, #100]	; 0x64
    29d8:	b130      	cbz	r0, 29e8 <USART_SetBaudRate+0x50>
    29da:	e7ff      	b.n	29dc <USART_SetBaudRate+0x44>
    29dc:	9818      	ldr	r0, [sp, #96]	; 0x60
    29de:	b118      	cbz	r0, 29e8 <USART_SetBaudRate+0x50>
    29e0:	e7ff      	b.n	29e2 <USART_SetBaudRate+0x4a>
    29e2:	9817      	ldr	r0, [sp, #92]	; 0x5c
    29e4:	b918      	cbnz	r0, 29ee <USART_SetBaudRate+0x56>
    29e6:	e7ff      	b.n	29e8 <USART_SetBaudRate+0x50>
    29e8:	2004      	movs	r0, #4
    29ea:	9016      	str	r0, [sp, #88]	; 0x58
    29ec:	e0cb      	b.n	2b86 <USART_SetBaudRate+0x1ee>
    29ee:	9819      	ldr	r0, [sp, #100]	; 0x64
    29f0:	6800      	ldr	r0, [r0, #0]
    29f2:	0500      	lsls	r0, r0, #20
    29f4:	2800      	cmp	r0, #0
    29f6:	d50f      	bpl.n	2a18 <USART_SetBaudRate+0x80>
    29f8:	e7ff      	b.n	29fa <USART_SetBaudRate+0x62>
    29fa:	9819      	ldr	r0, [sp, #100]	; 0x64
    29fc:	6800      	ldr	r0, [r0, #0]
    29fe:	0440      	lsls	r0, r0, #17
    2a00:	2800      	cmp	r0, #0
    2a02:	d508      	bpl.n	2a16 <USART_SetBaudRate+0x7e>
    2a04:	e7ff      	b.n	2a06 <USART_SetBaudRate+0x6e>
    2a06:	9919      	ldr	r1, [sp, #100]	; 0x64
    2a08:	9817      	ldr	r0, [sp, #92]	; 0x5c
    2a0a:	9a18      	ldr	r2, [sp, #96]	; 0x60
    2a0c:	fbb0 f0f2 	udiv	r0, r0, r2
    2a10:	3801      	subs	r0, #1
    2a12:	6208      	str	r0, [r1, #32]
    2a14:	e7ff      	b.n	2a16 <USART_SetBaudRate+0x7e>
    2a16:	e0b3      	b.n	2b80 <USART_SetBaudRate+0x1e8>
    2a18:	9818      	ldr	r0, [sp, #96]	; 0x60
    2a1a:	f248 511f 	movw	r1, #34079	; 0x851f
    2a1e:	f2c5 11eb 	movt	r1, #20971	; 0x51eb
    2a22:	fba0 1001 	umull	r1, r0, r0, r1
    2a26:	0940      	lsrs	r0, r0, #5
    2a28:	eb00 0240 	add.w	r2, r0, r0, lsl #1
    2a2c:	f04f 30ff 	mov.w	r0, #4294967295	; 0xffffffff
    2a30:	210f      	movs	r1, #15
    2a32:	9211      	str	r2, [sp, #68]	; 0x44
    2a34:	460a      	mov	r2, r1
    2a36:	9212      	str	r2, [sp, #72]	; 0x48
    2a38:	4602      	mov	r2, r0
    2a3a:	9213      	str	r2, [sp, #76]	; 0x4c
    2a3c:	9114      	str	r1, [sp, #80]	; 0x50
    2a3e:	9015      	str	r0, [sp, #84]	; 0x54
    2a40:	e7ff      	b.n	2a42 <USART_SetBaudRate+0xaa>
    2a42:	9812      	ldr	r0, [sp, #72]	; 0x48
    2a44:	9913      	ldr	r1, [sp, #76]	; 0x4c
    2a46:	9a14      	ldr	r2, [sp, #80]	; 0x50
    2a48:	9b15      	ldr	r3, [sp, #84]	; 0x54
    2a4a:	930d      	str	r3, [sp, #52]	; 0x34
    2a4c:	920e      	str	r2, [sp, #56]	; 0x38
    2a4e:	910f      	str	r1, [sp, #60]	; 0x3c
    2a50:	9010      	str	r0, [sp, #64]	; 0x40
    2a52:	2804      	cmp	r0, #4
    2a54:	d364      	bcc.n	2b20 <USART_SetBaudRate+0x188>
    2a56:	e7ff      	b.n	2a58 <USART_SetBaudRate+0xc0>
    2a58:	9810      	ldr	r0, [sp, #64]	; 0x40
    2a5a:	2808      	cmp	r0, #8
    2a5c:	d806      	bhi.n	2a6c <USART_SetBaudRate+0xd4>
    2a5e:	e7ff      	b.n	2a60 <USART_SetBaudRate+0xc8>
    2a60:	980d      	ldr	r0, [sp, #52]	; 0x34
    2a62:	9911      	ldr	r1, [sp, #68]	; 0x44
    2a64:	4288      	cmp	r0, r1
    2a66:	d801      	bhi.n	2a6c <USART_SetBaudRate+0xd4>
    2a68:	e7ff      	b.n	2a6a <USART_SetBaudRate+0xd2>
    2a6a:	e059      	b.n	2b20 <USART_SetBaudRate+0x188>
    2a6c:	9a18      	ldr	r2, [sp, #96]	; 0x60
    2a6e:	9910      	ldr	r1, [sp, #64]	; 0x40
    2a70:	9817      	ldr	r0, [sp, #92]	; 0x5c
    2a72:	eb00 0080 	add.w	r0, r0, r0, lsl #2
    2a76:	0040      	lsls	r0, r0, #1
    2a78:	3101      	adds	r1, #1
    2a7a:	4351      	muls	r1, r2
    2a7c:	fbb0 f0f1 	udiv	r0, r0, r1
    2a80:	3805      	subs	r0, #5
    2a82:	f64c 41cd 	movw	r1, #52429	; 0xcccd
    2a86:	f6cc 41cc 	movt	r1, #52428	; 0xcccc
    2a8a:	fba0 1001 	umull	r1, r0, r0, r1
    2a8e:	08c0      	lsrs	r0, r0, #3
    2a90:	4601      	mov	r1, r0
    2a92:	910c      	str	r1, [sp, #48]	; 0x30
    2a94:	f5b0 3f80 	cmp.w	r0, #65536	; 0x10000
    2a98:	d307      	bcc.n	2aaa <USART_SetBaudRate+0x112>
    2a9a:	e7ff      	b.n	2a9c <USART_SetBaudRate+0x104>
    2a9c:	980d      	ldr	r0, [sp, #52]	; 0x34
    2a9e:	990e      	ldr	r1, [sp, #56]	; 0x38
    2aa0:	9a0f      	ldr	r2, [sp, #60]	; 0x3c
    2aa2:	9209      	str	r2, [sp, #36]	; 0x24
    2aa4:	910a      	str	r1, [sp, #40]	; 0x28
    2aa6:	900b      	str	r0, [sp, #44]	; 0x2c
    2aa8:	e030      	b.n	2b0c <USART_SetBaudRate+0x174>
    2aaa:	9818      	ldr	r0, [sp, #96]	; 0x60
    2aac:	9917      	ldr	r1, [sp, #92]	; 0x5c
    2aae:	9b0c      	ldr	r3, [sp, #48]	; 0x30
    2ab0:	9a10      	ldr	r2, [sp, #64]	; 0x40
    2ab2:	3201      	adds	r2, #1
    2ab4:	3301      	adds	r3, #1
    2ab6:	435a      	muls	r2, r3
    2ab8:	fbb1 f1f2 	udiv	r1, r1, r2
    2abc:	460a      	mov	r2, r1
    2abe:	9208      	str	r2, [sp, #32]
    2ac0:	4288      	cmp	r0, r1
    2ac2:	d205      	bcs.n	2ad0 <USART_SetBaudRate+0x138>
    2ac4:	e7ff      	b.n	2ac6 <USART_SetBaudRate+0x12e>
    2ac6:	9808      	ldr	r0, [sp, #32]
    2ac8:	9918      	ldr	r1, [sp, #96]	; 0x60
    2aca:	1a40      	subs	r0, r0, r1
    2acc:	9007      	str	r0, [sp, #28]
    2ace:	e004      	b.n	2ada <USART_SetBaudRate+0x142>
    2ad0:	9818      	ldr	r0, [sp, #96]	; 0x60
    2ad2:	9908      	ldr	r1, [sp, #32]
    2ad4:	1a40      	subs	r0, r0, r1
    2ad6:	9007      	str	r0, [sp, #28]
    2ad8:	e7ff      	b.n	2ada <USART_SetBaudRate+0x142>
    2ada:	980d      	ldr	r0, [sp, #52]	; 0x34
    2adc:	990e      	ldr	r1, [sp, #56]	; 0x38
    2ade:	9a0f      	ldr	r2, [sp, #60]	; 0x3c
    2ae0:	9b07      	ldr	r3, [sp, #28]
    2ae2:	9303      	str	r3, [sp, #12]
    2ae4:	4283      	cmp	r3, r0
    2ae6:	9204      	str	r2, [sp, #16]
    2ae8:	9105      	str	r1, [sp, #20]
    2aea:	9006      	str	r0, [sp, #24]
    2aec:	d207      	bcs.n	2afe <USART_SetBaudRate+0x166>
    2aee:	e7ff      	b.n	2af0 <USART_SetBaudRate+0x158>
    2af0:	9803      	ldr	r0, [sp, #12]
    2af2:	9910      	ldr	r1, [sp, #64]	; 0x40
    2af4:	9a0c      	ldr	r2, [sp, #48]	; 0x30
    2af6:	9204      	str	r2, [sp, #16]
    2af8:	9105      	str	r1, [sp, #20]
    2afa:	9006      	str	r0, [sp, #24]
    2afc:	e7ff      	b.n	2afe <USART_SetBaudRate+0x166>
    2afe:	9a04      	ldr	r2, [sp, #16]
    2b00:	9905      	ldr	r1, [sp, #20]
    2b02:	9806      	ldr	r0, [sp, #24]
    2b04:	9209      	str	r2, [sp, #36]	; 0x24
    2b06:	910a      	str	r1, [sp, #40]	; 0x28
    2b08:	900b      	str	r0, [sp, #44]	; 0x2c
    2b0a:	e7ff      	b.n	2b0c <USART_SetBaudRate+0x174>
    2b0c:	9b10      	ldr	r3, [sp, #64]	; 0x40
    2b0e:	9a09      	ldr	r2, [sp, #36]	; 0x24
    2b10:	990a      	ldr	r1, [sp, #40]	; 0x28
    2b12:	980b      	ldr	r0, [sp, #44]	; 0x2c
    2b14:	3b01      	subs	r3, #1
    2b16:	9312      	str	r3, [sp, #72]	; 0x48
    2b18:	9213      	str	r2, [sp, #76]	; 0x4c
    2b1a:	9114      	str	r1, [sp, #80]	; 0x50
    2b1c:	9015      	str	r0, [sp, #84]	; 0x54
    2b1e:	e790      	b.n	2a42 <USART_SetBaudRate+0xaa>
    2b20:	9818      	ldr	r0, [sp, #96]	; 0x60
    2b22:	9917      	ldr	r1, [sp, #92]	; 0x5c
    2b24:	9b0f      	ldr	r3, [sp, #60]	; 0x3c
    2b26:	9a0e      	ldr	r2, [sp, #56]	; 0x38
    2b28:	3201      	adds	r2, #1
    2b2a:	3301      	adds	r3, #1
    2b2c:	435a      	muls	r2, r3
    2b2e:	fbb1 f1f2 	udiv	r1, r1, r2
    2b32:	460a      	mov	r2, r1
    2b34:	9202      	str	r2, [sp, #8]
    2b36:	4288      	cmp	r0, r1
    2b38:	d205      	bcs.n	2b46 <USART_SetBaudRate+0x1ae>
    2b3a:	e7ff      	b.n	2b3c <USART_SetBaudRate+0x1a4>
    2b3c:	9802      	ldr	r0, [sp, #8]
    2b3e:	9918      	ldr	r1, [sp, #96]	; 0x60
    2b40:	1a40      	subs	r0, r0, r1
    2b42:	9001      	str	r0, [sp, #4]
    2b44:	e004      	b.n	2b50 <USART_SetBaudRate+0x1b8>
    2b46:	9818      	ldr	r0, [sp, #96]	; 0x60
    2b48:	9902      	ldr	r1, [sp, #8]
    2b4a:	1a40      	subs	r0, r0, r1
    2b4c:	9001      	str	r0, [sp, #4]
    2b4e:	e7ff      	b.n	2b50 <USART_SetBaudRate+0x1b8>
    2b50:	9911      	ldr	r1, [sp, #68]	; 0x44
    2b52:	9801      	ldr	r0, [sp, #4]
    2b54:	4288      	cmp	r0, r1
    2b56:	d904      	bls.n	2b62 <USART_SetBaudRate+0x1ca>
    2b58:	e7ff      	b.n	2b5a <USART_SetBaudRate+0x1c2>
    2b5a:	f241 6051 	movw	r0, #5713	; 0x1651
    2b5e:	9016      	str	r0, [sp, #88]	; 0x58
    2b60:	e011      	b.n	2b86 <USART_SetBaudRate+0x1ee>
    2b62:	980f      	ldr	r0, [sp, #60]	; 0x3c
    2b64:	f5b0 3f80 	cmp.w	r0, #65536	; 0x10000
    2b68:	d304      	bcc.n	2b74 <USART_SetBaudRate+0x1dc>
    2b6a:	e7ff      	b.n	2b6c <USART_SetBaudRate+0x1d4>
    2b6c:	f241 6051 	movw	r0, #5713	; 0x1651
    2b70:	9016      	str	r0, [sp, #88]	; 0x58
    2b72:	e008      	b.n	2b86 <USART_SetBaudRate+0x1ee>
    2b74:	980f      	ldr	r0, [sp, #60]	; 0x3c
    2b76:	9919      	ldr	r1, [sp, #100]	; 0x64
    2b78:	9a0e      	ldr	r2, [sp, #56]	; 0x38
    2b7a:	628a      	str	r2, [r1, #40]	; 0x28
    2b7c:	6208      	str	r0, [r1, #32]
    2b7e:	e7ff      	b.n	2b80 <USART_SetBaudRate+0x1e8>
    2b80:	2000      	movs	r0, #0
    2b82:	9016      	str	r0, [sp, #88]	; 0x58
    2b84:	e7ff      	b.n	2b86 <USART_SetBaudRate+0x1ee>
    2b86:	9816      	ldr	r0, [sp, #88]	; 0x58
    2b88:	b01a      	add	sp, #104	; 0x68
    2b8a:	bd80      	pop	{r7, pc}

00002b8c <USART_EnableContinuousSCLK>:
    2b8c:	b081      	sub	sp, #4
    2b8e:	9000      	str	r0, [sp, #0]
    2b90:	b131      	cbz	r1, 2ba0 <USART_EnableContinuousSCLK+0x14>
    2b92:	e7ff      	b.n	2b94 <USART_EnableContinuousSCLK+0x8>
    2b94:	9900      	ldr	r1, [sp, #0]
    2b96:	6848      	ldr	r0, [r1, #4]
    2b98:	f440 7080 	orr.w	r0, r0, #256	; 0x100
    2b9c:	6048      	str	r0, [r1, #4]
    2b9e:	e005      	b.n	2bac <USART_EnableContinuousSCLK+0x20>
    2ba0:	9900      	ldr	r1, [sp, #0]
    2ba2:	6848      	ldr	r0, [r1, #4]
    2ba4:	f420 7080 	bic.w	r0, r0, #256	; 0x100
    2ba8:	6048      	str	r0, [r1, #4]
    2baa:	e7ff      	b.n	2bac <USART_EnableContinuousSCLK+0x20>
    2bac:	b001      	add	sp, #4
    2bae:	4770      	bx	lr

00002bb0 <USART_GetDefaultConfig>:
    2bb0:	b580      	push	{r7, lr}
    2bb2:	466f      	mov	r7, sp
    2bb4:	b082      	sub	sp, #8
    2bb6:	9001      	str	r0, [sp, #4]
    2bb8:	b108      	cbz	r0, 2bbe <USART_GetDefaultConfig+0xe>
    2bba:	e7ff      	b.n	2bbc <USART_GetDefaultConfig+0xc>
    2bbc:	e00f      	b.n	2bde <USART_GetDefaultConfig+0x2e>
    2bbe:	f648 2084 	movw	r0, #35460	; 0x8a84
    2bc2:	f2c0 0000 	movt	r0, #0
    2bc6:	f648 32b7 	movw	r2, #35767	; 0x8bb7
    2bca:	f2c0 0200 	movt	r2, #0
    2bce:	f648 33ce 	movw	r3, #35790	; 0x8bce
    2bd2:	f2c0 0300 	movt	r3, #0
    2bd6:	f44f 719b 	mov.w	r1, #310	; 0x136
    2bda:	f002 f9b2 	bl	4f42 <__assert_func>
    2bde:	9801      	ldr	r0, [sp, #4]
    2be0:	2100      	movs	r1, #0
    2be2:	9100      	str	r1, [sp, #0]
    2be4:	2214      	movs	r2, #20
    2be6:	f005 fc79 	bl	84dc <memset>
    2bea:	9901      	ldr	r1, [sp, #4]
    2bec:	9800      	ldr	r0, [sp, #0]
    2bee:	f44f 32e1 	mov.w	r2, #115200	; 0x1c200
    2bf2:	600a      	str	r2, [r1, #0]
    2bf4:	7108      	strb	r0, [r1, #4]
    2bf6:	7148      	strb	r0, [r1, #5]
    2bf8:	2201      	movs	r2, #1
    2bfa:	718a      	strb	r2, [r1, #6]
    2bfc:	71c8      	strb	r0, [r1, #7]
    2bfe:	7208      	strb	r0, [r1, #8]
    2c00:	7248      	strb	r0, [r1, #9]
    2c02:	72c8      	strb	r0, [r1, #11]
    2c04:	7348      	strb	r0, [r1, #13]
    2c06:	7388      	strb	r0, [r1, #14]
    2c08:	73c8      	strb	r0, [r1, #15]
    2c0a:	7288      	strb	r0, [r1, #10]
    2c0c:	7408      	strb	r0, [r1, #16]
    2c0e:	7308      	strb	r0, [r1, #12]
    2c10:	b002      	add	sp, #8
    2c12:	bd80      	pop	{r7, pc}

00002c14 <USART_WriteBlocking>:
    2c14:	b580      	push	{r7, lr}
    2c16:	466f      	mov	r7, sp
    2c18:	b08a      	sub	sp, #40	; 0x28
    2c1a:	9207      	str	r2, [sp, #28]
    2c1c:	9108      	str	r1, [sp, #32]
    2c1e:	9009      	str	r0, [sp, #36]	; 0x24
    2c20:	b120      	cbz	r0, 2c2c <USART_WriteBlocking+0x18>
    2c22:	e7ff      	b.n	2c24 <USART_WriteBlocking+0x10>
    2c24:	9808      	ldr	r0, [sp, #32]
    2c26:	b108      	cbz	r0, 2c2c <USART_WriteBlocking+0x18>
    2c28:	e7ff      	b.n	2c2a <USART_WriteBlocking+0x16>
    2c2a:	e00f      	b.n	2c4c <USART_WriteBlocking+0x38>
    2c2c:	f648 2084 	movw	r0, #35460	; 0x8a84
    2c30:	f2c0 0000 	movt	r0, #0
    2c34:	f648 4264 	movw	r2, #35940	; 0x8c64
    2c38:	f2c0 0200 	movt	r2, #0
    2c3c:	f648 4378 	movw	r3, #35960	; 0x8c78
    2c40:	f2c0 0300 	movt	r3, #0
    2c44:	f240 215b 	movw	r1, #603	; 0x25b
    2c48:	f002 f97b 	bl	4f42 <__assert_func>
    2c4c:	9809      	ldr	r0, [sp, #36]	; 0x24
    2c4e:	b118      	cbz	r0, 2c58 <USART_WriteBlocking+0x44>
    2c50:	e7ff      	b.n	2c52 <USART_WriteBlocking+0x3e>
    2c52:	9808      	ldr	r0, [sp, #32]
    2c54:	b918      	cbnz	r0, 2c5e <USART_WriteBlocking+0x4a>
    2c56:	e7ff      	b.n	2c58 <USART_WriteBlocking+0x44>
    2c58:	2004      	movs	r0, #4
    2c5a:	9006      	str	r0, [sp, #24]
    2c5c:	e035      	b.n	2cca <USART_WriteBlocking+0xb6>
    2c5e:	9809      	ldr	r0, [sp, #36]	; 0x24
    2c60:	f8d0 0e00 	ldr.w	r0, [r0, #3584]	; 0xe00
    2c64:	07c0      	lsls	r0, r0, #31
    2c66:	b918      	cbnz	r0, 2c70 <USART_WriteBlocking+0x5c>
    2c68:	e7ff      	b.n	2c6a <USART_WriteBlocking+0x56>
    2c6a:	2004      	movs	r0, #4
    2c6c:	9006      	str	r0, [sp, #24]
    2c6e:	e02c      	b.n	2cca <USART_WriteBlocking+0xb6>
    2c70:	9807      	ldr	r0, [sp, #28]
    2c72:	9908      	ldr	r1, [sp, #32]
    2c74:	9104      	str	r1, [sp, #16]
    2c76:	9005      	str	r0, [sp, #20]
    2c78:	e7ff      	b.n	2c7a <USART_WriteBlocking+0x66>
    2c7a:	9904      	ldr	r1, [sp, #16]
    2c7c:	9805      	ldr	r0, [sp, #20]
    2c7e:	9002      	str	r0, [sp, #8]
    2c80:	9103      	str	r1, [sp, #12]
    2c82:	b1b8      	cbz	r0, 2cb4 <USART_WriteBlocking+0xa0>
    2c84:	e7ff      	b.n	2c86 <USART_WriteBlocking+0x72>
    2c86:	e7ff      	b.n	2c88 <USART_WriteBlocking+0x74>
    2c88:	9809      	ldr	r0, [sp, #36]	; 0x24
    2c8a:	f8d0 0e04 	ldr.w	r0, [r0, #3588]	; 0xe04
    2c8e:	0680      	lsls	r0, r0, #26
    2c90:	2800      	cmp	r0, #0
    2c92:	d401      	bmi.n	2c98 <USART_WriteBlocking+0x84>
    2c94:	e7ff      	b.n	2c96 <USART_WriteBlocking+0x82>
    2c96:	e7f7      	b.n	2c88 <USART_WriteBlocking+0x74>
    2c98:	9909      	ldr	r1, [sp, #36]	; 0x24
    2c9a:	9a03      	ldr	r2, [sp, #12]
    2c9c:	f812 0b01 	ldrb.w	r0, [r2], #1
    2ca0:	9201      	str	r2, [sp, #4]
    2ca2:	f8c1 0e20 	str.w	r0, [r1, #3616]	; 0xe20
    2ca6:	e7ff      	b.n	2ca8 <USART_WriteBlocking+0x94>
    2ca8:	9901      	ldr	r1, [sp, #4]
    2caa:	9802      	ldr	r0, [sp, #8]
    2cac:	3801      	subs	r0, #1
    2cae:	9104      	str	r1, [sp, #16]
    2cb0:	9005      	str	r0, [sp, #20]
    2cb2:	e7e2      	b.n	2c7a <USART_WriteBlocking+0x66>
    2cb4:	e7ff      	b.n	2cb6 <USART_WriteBlocking+0xa2>
    2cb6:	9809      	ldr	r0, [sp, #36]	; 0x24
    2cb8:	6880      	ldr	r0, [r0, #8]
    2cba:	0700      	lsls	r0, r0, #28
    2cbc:	2800      	cmp	r0, #0
    2cbe:	d401      	bmi.n	2cc4 <USART_WriteBlocking+0xb0>
    2cc0:	e7ff      	b.n	2cc2 <USART_WriteBlocking+0xae>
    2cc2:	e7f8      	b.n	2cb6 <USART_WriteBlocking+0xa2>
    2cc4:	2000      	movs	r0, #0
    2cc6:	9006      	str	r0, [sp, #24]
    2cc8:	e7ff      	b.n	2cca <USART_WriteBlocking+0xb6>
    2cca:	9806      	ldr	r0, [sp, #24]
    2ccc:	b00a      	add	sp, #40	; 0x28
    2cce:	bd80      	pop	{r7, pc}

00002cd0 <I2C_MasterInit>:
    2cd0:	b580      	push	{r7, lr}
    2cd2:	466f      	mov	r7, sp
    2cd4:	b084      	sub	sp, #16
    2cd6:	9202      	str	r2, [sp, #8]
    2cd8:	9103      	str	r1, [sp, #12]
    2cda:	9001      	str	r0, [sp, #4]
    2cdc:	2103      	movs	r1, #3
    2cde:	f7ff fad7 	bl	2290 <FLEXCOMM_Init>
    2ce2:	9903      	ldr	r1, [sp, #12]
    2ce4:	9801      	ldr	r0, [sp, #4]
    2ce6:	7809      	ldrb	r1, [r1, #0]
    2ce8:	f001 0101 	and.w	r1, r1, #1
    2cec:	f000 f823 	bl	2d36 <I2C_MasterEnable>
    2cf0:	9801      	ldr	r0, [sp, #4]
    2cf2:	9a02      	ldr	r2, [sp, #8]
    2cf4:	9903      	ldr	r1, [sp, #12]
    2cf6:	6849      	ldr	r1, [r1, #4]
    2cf8:	f000 f835 	bl	2d66 <I2C_MasterSetBaudRate>
    2cfc:	9903      	ldr	r1, [sp, #12]
    2cfe:	7a08      	ldrb	r0, [r1, #8]
    2d00:	07c0      	lsls	r0, r0, #31
    2d02:	b140      	cbz	r0, 2d16 <I2C_MasterInit+0x46>
    2d04:	e7ff      	b.n	2d06 <I2C_MasterInit+0x36>
    2d06:	9901      	ldr	r1, [sp, #4]
    2d08:	f8d1 0800 	ldr.w	r0, [r1, #2048]	; 0x800
    2d0c:	f040 0008 	orr.w	r0, r0, #8
    2d10:	f8c1 0800 	str.w	r0, [r1, #2048]	; 0x800
    2d14:	e007      	b.n	2d26 <I2C_MasterInit+0x56>
    2d16:	9901      	ldr	r1, [sp, #4]
    2d18:	f8d1 0800 	ldr.w	r0, [r1, #2048]	; 0x800
    2d1c:	f020 0008 	bic.w	r0, r0, #8
    2d20:	f8c1 0800 	str.w	r0, [r1, #2048]	; 0x800
    2d24:	e7ff      	b.n	2d26 <I2C_MasterInit+0x56>
    2d26:	9a02      	ldr	r2, [sp, #8]
    2d28:	9801      	ldr	r0, [sp, #4]
    2d2a:	9903      	ldr	r1, [sp, #12]
    2d2c:	7a49      	ldrb	r1, [r1, #9]
    2d2e:	f000 f8e0 	bl	2ef2 <I2C_MasterSetTimeoutValue>
    2d32:	b004      	add	sp, #16
    2d34:	bd80      	pop	{r7, pc}

00002d36 <I2C_MasterEnable>:
    2d36:	b081      	sub	sp, #4
    2d38:	9000      	str	r0, [sp, #0]
    2d3a:	b151      	cbz	r1, 2d52 <I2C_MasterEnable+0x1c>
    2d3c:	e7ff      	b.n	2d3e <I2C_MasterEnable+0x8>
    2d3e:	9900      	ldr	r1, [sp, #0]
    2d40:	f8d1 0800 	ldr.w	r0, [r1, #2048]	; 0x800
    2d44:	f040 0001 	orr.w	r0, r0, #1
    2d48:	f000 001f 	and.w	r0, r0, #31
    2d4c:	f8c1 0800 	str.w	r0, [r1, #2048]	; 0x800
    2d50:	e007      	b.n	2d62 <I2C_MasterEnable+0x2c>
    2d52:	9900      	ldr	r1, [sp, #0]
    2d54:	f8d1 0800 	ldr.w	r0, [r1, #2048]	; 0x800
    2d58:	f000 001e 	and.w	r0, r0, #30
    2d5c:	f8c1 0800 	str.w	r0, [r1, #2048]	; 0x800
    2d60:	e7ff      	b.n	2d62 <I2C_MasterEnable+0x2c>
    2d62:	b001      	add	sp, #4
    2d64:	4770      	bx	lr

00002d66 <I2C_MasterSetBaudRate>:
    2d66:	b099      	sub	sp, #100	; 0x64
    2d68:	9215      	str	r2, [sp, #84]	; 0x54
    2d6a:	460a      	mov	r2, r1
    2d6c:	9915      	ldr	r1, [sp, #84]	; 0x54
    2d6e:	9216      	str	r2, [sp, #88]	; 0x58
    2d70:	9017      	str	r0, [sp, #92]	; 0x5c
    2d72:	eb01 0081 	add.w	r0, r1, r1, lsl #2
    2d76:	0040      	lsls	r0, r0, #1
    2d78:	f64d 6383 	movw	r3, #56963	; 0xde83
    2d7c:	f2c4 331b 	movt	r3, #17179	; 0x431b
    2d80:	fba0 0303 	umull	r0, r3, r0, r3
    2d84:	2005      	movs	r0, #5
    2d86:	eb00 40d3 	add.w	r0, r0, r3, lsr #19
    2d8a:	f64c 43cd 	movw	r3, #52429	; 0xcccd
    2d8e:	f6cc 43cc 	movt	r3, #52428	; 0xcccc
    2d92:	fba0 3003 	umull	r3, r0, r0, r3
    2d96:	08c3      	lsrs	r3, r0, #3
    2d98:	4618      	mov	r0, r3
    2d9a:	fbb1 f1f3 	udiv	r1, r1, r3
    2d9e:	fbb1 f1f2 	udiv	r1, r1, r2
    2da2:	2903      	cmp	r1, #3
    2da4:	9018      	str	r0, [sp, #96]	; 0x60
    2da6:	d807      	bhi.n	2db8 <I2C_MasterSetBaudRate+0x52>
    2da8:	e7ff      	b.n	2daa <I2C_MasterSetBaudRate+0x44>
    2daa:	9916      	ldr	r1, [sp, #88]	; 0x58
    2dac:	9815      	ldr	r0, [sp, #84]	; 0x54
    2dae:	0880      	lsrs	r0, r0, #2
    2db0:	fbb0 f0f1 	udiv	r0, r0, r1
    2db4:	9018      	str	r0, [sp, #96]	; 0x60
    2db6:	e7ff      	b.n	2db8 <I2C_MasterSetBaudRate+0x52>
    2db8:	9918      	ldr	r1, [sp, #96]	; 0x60
    2dba:	2000      	movs	r0, #0
    2dbc:	9111      	str	r1, [sp, #68]	; 0x44
    2dbe:	4601      	mov	r1, r0
    2dc0:	9112      	str	r1, [sp, #72]	; 0x48
    2dc2:	4601      	mov	r1, r0
    2dc4:	9113      	str	r1, [sp, #76]	; 0x4c
    2dc6:	9014      	str	r0, [sp, #80]	; 0x50
    2dc8:	e7ff      	b.n	2dca <I2C_MasterSetBaudRate+0x64>
    2dca:	9a11      	ldr	r2, [sp, #68]	; 0x44
    2dcc:	9b12      	ldr	r3, [sp, #72]	; 0x48
    2dce:	9913      	ldr	r1, [sp, #76]	; 0x4c
    2dd0:	9814      	ldr	r0, [sp, #80]	; 0x50
    2dd2:	900b      	str	r0, [sp, #44]	; 0x2c
    2dd4:	910c      	str	r1, [sp, #48]	; 0x30
    2dd6:	930d      	str	r3, [sp, #52]	; 0x34
    2dd8:	920e      	str	r2, [sp, #56]	; 0x38
    2dda:	f5b2 3f80 	cmp.w	r2, #65536	; 0x10000
    2dde:	910f      	str	r1, [sp, #60]	; 0x3c
    2de0:	9010      	str	r0, [sp, #64]	; 0x40
    2de2:	d859      	bhi.n	2e98 <I2C_MasterSetBaudRate+0x132>
    2de4:	e7ff      	b.n	2de6 <I2C_MasterSetBaudRate+0x80>
    2de6:	990e      	ldr	r1, [sp, #56]	; 0x38
    2de8:	9a16      	ldr	r2, [sp, #88]	; 0x58
    2dea:	9815      	ldr	r0, [sp, #84]	; 0x54
    2dec:	eb00 0080 	add.w	r0, r0, r0, lsl #2
    2df0:	0040      	lsls	r0, r0, #1
    2df2:	4351      	muls	r1, r2
    2df4:	fbb0 f0f1 	udiv	r0, r0, r1
    2df8:	3005      	adds	r0, #5
    2dfa:	f64c 41cd 	movw	r1, #52429	; 0xcccd
    2dfe:	f6cc 41cc 	movt	r1, #52428	; 0xcccc
    2e02:	fba0 1001 	umull	r1, r0, r0, r1
    2e06:	08c0      	lsrs	r0, r0, #3
    2e08:	4601      	mov	r1, r0
    2e0a:	910a      	str	r1, [sp, #40]	; 0x28
    2e0c:	2813      	cmp	r0, #19
    2e0e:	d303      	bcc.n	2e18 <I2C_MasterSetBaudRate+0xb2>
    2e10:	e7ff      	b.n	2e12 <I2C_MasterSetBaudRate+0xac>
    2e12:	2012      	movs	r0, #18
    2e14:	9009      	str	r0, [sp, #36]	; 0x24
    2e16:	e002      	b.n	2e1e <I2C_MasterSetBaudRate+0xb8>
    2e18:	980a      	ldr	r0, [sp, #40]	; 0x28
    2e1a:	9009      	str	r0, [sp, #36]	; 0x24
    2e1c:	e7ff      	b.n	2e1e <I2C_MasterSetBaudRate+0xb8>
    2e1e:	990d      	ldr	r1, [sp, #52]	; 0x34
    2e20:	9a0e      	ldr	r2, [sp, #56]	; 0x38
    2e22:	9b15      	ldr	r3, [sp, #84]	; 0x54
    2e24:	9816      	ldr	r0, [sp, #88]	; 0x58
    2e26:	f8dd c024 	ldr.w	ip, [sp, #36]	; 0x24
    2e2a:	f8cd c01c 	str.w	ip, [sp, #28]
    2e2e:	fb00 f00c 	mul.w	r0, r0, ip
    2e32:	fb00 3012 	mls	r0, r0, r2, r3
    2e36:	4602      	mov	r2, r0
    2e38:	9208      	str	r2, [sp, #32]
    2e3a:	4288      	cmp	r0, r1
    2e3c:	d308      	bcc.n	2e50 <I2C_MasterSetBaudRate+0xea>
    2e3e:	e7ff      	b.n	2e40 <I2C_MasterSetBaudRate+0xda>
    2e40:	980b      	ldr	r0, [sp, #44]	; 0x2c
    2e42:	990c      	ldr	r1, [sp, #48]	; 0x30
    2e44:	9a0d      	ldr	r2, [sp, #52]	; 0x34
    2e46:	9204      	str	r2, [sp, #16]
    2e48:	9105      	str	r1, [sp, #20]
    2e4a:	9006      	str	r0, [sp, #24]
    2e4c:	b93a      	cbnz	r2, 2e5e <I2C_MasterSetBaudRate+0xf8>
    2e4e:	e7ff      	b.n	2e50 <I2C_MasterSetBaudRate+0xea>
    2e50:	980e      	ldr	r0, [sp, #56]	; 0x38
    2e52:	9907      	ldr	r1, [sp, #28]
    2e54:	9a08      	ldr	r2, [sp, #32]
    2e56:	9204      	str	r2, [sp, #16]
    2e58:	9105      	str	r1, [sp, #20]
    2e5a:	9006      	str	r0, [sp, #24]
    2e5c:	e7ff      	b.n	2e5e <I2C_MasterSetBaudRate+0xf8>
    2e5e:	9808      	ldr	r0, [sp, #32]
    2e60:	9904      	ldr	r1, [sp, #16]
    2e62:	9a05      	ldr	r2, [sp, #20]
    2e64:	9b06      	ldr	r3, [sp, #24]
    2e66:	9301      	str	r3, [sp, #4]
    2e68:	9202      	str	r2, [sp, #8]
    2e6a:	9103      	str	r1, [sp, #12]
    2e6c:	b120      	cbz	r0, 2e78 <I2C_MasterSetBaudRate+0x112>
    2e6e:	e7ff      	b.n	2e70 <I2C_MasterSetBaudRate+0x10a>
    2e70:	9807      	ldr	r0, [sp, #28]
    2e72:	2804      	cmp	r0, #4
    2e74:	d805      	bhi.n	2e82 <I2C_MasterSetBaudRate+0x11c>
    2e76:	e7ff      	b.n	2e78 <I2C_MasterSetBaudRate+0x112>
    2e78:	9801      	ldr	r0, [sp, #4]
    2e7a:	9902      	ldr	r1, [sp, #8]
    2e7c:	910f      	str	r1, [sp, #60]	; 0x3c
    2e7e:	9010      	str	r0, [sp, #64]	; 0x40
    2e80:	e00a      	b.n	2e98 <I2C_MasterSetBaudRate+0x132>
    2e82:	e7ff      	b.n	2e84 <I2C_MasterSetBaudRate+0x11e>
    2e84:	9801      	ldr	r0, [sp, #4]
    2e86:	9902      	ldr	r1, [sp, #8]
    2e88:	9a03      	ldr	r2, [sp, #12]
    2e8a:	9b0e      	ldr	r3, [sp, #56]	; 0x38
    2e8c:	3301      	adds	r3, #1
    2e8e:	9311      	str	r3, [sp, #68]	; 0x44
    2e90:	9212      	str	r2, [sp, #72]	; 0x48
    2e92:	9113      	str	r1, [sp, #76]	; 0x4c
    2e94:	9014      	str	r0, [sp, #80]	; 0x50
    2e96:	e798      	b.n	2dca <I2C_MasterSetBaudRate+0x64>
    2e98:	9a17      	ldr	r2, [sp, #92]	; 0x5c
    2e9a:	980f      	ldr	r0, [sp, #60]	; 0x3c
    2e9c:	9910      	ldr	r1, [sp, #64]	; 0x40
    2e9e:	9000      	str	r0, [sp, #0]
    2ea0:	3901      	subs	r1, #1
    2ea2:	b289      	uxth	r1, r1
    2ea4:	f8c2 1814 	str.w	r1, [r2, #2068]	; 0x814
    2ea8:	07c0      	lsls	r0, r0, #31
    2eaa:	b968      	cbnz	r0, 2ec8 <I2C_MasterSetBaudRate+0x162>
    2eac:	e7ff      	b.n	2eae <I2C_MasterSetBaudRate+0x148>
    2eae:	9917      	ldr	r1, [sp, #92]	; 0x5c
    2eb0:	9a00      	ldr	r2, [sp, #0]
    2eb2:	f06f 0001 	mvn.w	r0, #1
    2eb6:	eb00 0052 	add.w	r0, r0, r2, lsr #1
    2eba:	f000 0007 	and.w	r0, r0, #7
    2ebe:	ea40 1000 	orr.w	r0, r0, r0, lsl #4
    2ec2:	f8c1 0824 	str.w	r0, [r1, #2084]	; 0x824
    2ec6:	e012      	b.n	2eee <I2C_MasterSetBaudRate+0x188>
    2ec8:	9917      	ldr	r1, [sp, #92]	; 0x5c
    2eca:	9a00      	ldr	r2, [sp, #0]
    2ecc:	0853      	lsrs	r3, r2, #1
    2ece:	f04f 30ff 	mov.w	r0, #4294967295	; 0xffffffff
    2ed2:	eb00 0052 	add.w	r0, r0, r2, lsr #1
    2ed6:	f000 0007 	and.w	r0, r0, #7
    2eda:	f06f 021f 	mvn.w	r2, #31
    2ede:	eb02 1203 	add.w	r2, r2, r3, lsl #4
    2ee2:	f002 0270 	and.w	r2, r2, #112	; 0x70
    2ee6:	4410      	add	r0, r2
    2ee8:	f8c1 0824 	str.w	r0, [r1, #2084]	; 0x824
    2eec:	e7ff      	b.n	2eee <I2C_MasterSetBaudRate+0x188>
    2eee:	b019      	add	sp, #100	; 0x64
    2ef0:	4770      	bx	lr

00002ef2 <I2C_MasterSetTimeoutValue>:
    2ef2:	b580      	push	{r7, lr}
    2ef4:	466f      	mov	r7, sp
    2ef6:	b084      	sub	sp, #16
    2ef8:	9201      	str	r2, [sp, #4]
    2efa:	9002      	str	r0, [sp, #8]
    2efc:	4608      	mov	r0, r1
    2efe:	9003      	str	r0, [sp, #12]
    2f00:	b121      	cbz	r1, 2f0c <I2C_MasterSetTimeoutValue+0x1a>
    2f02:	e7ff      	b.n	2f04 <I2C_MasterSetTimeoutValue+0x12>
    2f04:	9801      	ldr	r0, [sp, #4]
    2f06:	b108      	cbz	r0, 2f0c <I2C_MasterSetTimeoutValue+0x1a>
    2f08:	e7ff      	b.n	2f0a <I2C_MasterSetTimeoutValue+0x18>
    2f0a:	e00f      	b.n	2f2c <I2C_MasterSetTimeoutValue+0x3a>
    2f0c:	f648 60a5 	movw	r0, #36517	; 0x8ea5
    2f10:	f2c0 0000 	movt	r0, #0
    2f14:	f648 62ef 	movw	r2, #36591	; 0x8eef
    2f18:	f2c0 0200 	movt	r2, #0
    2f1c:	f648 7309 	movw	r3, #36617	; 0x8f09
    2f20:	f2c0 0300 	movt	r3, #0
    2f24:	f240 1199 	movw	r1, #409	; 0x199
    2f28:	f002 f80b 	bl	4f42 <__assert_func>
    2f2c:	9901      	ldr	r1, [sp, #4]
    2f2e:	9803      	ldr	r0, [sp, #12]
    2f30:	9a02      	ldr	r2, [sp, #8]
    2f32:	f8d2 3814 	ldr.w	r3, [r2, #2068]	; 0x814
    2f36:	b2c0      	uxtb	r0, r0
    2f38:	2201      	movs	r2, #1
    2f3a:	fa12 f283 	uxtah	r2, r2, r3
    2f3e:	fbb1 f1f2 	udiv	r1, r1, r2
    2f42:	4348      	muls	r0, r1
    2f44:	0900      	lsrs	r0, r0, #4
    2f46:	f248 511f 	movw	r1, #34079	; 0x851f
    2f4a:	f2c5 11eb 	movt	r1, #20971	; 0x51eb
    2f4e:	fba0 0101 	umull	r0, r1, r0, r1
    2f52:	2005      	movs	r0, #5
    2f54:	eb00 1051 	add.w	r0, r0, r1, lsr #5
    2f58:	f64c 41cd 	movw	r1, #52429	; 0xcccd
    2f5c:	f6cc 41cc 	movt	r1, #52428	; 0xcccc
    2f60:	fba0 1001 	umull	r1, r0, r0, r1
    2f64:	08c1      	lsrs	r1, r0, #3
    2f66:	4608      	mov	r0, r1
    2f68:	f5b1 5f80 	cmp.w	r1, #4096	; 0x1000
    2f6c:	9000      	str	r0, [sp, #0]
    2f6e:	d904      	bls.n	2f7a <I2C_MasterSetTimeoutValue+0x88>
    2f70:	e7ff      	b.n	2f72 <I2C_MasterSetTimeoutValue+0x80>
    2f72:	f44f 5080 	mov.w	r0, #4096	; 0x1000
    2f76:	9000      	str	r0, [sp, #0]
    2f78:	e7ff      	b.n	2f7a <I2C_MasterSetTimeoutValue+0x88>
    2f7a:	9902      	ldr	r1, [sp, #8]
    2f7c:	9a00      	ldr	r2, [sp, #0]
    2f7e:	f04f 30ff 	mov.w	r0, #4294967295	; 0xffffffff
    2f82:	eb00 1002 	add.w	r0, r0, r2, lsl #4
    2f86:	f8c1 0810 	str.w	r0, [r1, #2064]	; 0x810
    2f8a:	b004      	add	sp, #16
    2f8c:	bd80      	pop	{r7, pc}

00002f8e <I2C_GetStatusFlags>:
    2f8e:	b08a      	sub	sp, #40	; 0x28
    2f90:	f8d0 0804 	ldr.w	r0, [r0, #2052]	; 0x804
    2f94:	9008      	str	r0, [sp, #32]
    2f96:	f010 0f0e 	tst.w	r0, #14
    2f9a:	9009      	str	r0, [sp, #36]	; 0x24
    2f9c:	d105      	bne.n	2faa <I2C_GetStatusFlags+0x1c>
    2f9e:	e7ff      	b.n	2fa0 <I2C_GetStatusFlags+0x12>
    2fa0:	9808      	ldr	r0, [sp, #32]
    2fa2:	f040 0020 	orr.w	r0, r0, #32
    2fa6:	9009      	str	r0, [sp, #36]	; 0x24
    2fa8:	e7ff      	b.n	2faa <I2C_GetStatusFlags+0x1c>
    2faa:	9809      	ldr	r0, [sp, #36]	; 0x24
    2fac:	9006      	str	r0, [sp, #24]
    2fae:	f000 020e 	and.w	r2, r0, #14
    2fb2:	2103      	movs	r1, #3
    2fb4:	ebb1 0f52 	cmp.w	r1, r2, lsr #1
    2fb8:	9007      	str	r0, [sp, #28]
    2fba:	d107      	bne.n	2fcc <I2C_GetStatusFlags+0x3e>
    2fbc:	e7ff      	b.n	2fbe <I2C_GetStatusFlags+0x30>
    2fbe:	9806      	ldr	r0, [sp, #24]
    2fc0:	f040 0080 	orr.w	r0, r0, #128	; 0x80
    2fc4:	f020 000e 	bic.w	r0, r0, #14
    2fc8:	9007      	str	r0, [sp, #28]
    2fca:	e7ff      	b.n	2fcc <I2C_GetStatusFlags+0x3e>
    2fcc:	9807      	ldr	r0, [sp, #28]
    2fce:	9004      	str	r0, [sp, #16]
    2fd0:	f410 6fc0 	tst.w	r0, #1536	; 0x600
    2fd4:	9005      	str	r0, [sp, #20]
    2fd6:	d105      	bne.n	2fe4 <I2C_GetStatusFlags+0x56>
    2fd8:	e7ff      	b.n	2fda <I2C_GetStatusFlags+0x4c>
    2fda:	9804      	ldr	r0, [sp, #16]
    2fdc:	f440 0080 	orr.w	r0, r0, #4194304	; 0x400000
    2fe0:	9005      	str	r0, [sp, #20]
    2fe2:	e7ff      	b.n	2fe4 <I2C_GetStatusFlags+0x56>
    2fe4:	9805      	ldr	r0, [sp, #20]
    2fe6:	9002      	str	r0, [sp, #8]
    2fe8:	f410 5f40 	tst.w	r0, #12288	; 0x3000
    2fec:	9003      	str	r0, [sp, #12]
    2fee:	d105      	bne.n	2ffc <I2C_GetStatusFlags+0x6e>
    2ff0:	e7ff      	b.n	2ff2 <I2C_GetStatusFlags+0x64>
    2ff2:	9802      	ldr	r0, [sp, #8]
    2ff4:	f440 1080 	orr.w	r0, r0, #1048576	; 0x100000
    2ff8:	9003      	str	r0, [sp, #12]
    2ffa:	e7ff      	b.n	2ffc <I2C_GetStatusFlags+0x6e>
    2ffc:	9803      	ldr	r0, [sp, #12]
    2ffe:	9000      	str	r0, [sp, #0]
    3000:	f400 5240 	and.w	r2, r0, #12288	; 0x3000
    3004:	2103      	movs	r1, #3
    3006:	ebb1 3f12 	cmp.w	r1, r2, lsr #12
    300a:	9001      	str	r0, [sp, #4]
    300c:	d107      	bne.n	301e <I2C_GetStatusFlags+0x90>
    300e:	e7ff      	b.n	3010 <I2C_GetStatusFlags+0x82>
    3010:	9800      	ldr	r0, [sp, #0]
    3012:	f440 1000 	orr.w	r0, r0, #2097152	; 0x200000
    3016:	f420 5040 	bic.w	r0, r0, #12288	; 0x3000
    301a:	9001      	str	r0, [sp, #4]
    301c:	e7ff      	b.n	301e <I2C_GetStatusFlags+0x90>
    301e:	9801      	ldr	r0, [sp, #4]
    3020:	b00a      	add	sp, #40	; 0x28
    3022:	4770      	bx	lr

00003024 <I2C_MasterStart>:
    3024:	b580      	push	{r7, lr}
    3026:	466f      	mov	r7, sp
    3028:	b086      	sub	sp, #24
    302a:	9002      	str	r0, [sp, #8]
    302c:	9203      	str	r2, [sp, #12]
    302e:	9104      	str	r1, [sp, #16]
    3030:	f000 f81a 	bl	3068 <I2C_PendingStatusWait>
    3034:	4601      	mov	r1, r0
    3036:	9105      	str	r1, [sp, #20]
    3038:	b118      	cbz	r0, 3042 <I2C_MasterStart+0x1e>
    303a:	e7ff      	b.n	303c <I2C_MasterStart+0x18>
    303c:	9805      	ldr	r0, [sp, #20]
    303e:	9001      	str	r0, [sp, #4]
    3040:	e00f      	b.n	3062 <I2C_MasterStart+0x3e>
    3042:	9902      	ldr	r1, [sp, #8]
    3044:	9803      	ldr	r0, [sp, #12]
    3046:	9a04      	ldr	r2, [sp, #16]
    3048:	b2d2      	uxtb	r2, r2
    304a:	f000 0001 	and.w	r0, r0, #1
    304e:	ea40 0042 	orr.w	r0, r0, r2, lsl #1
    3052:	f8c1 0828 	str.w	r0, [r1, #2088]	; 0x828
    3056:	2002      	movs	r0, #2
    3058:	f8c1 0820 	str.w	r0, [r1, #2080]	; 0x820
    305c:	2000      	movs	r0, #0
    305e:	9001      	str	r0, [sp, #4]
    3060:	e7ff      	b.n	3062 <I2C_MasterStart+0x3e>
    3062:	9801      	ldr	r0, [sp, #4]
    3064:	b006      	add	sp, #24
    3066:	bd80      	pop	{r7, pc}

00003068 <I2C_PendingStatusWait>:
    3068:	b580      	push	{r7, lr}
    306a:	466f      	mov	r7, sp
    306c:	b08a      	sub	sp, #40	; 0x28
    306e:	9008      	str	r0, [sp, #32]
    3070:	2000      	movs	r0, #0
    3072:	9009      	str	r0, [sp, #36]	; 0x24
    3074:	e7ff      	b.n	3076 <I2C_PendingStatusWait+0xe>
    3076:	9808      	ldr	r0, [sp, #32]
    3078:	9909      	ldr	r1, [sp, #36]	; 0x24
    307a:	9105      	str	r1, [sp, #20]
    307c:	f7ff ff87 	bl	2f8e <I2C_GetStatusFlags>
    3080:	4601      	mov	r1, r0
    3082:	9805      	ldr	r0, [sp, #20]
    3084:	460a      	mov	r2, r1
    3086:	9206      	str	r2, [sp, #24]
    3088:	01c9      	lsls	r1, r1, #7
    308a:	2900      	cmp	r1, #0
    308c:	9007      	str	r0, [sp, #28]
    308e:	d504      	bpl.n	309a <I2C_PendingStatusWait+0x32>
    3090:	e7ff      	b.n	3092 <I2C_PendingStatusWait+0x2a>
    3092:	f640 2034 	movw	r0, #2612	; 0xa34
    3096:	9007      	str	r0, [sp, #28]
    3098:	e7ff      	b.n	309a <I2C_PendingStatusWait+0x32>
    309a:	9906      	ldr	r1, [sp, #24]
    309c:	9807      	ldr	r0, [sp, #28]
    309e:	0189      	lsls	r1, r1, #6
    30a0:	2900      	cmp	r1, #0
    30a2:	9004      	str	r0, [sp, #16]
    30a4:	d504      	bpl.n	30b0 <I2C_PendingStatusWait+0x48>
    30a6:	e7ff      	b.n	30a8 <I2C_PendingStatusWait+0x40>
    30a8:	f640 2035 	movw	r0, #2613	; 0xa35
    30ac:	9004      	str	r0, [sp, #16]
    30ae:	e7ff      	b.n	30b0 <I2C_PendingStatusWait+0x48>
    30b0:	9804      	ldr	r0, [sp, #16]
    30b2:	9003      	str	r0, [sp, #12]
    30b4:	e7ff      	b.n	30b6 <I2C_PendingStatusWait+0x4e>
    30b6:	9803      	ldr	r0, [sp, #12]
    30b8:	9906      	ldr	r1, [sp, #24]
    30ba:	07c9      	lsls	r1, r1, #31
    30bc:	2900      	cmp	r1, #0
    30be:	9009      	str	r0, [sp, #36]	; 0x24
    30c0:	d0d9      	beq.n	3076 <I2C_PendingStatusWait+0xe>
    30c2:	e7ff      	b.n	30c4 <I2C_PendingStatusWait+0x5c>
    30c4:	9803      	ldr	r0, [sp, #12]
    30c6:	9906      	ldr	r1, [sp, #24]
    30c8:	06c9      	lsls	r1, r1, #27
    30ca:	2900      	cmp	r1, #0
    30cc:	9002      	str	r0, [sp, #8]
    30ce:	d504      	bpl.n	30da <I2C_PendingStatusWait+0x72>
    30d0:	e7ff      	b.n	30d2 <I2C_PendingStatusWait+0x6a>
    30d2:	f640 202d 	movw	r0, #2605	; 0xa2d
    30d6:	9002      	str	r0, [sp, #8]
    30d8:	e7ff      	b.n	30da <I2C_PendingStatusWait+0x72>
    30da:	9906      	ldr	r1, [sp, #24]
    30dc:	9802      	ldr	r0, [sp, #8]
    30de:	0649      	lsls	r1, r1, #25
    30e0:	2900      	cmp	r1, #0
    30e2:	9001      	str	r0, [sp, #4]
    30e4:	d504      	bpl.n	30f0 <I2C_PendingStatusWait+0x88>
    30e6:	e7ff      	b.n	30e8 <I2C_PendingStatusWait+0x80>
    30e8:	f44f 6023 	mov.w	r0, #2608	; 0xa30
    30ec:	9001      	str	r0, [sp, #4]
    30ee:	e7ff      	b.n	30f0 <I2C_PendingStatusWait+0x88>
    30f0:	9808      	ldr	r0, [sp, #32]
    30f2:	9901      	ldr	r1, [sp, #4]
    30f4:	9100      	str	r1, [sp, #0]
    30f6:	2150      	movs	r1, #80	; 0x50
    30f8:	f2c0 3100 	movt	r1, #768	; 0x300
    30fc:	f000 fa7e 	bl	35fc <I2C_ClearStatusFlags>
    3100:	9800      	ldr	r0, [sp, #0]
    3102:	b00a      	add	sp, #40	; 0x28
    3104:	bd80      	pop	{r7, pc}

00003106 <I2C_MasterStop>:
    3106:	b580      	push	{r7, lr}
    3108:	466f      	mov	r7, sp
    310a:	b084      	sub	sp, #16
    310c:	9002      	str	r0, [sp, #8]
    310e:	f7ff ffab 	bl	3068 <I2C_PendingStatusWait>
    3112:	4601      	mov	r1, r0
    3114:	9103      	str	r1, [sp, #12]
    3116:	b118      	cbz	r0, 3120 <I2C_MasterStop+0x1a>
    3118:	e7ff      	b.n	311a <I2C_MasterStop+0x14>
    311a:	9803      	ldr	r0, [sp, #12]
    311c:	9001      	str	r0, [sp, #4]
    311e:	e006      	b.n	312e <I2C_MasterStop+0x28>
    3120:	9902      	ldr	r1, [sp, #8]
    3122:	2004      	movs	r0, #4
    3124:	f8c1 0820 	str.w	r0, [r1, #2080]	; 0x820
    3128:	2000      	movs	r0, #0
    312a:	9001      	str	r0, [sp, #4]
    312c:	e7ff      	b.n	312e <I2C_MasterStop+0x28>
    312e:	9801      	ldr	r0, [sp, #4]
    3130:	b004      	add	sp, #16
    3132:	bd80      	pop	{r7, pc}

00003134 <I2C_MasterWriteBlocking>:
    3134:	b580      	push	{r7, lr}
    3136:	466f      	mov	r7, sp
    3138:	b094      	sub	sp, #80	; 0x50
    313a:	9310      	str	r3, [sp, #64]	; 0x40
    313c:	9211      	str	r2, [sp, #68]	; 0x44
    313e:	9112      	str	r1, [sp, #72]	; 0x48
    3140:	9013      	str	r0, [sp, #76]	; 0x4c
    3142:	b109      	cbz	r1, 3148 <I2C_MasterWriteBlocking+0x14>
    3144:	e7ff      	b.n	3146 <I2C_MasterWriteBlocking+0x12>
    3146:	e00f      	b.n	3168 <I2C_MasterWriteBlocking+0x34>
    3148:	f648 60a5 	movw	r0, #36517	; 0x8ea5
    314c:	f2c0 0000 	movt	r0, #0
    3150:	f648 7233 	movw	r2, #36659	; 0x8f33
    3154:	f2c0 0200 	movt	r2, #0
    3158:	f648 734b 	movw	r3, #36683	; 0x8f4b
    315c:	f2c0 0300 	movt	r3, #0
    3160:	f44f 710b 	mov.w	r1, #556	; 0x22c
    3164:	f001 feed 	bl	4f42 <__assert_func>
    3168:	9812      	ldr	r0, [sp, #72]	; 0x48
    316a:	9911      	ldr	r1, [sp, #68]	; 0x44
    316c:	910e      	str	r1, [sp, #56]	; 0x38
    316e:	900f      	str	r0, [sp, #60]	; 0x3c
    3170:	e7ff      	b.n	3172 <I2C_MasterWriteBlocking+0x3e>
    3172:	980e      	ldr	r0, [sp, #56]	; 0x38
    3174:	990f      	ldr	r1, [sp, #60]	; 0x3c
    3176:	910c      	str	r1, [sp, #48]	; 0x30
    3178:	900d      	str	r0, [sp, #52]	; 0x34
    317a:	2800      	cmp	r0, #0
    317c:	d04d      	beq.n	321a <I2C_MasterWriteBlocking+0xe6>
    317e:	e7ff      	b.n	3180 <I2C_MasterWriteBlocking+0x4c>
    3180:	9813      	ldr	r0, [sp, #76]	; 0x4c
    3182:	f7ff ff71 	bl	3068 <I2C_PendingStatusWait>
    3186:	4601      	mov	r1, r0
    3188:	910b      	str	r1, [sp, #44]	; 0x2c
    318a:	b118      	cbz	r0, 3194 <I2C_MasterWriteBlocking+0x60>
    318c:	e7ff      	b.n	318e <I2C_MasterWriteBlocking+0x5a>
    318e:	980b      	ldr	r0, [sp, #44]	; 0x2c
    3190:	900a      	str	r0, [sp, #40]	; 0x28
    3192:	e062      	b.n	325a <I2C_MasterWriteBlocking+0x126>
    3194:	9813      	ldr	r0, [sp, #76]	; 0x4c
    3196:	f8d0 0804 	ldr.w	r0, [r0, #2052]	; 0x804
    319a:	f3c0 0042 	ubfx	r0, r0, #1, #3
    319e:	4601      	mov	r1, r0
    31a0:	9109      	str	r1, [sp, #36]	; 0x24
    31a2:	2802      	cmp	r0, #2
    31a4:	d005      	beq.n	31b2 <I2C_MasterWriteBlocking+0x7e>
    31a6:	e7ff      	b.n	31a8 <I2C_MasterWriteBlocking+0x74>
    31a8:	9809      	ldr	r0, [sp, #36]	; 0x24
    31aa:	3803      	subs	r0, #3
    31ac:	2802      	cmp	r0, #2
    31ae:	d311      	bcc.n	31d4 <I2C_MasterWriteBlocking+0xa0>
    31b0:	e01b      	b.n	31ea <I2C_MasterWriteBlocking+0xb6>
    31b2:	990b      	ldr	r1, [sp, #44]	; 0x2c
    31b4:	f8dd c04c 	ldr.w	ip, [sp, #76]	; 0x4c
    31b8:	9a0d      	ldr	r2, [sp, #52]	; 0x34
    31ba:	980c      	ldr	r0, [sp, #48]	; 0x30
    31bc:	f810 3b01 	ldrb.w	r3, [r0], #1
    31c0:	f8cc 3828 	str.w	r3, [ip, #2088]	; 0x828
    31c4:	3a01      	subs	r2, #1
    31c6:	2301      	movs	r3, #1
    31c8:	f8cc 3820 	str.w	r3, [ip, #2080]	; 0x820
    31cc:	9206      	str	r2, [sp, #24]
    31ce:	9107      	str	r1, [sp, #28]
    31d0:	9008      	str	r0, [sp, #32]
    31d2:	e012      	b.n	31fa <I2C_MasterWriteBlocking+0xc6>
    31d4:	9813      	ldr	r0, [sp, #76]	; 0x4c
    31d6:	f7ff ff96 	bl	3106 <I2C_MasterStop>
    31da:	9a0d      	ldr	r2, [sp, #52]	; 0x34
    31dc:	980c      	ldr	r0, [sp, #48]	; 0x30
    31de:	f640 212a 	movw	r1, #2602	; 0xa2a
    31e2:	9206      	str	r2, [sp, #24]
    31e4:	9107      	str	r1, [sp, #28]
    31e6:	9008      	str	r0, [sp, #32]
    31e8:	e007      	b.n	31fa <I2C_MasterWriteBlocking+0xc6>
    31ea:	980c      	ldr	r0, [sp, #48]	; 0x30
    31ec:	9a0d      	ldr	r2, [sp, #52]	; 0x34
    31ee:	f640 2131 	movw	r1, #2609	; 0xa31
    31f2:	9206      	str	r2, [sp, #24]
    31f4:	9107      	str	r1, [sp, #28]
    31f6:	9008      	str	r0, [sp, #32]
    31f8:	e7ff      	b.n	31fa <I2C_MasterWriteBlocking+0xc6>
    31fa:	9906      	ldr	r1, [sp, #24]
    31fc:	9807      	ldr	r0, [sp, #28]
    31fe:	9a08      	ldr	r2, [sp, #32]
    3200:	9203      	str	r2, [sp, #12]
    3202:	9004      	str	r0, [sp, #16]
    3204:	9105      	str	r1, [sp, #20]
    3206:	b118      	cbz	r0, 3210 <I2C_MasterWriteBlocking+0xdc>
    3208:	e7ff      	b.n	320a <I2C_MasterWriteBlocking+0xd6>
    320a:	9804      	ldr	r0, [sp, #16]
    320c:	900a      	str	r0, [sp, #40]	; 0x28
    320e:	e024      	b.n	325a <I2C_MasterWriteBlocking+0x126>
    3210:	9803      	ldr	r0, [sp, #12]
    3212:	9905      	ldr	r1, [sp, #20]
    3214:	910e      	str	r1, [sp, #56]	; 0x38
    3216:	900f      	str	r0, [sp, #60]	; 0x3c
    3218:	e7ab      	b.n	3172 <I2C_MasterWriteBlocking+0x3e>
    321a:	9813      	ldr	r0, [sp, #76]	; 0x4c
    321c:	f7ff ff24 	bl	3068 <I2C_PendingStatusWait>
    3220:	4601      	mov	r1, r0
    3222:	9102      	str	r1, [sp, #8]
    3224:	b118      	cbz	r0, 322e <I2C_MasterWriteBlocking+0xfa>
    3226:	e7ff      	b.n	3228 <I2C_MasterWriteBlocking+0xf4>
    3228:	9802      	ldr	r0, [sp, #8]
    322a:	900a      	str	r0, [sp, #40]	; 0x28
    322c:	e015      	b.n	325a <I2C_MasterWriteBlocking+0x126>
    322e:	9810      	ldr	r0, [sp, #64]	; 0x40
    3230:	0740      	lsls	r0, r0, #29
    3232:	2800      	cmp	r0, #0
    3234:	d40e      	bmi.n	3254 <I2C_MasterWriteBlocking+0x120>
    3236:	e7ff      	b.n	3238 <I2C_MasterWriteBlocking+0x104>
    3238:	9813      	ldr	r0, [sp, #76]	; 0x4c
    323a:	2104      	movs	r1, #4
    323c:	f8c0 1820 	str.w	r1, [r0, #2080]	; 0x820
    3240:	f7ff ff12 	bl	3068 <I2C_PendingStatusWait>
    3244:	4601      	mov	r1, r0
    3246:	9101      	str	r1, [sp, #4]
    3248:	b118      	cbz	r0, 3252 <I2C_MasterWriteBlocking+0x11e>
    324a:	e7ff      	b.n	324c <I2C_MasterWriteBlocking+0x118>
    324c:	9801      	ldr	r0, [sp, #4]
    324e:	900a      	str	r0, [sp, #40]	; 0x28
    3250:	e003      	b.n	325a <I2C_MasterWriteBlocking+0x126>
    3252:	e7ff      	b.n	3254 <I2C_MasterWriteBlocking+0x120>
    3254:	2000      	movs	r0, #0
    3256:	900a      	str	r0, [sp, #40]	; 0x28
    3258:	e7ff      	b.n	325a <I2C_MasterWriteBlocking+0x126>
    325a:	980a      	ldr	r0, [sp, #40]	; 0x28
    325c:	b014      	add	sp, #80	; 0x50
    325e:	bd80      	pop	{r7, pc}

00003260 <I2C_MasterReadBlocking>:
    3260:	b580      	push	{r7, lr}
    3262:	466f      	mov	r7, sp
    3264:	b096      	sub	sp, #88	; 0x58
    3266:	9312      	str	r3, [sp, #72]	; 0x48
    3268:	9213      	str	r2, [sp, #76]	; 0x4c
    326a:	9114      	str	r1, [sp, #80]	; 0x50
    326c:	9015      	str	r0, [sp, #84]	; 0x54
    326e:	b109      	cbz	r1, 3274 <I2C_MasterReadBlocking+0x14>
    3270:	e7ff      	b.n	3272 <I2C_MasterReadBlocking+0x12>
    3272:	e00f      	b.n	3294 <I2C_MasterReadBlocking+0x34>
    3274:	f648 60a5 	movw	r0, #36517	; 0x8ea5
    3278:	f2c0 0000 	movt	r0, #0
    327c:	f648 725a 	movw	r2, #36698	; 0x8f5a
    3280:	f2c0 0200 	movt	r2, #0
    3284:	f648 7371 	movw	r3, #36721	; 0x8f71
    3288:	f2c0 0300 	movt	r3, #0
    328c:	f240 2187 	movw	r1, #647	; 0x287
    3290:	f001 fe57 	bl	4f42 <__assert_func>
    3294:	9814      	ldr	r0, [sp, #80]	; 0x50
    3296:	9913      	ldr	r1, [sp, #76]	; 0x4c
    3298:	9110      	str	r1, [sp, #64]	; 0x40
    329a:	9011      	str	r0, [sp, #68]	; 0x44
    329c:	e7ff      	b.n	329e <I2C_MasterReadBlocking+0x3e>
    329e:	9810      	ldr	r0, [sp, #64]	; 0x40
    32a0:	9911      	ldr	r1, [sp, #68]	; 0x44
    32a2:	910e      	str	r1, [sp, #56]	; 0x38
    32a4:	900f      	str	r0, [sp, #60]	; 0x3c
    32a6:	2800      	cmp	r0, #0
    32a8:	d066      	beq.n	3378 <I2C_MasterReadBlocking+0x118>
    32aa:	e7ff      	b.n	32ac <I2C_MasterReadBlocking+0x4c>
    32ac:	9815      	ldr	r0, [sp, #84]	; 0x54
    32ae:	f7ff fedb 	bl	3068 <I2C_PendingStatusWait>
    32b2:	4601      	mov	r1, r0
    32b4:	910d      	str	r1, [sp, #52]	; 0x34
    32b6:	b118      	cbz	r0, 32c0 <I2C_MasterReadBlocking+0x60>
    32b8:	e7ff      	b.n	32ba <I2C_MasterReadBlocking+0x5a>
    32ba:	980d      	ldr	r0, [sp, #52]	; 0x34
    32bc:	900c      	str	r0, [sp, #48]	; 0x30
    32be:	e05e      	b.n	337e <I2C_MasterReadBlocking+0x11e>
    32c0:	9815      	ldr	r0, [sp, #84]	; 0x54
    32c2:	f8d0 0804 	ldr.w	r0, [r0, #2052]	; 0x804
    32c6:	f3c0 0042 	ubfx	r0, r0, #1, #3
    32ca:	4601      	mov	r1, r0
    32cc:	910b      	str	r1, [sp, #44]	; 0x2c
    32ce:	2801      	cmp	r0, #1
    32d0:	d005      	beq.n	32de <I2C_MasterReadBlocking+0x7e>
    32d2:	e7ff      	b.n	32d4 <I2C_MasterReadBlocking+0x74>
    32d4:	980b      	ldr	r0, [sp, #44]	; 0x2c
    32d6:	3803      	subs	r0, #3
    32d8:	2802      	cmp	r0, #2
    32da:	d32d      	bcc.n	3338 <I2C_MasterReadBlocking+0xd8>
    32dc:	e034      	b.n	3348 <I2C_MasterReadBlocking+0xe8>
    32de:	980f      	ldr	r0, [sp, #60]	; 0x3c
    32e0:	990e      	ldr	r1, [sp, #56]	; 0x38
    32e2:	9a15      	ldr	r2, [sp, #84]	; 0x54
    32e4:	f8d2 2828 	ldr.w	r2, [r2, #2088]	; 0x828
    32e8:	f801 2b01 	strb.w	r2, [r1], #1
    32ec:	9109      	str	r1, [sp, #36]	; 0x24
    32ee:	3801      	subs	r0, #1
    32f0:	4601      	mov	r1, r0
    32f2:	910a      	str	r1, [sp, #40]	; 0x28
    32f4:	b138      	cbz	r0, 3306 <I2C_MasterReadBlocking+0xa6>
    32f6:	e7ff      	b.n	32f8 <I2C_MasterReadBlocking+0x98>
    32f8:	980d      	ldr	r0, [sp, #52]	; 0x34
    32fa:	9a15      	ldr	r2, [sp, #84]	; 0x54
    32fc:	2101      	movs	r1, #1
    32fe:	f8c2 1820 	str.w	r1, [r2, #2080]	; 0x820
    3302:	9008      	str	r0, [sp, #32]
    3304:	e011      	b.n	332a <I2C_MasterReadBlocking+0xca>
    3306:	980d      	ldr	r0, [sp, #52]	; 0x34
    3308:	9912      	ldr	r1, [sp, #72]	; 0x48
    330a:	0749      	lsls	r1, r1, #29
    330c:	2900      	cmp	r1, #0
    330e:	9007      	str	r0, [sp, #28]
    3310:	d408      	bmi.n	3324 <I2C_MasterReadBlocking+0xc4>
    3312:	e7ff      	b.n	3314 <I2C_MasterReadBlocking+0xb4>
    3314:	9815      	ldr	r0, [sp, #84]	; 0x54
    3316:	2104      	movs	r1, #4
    3318:	f8c0 1820 	str.w	r1, [r0, #2080]	; 0x820
    331c:	f7ff fea4 	bl	3068 <I2C_PendingStatusWait>
    3320:	9007      	str	r0, [sp, #28]
    3322:	e7ff      	b.n	3324 <I2C_MasterReadBlocking+0xc4>
    3324:	9807      	ldr	r0, [sp, #28]
    3326:	9008      	str	r0, [sp, #32]
    3328:	e7ff      	b.n	332a <I2C_MasterReadBlocking+0xca>
    332a:	9809      	ldr	r0, [sp, #36]	; 0x24
    332c:	9a0a      	ldr	r2, [sp, #40]	; 0x28
    332e:	9908      	ldr	r1, [sp, #32]
    3330:	9204      	str	r2, [sp, #16]
    3332:	9105      	str	r1, [sp, #20]
    3334:	9006      	str	r0, [sp, #24]
    3336:	e00f      	b.n	3358 <I2C_MasterReadBlocking+0xf8>
    3338:	980e      	ldr	r0, [sp, #56]	; 0x38
    333a:	9a0f      	ldr	r2, [sp, #60]	; 0x3c
    333c:	f640 212a 	movw	r1, #2602	; 0xa2a
    3340:	9204      	str	r2, [sp, #16]
    3342:	9105      	str	r1, [sp, #20]
    3344:	9006      	str	r0, [sp, #24]
    3346:	e007      	b.n	3358 <I2C_MasterReadBlocking+0xf8>
    3348:	980e      	ldr	r0, [sp, #56]	; 0x38
    334a:	9a0f      	ldr	r2, [sp, #60]	; 0x3c
    334c:	f640 2131 	movw	r1, #2609	; 0xa31
    3350:	9204      	str	r2, [sp, #16]
    3352:	9105      	str	r1, [sp, #20]
    3354:	9006      	str	r0, [sp, #24]
    3356:	e7ff      	b.n	3358 <I2C_MasterReadBlocking+0xf8>
    3358:	9904      	ldr	r1, [sp, #16]
    335a:	9805      	ldr	r0, [sp, #20]
    335c:	9a06      	ldr	r2, [sp, #24]
    335e:	9201      	str	r2, [sp, #4]
    3360:	9002      	str	r0, [sp, #8]
    3362:	9103      	str	r1, [sp, #12]
    3364:	b118      	cbz	r0, 336e <I2C_MasterReadBlocking+0x10e>
    3366:	e7ff      	b.n	3368 <I2C_MasterReadBlocking+0x108>
    3368:	9802      	ldr	r0, [sp, #8]
    336a:	900c      	str	r0, [sp, #48]	; 0x30
    336c:	e007      	b.n	337e <I2C_MasterReadBlocking+0x11e>
    336e:	9801      	ldr	r0, [sp, #4]
    3370:	9903      	ldr	r1, [sp, #12]
    3372:	9110      	str	r1, [sp, #64]	; 0x40
    3374:	9011      	str	r0, [sp, #68]	; 0x44
    3376:	e792      	b.n	329e <I2C_MasterReadBlocking+0x3e>
    3378:	2000      	movs	r0, #0
    337a:	900c      	str	r0, [sp, #48]	; 0x30
    337c:	e7ff      	b.n	337e <I2C_MasterReadBlocking+0x11e>
    337e:	980c      	ldr	r0, [sp, #48]	; 0x30
    3380:	b016      	add	sp, #88	; 0x58
    3382:	bd80      	pop	{r7, pc}

00003384 <I2C_MasterTransferBlocking>:
    3384:	b580      	push	{r7, lr}
    3386:	466f      	mov	r7, sp
    3388:	b09a      	sub	sp, #104	; 0x68
    338a:	9117      	str	r1, [sp, #92]	; 0x5c
    338c:	9018      	str	r0, [sp, #96]	; 0x60
    338e:	b109      	cbz	r1, 3394 <I2C_MasterTransferBlocking+0x10>
    3390:	e7ff      	b.n	3392 <I2C_MasterTransferBlocking+0xe>
    3392:	e00f      	b.n	33b4 <I2C_MasterTransferBlocking+0x30>
    3394:	f648 60a5 	movw	r0, #36517	; 0x8ea5
    3398:	f2c0 0000 	movt	r0, #0
    339c:	f648 7280 	movw	r2, #36736	; 0x8f80
    33a0:	f2c0 0200 	movt	r2, #0
    33a4:	f648 739b 	movw	r3, #36763	; 0x8f9b
    33a8:	f2c0 0300 	movt	r3, #0
    33ac:	f240 21e6 	movw	r1, #742	; 0x2e6
    33b0:	f001 fdc7 	bl	4f42 <__assert_func>
    33b4:	9818      	ldr	r0, [sp, #96]	; 0x60
    33b6:	2101      	movs	r1, #1
    33b8:	f7ff fcbd 	bl	2d36 <I2C_MasterEnable>
    33bc:	9818      	ldr	r0, [sp, #96]	; 0x60
    33be:	2100      	movs	r1, #0
    33c0:	9115      	str	r1, [sp, #84]	; 0x54
    33c2:	f000 f8da 	bl	357a <I2C_SlaveEnable>
    33c6:	9815      	ldr	r0, [sp, #84]	; 0x54
    33c8:	9917      	ldr	r1, [sp, #92]	; 0x5c
    33ca:	7809      	ldrb	r1, [r1, #0]
    33cc:	07c9      	lsls	r1, r1, #31
    33ce:	2900      	cmp	r1, #0
    33d0:	9016      	str	r0, [sp, #88]	; 0x58
    33d2:	f040 808f 	bne.w	34f4 <I2C_MasterTransferBlocking+0x170>
    33d6:	e7ff      	b.n	33d8 <I2C_MasterTransferBlocking+0x54>
    33d8:	9817      	ldr	r0, [sp, #92]	; 0x5c
    33da:	68c0      	ldr	r0, [r0, #12]
    33dc:	b118      	cbz	r0, 33e6 <I2C_MasterTransferBlocking+0x62>
    33de:	e7ff      	b.n	33e0 <I2C_MasterTransferBlocking+0x5c>
    33e0:	2000      	movs	r0, #0
    33e2:	9014      	str	r0, [sp, #80]	; 0x50
    33e4:	e003      	b.n	33ee <I2C_MasterTransferBlocking+0x6a>
    33e6:	9817      	ldr	r0, [sp, #92]	; 0x5c
    33e8:	7940      	ldrb	r0, [r0, #5]
    33ea:	9014      	str	r0, [sp, #80]	; 0x50
    33ec:	e7ff      	b.n	33ee <I2C_MasterTransferBlocking+0x6a>
    33ee:	9818      	ldr	r0, [sp, #96]	; 0x60
    33f0:	9917      	ldr	r1, [sp, #92]	; 0x5c
    33f2:	9a14      	ldr	r2, [sp, #80]	; 0x50
    33f4:	7909      	ldrb	r1, [r1, #4]
    33f6:	b2d2      	uxtb	r2, r2
    33f8:	f7ff fe14 	bl	3024 <I2C_MasterStart>
    33fc:	4601      	mov	r1, r0
    33fe:	4608      	mov	r0, r1
    3400:	2900      	cmp	r1, #0
    3402:	9013      	str	r0, [sp, #76]	; 0x4c
    3404:	d173      	bne.n	34ee <I2C_MasterTransferBlocking+0x16a>
    3406:	e7ff      	b.n	3408 <I2C_MasterTransferBlocking+0x84>
    3408:	9818      	ldr	r0, [sp, #96]	; 0x60
    340a:	f000 f8ce 	bl	35aa <I2C_MasterCheckStartResponse>
    340e:	4601      	mov	r1, r0
    3410:	9112      	str	r1, [sp, #72]	; 0x48
    3412:	b118      	cbz	r0, 341c <I2C_MasterTransferBlocking+0x98>
    3414:	e7ff      	b.n	3416 <I2C_MasterTransferBlocking+0x92>
    3416:	9812      	ldr	r0, [sp, #72]	; 0x48
    3418:	9011      	str	r0, [sp, #68]	; 0x44
    341a:	e0ab      	b.n	3574 <I2C_MasterTransferBlocking+0x1f0>
    341c:	9812      	ldr	r0, [sp, #72]	; 0x48
    341e:	9917      	ldr	r1, [sp, #92]	; 0x5c
    3420:	68c9      	ldr	r1, [r1, #12]
    3422:	2900      	cmp	r1, #0
    3424:	9010      	str	r0, [sp, #64]	; 0x40
    3426:	d05f      	beq.n	34e8 <I2C_MasterTransferBlocking+0x164>
    3428:	e7ff      	b.n	342a <I2C_MasterTransferBlocking+0xa6>
    342a:	9817      	ldr	r0, [sp, #92]	; 0x5c
    342c:	6881      	ldr	r1, [r0, #8]
    342e:	68c0      	ldr	r0, [r0, #12]
    3430:	3801      	subs	r0, #1
    3432:	910e      	str	r1, [sp, #56]	; 0x38
    3434:	900f      	str	r0, [sp, #60]	; 0x3c
    3436:	e7ff      	b.n	3438 <I2C_MasterTransferBlocking+0xb4>
    3438:	990e      	ldr	r1, [sp, #56]	; 0x38
    343a:	980f      	ldr	r0, [sp, #60]	; 0x3c
    343c:	900c      	str	r0, [sp, #48]	; 0x30
    343e:	910d      	str	r1, [sp, #52]	; 0x34
    3440:	2800      	cmp	r0, #0
    3442:	d40d      	bmi.n	3460 <I2C_MasterTransferBlocking+0xdc>
    3444:	e7ff      	b.n	3446 <I2C_MasterTransferBlocking+0xc2>
    3446:	980d      	ldr	r0, [sp, #52]	; 0x34
    3448:	9a0c      	ldr	r2, [sp, #48]	; 0x30
    344a:	a919      	add	r1, sp, #100	; 0x64
    344c:	5488      	strb	r0, [r1, r2]
    344e:	0a00      	lsrs	r0, r0, #8
    3450:	900b      	str	r0, [sp, #44]	; 0x2c
    3452:	e7ff      	b.n	3454 <I2C_MasterTransferBlocking+0xd0>
    3454:	990b      	ldr	r1, [sp, #44]	; 0x2c
    3456:	980c      	ldr	r0, [sp, #48]	; 0x30
    3458:	3801      	subs	r0, #1
    345a:	910e      	str	r1, [sp, #56]	; 0x38
    345c:	900f      	str	r0, [sp, #60]	; 0x3c
    345e:	e7eb      	b.n	3438 <I2C_MasterTransferBlocking+0xb4>
    3460:	9818      	ldr	r0, [sp, #96]	; 0x60
    3462:	9917      	ldr	r1, [sp, #92]	; 0x5c
    3464:	68ca      	ldr	r2, [r1, #12]
    3466:	a919      	add	r1, sp, #100	; 0x64
    3468:	2304      	movs	r3, #4
    346a:	f7ff fe63 	bl	3134 <I2C_MasterWriteBlocking>
    346e:	4601      	mov	r1, r0
    3470:	910a      	str	r1, [sp, #40]	; 0x28
    3472:	b180      	cbz	r0, 3496 <I2C_MasterTransferBlocking+0x112>
    3474:	e7ff      	b.n	3476 <I2C_MasterTransferBlocking+0xf2>
    3476:	980a      	ldr	r0, [sp, #40]	; 0x28
    3478:	f640 212a 	movw	r1, #2602	; 0xa2a
    347c:	4288      	cmp	r0, r1
    347e:	d107      	bne.n	3490 <I2C_MasterTransferBlocking+0x10c>
    3480:	e7ff      	b.n	3482 <I2C_MasterTransferBlocking+0xfe>
    3482:	9818      	ldr	r0, [sp, #96]	; 0x60
    3484:	f7ff fe3f 	bl	3106 <I2C_MasterStop>
    3488:	f640 2033 	movw	r0, #2611	; 0xa33
    348c:	9011      	str	r0, [sp, #68]	; 0x44
    348e:	e071      	b.n	3574 <I2C_MasterTransferBlocking+0x1f0>
    3490:	980a      	ldr	r0, [sp, #40]	; 0x28
    3492:	9009      	str	r0, [sp, #36]	; 0x24
    3494:	e025      	b.n	34e2 <I2C_MasterTransferBlocking+0x15e>
    3496:	9817      	ldr	r0, [sp, #92]	; 0x5c
    3498:	7940      	ldrb	r0, [r0, #5]
    349a:	2801      	cmp	r0, #1
    349c:	d11b      	bne.n	34d6 <I2C_MasterTransferBlocking+0x152>
    349e:	e7ff      	b.n	34a0 <I2C_MasterTransferBlocking+0x11c>
    34a0:	9818      	ldr	r0, [sp, #96]	; 0x60
    34a2:	9a17      	ldr	r2, [sp, #92]	; 0x5c
    34a4:	7911      	ldrb	r1, [r2, #4]
    34a6:	7952      	ldrb	r2, [r2, #5]
    34a8:	f000 f8a3 	bl	35f2 <I2C_MasterRepeatedStart>
    34ac:	4601      	mov	r1, r0
    34ae:	4608      	mov	r0, r1
    34b0:	9008      	str	r0, [sp, #32]
    34b2:	b969      	cbnz	r1, 34d0 <I2C_MasterTransferBlocking+0x14c>
    34b4:	e7ff      	b.n	34b6 <I2C_MasterTransferBlocking+0x132>
    34b6:	9818      	ldr	r0, [sp, #96]	; 0x60
    34b8:	f000 f877 	bl	35aa <I2C_MasterCheckStartResponse>
    34bc:	4601      	mov	r1, r0
    34be:	9107      	str	r1, [sp, #28]
    34c0:	b118      	cbz	r0, 34ca <I2C_MasterTransferBlocking+0x146>
    34c2:	e7ff      	b.n	34c4 <I2C_MasterTransferBlocking+0x140>
    34c4:	9807      	ldr	r0, [sp, #28]
    34c6:	9011      	str	r0, [sp, #68]	; 0x44
    34c8:	e054      	b.n	3574 <I2C_MasterTransferBlocking+0x1f0>
    34ca:	9807      	ldr	r0, [sp, #28]
    34cc:	9008      	str	r0, [sp, #32]
    34ce:	e7ff      	b.n	34d0 <I2C_MasterTransferBlocking+0x14c>
    34d0:	9808      	ldr	r0, [sp, #32]
    34d2:	9006      	str	r0, [sp, #24]
    34d4:	e002      	b.n	34dc <I2C_MasterTransferBlocking+0x158>
    34d6:	980a      	ldr	r0, [sp, #40]	; 0x28
    34d8:	9006      	str	r0, [sp, #24]
    34da:	e7ff      	b.n	34dc <I2C_MasterTransferBlocking+0x158>
    34dc:	9806      	ldr	r0, [sp, #24]
    34de:	9009      	str	r0, [sp, #36]	; 0x24
    34e0:	e7ff      	b.n	34e2 <I2C_MasterTransferBlocking+0x15e>
    34e2:	9809      	ldr	r0, [sp, #36]	; 0x24
    34e4:	9010      	str	r0, [sp, #64]	; 0x40
    34e6:	e7ff      	b.n	34e8 <I2C_MasterTransferBlocking+0x164>
    34e8:	9810      	ldr	r0, [sp, #64]	; 0x40
    34ea:	9013      	str	r0, [sp, #76]	; 0x4c
    34ec:	e7ff      	b.n	34ee <I2C_MasterTransferBlocking+0x16a>
    34ee:	9813      	ldr	r0, [sp, #76]	; 0x4c
    34f0:	9016      	str	r0, [sp, #88]	; 0x58
    34f2:	e7ff      	b.n	34f4 <I2C_MasterTransferBlocking+0x170>
    34f4:	9816      	ldr	r0, [sp, #88]	; 0x58
    34f6:	9004      	str	r0, [sp, #16]
    34f8:	9005      	str	r0, [sp, #20]
    34fa:	bb68      	cbnz	r0, 3558 <I2C_MasterTransferBlocking+0x1d4>
    34fc:	e7ff      	b.n	34fe <I2C_MasterTransferBlocking+0x17a>
    34fe:	9817      	ldr	r0, [sp, #92]	; 0x5c
    3500:	7940      	ldrb	r0, [r0, #5]
    3502:	b968      	cbnz	r0, 3520 <I2C_MasterTransferBlocking+0x19c>
    3504:	e7ff      	b.n	3506 <I2C_MasterTransferBlocking+0x182>
    3506:	9817      	ldr	r0, [sp, #92]	; 0x5c
    3508:	6940      	ldr	r0, [r0, #20]
    350a:	b148      	cbz	r0, 3520 <I2C_MasterTransferBlocking+0x19c>
    350c:	e7ff      	b.n	350e <I2C_MasterTransferBlocking+0x18a>
    350e:	9818      	ldr	r0, [sp, #96]	; 0x60
    3510:	9a17      	ldr	r2, [sp, #92]	; 0x5c
    3512:	6813      	ldr	r3, [r2, #0]
    3514:	6911      	ldr	r1, [r2, #16]
    3516:	6952      	ldr	r2, [r2, #20]
    3518:	f7ff fe0c 	bl	3134 <I2C_MasterWriteBlocking>
    351c:	9003      	str	r0, [sp, #12]
    351e:	e018      	b.n	3552 <I2C_MasterTransferBlocking+0x1ce>
    3520:	9804      	ldr	r0, [sp, #16]
    3522:	9917      	ldr	r1, [sp, #92]	; 0x5c
    3524:	7949      	ldrb	r1, [r1, #5]
    3526:	2901      	cmp	r1, #1
    3528:	9002      	str	r0, [sp, #8]
    352a:	d10f      	bne.n	354c <I2C_MasterTransferBlocking+0x1c8>
    352c:	e7ff      	b.n	352e <I2C_MasterTransferBlocking+0x1aa>
    352e:	9804      	ldr	r0, [sp, #16]
    3530:	9917      	ldr	r1, [sp, #92]	; 0x5c
    3532:	6949      	ldr	r1, [r1, #20]
    3534:	9002      	str	r0, [sp, #8]
    3536:	b149      	cbz	r1, 354c <I2C_MasterTransferBlocking+0x1c8>
    3538:	e7ff      	b.n	353a <I2C_MasterTransferBlocking+0x1b6>
    353a:	9818      	ldr	r0, [sp, #96]	; 0x60
    353c:	9a17      	ldr	r2, [sp, #92]	; 0x5c
    353e:	6813      	ldr	r3, [r2, #0]
    3540:	6911      	ldr	r1, [r2, #16]
    3542:	6952      	ldr	r2, [r2, #20]
    3544:	f7ff fe8c 	bl	3260 <I2C_MasterReadBlocking>
    3548:	9002      	str	r0, [sp, #8]
    354a:	e7ff      	b.n	354c <I2C_MasterTransferBlocking+0x1c8>
    354c:	9802      	ldr	r0, [sp, #8]
    354e:	9003      	str	r0, [sp, #12]
    3550:	e7ff      	b.n	3552 <I2C_MasterTransferBlocking+0x1ce>
    3552:	9803      	ldr	r0, [sp, #12]
    3554:	9005      	str	r0, [sp, #20]
    3556:	e7ff      	b.n	3558 <I2C_MasterTransferBlocking+0x1d4>
    3558:	9805      	ldr	r0, [sp, #20]
    355a:	9001      	str	r0, [sp, #4]
    355c:	f640 212a 	movw	r1, #2602	; 0xa2a
    3560:	4288      	cmp	r0, r1
    3562:	d104      	bne.n	356e <I2C_MasterTransferBlocking+0x1ea>
    3564:	e7ff      	b.n	3566 <I2C_MasterTransferBlocking+0x1e2>
    3566:	9818      	ldr	r0, [sp, #96]	; 0x60
    3568:	f7ff fdcd 	bl	3106 <I2C_MasterStop>
    356c:	e7ff      	b.n	356e <I2C_MasterTransferBlocking+0x1ea>
    356e:	9801      	ldr	r0, [sp, #4]
    3570:	9011      	str	r0, [sp, #68]	; 0x44
    3572:	e7ff      	b.n	3574 <I2C_MasterTransferBlocking+0x1f0>
    3574:	9811      	ldr	r0, [sp, #68]	; 0x44
    3576:	b01a      	add	sp, #104	; 0x68
    3578:	bd80      	pop	{r7, pc}

0000357a <I2C_SlaveEnable>:
    357a:	b081      	sub	sp, #4
    357c:	9000      	str	r0, [sp, #0]
    357e:	b151      	cbz	r1, 3596 <I2C_SlaveEnable+0x1c>
    3580:	e7ff      	b.n	3582 <I2C_SlaveEnable+0x8>
    3582:	9900      	ldr	r1, [sp, #0]
    3584:	f8d1 0800 	ldr.w	r0, [r1, #2048]	; 0x800
    3588:	f040 0002 	orr.w	r0, r0, #2
    358c:	f000 001f 	and.w	r0, r0, #31
    3590:	f8c1 0800 	str.w	r0, [r1, #2048]	; 0x800
    3594:	e007      	b.n	35a6 <I2C_SlaveEnable+0x2c>
    3596:	9900      	ldr	r1, [sp, #0]
    3598:	f8d1 0800 	ldr.w	r0, [r1, #2048]	; 0x800
    359c:	f000 001d 	and.w	r0, r0, #29
    35a0:	f8c1 0800 	str.w	r0, [r1, #2048]	; 0x800
    35a4:	e7ff      	b.n	35a6 <I2C_SlaveEnable+0x2c>
    35a6:	b001      	add	sp, #4
    35a8:	4770      	bx	lr

000035aa <I2C_MasterCheckStartResponse>:
    35aa:	b580      	push	{r7, lr}
    35ac:	466f      	mov	r7, sp
    35ae:	b084      	sub	sp, #16
    35b0:	9002      	str	r0, [sp, #8]
    35b2:	f7ff fd59 	bl	3068 <I2C_PendingStatusWait>
    35b6:	4601      	mov	r1, r0
    35b8:	9103      	str	r1, [sp, #12]
    35ba:	b118      	cbz	r0, 35c4 <I2C_MasterCheckStartResponse+0x1a>
    35bc:	e7ff      	b.n	35be <I2C_MasterCheckStartResponse+0x14>
    35be:	9803      	ldr	r0, [sp, #12]
    35c0:	9001      	str	r0, [sp, #4]
    35c2:	e013      	b.n	35ec <I2C_MasterCheckStartResponse+0x42>
    35c4:	9802      	ldr	r0, [sp, #8]
    35c6:	f8d0 0804 	ldr.w	r0, [r0, #2052]	; 0x804
    35ca:	f000 010e 	and.w	r1, r0, #14
    35ce:	2003      	movs	r0, #3
    35d0:	ebb0 0f51 	cmp.w	r0, r1, lsr #1
    35d4:	d107      	bne.n	35e6 <I2C_MasterCheckStartResponse+0x3c>
    35d6:	e7ff      	b.n	35d8 <I2C_MasterCheckStartResponse+0x2e>
    35d8:	9802      	ldr	r0, [sp, #8]
    35da:	f7ff fd94 	bl	3106 <I2C_MasterStop>
    35de:	f640 2033 	movw	r0, #2611	; 0xa33
    35e2:	9001      	str	r0, [sp, #4]
    35e4:	e002      	b.n	35ec <I2C_MasterCheckStartResponse+0x42>
    35e6:	2000      	movs	r0, #0
    35e8:	9001      	str	r0, [sp, #4]
    35ea:	e7ff      	b.n	35ec <I2C_MasterCheckStartResponse+0x42>
    35ec:	9801      	ldr	r0, [sp, #4]
    35ee:	b004      	add	sp, #16
    35f0:	bd80      	pop	{r7, pc}

000035f2 <I2C_MasterRepeatedStart>:
    35f2:	b580      	push	{r7, lr}
    35f4:	466f      	mov	r7, sp
    35f6:	f7ff fd15 	bl	3024 <I2C_MasterStart>
    35fa:	bd80      	pop	{r7, pc}

000035fc <I2C_ClearStatusFlags>:
    35fc:	b081      	sub	sp, #4
    35fe:	9100      	str	r1, [sp, #0]
    3600:	4601      	mov	r1, r0
    3602:	9800      	ldr	r0, [sp, #0]
    3604:	f248 0250 	movw	r2, #32848	; 0x8050
    3608:	f2c0 320a 	movt	r2, #778	; 0x30a
    360c:	4010      	ands	r0, r2
    360e:	f8c1 0804 	str.w	r0, [r1, #2052]	; 0x804
    3612:	b001      	add	sp, #4
    3614:	4770      	bx	lr

00003616 <HAL_UartInit>:
    3616:	b580      	push	{r7, lr}
    3618:	466f      	mov	r7, sp
    361a:	b084      	sub	sp, #16
    361c:	9101      	str	r1, [sp, #4]
    361e:	9002      	str	r0, [sp, #8]
    3620:	f000 f812 	bl	3648 <HAL_UartInitCommon>
    3624:	4601      	mov	r1, r0
    3626:	9103      	str	r1, [sp, #12]
    3628:	b118      	cbz	r0, 3632 <HAL_UartInit+0x1c>
    362a:	e7ff      	b.n	362c <HAL_UartInit+0x16>
    362c:	9803      	ldr	r0, [sp, #12]
    362e:	9000      	str	r0, [sp, #0]
    3630:	e006      	b.n	3640 <HAL_UartInit+0x2a>
    3632:	9902      	ldr	r1, [sp, #8]
    3634:	9801      	ldr	r0, [sp, #4]
    3636:	7b80      	ldrb	r0, [r0, #14]
    3638:	7008      	strb	r0, [r1, #0]
    363a:	2000      	movs	r0, #0
    363c:	9000      	str	r0, [sp, #0]
    363e:	e7ff      	b.n	3640 <HAL_UartInit+0x2a>
    3640:	9800      	ldr	r0, [sp, #0]
    3642:	b280      	uxth	r0, r0
    3644:	b004      	add	sp, #16
    3646:	bd80      	pop	{r7, pc}

00003648 <HAL_UartInitCommon>:
    3648:	b580      	push	{r7, lr}
    364a:	466f      	mov	r7, sp
    364c:	b088      	sub	sp, #32
    364e:	9102      	str	r1, [sp, #8]
    3650:	b108      	cbz	r0, 3656 <HAL_UartInitCommon+0xe>
    3652:	e7ff      	b.n	3654 <HAL_UartInitCommon+0xc>
    3654:	e00f      	b.n	3676 <HAL_UartInitCommon+0x2e>
    3656:	f249 00cb 	movw	r0, #37067	; 0x90cb
    365a:	f2c0 0000 	movt	r0, #0
    365e:	f249 124d 	movw	r2, #37197	; 0x914d
    3662:	f2c0 0200 	movt	r2, #0
    3666:	f648 3300 	movw	r3, #35584	; 0x8b00
    366a:	f2c0 0300 	movt	r3, #0
    366e:	f44f 718c 	mov.w	r1, #280	; 0x118
    3672:	f001 fc66 	bl	4f42 <__assert_func>
    3676:	9802      	ldr	r0, [sp, #8]
    3678:	b108      	cbz	r0, 367e <HAL_UartInitCommon+0x36>
    367a:	e7ff      	b.n	367c <HAL_UartInitCommon+0x34>
    367c:	e00f      	b.n	369e <HAL_UartInitCommon+0x56>
    367e:	f249 00cb 	movw	r0, #37067	; 0x90cb
    3682:	f2c0 0000 	movt	r0, #0
    3686:	f249 124d 	movw	r2, #37197	; 0x914d
    368a:	f2c0 0200 	movt	r2, #0
    368e:	f648 33d6 	movw	r3, #35798	; 0x8bd6
    3692:	f2c0 0300 	movt	r3, #0
    3696:	f240 1119 	movw	r1, #281	; 0x119
    369a:	f001 fc52 	bl	4f42 <__assert_func>
    369e:	9802      	ldr	r0, [sp, #8]
    36a0:	7b80      	ldrb	r0, [r0, #14]
    36a2:	2807      	cmp	r0, #7
    36a4:	d801      	bhi.n	36aa <HAL_UartInitCommon+0x62>
    36a6:	e7ff      	b.n	36a8 <HAL_UartInitCommon+0x60>
    36a8:	e00f      	b.n	36ca <HAL_UartInitCommon+0x82>
    36aa:	f249 00cb 	movw	r0, #37067	; 0x90cb
    36ae:	f2c0 0000 	movt	r0, #0
    36b2:	f249 124d 	movw	r2, #37197	; 0x914d
    36b6:	f2c0 0200 	movt	r2, #0
    36ba:	f249 1360 	movw	r3, #37216	; 0x9160
    36be:	f2c0 0300 	movt	r3, #0
    36c2:	f44f 718d 	mov.w	r1, #282	; 0x11a
    36c6:	f001 fc3c 	bl	4f42 <__assert_func>
    36ca:	9802      	ldr	r0, [sp, #8]
    36cc:	7b81      	ldrb	r1, [r0, #14]
    36ce:	f249 10cc 	movw	r0, #37324	; 0x91cc
    36d2:	f2c0 0000 	movt	r0, #0
    36d6:	f850 0021 	ldr.w	r0, [r0, r1, lsl #2]
    36da:	b108      	cbz	r0, 36e0 <HAL_UartInitCommon+0x98>
    36dc:	e7ff      	b.n	36de <HAL_UartInitCommon+0x96>
    36de:	e00f      	b.n	3700 <HAL_UartInitCommon+0xb8>
    36e0:	f249 00cb 	movw	r0, #37067	; 0x90cb
    36e4:	f2c0 0000 	movt	r0, #0
    36e8:	f249 124d 	movw	r2, #37197	; 0x914d
    36ec:	f2c0 0200 	movt	r2, #0
    36f0:	f249 13a7 	movw	r3, #37287	; 0x91a7
    36f4:	f2c0 0300 	movt	r3, #0
    36f8:	f240 111b 	movw	r1, #283	; 0x11b
    36fc:	f001 fc21 	bl	4f42 <__assert_func>
    3700:	a803      	add	r0, sp, #12
    3702:	f7ff fa55 	bl	2bb0 <USART_GetDefaultConfig>
    3706:	9802      	ldr	r0, [sp, #8]
    3708:	6841      	ldr	r1, [r0, #4]
    370a:	9103      	str	r1, [sp, #12]
    370c:	7b00      	ldrb	r0, [r0, #12]
    370e:	b920      	cbnz	r0, 371a <HAL_UartInitCommon+0xd2>
    3710:	e7ff      	b.n	3712 <HAL_UartInitCommon+0xca>
    3712:	9802      	ldr	r0, [sp, #8]
    3714:	7b40      	ldrb	r0, [r0, #13]
    3716:	b120      	cbz	r0, 3722 <HAL_UartInitCommon+0xda>
    3718:	e7ff      	b.n	371a <HAL_UartInitCommon+0xd2>
    371a:	2001      	movs	r0, #1
    371c:	f88d 0018 	strb.w	r0, [sp, #24]
    3720:	e7ff      	b.n	3722 <HAL_UartInitCommon+0xda>
    3722:	9802      	ldr	r0, [sp, #8]
    3724:	7a00      	ldrb	r0, [r0, #8]
    3726:	2802      	cmp	r0, #2
    3728:	d104      	bne.n	3734 <HAL_UartInitCommon+0xec>
    372a:	e7ff      	b.n	372c <HAL_UartInitCommon+0xe4>
    372c:	2002      	movs	r0, #2
    372e:	f88d 0010 	strb.w	r0, [sp, #16]
    3732:	e00d      	b.n	3750 <HAL_UartInitCommon+0x108>
    3734:	9802      	ldr	r0, [sp, #8]
    3736:	7a00      	ldrb	r0, [r0, #8]
    3738:	2803      	cmp	r0, #3
    373a:	d104      	bne.n	3746 <HAL_UartInitCommon+0xfe>
    373c:	e7ff      	b.n	373e <HAL_UartInitCommon+0xf6>
    373e:	2003      	movs	r0, #3
    3740:	f88d 0010 	strb.w	r0, [sp, #16]
    3744:	e003      	b.n	374e <HAL_UartInitCommon+0x106>
    3746:	2000      	movs	r0, #0
    3748:	f88d 0010 	strb.w	r0, [sp, #16]
    374c:	e7ff      	b.n	374e <HAL_UartInitCommon+0x106>
    374e:	e7ff      	b.n	3750 <HAL_UartInitCommon+0x108>
    3750:	9802      	ldr	r0, [sp, #8]
    3752:	7a40      	ldrb	r0, [r0, #9]
    3754:	2801      	cmp	r0, #1
    3756:	d104      	bne.n	3762 <HAL_UartInitCommon+0x11a>
    3758:	e7ff      	b.n	375a <HAL_UartInitCommon+0x112>
    375a:	2001      	movs	r0, #1
    375c:	f88d 0011 	strb.w	r0, [sp, #17]
    3760:	e003      	b.n	376a <HAL_UartInitCommon+0x122>
    3762:	2000      	movs	r0, #0
    3764:	f88d 0011 	strb.w	r0, [sp, #17]
    3768:	e7ff      	b.n	376a <HAL_UartInitCommon+0x122>
    376a:	9902      	ldr	r1, [sp, #8]
    376c:	7a88      	ldrb	r0, [r1, #10]
    376e:	2800      	cmp	r0, #0
    3770:	bf18      	it	ne
    3772:	2001      	movne	r0, #1
    3774:	f88d 0014 	strb.w	r0, [sp, #20]
    3778:	7ac8      	ldrb	r0, [r1, #11]
    377a:	2800      	cmp	r0, #0
    377c:	bf18      	it	ne
    377e:	2001      	movne	r0, #1
    3780:	f88d 0015 	strb.w	r0, [sp, #21]
    3784:	2000      	movs	r0, #0
    3786:	f88d 0019 	strb.w	r0, [sp, #25]
    378a:	f88d 001a 	strb.w	r0, [sp, #26]
    378e:	7b8a      	ldrb	r2, [r1, #14]
    3790:	f249 10cc 	movw	r0, #37324	; 0x91cc
    3794:	f2c0 0000 	movt	r0, #0
    3798:	f850 0022 	ldr.w	r0, [r0, r2, lsl #2]
    379c:	680a      	ldr	r2, [r1, #0]
    379e:	a903      	add	r1, sp, #12
    37a0:	f7ff f816 	bl	27d0 <USART_Init>
    37a4:	4601      	mov	r1, r0
    37a6:	9101      	str	r1, [sp, #4]
    37a8:	b128      	cbz	r0, 37b6 <HAL_UartInitCommon+0x16e>
    37aa:	e7ff      	b.n	37ac <HAL_UartInitCommon+0x164>
    37ac:	9801      	ldr	r0, [sp, #4]
    37ae:	f000 f809 	bl	37c4 <HAL_UartGetStatus>
    37b2:	9000      	str	r0, [sp, #0]
    37b4:	e002      	b.n	37bc <HAL_UartInitCommon+0x174>
    37b6:	2000      	movs	r0, #0
    37b8:	9000      	str	r0, [sp, #0]
    37ba:	e7ff      	b.n	37bc <HAL_UartInitCommon+0x174>
    37bc:	9800      	ldr	r0, [sp, #0]
    37be:	b280      	uxth	r0, r0
    37c0:	b008      	add	sp, #32
    37c2:	bd80      	pop	{r7, pc}

000037c4 <HAL_UartGetStatus>:
    37c4:	b081      	sub	sp, #4
    37c6:	b918      	cbnz	r0, 37d0 <HAL_UartGetStatus+0xc>
    37c8:	e7ff      	b.n	37ca <HAL_UartGetStatus+0x6>
    37ca:	2000      	movs	r0, #0
    37cc:	9000      	str	r0, [sp, #0]
    37ce:	e003      	b.n	37d8 <HAL_UartGetStatus+0x14>
    37d0:	f642 70af 	movw	r0, #12207	; 0x2faf
    37d4:	9000      	str	r0, [sp, #0]
    37d6:	e7ff      	b.n	37d8 <HAL_UartGetStatus+0x14>
    37d8:	9800      	ldr	r0, [sp, #0]
    37da:	b280      	uxth	r0, r0
    37dc:	b001      	add	sp, #4
    37de:	4770      	bx	lr

000037e0 <HAL_UartSendBlocking>:
    37e0:	b580      	push	{r7, lr}
    37e2:	466f      	mov	r7, sp
    37e4:	b084      	sub	sp, #16
    37e6:	9201      	str	r2, [sp, #4]
    37e8:	9102      	str	r1, [sp, #8]
    37ea:	9003      	str	r0, [sp, #12]
    37ec:	b108      	cbz	r0, 37f2 <HAL_UartSendBlocking+0x12>
    37ee:	e7ff      	b.n	37f0 <HAL_UartSendBlocking+0x10>
    37f0:	e00f      	b.n	3812 <HAL_UartSendBlocking+0x32>
    37f2:	f249 00cb 	movw	r0, #37067	; 0x90cb
    37f6:	f2c0 0000 	movt	r0, #0
    37fa:	f249 1222 	movw	r2, #37154	; 0x9122
    37fe:	f2c0 0200 	movt	r2, #0
    3802:	f648 3300 	movw	r3, #35584	; 0x8b00
    3806:	f2c0 0300 	movt	r3, #0
    380a:	f44f 71cb 	mov.w	r1, #406	; 0x196
    380e:	f001 fb98 	bl	4f42 <__assert_func>
    3812:	9802      	ldr	r0, [sp, #8]
    3814:	b108      	cbz	r0, 381a <HAL_UartSendBlocking+0x3a>
    3816:	e7ff      	b.n	3818 <HAL_UartSendBlocking+0x38>
    3818:	e00f      	b.n	383a <HAL_UartSendBlocking+0x5a>
    381a:	f249 00cb 	movw	r0, #37067	; 0x90cb
    381e:	f2c0 0000 	movt	r0, #0
    3822:	f249 1222 	movw	r2, #37154	; 0x9122
    3826:	f2c0 0200 	movt	r2, #0
    382a:	f249 1316 	movw	r3, #37142	; 0x9116
    382e:	f2c0 0300 	movt	r3, #0
    3832:	f240 1197 	movw	r1, #407	; 0x197
    3836:	f001 fb84 	bl	4f42 <__assert_func>
    383a:	9801      	ldr	r0, [sp, #4]
    383c:	b108      	cbz	r0, 3842 <HAL_UartSendBlocking+0x62>
    383e:	e7ff      	b.n	3840 <HAL_UartSendBlocking+0x60>
    3840:	e00f      	b.n	3862 <HAL_UartSendBlocking+0x82>
    3842:	f249 00cb 	movw	r0, #37067	; 0x90cb
    3846:	f2c0 0000 	movt	r0, #0
    384a:	f249 1222 	movw	r2, #37154	; 0x9122
    384e:	f2c0 0200 	movt	r2, #0
    3852:	f249 131b 	movw	r3, #37147	; 0x911b
    3856:	f2c0 0300 	movt	r3, #0
    385a:	f44f 71cc 	mov.w	r1, #408	; 0x198
    385e:	f001 fb70 	bl	4f42 <__assert_func>
    3862:	9a01      	ldr	r2, [sp, #4]
    3864:	9902      	ldr	r1, [sp, #8]
    3866:	9803      	ldr	r0, [sp, #12]
    3868:	7803      	ldrb	r3, [r0, #0]
    386a:	f249 10cc 	movw	r0, #37324	; 0x91cc
    386e:	f2c0 0000 	movt	r0, #0
    3872:	f850 0023 	ldr.w	r0, [r0, r3, lsl #2]
    3876:	f7ff f9cd 	bl	2c14 <USART_WriteBlocking>
    387a:	2000      	movs	r0, #0
    387c:	b004      	add	sp, #16
    387e:	bd80      	pop	{r7, pc}

00003880 <Serial_UartInit>:
    3880:	b580      	push	{r7, lr}
    3882:	466f      	mov	r7, sp
    3884:	b084      	sub	sp, #16
    3886:	9102      	str	r1, [sp, #8]
    3888:	9003      	str	r0, [sp, #12]
    388a:	e7ff      	b.n	388c <Serial_UartInit+0xc>
    388c:	9802      	ldr	r0, [sp, #8]
    388e:	b908      	cbnz	r0, 3894 <Serial_UartInit+0x14>
    3890:	e7ff      	b.n	3892 <Serial_UartInit+0x12>
    3892:	e7fb      	b.n	388c <Serial_UartInit+0xc>
    3894:	e7ff      	b.n	3896 <Serial_UartInit+0x16>
    3896:	9803      	ldr	r0, [sp, #12]
    3898:	b908      	cbnz	r0, 389e <Serial_UartInit+0x1e>
    389a:	e7ff      	b.n	389c <Serial_UartInit+0x1c>
    389c:	e7fb      	b.n	3896 <Serial_UartInit+0x16>
    389e:	e7ff      	b.n	38a0 <Serial_UartInit+0x20>
    38a0:	2001      	movs	r0, #1
    38a2:	b908      	cbnz	r0, 38a8 <Serial_UartInit+0x28>
    38a4:	e7ff      	b.n	38a6 <Serial_UartInit+0x26>
    38a6:	e7fb      	b.n	38a0 <Serial_UartInit+0x20>
    38a8:	9902      	ldr	r1, [sp, #8]
    38aa:	9803      	ldr	r0, [sp, #12]
    38ac:	f7ff feb3 	bl	3616 <HAL_UartInit>
    38b0:	9001      	str	r0, [sp, #4]
    38b2:	e7ff      	b.n	38b4 <Serial_UartInit+0x34>
    38b4:	9801      	ldr	r0, [sp, #4]
    38b6:	0400      	lsls	r0, r0, #16
    38b8:	b108      	cbz	r0, 38be <Serial_UartInit+0x3e>
    38ba:	e7ff      	b.n	38bc <Serial_UartInit+0x3c>
    38bc:	e7fa      	b.n	38b4 <Serial_UartInit+0x34>
    38be:	9801      	ldr	r0, [sp, #4]
    38c0:	b280      	uxth	r0, r0
    38c2:	b004      	add	sp, #16
    38c4:	bd80      	pop	{r7, pc}

000038c6 <Serial_UartWrite>:
    38c6:	b580      	push	{r7, lr}
    38c8:	466f      	mov	r7, sp
    38ca:	b084      	sub	sp, #16
    38cc:	9201      	str	r2, [sp, #4]
    38ce:	9102      	str	r1, [sp, #8]
    38d0:	9003      	str	r0, [sp, #12]
    38d2:	e7ff      	b.n	38d4 <Serial_UartWrite+0xe>
    38d4:	9803      	ldr	r0, [sp, #12]
    38d6:	b908      	cbnz	r0, 38dc <Serial_UartWrite+0x16>
    38d8:	e7ff      	b.n	38da <Serial_UartWrite+0x14>
    38da:	e7fb      	b.n	38d4 <Serial_UartWrite+0xe>
    38dc:	e7ff      	b.n	38de <Serial_UartWrite+0x18>
    38de:	9802      	ldr	r0, [sp, #8]
    38e0:	b908      	cbnz	r0, 38e6 <Serial_UartWrite+0x20>
    38e2:	e7ff      	b.n	38e4 <Serial_UartWrite+0x1e>
    38e4:	e7fb      	b.n	38de <Serial_UartWrite+0x18>
    38e6:	e7ff      	b.n	38e8 <Serial_UartWrite+0x22>
    38e8:	9801      	ldr	r0, [sp, #4]
    38ea:	b908      	cbnz	r0, 38f0 <Serial_UartWrite+0x2a>
    38ec:	e7ff      	b.n	38ee <Serial_UartWrite+0x28>
    38ee:	e7fb      	b.n	38e8 <Serial_UartWrite+0x22>
    38f0:	9a01      	ldr	r2, [sp, #4]
    38f2:	9902      	ldr	r1, [sp, #8]
    38f4:	9803      	ldr	r0, [sp, #12]
    38f6:	f7ff ff73 	bl	37e0 <HAL_UartSendBlocking>
    38fa:	b004      	add	sp, #16
    38fc:	bd80      	pop	{r7, pc}

000038fe <SerialManager_Init>:
    38fe:	b580      	push	{r7, lr}
    3900:	466f      	mov	r7, sp
    3902:	b084      	sub	sp, #16
    3904:	9102      	str	r1, [sp, #8]
    3906:	9003      	str	r0, [sp, #12]
    3908:	e7ff      	b.n	390a <SerialManager_Init+0xc>
    390a:	9802      	ldr	r0, [sp, #8]
    390c:	b908      	cbnz	r0, 3912 <SerialManager_Init+0x14>
    390e:	e7ff      	b.n	3910 <SerialManager_Init+0x12>
    3910:	e7fb      	b.n	390a <SerialManager_Init+0xc>
    3912:	e7ff      	b.n	3914 <SerialManager_Init+0x16>
    3914:	9803      	ldr	r0, [sp, #12]
    3916:	b908      	cbnz	r0, 391c <SerialManager_Init+0x1e>
    3918:	e7ff      	b.n	391a <SerialManager_Init+0x1c>
    391a:	e7fb      	b.n	3914 <SerialManager_Init+0x16>
    391c:	e7ff      	b.n	391e <SerialManager_Init+0x20>
    391e:	2001      	movs	r0, #1
    3920:	b908      	cbnz	r0, 3926 <SerialManager_Init+0x28>
    3922:	e7ff      	b.n	3924 <SerialManager_Init+0x26>
    3924:	e7fb      	b.n	391e <SerialManager_Init+0x20>
    3926:	9803      	ldr	r0, [sp, #12]
    3928:	4601      	mov	r1, r0
    392a:	9101      	str	r1, [sp, #4]
    392c:	2100      	movs	r1, #0
    392e:	2214      	movs	r2, #20
    3930:	f004 fdd4 	bl	84dc <memset>
    3934:	9a03      	ldr	r2, [sp, #12]
    3936:	9802      	ldr	r0, [sp, #8]
    3938:	7a01      	ldrb	r1, [r0, #8]
    393a:	7011      	strb	r1, [r2, #0]
    393c:	7a00      	ldrb	r0, [r0, #8]
    393e:	2801      	cmp	r0, #1
    3940:	d108      	bne.n	3954 <SerialManager_Init+0x56>
    3942:	e7ff      	b.n	3944 <SerialManager_Init+0x46>
    3944:	9902      	ldr	r1, [sp, #8]
    3946:	9801      	ldr	r0, [sp, #4]
    3948:	300c      	adds	r0, #12
    394a:	68c9      	ldr	r1, [r1, #12]
    394c:	f7ff ff98 	bl	3880 <Serial_UartInit>
    3950:	9000      	str	r0, [sp, #0]
    3952:	e003      	b.n	395c <SerialManager_Init+0x5e>
    3954:	f243 5021 	movw	r0, #13601	; 0x3521
    3958:	9000      	str	r0, [sp, #0]
    395a:	e7ff      	b.n	395c <SerialManager_Init+0x5e>
    395c:	9800      	ldr	r0, [sp, #0]
    395e:	b280      	uxth	r0, r0
    3960:	b004      	add	sp, #16
    3962:	bd80      	pop	{r7, pc}

00003964 <SerialManager_OpenWriteHandle>:
    3964:	b580      	push	{r7, lr}
    3966:	466f      	mov	r7, sp
    3968:	b084      	sub	sp, #16
    396a:	9102      	str	r1, [sp, #8]
    396c:	9003      	str	r0, [sp, #12]
    396e:	e7ff      	b.n	3970 <SerialManager_OpenWriteHandle+0xc>
    3970:	9803      	ldr	r0, [sp, #12]
    3972:	b908      	cbnz	r0, 3978 <SerialManager_OpenWriteHandle+0x14>
    3974:	e7ff      	b.n	3976 <SerialManager_OpenWriteHandle+0x12>
    3976:	e7fb      	b.n	3970 <SerialManager_OpenWriteHandle+0xc>
    3978:	e7ff      	b.n	397a <SerialManager_OpenWriteHandle+0x16>
    397a:	9802      	ldr	r0, [sp, #8]
    397c:	b908      	cbnz	r0, 3982 <SerialManager_OpenWriteHandle+0x1e>
    397e:	e7ff      	b.n	3980 <SerialManager_OpenWriteHandle+0x1c>
    3980:	e7fb      	b.n	397a <SerialManager_OpenWriteHandle+0x16>
    3982:	e7ff      	b.n	3984 <SerialManager_OpenWriteHandle+0x20>
    3984:	2001      	movs	r0, #1
    3986:	b908      	cbnz	r0, 398c <SerialManager_OpenWriteHandle+0x28>
    3988:	e7ff      	b.n	398a <SerialManager_OpenWriteHandle+0x26>
    398a:	e7fb      	b.n	3984 <SerialManager_OpenWriteHandle+0x20>
    398c:	f000 f812 	bl	39b4 <DisableGlobalIRQ>
    3990:	9a03      	ldr	r2, [sp, #12]
    3992:	6891      	ldr	r1, [r2, #8]
    3994:	3101      	adds	r1, #1
    3996:	6091      	str	r1, [r2, #8]
    3998:	f000 f810 	bl	39bc <EnableGlobalIRQ>
    399c:	9802      	ldr	r0, [sp, #8]
    399e:	2100      	movs	r1, #0
    39a0:	9101      	str	r1, [sp, #4]
    39a2:	2204      	movs	r2, #4
    39a4:	f004 fd9a 	bl	84dc <memset>
    39a8:	9a02      	ldr	r2, [sp, #8]
    39aa:	9903      	ldr	r1, [sp, #12]
    39ac:	9801      	ldr	r0, [sp, #4]
    39ae:	6011      	str	r1, [r2, #0]
    39b0:	b004      	add	sp, #16
    39b2:	bd80      	pop	{r7, pc}

000039b4 <DisableGlobalIRQ>:
    39b4:	f3ef 8010 	mrs	r0, PRIMASK
    39b8:	b672      	cpsid	i
    39ba:	4770      	bx	lr

000039bc <EnableGlobalIRQ>:
    39bc:	f380 8810 	msr	PRIMASK, r0
    39c0:	4770      	bx	lr

000039c2 <SerialManager_OpenReadHandle>:
    39c2:	b580      	push	{r7, lr}
    39c4:	466f      	mov	r7, sp
    39c6:	b088      	sub	sp, #32
    39c8:	9106      	str	r1, [sp, #24]
    39ca:	9007      	str	r0, [sp, #28]
    39cc:	e7ff      	b.n	39ce <SerialManager_OpenReadHandle+0xc>
    39ce:	9807      	ldr	r0, [sp, #28]
    39d0:	b908      	cbnz	r0, 39d6 <SerialManager_OpenReadHandle+0x14>
    39d2:	e7ff      	b.n	39d4 <SerialManager_OpenReadHandle+0x12>
    39d4:	e7fb      	b.n	39ce <SerialManager_OpenReadHandle+0xc>
    39d6:	e7ff      	b.n	39d8 <SerialManager_OpenReadHandle+0x16>
    39d8:	9806      	ldr	r0, [sp, #24]
    39da:	b908      	cbnz	r0, 39e0 <SerialManager_OpenReadHandle+0x1e>
    39dc:	e7ff      	b.n	39de <SerialManager_OpenReadHandle+0x1c>
    39de:	e7fb      	b.n	39d8 <SerialManager_OpenReadHandle+0x16>
    39e0:	e7ff      	b.n	39e2 <SerialManager_OpenReadHandle+0x20>
    39e2:	2001      	movs	r0, #1
    39e4:	b908      	cbnz	r0, 39ea <SerialManager_OpenReadHandle+0x28>
    39e6:	e7ff      	b.n	39e8 <SerialManager_OpenReadHandle+0x26>
    39e8:	e7fb      	b.n	39e2 <SerialManager_OpenReadHandle+0x20>
    39ea:	9907      	ldr	r1, [sp, #28]
    39ec:	9806      	ldr	r0, [sp, #24]
    39ee:	9103      	str	r1, [sp, #12]
    39f0:	9004      	str	r0, [sp, #16]
    39f2:	f7ff ffdf 	bl	39b4 <DisableGlobalIRQ>
    39f6:	4601      	mov	r1, r0
    39f8:	9807      	ldr	r0, [sp, #28]
    39fa:	9105      	str	r1, [sp, #20]
    39fc:	6840      	ldr	r0, [r0, #4]
    39fe:	b120      	cbz	r0, 3a0a <SerialManager_OpenReadHandle+0x48>
    3a00:	e7ff      	b.n	3a02 <SerialManager_OpenReadHandle+0x40>
    3a02:	f243 5022 	movw	r0, #13602	; 0x3522
    3a06:	9002      	str	r0, [sp, #8]
    3a08:	e00e      	b.n	3a28 <SerialManager_OpenReadHandle+0x66>
    3a0a:	9a03      	ldr	r2, [sp, #12]
    3a0c:	9904      	ldr	r1, [sp, #16]
    3a0e:	9806      	ldr	r0, [sp, #24]
    3a10:	6051      	str	r1, [r2, #4]
    3a12:	2100      	movs	r1, #0
    3a14:	9101      	str	r1, [sp, #4]
    3a16:	2204      	movs	r2, #4
    3a18:	f004 fd60 	bl	84dc <memset>
    3a1c:	9a04      	ldr	r2, [sp, #16]
    3a1e:	9903      	ldr	r1, [sp, #12]
    3a20:	9801      	ldr	r0, [sp, #4]
    3a22:	6011      	str	r1, [r2, #0]
    3a24:	9002      	str	r0, [sp, #8]
    3a26:	e7ff      	b.n	3a28 <SerialManager_OpenReadHandle+0x66>
    3a28:	9805      	ldr	r0, [sp, #20]
    3a2a:	9902      	ldr	r1, [sp, #8]
    3a2c:	9100      	str	r1, [sp, #0]
    3a2e:	f7ff ffc5 	bl	39bc <EnableGlobalIRQ>
    3a32:	9800      	ldr	r0, [sp, #0]
    3a34:	b280      	uxth	r0, r0
    3a36:	b008      	add	sp, #32
    3a38:	bd80      	pop	{r7, pc}

00003a3a <SerialManager_WriteBlocking>:
    3a3a:	b580      	push	{r7, lr}
    3a3c:	466f      	mov	r7, sp
    3a3e:	f000 f801 	bl	3a44 <SerialManager_Write>
    3a42:	bd80      	pop	{r7, pc}

00003a44 <SerialManager_Write>:
    3a44:	b580      	push	{r7, lr}
    3a46:	466f      	mov	r7, sp
    3a48:	b086      	sub	sp, #24
    3a4a:	9203      	str	r2, [sp, #12]
    3a4c:	9104      	str	r1, [sp, #16]
    3a4e:	9005      	str	r0, [sp, #20]
    3a50:	e7ff      	b.n	3a52 <SerialManager_Write+0xe>
    3a52:	9805      	ldr	r0, [sp, #20]
    3a54:	b908      	cbnz	r0, 3a5a <SerialManager_Write+0x16>
    3a56:	e7ff      	b.n	3a58 <SerialManager_Write+0x14>
    3a58:	e7fb      	b.n	3a52 <SerialManager_Write+0xe>
    3a5a:	e7ff      	b.n	3a5c <SerialManager_Write+0x18>
    3a5c:	9804      	ldr	r0, [sp, #16]
    3a5e:	b908      	cbnz	r0, 3a64 <SerialManager_Write+0x20>
    3a60:	e7ff      	b.n	3a62 <SerialManager_Write+0x1e>
    3a62:	e7fb      	b.n	3a5c <SerialManager_Write+0x18>
    3a64:	e7ff      	b.n	3a66 <SerialManager_Write+0x22>
    3a66:	9803      	ldr	r0, [sp, #12]
    3a68:	b908      	cbnz	r0, 3a6e <SerialManager_Write+0x2a>
    3a6a:	e7ff      	b.n	3a6c <SerialManager_Write+0x28>
    3a6c:	e7fb      	b.n	3a66 <SerialManager_Write+0x22>
    3a6e:	9805      	ldr	r0, [sp, #20]
    3a70:	4601      	mov	r1, r0
    3a72:	9101      	str	r1, [sp, #4]
    3a74:	6800      	ldr	r0, [r0, #0]
    3a76:	9002      	str	r0, [sp, #8]
    3a78:	e7ff      	b.n	3a7a <SerialManager_Write+0x36>
    3a7a:	9802      	ldr	r0, [sp, #8]
    3a7c:	b908      	cbnz	r0, 3a82 <SerialManager_Write+0x3e>
    3a7e:	e7ff      	b.n	3a80 <SerialManager_Write+0x3c>
    3a80:	e7fb      	b.n	3a7a <SerialManager_Write+0x36>
    3a82:	9b03      	ldr	r3, [sp, #12]
    3a84:	9a04      	ldr	r2, [sp, #16]
    3a86:	9901      	ldr	r1, [sp, #4]
    3a88:	9802      	ldr	r0, [sp, #8]
    3a8a:	f000 f802 	bl	3a92 <SerialManager_StartWriting>
    3a8e:	b006      	add	sp, #24
    3a90:	bd80      	pop	{r7, pc}

00003a92 <SerialManager_StartWriting>:
    3a92:	b580      	push	{r7, lr}
    3a94:	466f      	mov	r7, sp
    3a96:	b084      	sub	sp, #16
    3a98:	9301      	str	r3, [sp, #4]
    3a9a:	9202      	str	r2, [sp, #8]
    3a9c:	9003      	str	r0, [sp, #12]
    3a9e:	7800      	ldrb	r0, [r0, #0]
    3aa0:	2801      	cmp	r0, #1
    3aa2:	d108      	bne.n	3ab6 <SerialManager_StartWriting+0x24>
    3aa4:	e7ff      	b.n	3aa6 <SerialManager_StartWriting+0x14>
    3aa6:	9a01      	ldr	r2, [sp, #4]
    3aa8:	9902      	ldr	r1, [sp, #8]
    3aaa:	9803      	ldr	r0, [sp, #12]
    3aac:	300c      	adds	r0, #12
    3aae:	f7ff ff0a 	bl	38c6 <Serial_UartWrite>
    3ab2:	9000      	str	r0, [sp, #0]
    3ab4:	e003      	b.n	3abe <SerialManager_StartWriting+0x2c>
    3ab6:	f243 5021 	movw	r0, #13601	; 0x3521
    3aba:	9000      	str	r0, [sp, #0]
    3abc:	e7ff      	b.n	3abe <SerialManager_StartWriting+0x2c>
    3abe:	9800      	ldr	r0, [sp, #0]
    3ac0:	b280      	uxth	r0, r0
    3ac2:	b004      	add	sp, #16
    3ac4:	bd80      	pop	{r7, pc}
	...

00003ac8 <StrFormatPrintf>:
    3ac8:	b5f0      	push	{r4, r5, r6, r7, lr}
    3aca:	af03      	add	r7, sp, #12
    3acc:	f84d bd04 	str.w	fp, [sp, #-4]!
    3ad0:	b0c0      	sub	sp, #256	; 0x100
    3ad2:	9327      	str	r3, [sp, #156]	; 0x9c
    3ad4:	9228      	str	r2, [sp, #160]	; 0xa0
    3ad6:	913f      	str	r1, [sp, #252]	; 0xfc
    3ad8:	2100      	movs	r1, #0
    3ada:	9134      	str	r1, [sp, #208]	; 0xd0
    3adc:	912f      	str	r1, [sp, #188]	; 0xbc
    3ade:	912e      	str	r1, [sp, #184]	; 0xb8
    3ae0:	903e      	str	r0, [sp, #248]	; 0xf8
    3ae2:	e7ff      	b.n	3ae4 <StrFormatPrintf+0x1c>
    3ae4:	983e      	ldr	r0, [sp, #248]	; 0xf8
    3ae6:	7800      	ldrb	r0, [r0, #0]
    3ae8:	b908      	cbnz	r0, 3aee <StrFormatPrintf+0x26>
    3aea:	e7ff      	b.n	3aec <StrFormatPrintf+0x24>
    3aec:	e1e8      	b.n	3ec0 <StrFormatPrintf+0x3f8>
    3aee:	983e      	ldr	r0, [sp, #248]	; 0xf8
    3af0:	7800      	ldrb	r0, [r0, #0]
    3af2:	4601      	mov	r1, r0
    3af4:	9126      	str	r1, [sp, #152]	; 0x98
    3af6:	2825      	cmp	r0, #37	; 0x25
    3af8:	d00c      	beq.n	3b14 <StrFormatPrintf+0x4c>
    3afa:	e7ff      	b.n	3afc <StrFormatPrintf+0x34>
    3afc:	f8dd c09c 	ldr.w	ip, [sp, #156]	; 0x9c
    3b00:	9828      	ldr	r0, [sp, #160]	; 0xa0
    3b02:	9926      	ldr	r1, [sp, #152]	; 0x98
    3b04:	b2ca      	uxtb	r2, r1
    3b06:	a934      	add	r1, sp, #208	; 0xd0
    3b08:	2301      	movs	r3, #1
    3b0a:	47e0      	blx	ip
    3b0c:	983e      	ldr	r0, [sp, #248]	; 0xf8
    3b0e:	3001      	adds	r0, #1
    3b10:	903e      	str	r0, [sp, #248]	; 0xf8
    3b12:	e7e7      	b.n	3ae4 <StrFormatPrintf+0x1c>
    3b14:	a83e      	add	r0, sp, #248	; 0xf8
    3b16:	9023      	str	r0, [sp, #140]	; 0x8c
    3b18:	f000 f9de 	bl	3ed8 <PrintCheckFlags>
    3b1c:	4601      	mov	r1, r0
    3b1e:	9823      	ldr	r0, [sp, #140]	; 0x8c
    3b20:	9133      	str	r1, [sp, #204]	; 0xcc
    3b22:	a93f      	add	r1, sp, #252	; 0xfc
    3b24:	9121      	str	r1, [sp, #132]	; 0x84
    3b26:	f000 fa41 	bl	3fac <PrintGetWidth>
    3b2a:	9921      	ldr	r1, [sp, #132]	; 0x84
    3b2c:	4602      	mov	r2, r0
    3b2e:	9823      	ldr	r0, [sp, #140]	; 0x8c
    3b30:	9222      	str	r2, [sp, #136]	; 0x88
    3b32:	f1a7 0259 	sub.w	r2, r7, #89	; 0x59
    3b36:	f000 fa87 	bl	4048 <PrintGetPrecision>
    3b3a:	4601      	mov	r1, r0
    3b3c:	9823      	ldr	r0, [sp, #140]	; 0x8c
