
../lpc_firmware/pinlock/output/pinlock.elf:     file format elf32-littlearm


Disassembly of section .text:

00000200 <__do_global_dtors_aux>:
     200:	b510      	push	{r4, lr}
     202:	4c05      	ldr	r4, [pc, #20]	; (218 <__do_global_dtors_aux+0x18>)
     204:	7823      	ldrb	r3, [r4, #0]
     206:	b933      	cbnz	r3, 216 <__do_global_dtors_aux+0x16>
     208:	4b04      	ldr	r3, [pc, #16]	; (21c <__do_global_dtors_aux+0x1c>)
     20a:	b113      	cbz	r3, 212 <__do_global_dtors_aux+0x12>
     20c:	4804      	ldr	r0, [pc, #16]	; (220 <__do_global_dtors_aux+0x20>)
     20e:	f3af 8000 	nop.w
     212:	2301      	movs	r3, #1
     214:	7023      	strb	r3, [r4, #0]
     216:	bd10      	pop	{r4, pc}
     218:	200009b8 	.word	0x200009b8
     21c:	00000000 	.word	0x00000000
     220:	00006898 	.word	0x00006898

00000224 <frame_dummy>:
     224:	b508      	push	{r3, lr}
     226:	4b03      	ldr	r3, [pc, #12]	; (234 <frame_dummy+0x10>)
     228:	b11b      	cbz	r3, 232 <frame_dummy+0xe>
     22a:	4903      	ldr	r1, [pc, #12]	; (238 <frame_dummy+0x14>)
     22c:	4803      	ldr	r0, [pc, #12]	; (23c <frame_dummy+0x18>)
     22e:	f3af 8000 	nop.w
     232:	bd08      	pop	{r3, pc}
     234:	00000000 	.word	0x00000000
     238:	200009bc 	.word	0x200009bc
     23c:	00006898 	.word	0x00006898

00000240 <_stack_init>:
     240:	f5a3 3a80 	sub.w	sl, r3, #65536	; 0x10000
     244:	4770      	bx	lr
     246:	bf00      	nop

00000248 <_mainCRTStartup>:
     248:	4b17      	ldr	r3, [pc, #92]	; (2a8 <_mainCRTStartup+0x60>)
     24a:	2b00      	cmp	r3, #0
     24c:	bf08      	it	eq
     24e:	4b13      	ldreq	r3, [pc, #76]	; (29c <_mainCRTStartup+0x54>)
     250:	469d      	mov	sp, r3
     252:	f7ff fff5 	bl	240 <_stack_init>
     256:	2100      	movs	r1, #0
     258:	468b      	mov	fp, r1
     25a:	460f      	mov	r7, r1
     25c:	4813      	ldr	r0, [pc, #76]	; (2ac <_mainCRTStartup+0x64>)
     25e:	4a14      	ldr	r2, [pc, #80]	; (2b0 <_mainCRTStartup+0x68>)
     260:	1a12      	subs	r2, r2, r0
     262:	f003 f929 	bl	34b8 <memset>
     266:	4b0e      	ldr	r3, [pc, #56]	; (2a0 <_mainCRTStartup+0x58>)
     268:	2b00      	cmp	r3, #0
     26a:	d000      	beq.n	26e <_mainCRTStartup+0x26>
     26c:	4798      	blx	r3
     26e:	4b0d      	ldr	r3, [pc, #52]	; (2a4 <_mainCRTStartup+0x5c>)
     270:	2b00      	cmp	r3, #0
     272:	d000      	beq.n	276 <_mainCRTStartup+0x2e>
     274:	4798      	blx	r3
     276:	2000      	movs	r0, #0
     278:	2100      	movs	r1, #0
     27a:	0004      	movs	r4, r0
     27c:	000d      	movs	r5, r1
     27e:	480d      	ldr	r0, [pc, #52]	; (2b4 <_mainCRTStartup+0x6c>)
     280:	2800      	cmp	r0, #0
     282:	d002      	beq.n	28a <_mainCRTStartup+0x42>
     284:	480c      	ldr	r0, [pc, #48]	; (2b8 <_mainCRTStartup+0x70>)
     286:	f004 fa8b 	bl	47a0 <atexit>
     28a:	f002 fe03 	bl	2e94 <__libc_init_array>
     28e:	0020      	movs	r0, r4
     290:	0029      	movs	r1, r5
     292:	f002 fd1d 	bl	2cd0 <main>
     296:	f002 fdd9 	bl	2e4c <exit>
     29a:	bf00      	nop
     29c:	00080000 	.word	0x00080000
	...
     2a8:	20033000 	.word	0x20033000
     2ac:	200009b8 	.word	0x200009b8
     2b0:	20000abc 	.word	0x20000abc
     2b4:	000047a1 	.word	0x000047a1
     2b8:	00004a89 	.word	0x00004a89

000002bc <Reset_Handler>:
     2bc:	b672      	cpsid	i
     2be:	4817      	ldr	r0, [pc, #92]	; (31c <Reset_Handler+0x60>)
     2c0:	4917      	ldr	r1, [pc, #92]	; (320 <Reset_Handler+0x64>)
     2c2:	6001      	str	r1, [r0, #0]
     2c4:	680a      	ldr	r2, [r1, #0]
     2c6:	f382 8808 	msr	MSP, r2
     2ca:	4816      	ldr	r0, [pc, #88]	; (324 <Reset_Handler+0x68>)
     2cc:	f380 880a 	msr	MSPLIM, r0
     2d0:	4815      	ldr	r0, [pc, #84]	; (328 <Reset_Handler+0x6c>)
     2d2:	4780      	blx	r0
     2d4:	4915      	ldr	r1, [pc, #84]	; (32c <Reset_Handler+0x70>)
     2d6:	4a16      	ldr	r2, [pc, #88]	; (330 <Reset_Handler+0x74>)
     2d8:	4b16      	ldr	r3, [pc, #88]	; (334 <Reset_Handler+0x78>)
     2da:	429a      	cmp	r2, r3
     2dc:	bfbe      	ittt	lt
     2de:	f851 0b04 	ldrlt.w	r0, [r1], #4
     2e2:	f842 0b04 	strlt.w	r0, [r2], #4
     2e6:	e7f8      	blt.n	2da <Reset_Handler+0x1e>
     2e8:	4913      	ldr	r1, [pc, #76]	; (338 <Reset_Handler+0x7c>)
     2ea:	4a14      	ldr	r2, [pc, #80]	; (33c <Reset_Handler+0x80>)
     2ec:	2000      	movs	r0, #0
     2ee:	4291      	cmp	r1, r2
     2f0:	bfbc      	itt	lt
     2f2:	f841 0b04 	strlt.w	r0, [r1], #4
     2f6:	e7fa      	blt.n	2ee <Reset_Handler+0x32>
     2f8:	2000      	movs	r0, #0
     2fa:	4911      	ldr	r1, [pc, #68]	; (340 <Reset_Handler+0x84>)
     2fc:	4a11      	ldr	r2, [pc, #68]	; (344 <Reset_Handler+0x88>)
     2fe:	4291      	cmp	r1, r2
     300:	bfbc      	itt	lt
     302:	f841 0b04 	strlt.w	r0, [r1], #4
     306:	e7fa      	blt.n	2fe <Reset_Handler+0x42>
     308:	490f      	ldr	r1, [pc, #60]	; (348 <Reset_Handler+0x8c>)
     30a:	4a10      	ldr	r2, [pc, #64]	; (34c <Reset_Handler+0x90>)
     30c:	4291      	cmp	r1, r2
     30e:	bfbc      	itt	lt
     310:	f841 0b04 	strlt.w	r0, [r1], #4
     314:	e7fa      	blt.n	30c <Reset_Handler+0x50>
     316:	b662      	cpsie	i
     318:	480d      	ldr	r0, [pc, #52]	; (350 <Reset_Handler+0x94>)
     31a:	4780      	blx	r0
     31c:	e000ed08 	.word	0xe000ed08
     320:	00000000 	.word	0x00000000
     324:	20032800 	.word	0x20032800
     328:	0000096d 	.word	0x0000096d
     32c:	000068c4 	.word	0x000068c4
     330:	20000000 	.word	0x20000000
     334:	200009b8 	.word	0x200009b8
     338:	200009b8 	.word	0x200009b8
     33c:	20000abc 	.word	0x20000abc
     340:	20000ac0 	.word	0x20000ac0
     344:	20000ec0 	.word	0x20000ec0
     348:	20032800 	.word	0x20032800
     34c:	20033000 	.word	0x20033000
     350:	00000249 	.word	0x00000249

00000354 <ACMP_DriverIRQHandler>:
     354:	f7ff bffe 	b.w	354 <ACMP_DriverIRQHandler>

00000358 <NMI_Handler>:
     358:	4840      	ldr	r0, [pc, #256]	; (45c <FLEXCOMM8_IRQHandler+0x4>)
     35a:	4700      	bx	r0

0000035c <HardFault_Handler>:
     35c:	4840      	ldr	r0, [pc, #256]	; (460 <FLEXCOMM8_IRQHandler+0x8>)
     35e:	4700      	bx	r0

00000360 <SVC_Handler>:
     360:	4840      	ldr	r0, [pc, #256]	; (464 <FLEXCOMM8_IRQHandler+0xc>)
     362:	4700      	bx	r0

00000364 <PendSV_Handler>:
     364:	4840      	ldr	r0, [pc, #256]	; (468 <FLEXCOMM8_IRQHandler+0x10>)
     366:	4700      	bx	r0
     368:	4840      	ldr	r0, [pc, #256]	; (46c <FLEXCOMM8_IRQHandler+0x14>)
     36a:	4700      	bx	r0

0000036c <WDT_BOD_IRQHandler>:
     36c:	4840      	ldr	r0, [pc, #256]	; (470 <FLEXCOMM8_IRQHandler+0x18>)
     36e:	4700      	bx	r0

00000370 <DMA0_IRQHandler>:
     370:	4840      	ldr	r0, [pc, #256]	; (474 <FLEXCOMM8_IRQHandler+0x1c>)
     372:	4700      	bx	r0

00000374 <GINT0_IRQHandler>:
     374:	4840      	ldr	r0, [pc, #256]	; (478 <FLEXCOMM8_IRQHandler+0x20>)
     376:	4700      	bx	r0

00000378 <GINT1_IRQHandler>:
     378:	4840      	ldr	r0, [pc, #256]	; (47c <FLEXCOMM8_IRQHandler+0x24>)
     37a:	4700      	bx	r0

0000037c <PIN_INT0_IRQHandler>:
     37c:	4840      	ldr	r0, [pc, #256]	; (480 <FLEXCOMM8_IRQHandler+0x28>)
     37e:	4700      	bx	r0

00000380 <PIN_INT1_IRQHandler>:
     380:	4840      	ldr	r0, [pc, #256]	; (484 <FLEXCOMM8_IRQHandler+0x2c>)
     382:	4700      	bx	r0

00000384 <PIN_INT2_IRQHandler>:
     384:	4840      	ldr	r0, [pc, #256]	; (488 <FLEXCOMM8_IRQHandler+0x30>)
     386:	4700      	bx	r0

00000388 <PIN_INT3_IRQHandler>:
     388:	4840      	ldr	r0, [pc, #256]	; (48c <FLEXCOMM8_IRQHandler+0x34>)
     38a:	4700      	bx	r0

0000038c <UTICK0_IRQHandler>:
     38c:	4840      	ldr	r0, [pc, #256]	; (490 <FLEXCOMM8_IRQHandler+0x38>)
     38e:	4700      	bx	r0

00000390 <MRT0_IRQHandler>:
     390:	4840      	ldr	r0, [pc, #256]	; (494 <FLEXCOMM8_IRQHandler+0x3c>)
     392:	4700      	bx	r0

00000394 <CTIMER0_IRQHandler>:
     394:	4840      	ldr	r0, [pc, #256]	; (498 <FLEXCOMM8_IRQHandler+0x40>)
     396:	4700      	bx	r0

00000398 <CTIMER1_IRQHandler>:
     398:	4840      	ldr	r0, [pc, #256]	; (49c <FLEXCOMM8_IRQHandler+0x44>)
     39a:	4700      	bx	r0

0000039c <SCT0_IRQHandler>:
     39c:	4840      	ldr	r0, [pc, #256]	; (4a0 <FLEXCOMM8_IRQHandler+0x48>)
     39e:	4700      	bx	r0

000003a0 <CTIMER3_IRQHandler>:
     3a0:	4840      	ldr	r0, [pc, #256]	; (4a4 <FLEXCOMM8_IRQHandler+0x4c>)
     3a2:	4700      	bx	r0
     3a4:	4840      	ldr	r0, [pc, #256]	; (4a8 <FLEXCOMM8_IRQHandler+0x50>)
     3a6:	4700      	bx	r0

000003a8 <FLEXCOMM1_IRQHandler>:
     3a8:	4840      	ldr	r0, [pc, #256]	; (4ac <FLEXCOMM8_IRQHandler+0x54>)
     3aa:	4700      	bx	r0

000003ac <FLEXCOMM2_IRQHandler>:
     3ac:	4840      	ldr	r0, [pc, #256]	; (4b0 <FLEXCOMM8_IRQHandler+0x58>)
     3ae:	4700      	bx	r0

000003b0 <FLEXCOMM3_IRQHandler>:
     3b0:	4840      	ldr	r0, [pc, #256]	; (4b4 <FLEXCOMM8_IRQHandler+0x5c>)
     3b2:	4700      	bx	r0

000003b4 <FLEXCOMM4_IRQHandler>:
     3b4:	4840      	ldr	r0, [pc, #256]	; (4b8 <FLEXCOMM8_IRQHandler+0x60>)
     3b6:	4700      	bx	r0

000003b8 <FLEXCOMM5_IRQHandler>:
     3b8:	4840      	ldr	r0, [pc, #256]	; (4bc <FLEXCOMM8_IRQHandler+0x64>)
     3ba:	4700      	bx	r0

000003bc <FLEXCOMM6_IRQHandler>:
     3bc:	4840      	ldr	r0, [pc, #256]	; (4c0 <FLEXCOMM8_IRQHandler+0x68>)
     3be:	4700      	bx	r0

000003c0 <FLEXCOMM7_IRQHandler>:
     3c0:	4840      	ldr	r0, [pc, #256]	; (4c4 <FLEXCOMM8_IRQHandler+0x6c>)
     3c2:	4700      	bx	r0

000003c4 <ADC0_IRQHandler>:
     3c4:	4840      	ldr	r0, [pc, #256]	; (4c8 <FLEXCOMM8_IRQHandler+0x70>)
     3c6:	4700      	bx	r0

000003c8 <Reserved39_IRQHandler>:
     3c8:	4840      	ldr	r0, [pc, #256]	; (4cc <FLEXCOMM8_IRQHandler+0x74>)
     3ca:	4700      	bx	r0

000003cc <ACMP_IRQHandler>:
     3cc:	4840      	ldr	r0, [pc, #256]	; (4d0 <FLEXCOMM8_IRQHandler+0x78>)
     3ce:	4700      	bx	r0

000003d0 <Reserved41_IRQHandler>:
     3d0:	4840      	ldr	r0, [pc, #256]	; (4d4 <FLEXCOMM8_IRQHandler+0x7c>)
     3d2:	4700      	bx	r0

000003d4 <Reserved42_IRQHandler>:
     3d4:	4840      	ldr	r0, [pc, #256]	; (4d8 <FLEXCOMM8_IRQHandler+0x80>)
     3d6:	4700      	bx	r0

000003d8 <USB0_NEEDCLK_IRQHandler>:
     3d8:	4840      	ldr	r0, [pc, #256]	; (4dc <FLEXCOMM8_IRQHandler+0x84>)
     3da:	4700      	bx	r0

000003dc <USB0_IRQHandler>:
     3dc:	4840      	ldr	r0, [pc, #256]	; (4e0 <FLEXCOMM8_IRQHandler+0x88>)
     3de:	4700      	bx	r0

000003e0 <RTC_IRQHandler>:
     3e0:	4840      	ldr	r0, [pc, #256]	; (4e4 <FLEXCOMM8_IRQHandler+0x8c>)
     3e2:	4700      	bx	r0

000003e4 <Reserved46_IRQHandler>:
     3e4:	4840      	ldr	r0, [pc, #256]	; (4e8 <FLEXCOMM8_IRQHandler+0x90>)
     3e6:	4700      	bx	r0

000003e8 <MAILBOX_IRQHandler>:
     3e8:	4840      	ldr	r0, [pc, #256]	; (4ec <FLEXCOMM8_IRQHandler+0x94>)
     3ea:	4700      	bx	r0

000003ec <PIN_INT4_IRQHandler>:
     3ec:	4840      	ldr	r0, [pc, #256]	; (4f0 <FLEXCOMM8_IRQHandler+0x98>)
     3ee:	4700      	bx	r0

000003f0 <PIN_INT5_IRQHandler>:
     3f0:	4840      	ldr	r0, [pc, #256]	; (4f4 <FLEXCOMM8_IRQHandler+0x9c>)
     3f2:	4700      	bx	r0

000003f4 <PIN_INT6_IRQHandler>:
     3f4:	4840      	ldr	r0, [pc, #256]	; (4f8 <FLEXCOMM8_IRQHandler+0xa0>)
     3f6:	4700      	bx	r0

000003f8 <PIN_INT7_IRQHandler>:
     3f8:	4840      	ldr	r0, [pc, #256]	; (4fc <FLEXCOMM8_IRQHandler+0xa4>)
     3fa:	4700      	bx	r0

000003fc <CTIMER2_IRQHandler>:
     3fc:	4840      	ldr	r0, [pc, #256]	; (500 <FLEXCOMM8_IRQHandler+0xa8>)
     3fe:	4700      	bx	r0

00000400 <CTIMER4_IRQHandler>:
     400:	4840      	ldr	r0, [pc, #256]	; (504 <FLEXCOMM8_IRQHandler+0xac>)
     402:	4700      	bx	r0

00000404 <OS_EVENT_IRQHandler>:
     404:	4840      	ldr	r0, [pc, #256]	; (508 <FLEXCOMM8_IRQHandler+0xb0>)
     406:	4700      	bx	r0

00000408 <Reserved55_IRQHandler>:
     408:	4840      	ldr	r0, [pc, #256]	; (50c <FLEXCOMM8_IRQHandler+0xb4>)
     40a:	4700      	bx	r0

0000040c <Reserved56_IRQHandler>:
     40c:	4840      	ldr	r0, [pc, #256]	; (510 <FLEXCOMM8_IRQHandler+0xb8>)
     40e:	4700      	bx	r0

00000410 <Reserved57_IRQHandler>:
     410:	4840      	ldr	r0, [pc, #256]	; (514 <FLEXCOMM8_IRQHandler+0xbc>)
     412:	4700      	bx	r0

00000414 <SDIO_IRQHandler>:
     414:	4840      	ldr	r0, [pc, #256]	; (518 <FLEXCOMM8_IRQHandler+0xc0>)
     416:	4700      	bx	r0

00000418 <Reserved59_IRQHandler>:
     418:	4840      	ldr	r0, [pc, #256]	; (51c <FLEXCOMM8_IRQHandler+0xc4>)
     41a:	4700      	bx	r0

0000041c <Reserved60_IRQHandler>:
     41c:	4840      	ldr	r0, [pc, #256]	; (520 <FLEXCOMM8_IRQHandler+0xc8>)
     41e:	4700      	bx	r0

00000420 <Reserved61_IRQHandler>:
     420:	4840      	ldr	r0, [pc, #256]	; (524 <FLEXCOMM8_IRQHandler+0xcc>)
     422:	4700      	bx	r0

00000424 <USB1_PHY_IRQHandler>:
     424:	4840      	ldr	r0, [pc, #256]	; (528 <FLEXCOMM8_IRQHandler+0xd0>)
     426:	4700      	bx	r0

00000428 <USB1_IRQHandler>:
     428:	4840      	ldr	r0, [pc, #256]	; (52c <FLEXCOMM8_IRQHandler+0xd4>)
     42a:	4700      	bx	r0

0000042c <USB1_NEEDCLK_IRQHandler>:
     42c:	4840      	ldr	r0, [pc, #256]	; (530 <FLEXCOMM8_IRQHandler+0xd8>)
     42e:	4700      	bx	r0

00000430 <SEC_HYPERVISOR_CALL_IRQHandler>:
     430:	4840      	ldr	r0, [pc, #256]	; (534 <FLEXCOMM8_IRQHandler+0xdc>)
     432:	4700      	bx	r0

00000434 <SEC_GPIO_INT0_IRQ0_IRQHandler>:
     434:	4840      	ldr	r0, [pc, #256]	; (538 <FLEXCOMM8_IRQHandler+0xe0>)
     436:	4700      	bx	r0

00000438 <SEC_GPIO_INT0_IRQ1_IRQHandler>:
     438:	4840      	ldr	r0, [pc, #256]	; (53c <FLEXCOMM8_IRQHandler+0xe4>)
     43a:	4700      	bx	r0

0000043c <PLU_IRQHandler>:
     43c:	4840      	ldr	r0, [pc, #256]	; (540 <FLEXCOMM8_IRQHandler+0xe8>)
     43e:	4700      	bx	r0

00000440 <SEC_VIO_IRQHandler>:
     440:	4840      	ldr	r0, [pc, #256]	; (544 <FLEXCOMM8_IRQHandler+0xec>)
     442:	4700      	bx	r0

00000444 <HASHCRYPT_IRQHandler>:
     444:	4840      	ldr	r0, [pc, #256]	; (548 <FLEXCOMM8_IRQHandler+0xf0>)
     446:	4700      	bx	r0

00000448 <CASER_IRQHandler>:
     448:	4840      	ldr	r0, [pc, #256]	; (54c <FLEXCOMM8_IRQHandler+0xf4>)
     44a:	4700      	bx	r0

0000044c <PUF_IRQHandler>:
     44c:	4840      	ldr	r0, [pc, #256]	; (550 <FLEXCOMM8_IRQHandler+0xf8>)
     44e:	4700      	bx	r0

00000450 <PQ_IRQHandler>:
     450:	4840      	ldr	r0, [pc, #256]	; (554 <FLEXCOMM8_IRQHandler+0xfc>)
     452:	4700      	bx	r0

00000454 <DMA1_IRQHandler>:
     454:	4840      	ldr	r0, [pc, #256]	; (558 <FLEXCOMM8_IRQHandler+0x100>)
     456:	4700      	bx	r0

00000458 <FLEXCOMM8_IRQHandler>:
     458:	4840      	ldr	r0, [pc, #256]	; (55c <FLEXCOMM8_IRQHandler+0x104>)
     45a:	4700      	bx	r0
     45c:	00000359 	.word	0x00000359
     460:	0000035d 	.word	0x0000035d
     464:	00000361 	.word	0x00000361
     468:	00000365 	.word	0x00000365
     46c:	00002def 	.word	0x00002def
     470:	00000355 	.word	0x00000355
     474:	00000355 	.word	0x00000355
     478:	00000355 	.word	0x00000355
     47c:	00000355 	.word	0x00000355
     480:	00000355 	.word	0x00000355
     484:	00000355 	.word	0x00000355
     488:	00000355 	.word	0x00000355
     48c:	00000355 	.word	0x00000355
     490:	00000355 	.word	0x00000355
     494:	00000355 	.word	0x00000355
     498:	00000355 	.word	0x00000355
     49c:	00000355 	.word	0x00000355
     4a0:	00000355 	.word	0x00000355
     4a4:	00000355 	.word	0x00000355
     4a8:	00001c2b 	.word	0x00001c2b
     4ac:	00001c9f 	.word	0x00001c9f
     4b0:	00001d13 	.word	0x00001d13
     4b4:	00001d87 	.word	0x00001d87
     4b8:	00001dfb 	.word	0x00001dfb
     4bc:	00001e6f 	.word	0x00001e6f
     4c0:	00001ee3 	.word	0x00001ee3
     4c4:	00001f59 	.word	0x00001f59
     4c8:	00000355 	.word	0x00000355
     4cc:	00000355 	.word	0x00000355
     4d0:	00000355 	.word	0x00000355
     4d4:	00000355 	.word	0x00000355
     4d8:	00000355 	.word	0x00000355
     4dc:	00000355 	.word	0x00000355
     4e0:	00000355 	.word	0x00000355
     4e4:	00000355 	.word	0x00000355
     4e8:	00000355 	.word	0x00000355
     4ec:	00000355 	.word	0x00000355
     4f0:	00000355 	.word	0x00000355
     4f4:	00000355 	.word	0x00000355
     4f8:	00000355 	.word	0x00000355
     4fc:	00000355 	.word	0x00000355
     500:	00000355 	.word	0x00000355
     504:	00000355 	.word	0x00000355
     508:	00000355 	.word	0x00000355
     50c:	00000355 	.word	0x00000355
     510:	00000355 	.word	0x00000355
     514:	00000355 	.word	0x00000355
     518:	00000355 	.word	0x00000355
     51c:	00000355 	.word	0x00000355
     520:	00000355 	.word	0x00000355
     524:	00000355 	.word	0x00000355
     528:	00000355 	.word	0x00000355
     52c:	00000355 	.word	0x00000355
     530:	00000355 	.word	0x00000355
     534:	00000355 	.word	0x00000355
     538:	00000355 	.word	0x00000355
     53c:	00000355 	.word	0x00000355
     540:	00000355 	.word	0x00000355
     544:	00000355 	.word	0x00000355
     548:	000026bf 	.word	0x000026bf
     54c:	00000355 	.word	0x00000355
     550:	00000355 	.word	0x00000355
     554:	00000355 	.word	0x00000355
     558:	00000355 	.word	0x00000355
     55c:	00001fcf 	.word	0x00001fcf

00000560 <__aeabi_uldivmod>:
     560:	b953      	cbnz	r3, 578 <__aeabi_uldivmod+0x18>
     562:	b94a      	cbnz	r2, 578 <__aeabi_uldivmod+0x18>
     564:	2900      	cmp	r1, #0
     566:	bf08      	it	eq
     568:	2800      	cmpeq	r0, #0
     56a:	bf1c      	itt	ne
     56c:	f04f 31ff 	movne.w	r1, #4294967295	; 0xffffffff
     570:	f04f 30ff 	movne.w	r0, #4294967295	; 0xffffffff
     574:	f000 b982 	b.w	87c <__aeabi_idiv0>
     578:	f1ad 0c08 	sub.w	ip, sp, #8
     57c:	e96d ce04 	strd	ip, lr, [sp, #-16]!
     580:	f000 f806 	bl	590 <__udivmoddi4>
     584:	f8dd e004 	ldr.w	lr, [sp, #4]
     588:	e9dd 2302 	ldrd	r2, r3, [sp, #8]
     58c:	b004      	add	sp, #16
     58e:	4770      	bx	lr

00000590 <__udivmoddi4>:
     590:	e92d 4ff0 	stmdb	sp!, {r4, r5, r6, r7, r8, r9, sl, fp, lr}
     594:	9d09      	ldr	r5, [sp, #36]	; 0x24
     596:	460e      	mov	r6, r1
     598:	4604      	mov	r4, r0
     59a:	460f      	mov	r7, r1
     59c:	2b00      	cmp	r3, #0
     59e:	d147      	bne.n	630 <__udivmoddi4+0xa0>
     5a0:	428a      	cmp	r2, r1
     5a2:	4694      	mov	ip, r2
     5a4:	d95f      	bls.n	666 <__udivmoddi4+0xd6>
     5a6:	fab2 f382 	clz	r3, r2
     5aa:	b143      	cbz	r3, 5be <__udivmoddi4+0x2e>
     5ac:	fa02 fc03 	lsl.w	ip, r2, r3
     5b0:	f1c3 0220 	rsb	r2, r3, #32
     5b4:	409f      	lsls	r7, r3
     5b6:	409c      	lsls	r4, r3
     5b8:	fa20 f202 	lsr.w	r2, r0, r2
     5bc:	4317      	orrs	r7, r2
     5be:	ea4f 461c 	mov.w	r6, ip, lsr #16
     5c2:	fa1f fe8c 	uxth.w	lr, ip
     5c6:	0c22      	lsrs	r2, r4, #16
     5c8:	fbb7 f1f6 	udiv	r1, r7, r6
     5cc:	fb06 7711 	mls	r7, r6, r1, r7
     5d0:	fb01 f00e 	mul.w	r0, r1, lr
     5d4:	ea42 4207 	orr.w	r2, r2, r7, lsl #16
     5d8:	4290      	cmp	r0, r2
     5da:	d908      	bls.n	5ee <__udivmoddi4+0x5e>
     5dc:	eb1c 0202 	adds.w	r2, ip, r2
     5e0:	f101 37ff 	add.w	r7, r1, #4294967295	; 0xffffffff
     5e4:	d202      	bcs.n	5ec <__udivmoddi4+0x5c>
     5e6:	4290      	cmp	r0, r2
     5e8:	f200 8137 	bhi.w	85a <STACK_SIZE+0x5a>
     5ec:	4639      	mov	r1, r7
     5ee:	1a12      	subs	r2, r2, r0
     5f0:	b2a4      	uxth	r4, r4
     5f2:	fbb2 f0f6 	udiv	r0, r2, r6
     5f6:	fb06 2210 	mls	r2, r6, r0, r2
     5fa:	fb00 fe0e 	mul.w	lr, r0, lr
     5fe:	ea44 4402 	orr.w	r4, r4, r2, lsl #16
     602:	45a6      	cmp	lr, r4
     604:	d908      	bls.n	618 <__udivmoddi4+0x88>
     606:	eb1c 0404 	adds.w	r4, ip, r4
     60a:	f100 32ff 	add.w	r2, r0, #4294967295	; 0xffffffff
     60e:	d202      	bcs.n	616 <__udivmoddi4+0x86>
     610:	45a6      	cmp	lr, r4
     612:	f200 811c 	bhi.w	84e <STACK_SIZE+0x4e>
     616:	4610      	mov	r0, r2
     618:	ea40 4001 	orr.w	r0, r0, r1, lsl #16
     61c:	eba4 040e 	sub.w	r4, r4, lr
     620:	2100      	movs	r1, #0
     622:	b11d      	cbz	r5, 62c <__udivmoddi4+0x9c>
     624:	40dc      	lsrs	r4, r3
     626:	2300      	movs	r3, #0
     628:	e9c5 4300 	strd	r4, r3, [r5]
     62c:	e8bd 8ff0 	ldmia.w	sp!, {r4, r5, r6, r7, r8, r9, sl, fp, pc}
     630:	428b      	cmp	r3, r1
     632:	d908      	bls.n	646 <__udivmoddi4+0xb6>
     634:	2d00      	cmp	r5, #0
     636:	f000 80fe 	beq.w	836 <STACK_SIZE+0x36>
     63a:	2100      	movs	r1, #0
     63c:	e9c5 0600 	strd	r0, r6, [r5]
     640:	4608      	mov	r0, r1
     642:	e8bd 8ff0 	ldmia.w	sp!, {r4, r5, r6, r7, r8, r9, sl, fp, pc}
     646:	fab3 f183 	clz	r1, r3
     64a:	2900      	cmp	r1, #0
     64c:	d14c      	bne.n	6e8 <__udivmoddi4+0x158>
     64e:	42b3      	cmp	r3, r6
     650:	f0c0 80f4 	bcc.w	83c <STACK_SIZE+0x3c>
     654:	4282      	cmp	r2, r0
     656:	f240 80f1 	bls.w	83c <STACK_SIZE+0x3c>
     65a:	4608      	mov	r0, r1
     65c:	2d00      	cmp	r5, #0
     65e:	d0e5      	beq.n	62c <__udivmoddi4+0x9c>
     660:	e9c5 4700 	strd	r4, r7, [r5]
     664:	e7e2      	b.n	62c <__udivmoddi4+0x9c>
     666:	b902      	cbnz	r2, 66a <__udivmoddi4+0xda>
     668:	deff      	udf	#255	; 0xff
     66a:	fab2 f382 	clz	r3, r2
     66e:	2b00      	cmp	r3, #0
     670:	f040 80a1 	bne.w	7b6 <__udivmoddi4+0x226>
     674:	1a8a      	subs	r2, r1, r2
     676:	ea4f 4e1c 	mov.w	lr, ip, lsr #16
     67a:	fa1f f78c 	uxth.w	r7, ip
     67e:	2101      	movs	r1, #1
     680:	fbb2 f6fe 	udiv	r6, r2, lr
     684:	fb0e 2016 	mls	r0, lr, r6, r2
     688:	0c22      	lsrs	r2, r4, #16
     68a:	ea42 4200 	orr.w	r2, r2, r0, lsl #16
     68e:	fb07 f006 	mul.w	r0, r7, r6
     692:	4290      	cmp	r0, r2
     694:	d90f      	bls.n	6b6 <__udivmoddi4+0x126>
     696:	eb1c 0202 	adds.w	r2, ip, r2
     69a:	f106 38ff 	add.w	r8, r6, #4294967295	; 0xffffffff
     69e:	bf2c      	ite	cs
     6a0:	f04f 0901 	movcs.w	r9, #1
     6a4:	f04f 0900 	movcc.w	r9, #0
     6a8:	4290      	cmp	r0, r2
     6aa:	d903      	bls.n	6b4 <__udivmoddi4+0x124>
     6ac:	f1b9 0f00 	cmp.w	r9, #0
     6b0:	f000 80d0 	beq.w	854 <STACK_SIZE+0x54>
     6b4:	4646      	mov	r6, r8
     6b6:	1a12      	subs	r2, r2, r0
     6b8:	b2a4      	uxth	r4, r4
     6ba:	fbb2 f0fe 	udiv	r0, r2, lr
     6be:	fb0e 2210 	mls	r2, lr, r0, r2
     6c2:	fb00 f707 	mul.w	r7, r0, r7
     6c6:	ea44 4402 	orr.w	r4, r4, r2, lsl #16
     6ca:	42a7      	cmp	r7, r4
     6cc:	d908      	bls.n	6e0 <__udivmoddi4+0x150>
     6ce:	eb1c 0404 	adds.w	r4, ip, r4
     6d2:	f100 32ff 	add.w	r2, r0, #4294967295	; 0xffffffff
     6d6:	d202      	bcs.n	6de <__udivmoddi4+0x14e>
     6d8:	42a7      	cmp	r7, r4
     6da:	f200 80b5 	bhi.w	848 <STACK_SIZE+0x48>
     6de:	4610      	mov	r0, r2
     6e0:	1be4      	subs	r4, r4, r7
     6e2:	ea40 4006 	orr.w	r0, r0, r6, lsl #16
     6e6:	e79c      	b.n	622 <__udivmoddi4+0x92>
     6e8:	f1c1 0420 	rsb	r4, r1, #32
     6ec:	408b      	lsls	r3, r1
     6ee:	fa06 fc01 	lsl.w	ip, r6, r1
     6f2:	fa00 fe01 	lsl.w	lr, r0, r1
     6f6:	fa22 f704 	lsr.w	r7, r2, r4
     6fa:	40e6      	lsrs	r6, r4
     6fc:	408a      	lsls	r2, r1
     6fe:	431f      	orrs	r7, r3
     700:	fa20 f304 	lsr.w	r3, r0, r4
     704:	ea4f 4817 	mov.w	r8, r7, lsr #16
     708:	ea43 030c 	orr.w	r3, r3, ip
     70c:	fa1f fc87 	uxth.w	ip, r7
     710:	ea4f 4913 	mov.w	r9, r3, lsr #16
     714:	fbb6 f0f8 	udiv	r0, r6, r8
     718:	fb08 6610 	mls	r6, r8, r0, r6
     71c:	ea49 4606 	orr.w	r6, r9, r6, lsl #16
     720:	fb00 f90c 	mul.w	r9, r0, ip
     724:	45b1      	cmp	r9, r6
     726:	d90e      	bls.n	746 <__udivmoddi4+0x1b6>
     728:	19be      	adds	r6, r7, r6
     72a:	f100 3aff 	add.w	sl, r0, #4294967295	; 0xffffffff
     72e:	bf2c      	ite	cs
     730:	f04f 0b01 	movcs.w	fp, #1
     734:	f04f 0b00 	movcc.w	fp, #0
     738:	45b1      	cmp	r9, r6
     73a:	d903      	bls.n	744 <__udivmoddi4+0x1b4>
     73c:	f1bb 0f00 	cmp.w	fp, #0
     740:	f000 808e 	beq.w	860 <STACK_SIZE+0x60>
     744:	4650      	mov	r0, sl
     746:	eba6 0609 	sub.w	r6, r6, r9
     74a:	fa1f f983 	uxth.w	r9, r3
     74e:	fbb6 f3f8 	udiv	r3, r6, r8
     752:	fb08 6613 	mls	r6, r8, r3, r6
     756:	fb03 fc0c 	mul.w	ip, r3, ip
     75a:	ea49 4606 	orr.w	r6, r9, r6, lsl #16
     75e:	45b4      	cmp	ip, r6
     760:	d906      	bls.n	770 <__udivmoddi4+0x1e0>
     762:	19be      	adds	r6, r7, r6
     764:	f103 38ff 	add.w	r8, r3, #4294967295	; 0xffffffff
     768:	d201      	bcs.n	76e <__udivmoddi4+0x1de>
     76a:	45b4      	cmp	ip, r6
     76c:	d87e      	bhi.n	86c <STACK_SIZE+0x6c>
     76e:	4643      	mov	r3, r8
     770:	ea43 4000 	orr.w	r0, r3, r0, lsl #16
     774:	eba6 060c 	sub.w	r6, r6, ip
     778:	fba0 8c02 	umull	r8, ip, r0, r2
     77c:	4566      	cmp	r6, ip
     77e:	4643      	mov	r3, r8
     780:	46e1      	mov	r9, ip
     782:	d302      	bcc.n	78a <__udivmoddi4+0x1fa>
     784:	d107      	bne.n	796 <__udivmoddi4+0x206>
     786:	45c6      	cmp	lr, r8
     788:	d205      	bcs.n	796 <__udivmoddi4+0x206>
     78a:	ebb8 0302 	subs.w	r3, r8, r2
     78e:	eb6c 0c07 	sbc.w	ip, ip, r7
     792:	3801      	subs	r0, #1
     794:	46e1      	mov	r9, ip
     796:	2d00      	cmp	r5, #0
     798:	d06e      	beq.n	878 <STACK_SIZE+0x78>
     79a:	ebbe 0203 	subs.w	r2, lr, r3
     79e:	eb66 0609 	sbc.w	r6, r6, r9
     7a2:	fa22 f301 	lsr.w	r3, r2, r1
     7a6:	fa06 f404 	lsl.w	r4, r6, r4
     7aa:	40ce      	lsrs	r6, r1
     7ac:	2100      	movs	r1, #0
     7ae:	431c      	orrs	r4, r3
     7b0:	e9c5 4600 	strd	r4, r6, [r5]
     7b4:	e73a      	b.n	62c <__udivmoddi4+0x9c>
     7b6:	fa02 fc03 	lsl.w	ip, r2, r3
     7ba:	f1c3 0220 	rsb	r2, r3, #32
     7be:	4099      	lsls	r1, r3
     7c0:	409c      	lsls	r4, r3
     7c2:	40d6      	lsrs	r6, r2
     7c4:	ea4f 4e1c 	mov.w	lr, ip, lsr #16
     7c8:	fa20 f202 	lsr.w	r2, r0, r2
     7cc:	fa1f f78c 	uxth.w	r7, ip
     7d0:	fbb6 f0fe 	udiv	r0, r6, lr
     7d4:	430a      	orrs	r2, r1
     7d6:	fb0e 6610 	mls	r6, lr, r0, r6
     7da:	0c11      	lsrs	r1, r2, #16
     7dc:	ea41 4106 	orr.w	r1, r1, r6, lsl #16
     7e0:	fb00 f607 	mul.w	r6, r0, r7
     7e4:	428e      	cmp	r6, r1
     7e6:	d90e      	bls.n	806 <STACK_SIZE+0x6>
     7e8:	eb1c 0101 	adds.w	r1, ip, r1
     7ec:	f100 38ff 	add.w	r8, r0, #4294967295	; 0xffffffff
     7f0:	bf2c      	ite	cs
     7f2:	f04f 0901 	movcs.w	r9, #1
     7f6:	f04f 0900 	movcc.w	r9, #0
     7fa:	428e      	cmp	r6, r1
     7fc:	d902      	bls.n	804 <STACK_SIZE+0x4>
     7fe:	f1b9 0f00 	cmp.w	r9, #0
     802:	d030      	beq.n	866 <STACK_SIZE+0x66>
     804:	4640      	mov	r0, r8
     806:	1b89      	subs	r1, r1, r6
     808:	b292      	uxth	r2, r2
     80a:	fbb1 f6fe 	udiv	r6, r1, lr
     80e:	fb0e 1116 	mls	r1, lr, r6, r1
     812:	ea42 4201 	orr.w	r2, r2, r1, lsl #16
     816:	fb06 f107 	mul.w	r1, r6, r7
     81a:	4291      	cmp	r1, r2
     81c:	d907      	bls.n	82e <STACK_SIZE+0x2e>
     81e:	eb1c 0202 	adds.w	r2, ip, r2
     822:	f106 38ff 	add.w	r8, r6, #4294967295	; 0xffffffff
     826:	d201      	bcs.n	82c <STACK_SIZE+0x2c>
     828:	4291      	cmp	r1, r2
     82a:	d822      	bhi.n	872 <STACK_SIZE+0x72>
     82c:	4646      	mov	r6, r8
     82e:	1a52      	subs	r2, r2, r1
     830:	ea46 4100 	orr.w	r1, r6, r0, lsl #16
     834:	e724      	b.n	680 <__udivmoddi4+0xf0>
     836:	4629      	mov	r1, r5
     838:	4628      	mov	r0, r5
     83a:	e6f7      	b.n	62c <__udivmoddi4+0x9c>
     83c:	1a84      	subs	r4, r0, r2
     83e:	eb66 0203 	sbc.w	r2, r6, r3
     842:	2001      	movs	r0, #1
     844:	4617      	mov	r7, r2
     846:	e709      	b.n	65c <__udivmoddi4+0xcc>
     848:	4464      	add	r4, ip
     84a:	3802      	subs	r0, #2
     84c:	e748      	b.n	6e0 <__udivmoddi4+0x150>
     84e:	4464      	add	r4, ip
     850:	3802      	subs	r0, #2
     852:	e6e1      	b.n	618 <__udivmoddi4+0x88>
     854:	3e02      	subs	r6, #2
     856:	4462      	add	r2, ip
     858:	e72d      	b.n	6b6 <__udivmoddi4+0x126>
     85a:	3902      	subs	r1, #2
     85c:	4462      	add	r2, ip
     85e:	e6c6      	b.n	5ee <__udivmoddi4+0x5e>
     860:	3802      	subs	r0, #2
     862:	443e      	add	r6, r7
     864:	e76f      	b.n	746 <__udivmoddi4+0x1b6>
     866:	3802      	subs	r0, #2
     868:	4461      	add	r1, ip
     86a:	e7cc      	b.n	806 <STACK_SIZE+0x6>
     86c:	3b02      	subs	r3, #2
     86e:	443e      	add	r6, r7
     870:	e77e      	b.n	770 <__udivmoddi4+0x1e0>
     872:	3e02      	subs	r6, #2
     874:	4462      	add	r2, ip
     876:	e7da      	b.n	82e <STACK_SIZE+0x2e>
     878:	4629      	mov	r1, r5
     87a:	e6d7      	b.n	62c <__udivmoddi4+0x9c>

0000087c <__aeabi_idiv0>:
     87c:	4770      	bx	lr
     87e:	bf00      	nop

00000880 <memcpy>:
     880:	4684      	mov	ip, r0
     882:	ea41 0300 	orr.w	r3, r1, r0
     886:	f013 0303 	ands.w	r3, r3, #3
     88a:	d149      	bne.n	920 <memcpy+0xa0>
     88c:	3a40      	subs	r2, #64	; 0x40
     88e:	d323      	bcc.n	8d8 <memcpy+0x58>
     890:	680b      	ldr	r3, [r1, #0]
     892:	6003      	str	r3, [r0, #0]
     894:	684b      	ldr	r3, [r1, #4]
     896:	6043      	str	r3, [r0, #4]
     898:	688b      	ldr	r3, [r1, #8]
     89a:	6083      	str	r3, [r0, #8]
     89c:	68cb      	ldr	r3, [r1, #12]
     89e:	60c3      	str	r3, [r0, #12]
     8a0:	690b      	ldr	r3, [r1, #16]
     8a2:	6103      	str	r3, [r0, #16]
     8a4:	694b      	ldr	r3, [r1, #20]
     8a6:	6143      	str	r3, [r0, #20]
     8a8:	698b      	ldr	r3, [r1, #24]
     8aa:	6183      	str	r3, [r0, #24]
     8ac:	69cb      	ldr	r3, [r1, #28]
     8ae:	61c3      	str	r3, [r0, #28]
     8b0:	6a0b      	ldr	r3, [r1, #32]
     8b2:	6203      	str	r3, [r0, #32]
     8b4:	6a4b      	ldr	r3, [r1, #36]	; 0x24
     8b6:	6243      	str	r3, [r0, #36]	; 0x24
     8b8:	6a8b      	ldr	r3, [r1, #40]	; 0x28
     8ba:	6283      	str	r3, [r0, #40]	; 0x28
     8bc:	6acb      	ldr	r3, [r1, #44]	; 0x2c
     8be:	62c3      	str	r3, [r0, #44]	; 0x2c
     8c0:	6b0b      	ldr	r3, [r1, #48]	; 0x30
     8c2:	6303      	str	r3, [r0, #48]	; 0x30
     8c4:	6b4b      	ldr	r3, [r1, #52]	; 0x34
     8c6:	6343      	str	r3, [r0, #52]	; 0x34
     8c8:	6b8b      	ldr	r3, [r1, #56]	; 0x38
     8ca:	6383      	str	r3, [r0, #56]	; 0x38
     8cc:	6bcb      	ldr	r3, [r1, #60]	; 0x3c
     8ce:	63c3      	str	r3, [r0, #60]	; 0x3c
     8d0:	3040      	adds	r0, #64	; 0x40
     8d2:	3140      	adds	r1, #64	; 0x40
     8d4:	3a40      	subs	r2, #64	; 0x40
     8d6:	d2db      	bcs.n	890 <memcpy+0x10>
     8d8:	3230      	adds	r2, #48	; 0x30
     8da:	d30b      	bcc.n	8f4 <memcpy+0x74>
     8dc:	680b      	ldr	r3, [r1, #0]
     8de:	6003      	str	r3, [r0, #0]
     8e0:	684b      	ldr	r3, [r1, #4]
     8e2:	6043      	str	r3, [r0, #4]
     8e4:	688b      	ldr	r3, [r1, #8]
     8e6:	6083      	str	r3, [r0, #8]
     8e8:	68cb      	ldr	r3, [r1, #12]
     8ea:	60c3      	str	r3, [r0, #12]
     8ec:	3010      	adds	r0, #16
     8ee:	3110      	adds	r1, #16
     8f0:	3a10      	subs	r2, #16
     8f2:	d2f3      	bcs.n	8dc <memcpy+0x5c>
     8f4:	320c      	adds	r2, #12
     8f6:	d305      	bcc.n	904 <memcpy+0x84>
     8f8:	f851 3b04 	ldr.w	r3, [r1], #4
     8fc:	f840 3b04 	str.w	r3, [r0], #4
     900:	3a04      	subs	r2, #4
     902:	d2f9      	bcs.n	8f8 <memcpy+0x78>
     904:	3204      	adds	r2, #4
     906:	d008      	beq.n	91a <memcpy+0x9a>
     908:	07d2      	lsls	r2, r2, #31
     90a:	bf1c      	itt	ne
     90c:	f811 3b01 	ldrbne.w	r3, [r1], #1
     910:	f800 3b01 	strbne.w	r3, [r0], #1
     914:	d301      	bcc.n	91a <memcpy+0x9a>
     916:	880b      	ldrh	r3, [r1, #0]
     918:	8003      	strh	r3, [r0, #0]
     91a:	4660      	mov	r0, ip
     91c:	4770      	bx	lr
     91e:	bf00      	nop
     920:	2a08      	cmp	r2, #8
     922:	d313      	bcc.n	94c <memcpy+0xcc>
     924:	078b      	lsls	r3, r1, #30
     926:	d0b1      	beq.n	88c <memcpy+0xc>
     928:	f010 0303 	ands.w	r3, r0, #3
     92c:	d0ae      	beq.n	88c <memcpy+0xc>
     92e:	f1c3 0304 	rsb	r3, r3, #4
     932:	1ad2      	subs	r2, r2, r3
     934:	07db      	lsls	r3, r3, #31
     936:	bf1c      	itt	ne
     938:	f811 3b01 	ldrbne.w	r3, [r1], #1
     93c:	f800 3b01 	strbne.w	r3, [r0], #1
     940:	d3a4      	bcc.n	88c <memcpy+0xc>
     942:	f831 3b02 	ldrh.w	r3, [r1], #2
     946:	f820 3b02 	strh.w	r3, [r0], #2
     94a:	e79f      	b.n	88c <memcpy+0xc>
     94c:	3a04      	subs	r2, #4
     94e:	d3d9      	bcc.n	904 <memcpy+0x84>
     950:	3a01      	subs	r2, #1
     952:	f811 3b01 	ldrb.w	r3, [r1], #1
     956:	f800 3b01 	strb.w	r3, [r0], #1
     95a:	d2f9      	bcs.n	950 <memcpy+0xd0>
     95c:	780b      	ldrb	r3, [r1, #0]
     95e:	7003      	strb	r3, [r0, #0]
     960:	784b      	ldrb	r3, [r1, #1]
     962:	7043      	strb	r3, [r0, #1]
     964:	788b      	ldrb	r3, [r1, #2]
     966:	7083      	strb	r3, [r0, #2]
     968:	4660      	mov	r0, ip
     96a:	4770      	bx	lr

0000096c <SystemInit>:
     96c:	b580      	push	{r7, lr}
     96e:	466f      	mov	r7, sp
     970:	f64e 5188 	movw	r1, #60808	; 0xed88
     974:	f2ce 0100 	movt	r1, #57344	; 0xe000
     978:	6808      	ldr	r0, [r1, #0]
     97a:	f440 0070 	orr.w	r0, r0, #15728640	; 0xf00000
     97e:	6008      	str	r0, [r1, #0]
     980:	6808      	ldr	r0, [r1, #0]
     982:	f040 000f 	orr.w	r0, r0, #15
     986:	6008      	str	r0, [r1, #0]
     988:	f64e 518c 	movw	r1, #60812	; 0xed8c
     98c:	f2ce 0100 	movt	r1, #57344	; 0xe000
     990:	6808      	ldr	r0, [r1, #0]
     992:	f640 4203 	movw	r2, #3075	; 0xc03
     996:	4310      	orrs	r0, r2
     998:	6008      	str	r0, [r1, #0]
     99a:	f240 0000 	movw	r0, #0
     99e:	f2c0 0000 	movt	r0, #0
     9a2:	f64e 5108 	movw	r1, #60680	; 0xed08
     9a6:	f2ce 0100 	movt	r1, #57344	; 0xe000
     9aa:	6008      	str	r0, [r1, #0]
     9ac:	f240 3108 	movw	r1, #776	; 0x308
     9b0:	f2c4 0100 	movt	r1, #16384	; 0x4000
     9b4:	2000      	movs	r0, #0
     9b6:	6008      	str	r0, [r1, #0]
     9b8:	f240 2120 	movw	r1, #544	; 0x220
     9bc:	f2c4 0100 	movt	r1, #16384	; 0x4000
     9c0:	2078      	movs	r0, #120	; 0x78
     9c2:	6008      	str	r0, [r1, #0]
     9c4:	f000 f801 	bl	9ca <SystemInitHook>
     9c8:	bd80      	pop	{r7, pc}

000009ca <SystemInitHook>:
     9ca:	4770      	bx	lr

000009cc <SDK_DelayAtLeastUs>:
     9cc:	b580      	push	{r7, lr}
     9ce:	466f      	mov	r7, sp
     9d0:	b084      	sub	sp, #16
     9d2:	9102      	str	r1, [sp, #8]
     9d4:	9003      	str	r0, [sp, #12]
     9d6:	b340      	cbz	r0, a2a <SDK_DelayAtLeastUs+0x5e>
     9d8:	e7ff      	b.n	9da <SDK_DelayAtLeastUs+0xe>
     9da:	9803      	ldr	r0, [sp, #12]
     9dc:	9902      	ldr	r1, [sp, #8]
     9de:	fba0 0101 	umull	r0, r1, r0, r1
     9e2:	f244 2240 	movw	r2, #16960	; 0x4240
     9e6:	f2c0 020f 	movt	r2, #15
     9ea:	2300      	movs	r3, #0
     9ec:	f7ff fdb8 	bl	560 <__aeabi_uldivmod>
     9f0:	460a      	mov	r2, r1
     9f2:	9200      	str	r2, [sp, #0]
     9f4:	9001      	str	r0, [sp, #4]
     9f6:	b909      	cbnz	r1, 9fc <SDK_DelayAtLeastUs+0x30>
     9f8:	e7ff      	b.n	9fa <SDK_DelayAtLeastUs+0x2e>
     9fa:	e00e      	b.n	a1a <SDK_DelayAtLeastUs+0x4e>
     9fc:	f645 60e8 	movw	r0, #24296	; 0x5ee8
     a00:	f2c0 0000 	movt	r0, #0
     a04:	f645 7259 	movw	r2, #24409	; 0x5f59
     a08:	f2c0 0200 	movt	r2, #0
     a0c:	f645 736c 	movw	r3, #24428	; 0x5f6c
     a10:	f2c0 0300 	movt	r3, #0
     a14:	21d5      	movs	r1, #213	; 0xd5
     a16:	f002 f9fb 	bl	2e10 <__assert_func>
     a1a:	9900      	ldr	r1, [sp, #0]
     a1c:	9801      	ldr	r0, [sp, #4]
     a1e:	0880      	lsrs	r0, r0, #2
     a20:	ea40 7081 	orr.w	r0, r0, r1, lsl #30
     a24:	f000 f803 	bl	a2e <DelayLoop>
     a28:	e7ff      	b.n	a2a <SDK_DelayAtLeastUs+0x5e>
     a2a:	b004      	add	sp, #16
     a2c:	bd80      	pop	{r7, pc}

00000a2e <DelayLoop>:
     a2e:	4600      	mov	r0, r0

00000a30 <loop>:
     a30:	f1a0 0001 	sub.w	r0, r0, #1
     a34:	2800      	cmp	r0, #0
     a36:	d1fb      	bne.n	a30 <loop>
     a38:	4770      	bx	lr

00000a3a <CLOCK_AttachClk>:
     a3a:	b089      	sub	sp, #36	; 0x24
     a3c:	9008      	str	r0, [sp, #32]
     a3e:	f1b0 4f00 	cmp.w	r0, #2147483648	; 0x80000000
     a42:	d045      	beq.n	ad0 <CLOCK_AttachClk+0x96>
     a44:	e7ff      	b.n	a46 <CLOCK_AttachClk+0xc>
     a46:	9908      	ldr	r1, [sp, #32]
     a48:	2000      	movs	r0, #0
     a4a:	9106      	str	r1, [sp, #24]
     a4c:	9007      	str	r0, [sp, #28]
     a4e:	e7ff      	b.n	a50 <CLOCK_AttachClk+0x16>
     a50:	9906      	ldr	r1, [sp, #24]
     a52:	9807      	ldr	r0, [sp, #28]
     a54:	9004      	str	r0, [sp, #16]
     a56:	9105      	str	r1, [sp, #20]
     a58:	2801      	cmp	r0, #1
     a5a:	d838      	bhi.n	ace <CLOCK_AttachClk+0x94>
     a5c:	e7ff      	b.n	a5e <CLOCK_AttachClk+0x24>
     a5e:	9805      	ldr	r0, [sp, #20]
     a60:	b908      	cbnz	r0, a66 <CLOCK_AttachClk+0x2c>
     a62:	e7ff      	b.n	a64 <CLOCK_AttachClk+0x2a>
     a64:	e033      	b.n	ace <CLOCK_AttachClk+0x94>
     a66:	9805      	ldr	r0, [sp, #20]
     a68:	f36f 301f 	bfc	r0, #12, #20
     a6c:	4601      	mov	r1, r0
     a6e:	9103      	str	r1, [sp, #12]
     a70:	b318      	cbz	r0, aba <CLOCK_AttachClk+0x80>
     a72:	e7ff      	b.n	a74 <CLOCK_AttachClk+0x3a>
     a74:	9903      	ldr	r1, [sp, #12]
     a76:	b2c8      	uxtb	r0, r1
     a78:	4602      	mov	r2, r0
     a7a:	9201      	str	r2, [sp, #4]
     a7c:	f401 6270 	and.w	r2, r1, #3840	; 0xf00
     a80:	f04f 31ff 	mov.w	r1, #4294967295	; 0xffffffff
     a84:	eb01 2112 	add.w	r1, r1, r2, lsr #8
     a88:	9102      	str	r1, [sp, #8]
     a8a:	283f      	cmp	r0, #63	; 0x3f
     a8c:	d109      	bne.n	aa2 <CLOCK_AttachClk+0x68>
     a8e:	e7ff      	b.n	a90 <CLOCK_AttachClk+0x56>
     a90:	9a02      	ldr	r2, [sp, #8]
     a92:	2198      	movs	r1, #152	; 0x98
     a94:	f2c4 0102 	movt	r1, #16386	; 0x4002
     a98:	6808      	ldr	r0, [r1, #0]
     a9a:	f362 0000 	bfi	r0, r2, #0, #1
     a9e:	6008      	str	r0, [r1, #0]
     aa0:	e00a      	b.n	ab8 <CLOCK_AttachClk+0x7e>
     aa2:	9901      	ldr	r1, [sp, #4]
     aa4:	9802      	ldr	r0, [sp, #8]
     aa6:	b2c0      	uxtb	r0, r0
     aa8:	b2ca      	uxtb	r2, r1
     aaa:	f240 2160 	movw	r1, #608	; 0x260
     aae:	f2c4 0100 	movt	r1, #16384	; 0x4000
     ab2:	f841 0022 	str.w	r0, [r1, r2, lsl #2]
     ab6:	e7ff      	b.n	ab8 <CLOCK_AttachClk+0x7e>
     ab8:	e7ff      	b.n	aba <CLOCK_AttachClk+0x80>
     aba:	9805      	ldr	r0, [sp, #20]
     abc:	0b00      	lsrs	r0, r0, #12
     abe:	9000      	str	r0, [sp, #0]
     ac0:	e7ff      	b.n	ac2 <CLOCK_AttachClk+0x88>
     ac2:	9900      	ldr	r1, [sp, #0]
     ac4:	9804      	ldr	r0, [sp, #16]
     ac6:	3001      	adds	r0, #1
     ac8:	9106      	str	r1, [sp, #24]
     aca:	9007      	str	r0, [sp, #28]
     acc:	e7c0      	b.n	a50 <CLOCK_AttachClk+0x16>
     ace:	e7ff      	b.n	ad0 <CLOCK_AttachClk+0x96>
     ad0:	b009      	add	sp, #36	; 0x24
     ad2:	4770      	bx	lr

00000ad4 <CLOCK_SetClkDiv>:
     ad4:	b083      	sub	sp, #12
     ad6:	9100      	str	r1, [sp, #0]
     ad8:	4601      	mov	r1, r0
     ada:	9101      	str	r1, [sp, #4]
     adc:	9202      	str	r2, [sp, #8]
     ade:	2808      	cmp	r0, #8
     ae0:	db12      	blt.n	b08 <CLOCK_SetClkDiv+0x34>
     ae2:	e7ff      	b.n	ae4 <CLOCK_SetClkDiv+0x10>
     ae4:	9801      	ldr	r0, [sp, #4]
     ae6:	b2c0      	uxtb	r0, r0
     ae8:	280f      	cmp	r0, #15
     aea:	dc0d      	bgt.n	b08 <CLOCK_SetClkDiv+0x34>
     aec:	e7ff      	b.n	aee <CLOCK_SetClkDiv+0x1a>
     aee:	9901      	ldr	r1, [sp, #4]
     af0:	9a00      	ldr	r2, [sp, #0]
     af2:	20ff      	movs	r0, #255	; 0xff
     af4:	f362 200f 	bfi	r0, r2, #8, #8
     af8:	b2ca      	uxtb	r2, r1
     afa:	f240 3100 	movw	r1, #768	; 0x300
     afe:	f2c4 0100 	movt	r1, #16384	; 0x4000
     b02:	f841 0022 	str.w	r0, [r1, r2, lsl #2]
     b06:	e028      	b.n	b5a <CLOCK_SetClkDiv+0x86>
     b08:	9802      	ldr	r0, [sp, #8]
     b0a:	07c0      	lsls	r0, r0, #31
     b0c:	b158      	cbz	r0, b26 <CLOCK_SetClkDiv+0x52>
     b0e:	e7ff      	b.n	b10 <CLOCK_SetClkDiv+0x3c>
     b10:	9801      	ldr	r0, [sp, #4]
     b12:	b2c2      	uxtb	r2, r0
     b14:	f240 3100 	movw	r1, #768	; 0x300
     b18:	f2c4 0100 	movt	r1, #16384	; 0x4000
     b1c:	f04f 5000 	mov.w	r0, #536870912	; 0x20000000
     b20:	f841 0022 	str.w	r0, [r1, r2, lsl #2]
     b24:	e7ff      	b.n	b26 <CLOCK_SetClkDiv+0x52>
     b26:	9800      	ldr	r0, [sp, #0]
     b28:	b958      	cbnz	r0, b42 <CLOCK_SetClkDiv+0x6e>
     b2a:	e7ff      	b.n	b2c <CLOCK_SetClkDiv+0x58>
     b2c:	9801      	ldr	r0, [sp, #4]
     b2e:	b2c2      	uxtb	r2, r0
     b30:	f240 3100 	movw	r1, #768	; 0x300
     b34:	f2c4 0100 	movt	r1, #16384	; 0x4000
     b38:	f04f 4080 	mov.w	r0, #1073741824	; 0x40000000
     b3c:	f841 0022 	str.w	r0, [r1, r2, lsl #2]
     b40:	e00a      	b.n	b58 <CLOCK_SetClkDiv+0x84>
     b42:	9901      	ldr	r1, [sp, #4]
     b44:	9800      	ldr	r0, [sp, #0]
     b46:	3801      	subs	r0, #1
     b48:	b2ca      	uxtb	r2, r1
     b4a:	f240 3100 	movw	r1, #768	; 0x300
     b4e:	f2c4 0100 	movt	r1, #16384	; 0x4000
     b52:	f841 0022 	str.w	r0, [r1, r2, lsl #2]
     b56:	e7ff      	b.n	b58 <CLOCK_SetClkDiv+0x84>
     b58:	e7ff      	b.n	b5a <CLOCK_SetClkDiv+0x86>
     b5a:	b003      	add	sp, #12
     b5c:	4770      	bx	lr

00000b5e <CLOCK_SetupFROClocking>:
     b5e:	b580      	push	{r7, lr}
     b60:	466f      	mov	r7, sp
     b62:	b082      	sub	sp, #8
     b64:	9001      	str	r0, [sp, #4]
     b66:	f641 3100 	movw	r1, #6912	; 0x1b00
     b6a:	f2c0 01b7 	movt	r1, #183	; 0xb7
     b6e:	4288      	cmp	r0, r1
     b70:	d013      	beq.n	b9a <CLOCK_SetupFROClocking+0x3c>
     b72:	e7ff      	b.n	b74 <CLOCK_SetupFROClocking+0x16>
     b74:	9801      	ldr	r0, [sp, #4]
     b76:	f646 4100 	movw	r1, #27648	; 0x6c00
     b7a:	f2c0 21dc 	movt	r1, #732	; 0x2dc
     b7e:	4288      	cmp	r0, r1
     b80:	d00b      	beq.n	b9a <CLOCK_SetupFROClocking+0x3c>
     b82:	e7ff      	b.n	b84 <CLOCK_SetupFROClocking+0x26>
     b84:	9801      	ldr	r0, [sp, #4]
     b86:	f64d 0100 	movw	r1, #55296	; 0xd800
     b8a:	f2c0 51b8 	movt	r1, #1464	; 0x5b8
     b8e:	4288      	cmp	r0, r1
     b90:	d003      	beq.n	b9a <CLOCK_SetupFROClocking+0x3c>
     b92:	e7ff      	b.n	b94 <CLOCK_SetupFROClocking+0x36>
     b94:	2001      	movs	r0, #1
     b96:	9000      	str	r0, [sp, #0]
     b98:	e02b      	b.n	bf2 <CLOCK_SetupFROClocking+0x94>
     b9a:	f240 1148 	movw	r1, #328	; 0x148
     b9e:	f2c4 0100 	movt	r1, #16384	; 0x4000
     ba2:	f04f 6000 	mov.w	r0, #134217728	; 0x8000000
     ba6:	6008      	str	r0, [r1, #0]
     ba8:	f240 2128 	movw	r1, #552	; 0x228
     bac:	f2c4 0100 	movt	r1, #16384	; 0x4000
     bb0:	6008      	str	r0, [r1, #0]
     bb2:	2020      	movs	r0, #32
     bb4:	f000 f820 	bl	bf8 <POWER_DisablePD>
     bb8:	9801      	ldr	r0, [sp, #4]
     bba:	f64d 0100 	movw	r1, #55296	; 0xd800
     bbe:	f2c0 51b8 	movt	r1, #1464	; 0x5b8
     bc2:	4288      	cmp	r0, r1
     bc4:	d109      	bne.n	bda <CLOCK_SetupFROClocking+0x7c>
     bc6:	e7ff      	b.n	bc8 <CLOCK_SetupFROClocking+0x6a>
     bc8:	f243 0110 	movw	r1, #12304	; 0x3010
     bcc:	f2c4 0101 	movt	r1, #16385	; 0x4001
     bd0:	6808      	ldr	r0, [r1, #0]
     bd2:	f040 4080 	orr.w	r0, r0, #1073741824	; 0x40000000
     bd6:	6008      	str	r0, [r1, #0]
     bd8:	e008      	b.n	bec <CLOCK_SetupFROClocking+0x8e>
     bda:	f243 0110 	movw	r1, #12304	; 0x3010
     bde:	f2c4 0101 	movt	r1, #16385	; 0x4001
     be2:	6808      	ldr	r0, [r1, #0]
     be4:	f440 4080 	orr.w	r0, r0, #16384	; 0x4000
     be8:	6008      	str	r0, [r1, #0]
     bea:	e7ff      	b.n	bec <CLOCK_SetupFROClocking+0x8e>
     bec:	2000      	movs	r0, #0
     bee:	9000      	str	r0, [sp, #0]
     bf0:	e7ff      	b.n	bf2 <CLOCK_SetupFROClocking+0x94>
     bf2:	9800      	ldr	r0, [sp, #0]
     bf4:	b002      	add	sp, #8
     bf6:	bd80      	pop	{r7, pc}

00000bf8 <POWER_DisablePD>:
     bf8:	21c8      	movs	r1, #200	; 0xc8
     bfa:	f2c4 0102 	movt	r1, #16386	; 0x4002
     bfe:	6008      	str	r0, [r1, #0]
     c00:	4770      	bx	lr

00000c02 <CLOCK_SetFLASHAccessCyclesForFreq>:
     c02:	b08f      	sub	sp, #60	; 0x3c
     c04:	900d      	str	r0, [sp, #52]	; 0x34
     c06:	f240 4100 	movw	r1, #1024	; 0x400
     c0a:	f2c4 0100 	movt	r1, #16384	; 0x4000
     c0e:	6809      	ldr	r1, [r1, #0]
     c10:	f001 0120 	and.w	r1, r1, #32
     c14:	910e      	str	r1, [sp, #56]	; 0x38
     c16:	f64d 01c0 	movw	r1, #55488	; 0xd8c0
     c1a:	f2c0 01a7 	movt	r1, #167	; 0xa7
     c1e:	4288      	cmp	r0, r1
     c20:	d803      	bhi.n	c2a <CLOCK_SetFLASHAccessCyclesForFreq+0x28>
     c22:	e7ff      	b.n	c24 <CLOCK_SetFLASHAccessCyclesForFreq+0x22>
     c24:	2000      	movs	r0, #0
     c26:	900c      	str	r0, [sp, #48]	; 0x30
     c28:	e09c      	b.n	d64 <CLOCK_SetFLASHAccessCyclesForFreq+0x162>
     c2a:	980d      	ldr	r0, [sp, #52]	; 0x34
     c2c:	f24b 1180 	movw	r1, #45440	; 0xb180
     c30:	f2c0 114f 	movt	r1, #335	; 0x14f
     c34:	4288      	cmp	r0, r1
     c36:	d803      	bhi.n	c40 <CLOCK_SetFLASHAccessCyclesForFreq+0x3e>
     c38:	e7ff      	b.n	c3a <CLOCK_SetFLASHAccessCyclesForFreq+0x38>
     c3a:	2001      	movs	r0, #1
     c3c:	900b      	str	r0, [sp, #44]	; 0x2c
     c3e:	e08e      	b.n	d5e <CLOCK_SetFLASHAccessCyclesForFreq+0x15c>
     c40:	980d      	ldr	r0, [sp, #52]	; 0x34
     c42:	f648 2140 	movw	r1, #35392	; 0x8a40
     c46:	f2c0 11f7 	movt	r1, #503	; 0x1f7
     c4a:	4288      	cmp	r0, r1
     c4c:	d803      	bhi.n	c56 <CLOCK_SetFLASHAccessCyclesForFreq+0x54>
     c4e:	e7ff      	b.n	c50 <CLOCK_SetFLASHAccessCyclesForFreq+0x4e>
     c50:	2002      	movs	r0, #2
     c52:	900a      	str	r0, [sp, #40]	; 0x28
     c54:	e080      	b.n	d58 <CLOCK_SetFLASHAccessCyclesForFreq+0x156>
     c56:	980d      	ldr	r0, [sp, #52]	; 0x34
     c58:	f246 3100 	movw	r1, #25344	; 0x6300
     c5c:	f2c0 219f 	movt	r1, #671	; 0x29f
     c60:	4288      	cmp	r0, r1
     c62:	d803      	bhi.n	c6c <CLOCK_SetFLASHAccessCyclesForFreq+0x6a>
     c64:	e7ff      	b.n	c66 <CLOCK_SetFLASHAccessCyclesForFreq+0x64>
     c66:	2003      	movs	r0, #3
     c68:	9009      	str	r0, [sp, #36]	; 0x24
     c6a:	e072      	b.n	d52 <CLOCK_SetFLASHAccessCyclesForFreq+0x150>
     c6c:	980d      	ldr	r0, [sp, #52]	; 0x34
     c6e:	f643 31c0 	movw	r1, #15296	; 0x3bc0
     c72:	f2c0 3147 	movt	r1, #839	; 0x347
     c76:	4288      	cmp	r0, r1
     c78:	d803      	bhi.n	c82 <CLOCK_SetFLASHAccessCyclesForFreq+0x80>
     c7a:	e7ff      	b.n	c7c <CLOCK_SetFLASHAccessCyclesForFreq+0x7a>
     c7c:	2004      	movs	r0, #4
     c7e:	9008      	str	r0, [sp, #32]
     c80:	e064      	b.n	d4c <CLOCK_SetFLASHAccessCyclesForFreq+0x14a>
     c82:	980d      	ldr	r0, [sp, #52]	; 0x34
     c84:	f241 4180 	movw	r1, #5248	; 0x1480
     c88:	f2c0 31ef 	movt	r1, #1007	; 0x3ef
     c8c:	4288      	cmp	r0, r1
     c8e:	d803      	bhi.n	c98 <CLOCK_SetFLASHAccessCyclesForFreq+0x96>
     c90:	e7ff      	b.n	c92 <CLOCK_SetFLASHAccessCyclesForFreq+0x90>
     c92:	2005      	movs	r0, #5
     c94:	9007      	str	r0, [sp, #28]
     c96:	e056      	b.n	d46 <CLOCK_SetFLASHAccessCyclesForFreq+0x144>
     c98:	980d      	ldr	r0, [sp, #52]	; 0x34
     c9a:	f64e 5140 	movw	r1, #60736	; 0xed40
     c9e:	f2c0 4196 	movt	r1, #1174	; 0x496
     ca2:	4288      	cmp	r0, r1
     ca4:	d803      	bhi.n	cae <CLOCK_SetFLASHAccessCyclesForFreq+0xac>
     ca6:	e7ff      	b.n	ca8 <CLOCK_SetFLASHAccessCyclesForFreq+0xa6>
     ca8:	2006      	movs	r0, #6
     caa:	9006      	str	r0, [sp, #24]
     cac:	e048      	b.n	d40 <CLOCK_SetFLASHAccessCyclesForFreq+0x13e>
     cae:	980d      	ldr	r0, [sp, #52]	; 0x34
     cb0:	f24c 6100 	movw	r1, #50688	; 0xc600
     cb4:	f2c0 513e 	movt	r1, #1342	; 0x53e
     cb8:	4288      	cmp	r0, r1
     cba:	d803      	bhi.n	cc4 <CLOCK_SetFLASHAccessCyclesForFreq+0xc2>
     cbc:	e7ff      	b.n	cbe <CLOCK_SetFLASHAccessCyclesForFreq+0xbc>
     cbe:	2007      	movs	r0, #7
     cc0:	9005      	str	r0, [sp, #20]
     cc2:	e03a      	b.n	d3a <CLOCK_SetFLASHAccessCyclesForFreq+0x138>
     cc4:	980d      	ldr	r0, [sp, #52]	; 0x34
     cc6:	f24e 1100 	movw	r1, #57600	; 0xe100
     cca:	f2c0 51f5 	movt	r1, #1525	; 0x5f5
     cce:	4288      	cmp	r0, r1
     cd0:	d803      	bhi.n	cda <CLOCK_SetFLASHAccessCyclesForFreq+0xd8>
     cd2:	e7ff      	b.n	cd4 <CLOCK_SetFLASHAccessCyclesForFreq+0xd2>
     cd4:	2008      	movs	r0, #8
     cd6:	9004      	str	r0, [sp, #16]
     cd8:	e02c      	b.n	d34 <CLOCK_SetFLASHAccessCyclesForFreq+0x132>
     cda:	980d      	ldr	r0, [sp, #52]	; 0x34
     cdc:	f24c 21c0 	movw	r1, #49856	; 0xc2c0
     ce0:	f2c0 61da 	movt	r1, #1754	; 0x6da
     ce4:	4288      	cmp	r0, r1
     ce6:	d803      	bhi.n	cf0 <CLOCK_SetFLASHAccessCyclesForFreq+0xee>
     ce8:	e7ff      	b.n	cea <CLOCK_SetFLASHAccessCyclesForFreq+0xe8>
     cea:	2009      	movs	r0, #9
     cec:	9003      	str	r0, [sp, #12]
     cee:	e01e      	b.n	d2e <CLOCK_SetFLASHAccessCyclesForFreq+0x12c>
     cf0:	980d      	ldr	r0, [sp, #52]	; 0x34
     cf2:	f24a 4180 	movw	r1, #42112	; 0xa480
     cf6:	f2c0 71bf 	movt	r1, #1983	; 0x7bf
     cfa:	4288      	cmp	r0, r1
     cfc:	d803      	bhi.n	d06 <CLOCK_SetFLASHAccessCyclesForFreq+0x104>
     cfe:	e7ff      	b.n	d00 <CLOCK_SetFLASHAccessCyclesForFreq+0xfe>
     d00:	200a      	movs	r0, #10
     d02:	9002      	str	r0, [sp, #8]
     d04:	e010      	b.n	d28 <CLOCK_SetFLASHAccessCyclesForFreq+0x126>
     d06:	980d      	ldr	r0, [sp, #52]	; 0x34
     d08:	f24d 1180 	movw	r1, #53632	; 0xd180
     d0c:	f6c0 01f0 	movt	r1, #2288	; 0x8f0
     d10:	4288      	cmp	r0, r1
     d12:	d803      	bhi.n	d1c <CLOCK_SetFLASHAccessCyclesForFreq+0x11a>
     d14:	e7ff      	b.n	d16 <CLOCK_SetFLASHAccessCyclesForFreq+0x114>
     d16:	200b      	movs	r0, #11
     d18:	9001      	str	r0, [sp, #4]
     d1a:	e002      	b.n	d22 <CLOCK_SetFLASHAccessCyclesForFreq+0x120>
     d1c:	200c      	movs	r0, #12
     d1e:	9001      	str	r0, [sp, #4]
     d20:	e7ff      	b.n	d22 <CLOCK_SetFLASHAccessCyclesForFreq+0x120>
     d22:	9801      	ldr	r0, [sp, #4]
     d24:	9002      	str	r0, [sp, #8]
     d26:	e7ff      	b.n	d28 <CLOCK_SetFLASHAccessCyclesForFreq+0x126>
     d28:	9802      	ldr	r0, [sp, #8]
     d2a:	9003      	str	r0, [sp, #12]
     d2c:	e7ff      	b.n	d2e <CLOCK_SetFLASHAccessCyclesForFreq+0x12c>
     d2e:	9803      	ldr	r0, [sp, #12]
     d30:	9004      	str	r0, [sp, #16]
     d32:	e7ff      	b.n	d34 <CLOCK_SetFLASHAccessCyclesForFreq+0x132>
     d34:	9804      	ldr	r0, [sp, #16]
     d36:	9005      	str	r0, [sp, #20]
     d38:	e7ff      	b.n	d3a <CLOCK_SetFLASHAccessCyclesForFreq+0x138>
     d3a:	9805      	ldr	r0, [sp, #20]
     d3c:	9006      	str	r0, [sp, #24]
     d3e:	e7ff      	b.n	d40 <CLOCK_SetFLASHAccessCyclesForFreq+0x13e>
     d40:	9806      	ldr	r0, [sp, #24]
     d42:	9007      	str	r0, [sp, #28]
     d44:	e7ff      	b.n	d46 <CLOCK_SetFLASHAccessCyclesForFreq+0x144>
     d46:	9807      	ldr	r0, [sp, #28]
     d48:	9008      	str	r0, [sp, #32]
     d4a:	e7ff      	b.n	d4c <CLOCK_SetFLASHAccessCyclesForFreq+0x14a>
     d4c:	9808      	ldr	r0, [sp, #32]
     d4e:	9009      	str	r0, [sp, #36]	; 0x24
     d50:	e7ff      	b.n	d52 <CLOCK_SetFLASHAccessCyclesForFreq+0x150>
     d52:	9809      	ldr	r0, [sp, #36]	; 0x24
     d54:	900a      	str	r0, [sp, #40]	; 0x28
     d56:	e7ff      	b.n	d58 <CLOCK_SetFLASHAccessCyclesForFreq+0x156>
     d58:	980a      	ldr	r0, [sp, #40]	; 0x28
     d5a:	900b      	str	r0, [sp, #44]	; 0x2c
     d5c:	e7ff      	b.n	d5e <CLOCK_SetFLASHAccessCyclesForFreq+0x15c>
     d5e:	980b      	ldr	r0, [sp, #44]	; 0x2c
     d60:	900c      	str	r0, [sp, #48]	; 0x30
     d62:	e7ff      	b.n	d64 <CLOCK_SetFLASHAccessCyclesForFreq+0x162>
     d64:	9a0c      	ldr	r2, [sp, #48]	; 0x30
     d66:	9200      	str	r2, [sp, #0]
     d68:	f240 4100 	movw	r1, #1024	; 0x400
     d6c:	f2c4 0100 	movt	r1, #16384	; 0x4000
     d70:	6808      	ldr	r0, [r1, #0]
     d72:	f020 0020 	bic.w	r0, r0, #32
     d76:	6008      	str	r0, [r1, #0]
     d78:	f644 71e8 	movw	r1, #20456	; 0x4fe8
     d7c:	f2c4 0103 	movt	r1, #16387	; 0x4003
     d80:	201f      	movs	r0, #31
     d82:	6008      	str	r0, [r1, #0]
     d84:	f244 0180 	movw	r1, #16512	; 0x4080
     d88:	f2c4 0103 	movt	r1, #16387	; 0x4003
     d8c:	6808      	ldr	r0, [r1, #0]
     d8e:	f362 0003 	bfi	r0, r2, #0, #4
     d92:	6008      	str	r0, [r1, #0]
     d94:	f244 0100 	movw	r1, #16384	; 0x4000
     d98:	f2c4 0103 	movt	r1, #16387	; 0x4003
     d9c:	2002      	movs	r0, #2
     d9e:	6008      	str	r0, [r1, #0]
     da0:	e7ff      	b.n	da2 <CLOCK_SetFLASHAccessCyclesForFreq+0x1a0>
     da2:	f644 70e0 	movw	r0, #20448	; 0x4fe0
     da6:	f2c4 0003 	movt	r0, #16387	; 0x4003
     daa:	6800      	ldr	r0, [r0, #0]
     dac:	0740      	lsls	r0, r0, #29
     dae:	2800      	cmp	r0, #0
     db0:	d401      	bmi.n	db6 <CLOCK_SetFLASHAccessCyclesForFreq+0x1b4>
     db2:	e7ff      	b.n	db4 <CLOCK_SetFLASHAccessCyclesForFreq+0x1b2>
     db4:	e7f5      	b.n	da2 <CLOCK_SetFLASHAccessCyclesForFreq+0x1a0>
     db6:	9a0e      	ldr	r2, [sp, #56]	; 0x38
     db8:	9b00      	ldr	r3, [sp, #0]
     dba:	f240 4100 	movw	r1, #1024	; 0x400
     dbe:	f2c4 0100 	movt	r1, #16384	; 0x4000
     dc2:	6808      	ldr	r0, [r1, #0]
     dc4:	f363 300f 	bfi	r0, r3, #12, #4
     dc8:	6008      	str	r0, [r1, #0]
     dca:	6808      	ldr	r0, [r1, #0]
     dcc:	4310      	orrs	r0, r2
     dce:	6008      	str	r0, [r1, #0]
     dd0:	b00f      	add	sp, #60	; 0x3c
     dd2:	4770      	bx	lr

00000dd4 <CLOCK_SetupExtClocking>:
     dd4:	b580      	push	{r7, lr}
     dd6:	466f      	mov	r7, sp
     dd8:	b082      	sub	sp, #8
     dda:	9001      	str	r0, [sp, #4]
     ddc:	f644 0101 	movw	r1, #18433	; 0x4801
     de0:	f2c0 11e8 	movt	r1, #488	; 0x1e8
     de4:	4288      	cmp	r0, r1
     de6:	d303      	bcc.n	df0 <CLOCK_SetupExtClocking+0x1c>
     de8:	e7ff      	b.n	dea <CLOCK_SetupExtClocking+0x16>
     dea:	2001      	movs	r0, #1
     dec:	9000      	str	r0, [sp, #0]
     dee:	e022      	b.n	e36 <CLOCK_SetupExtClocking+0x62>
     df0:	f44f 7080 	mov.w	r0, #256	; 0x100
     df4:	f7ff ff00 	bl	bf8 <POWER_DisablePD>
     df8:	f44f 1080 	mov.w	r0, #1048576	; 0x100000
     dfc:	f7ff fefc 	bl	bf8 <POWER_DisablePD>
     e00:	f640 2118 	movw	r1, #2584	; 0xa18
     e04:	f2c4 0100 	movt	r1, #16384	; 0x4000
     e08:	6808      	ldr	r0, [r1, #0]
     e0a:	f040 0020 	orr.w	r0, r0, #32
     e0e:	6008      	str	r0, [r1, #0]
     e10:	e7ff      	b.n	e12 <CLOCK_SetupExtClocking+0x3e>
     e12:	f243 0024 	movw	r0, #12324	; 0x3024
     e16:	f2c4 0001 	movt	r0, #16385	; 0x4001
     e1a:	6800      	ldr	r0, [r0, #0]
     e1c:	07c0      	lsls	r0, r0, #31
     e1e:	b908      	cbnz	r0, e24 <CLOCK_SetupExtClocking+0x50>
     e20:	e7ff      	b.n	e22 <CLOCK_SetupExtClocking+0x4e>
     e22:	e7f6      	b.n	e12 <CLOCK_SetupExtClocking+0x3e>
     e24:	9801      	ldr	r0, [sp, #4]
     e26:	f240 0104 	movw	r1, #4
     e2a:	f2c2 0100 	movt	r1, #8192	; 0x2000
     e2e:	6008      	str	r0, [r1, #0]
     e30:	2000      	movs	r0, #0
     e32:	9000      	str	r0, [sp, #0]
     e34:	e7ff      	b.n	e36 <CLOCK_SetupExtClocking+0x62>
     e36:	9800      	ldr	r0, [sp, #0]
     e38:	b002      	add	sp, #8
     e3a:	bd80      	pop	{r7, pc}

00000e3c <CLOCK_GetExtClkFreq>:
     e3c:	b081      	sub	sp, #4
     e3e:	f243 0020 	movw	r0, #12320	; 0x3020
     e42:	f2c4 0001 	movt	r0, #16385	; 0x4001
     e46:	6800      	ldr	r0, [r0, #0]
     e48:	01c0      	lsls	r0, r0, #7
     e4a:	2800      	cmp	r0, #0
     e4c:	d507      	bpl.n	e5e <CLOCK_GetExtClkFreq+0x22>
     e4e:	e7ff      	b.n	e50 <CLOCK_GetExtClkFreq+0x14>
     e50:	f240 0004 	movw	r0, #4
     e54:	f2c2 0000 	movt	r0, #8192	; 0x2000
     e58:	6800      	ldr	r0, [r0, #0]
     e5a:	9000      	str	r0, [sp, #0]
     e5c:	e002      	b.n	e64 <CLOCK_GetExtClkFreq+0x28>
     e5e:	2000      	movs	r0, #0
     e60:	9000      	str	r0, [sp, #0]
     e62:	e7ff      	b.n	e64 <CLOCK_GetExtClkFreq+0x28>
     e64:	9800      	ldr	r0, [sp, #0]
     e66:	b001      	add	sp, #4
     e68:	4770      	bx	lr

00000e6a <CLOCK_GetFro1MFreq>:
     e6a:	f640 2018 	movw	r0, #2584	; 0xa18
     e6e:	f2c4 0000 	movt	r0, #16384	; 0x4000
     e72:	6800      	ldr	r0, [r0, #0]
     e74:	f000 0040 	and.w	r0, r0, #64	; 0x40
     e78:	2800      	cmp	r0, #0
     e7a:	bf1c      	itt	ne
     e7c:	f244 2040 	movwne	r0, #16960	; 0x4240
     e80:	f2c0 000f 	movtne	r0, #15
     e84:	4770      	bx	lr

00000e86 <CLOCK_GetOsc32KFreq>:
     e86:	b082      	sub	sp, #8
     e88:	20b8      	movs	r0, #184	; 0xb8
     e8a:	f2c4 0002 	movt	r0, #16386	; 0x4002
     e8e:	6800      	ldr	r0, [r0, #0]
     e90:	0640      	lsls	r0, r0, #25
     e92:	2800      	cmp	r0, #0
     e94:	d40b      	bmi.n	eae <CLOCK_GetOsc32KFreq+0x28>
     e96:	e7ff      	b.n	e98 <CLOCK_GetOsc32KFreq+0x12>
     e98:	2098      	movs	r0, #152	; 0x98
     e9a:	f2c4 0002 	movt	r0, #16386	; 0x4002
     e9e:	6800      	ldr	r0, [r0, #0]
     ea0:	07c0      	lsls	r0, r0, #31
     ea2:	b920      	cbnz	r0, eae <CLOCK_GetOsc32KFreq+0x28>
     ea4:	e7ff      	b.n	ea6 <CLOCK_GetOsc32KFreq+0x20>
     ea6:	f44f 4000 	mov.w	r0, #32768	; 0x8000
     eaa:	9001      	str	r0, [sp, #4]
     eac:	e01a      	b.n	ee4 <CLOCK_GetOsc32KFreq+0x5e>
     eae:	20b8      	movs	r0, #184	; 0xb8
     eb0:	f2c4 0002 	movt	r0, #16386	; 0x4002
     eb4:	6801      	ldr	r1, [r0, #0]
     eb6:	2000      	movs	r0, #0
     eb8:	0609      	lsls	r1, r1, #24
     eba:	2900      	cmp	r1, #0
     ebc:	9000      	str	r0, [sp, #0]
     ebe:	d408      	bmi.n	ed2 <CLOCK_GetOsc32KFreq+0x4c>
     ec0:	e7ff      	b.n	ec2 <CLOCK_GetOsc32KFreq+0x3c>
     ec2:	2098      	movs	r0, #152	; 0x98
     ec4:	f2c4 0002 	movt	r0, #16386	; 0x4002
     ec8:	6800      	ldr	r0, [r0, #0]
     eca:	f000 0001 	and.w	r0, r0, #1
     ece:	9000      	str	r0, [sp, #0]
     ed0:	e7ff      	b.n	ed2 <CLOCK_GetOsc32KFreq+0x4c>
     ed2:	9800      	ldr	r0, [sp, #0]
     ed4:	f000 0001 	and.w	r0, r0, #1
     ed8:	2800      	cmp	r0, #0
     eda:	bf18      	it	ne
     edc:	f44f 4000 	movne.w	r0, #32768	; 0x8000
     ee0:	9001      	str	r0, [sp, #4]
     ee2:	e7ff      	b.n	ee4 <CLOCK_GetOsc32KFreq+0x5e>
     ee4:	9801      	ldr	r0, [sp, #4]
     ee6:	b002      	add	sp, #8
     ee8:	4770      	bx	lr
	...

00000eec <CLOCK_GetPLL0InClockRate>:
     eec:	b580      	push	{r7, lr}
     eee:	466f      	mov	r7, sp
     ef0:	b082      	sub	sp, #8
     ef2:	f240 2090 	movw	r0, #656	; 0x290
     ef6:	f2c4 0000 	movt	r0, #16384	; 0x4000
     efa:	6800      	ldr	r0, [r0, #0]
     efc:	f000 0007 	and.w	r0, r0, #7
     f00:	4601      	mov	r1, r0
     f02:	9101      	str	r1, [sp, #4]
     f04:	2803      	cmp	r0, #3
     f06:	d816      	bhi.n	f36 <CLOCK_GetPLL0InClockRate+0x4a>
     f08:	9901      	ldr	r1, [sp, #4]
     f0a:	e8df f001 	tbb	[pc, r1]
     f0e:	0802      	.short	0x0802
     f10:	100c      	.short	0x100c
     f12:	f641 3000 	movw	r0, #6912	; 0x1b00
     f16:	f2c0 00b7 	movt	r0, #183	; 0xb7
     f1a:	9000      	str	r0, [sp, #0]
     f1c:	e00e      	b.n	f3c <CLOCK_GetPLL0InClockRate+0x50>
     f1e:	f7ff ff8d 	bl	e3c <CLOCK_GetExtClkFreq>
     f22:	9000      	str	r0, [sp, #0]
     f24:	e00a      	b.n	f3c <CLOCK_GetPLL0InClockRate+0x50>
     f26:	f7ff ffa0 	bl	e6a <CLOCK_GetFro1MFreq>
     f2a:	9000      	str	r0, [sp, #0]
     f2c:	e006      	b.n	f3c <CLOCK_GetPLL0InClockRate+0x50>
     f2e:	f7ff ffaa 	bl	e86 <CLOCK_GetOsc32KFreq>
     f32:	9000      	str	r0, [sp, #0]
     f34:	e002      	b.n	f3c <CLOCK_GetPLL0InClockRate+0x50>
     f36:	2000      	movs	r0, #0
     f38:	9000      	str	r0, [sp, #0]
     f3a:	e7ff      	b.n	f3c <CLOCK_GetPLL0InClockRate+0x50>
     f3c:	9800      	ldr	r0, [sp, #0]
     f3e:	b002      	add	sp, #8
     f40:	bd80      	pop	{r7, pc}

00000f42 <findPll0PreDiv>:
     f42:	b082      	sub	sp, #8
     f44:	f240 5080 	movw	r0, #1408	; 0x580
     f48:	f2c4 0000 	movt	r0, #16384	; 0x4000
     f4c:	6801      	ldr	r1, [r0, #0]
     f4e:	2001      	movs	r0, #1
     f50:	0309      	lsls	r1, r1, #12
     f52:	2900      	cmp	r1, #0
     f54:	9001      	str	r0, [sp, #4]
     f56:	d410      	bmi.n	f7a <findPll0PreDiv+0x38>
     f58:	e7ff      	b.n	f5a <findPll0PreDiv+0x18>
     f5a:	f240 5088 	movw	r0, #1416	; 0x588
     f5e:	f2c4 0000 	movt	r0, #16384	; 0x4000
     f62:	6800      	ldr	r0, [r0, #0]
     f64:	b2c1      	uxtb	r1, r0
     f66:	4608      	mov	r0, r1
     f68:	9000      	str	r0, [sp, #0]
     f6a:	b919      	cbnz	r1, f74 <findPll0PreDiv+0x32>
     f6c:	e7ff      	b.n	f6e <findPll0PreDiv+0x2c>
     f6e:	2001      	movs	r0, #1
     f70:	9000      	str	r0, [sp, #0]
     f72:	e7ff      	b.n	f74 <findPll0PreDiv+0x32>
     f74:	9800      	ldr	r0, [sp, #0]
     f76:	9001      	str	r0, [sp, #4]
     f78:	e7ff      	b.n	f7a <findPll0PreDiv+0x38>
     f7a:	9801      	ldr	r0, [sp, #4]
     f7c:	b002      	add	sp, #8
     f7e:	4770      	bx	lr

00000f80 <POWER_EnablePD>:
     f80:	21c0      	movs	r1, #192	; 0xc0
     f82:	f2c4 0102 	movt	r1, #16386	; 0x4002
     f86:	6008      	str	r0, [r1, #0]
     f88:	4770      	bx	lr

00000f8a <CLOCK_IsPLL0Locked>:
     f8a:	f240 5084 	movw	r0, #1412	; 0x584
     f8e:	f2c4 0000 	movt	r0, #16384	; 0x4000
     f92:	6800      	ldr	r0, [r0, #0]
     f94:	f000 0001 	and.w	r0, r0, #1
     f98:	4770      	bx	lr

00000f9a <CLOCK_SetPLL0Freq>:
     f9a:	b580      	push	{r7, lr}
     f9c:	466f      	mov	r7, sp
     f9e:	b08a      	sub	sp, #40	; 0x28
     fa0:	9009      	str	r0, [sp, #36]	; 0x24
     fa2:	f44f 7000 	mov.w	r0, #512	; 0x200
     fa6:	9007      	str	r0, [sp, #28]
     fa8:	f7ff ffea 	bl	f80 <POWER_EnablePD>
     fac:	f44f 0000 	mov.w	r0, #8388608	; 0x800000
     fb0:	9008      	str	r0, [sp, #32]
     fb2:	f7ff ffe5 	bl	f80 <POWER_EnablePD>
     fb6:	9807      	ldr	r0, [sp, #28]
     fb8:	9909      	ldr	r1, [sp, #36]	; 0x24
     fba:	680a      	ldr	r2, [r1, #0]
     fbc:	f240 5380 	movw	r3, #1408	; 0x580
     fc0:	f2c4 0300 	movt	r3, #16384	; 0x4000
     fc4:	601a      	str	r2, [r3, #0]
     fc6:	684a      	ldr	r2, [r1, #4]
     fc8:	f240 5388 	movw	r3, #1416	; 0x588
     fcc:	f2c4 0300 	movt	r3, #16384	; 0x4000
     fd0:	601a      	str	r2, [r3, #0]
     fd2:	684a      	ldr	r2, [r1, #4]
     fd4:	f442 7280 	orr.w	r2, r2, #256	; 0x100
     fd8:	601a      	str	r2, [r3, #0]
     fda:	688a      	ldr	r2, [r1, #8]
     fdc:	f240 538c 	movw	r3, #1420	; 0x58c
     fe0:	f2c4 0300 	movt	r3, #16384	; 0x4000
     fe4:	601a      	str	r2, [r3, #0]
     fe6:	688a      	ldr	r2, [r1, #8]
     fe8:	f042 0220 	orr.w	r2, r2, #32
     fec:	601a      	str	r2, [r3, #0]
     fee:	690a      	ldr	r2, [r1, #16]
     ff0:	f240 5390 	movw	r3, #1424	; 0x590
     ff4:	f2c4 0300 	movt	r3, #16384	; 0x4000
     ff8:	601a      	str	r2, [r3, #0]
     ffa:	694b      	ldr	r3, [r1, #20]
     ffc:	f240 5294 	movw	r2, #1428	; 0x594
    1000:	f2c4 0200 	movt	r2, #16384	; 0x4000
    1004:	6013      	str	r3, [r2, #0]
    1006:	6949      	ldr	r1, [r1, #20]
    1008:	2302      	movs	r3, #2
    100a:	f2c0 4300 	movt	r3, #1024	; 0x400
    100e:	4319      	orrs	r1, r3
    1010:	6011      	str	r1, [r2, #0]
    1012:	f7ff fdf1 	bl	bf8 <POWER_DisablePD>
    1016:	9808      	ldr	r0, [sp, #32]
    1018:	f7ff fdee 	bl	bf8 <POWER_DisablePD>
    101c:	9809      	ldr	r0, [sp, #36]	; 0x24
    101e:	7f00      	ldrb	r0, [r0, #28]
    1020:	0780      	lsls	r0, r0, #30
    1022:	2800      	cmp	r0, #0
    1024:	d55b      	bpl.n	10de <CLOCK_SetPLL0Freq+0x144>
    1026:	e7ff      	b.n	1028 <CLOCK_SetPLL0Freq+0x8e>
    1028:	f240 5094 	movw	r0, #1428	; 0x594
    102c:	f2c4 0000 	movt	r0, #16384	; 0x4000
    1030:	6800      	ldr	r0, [r0, #0]
    1032:	00c0      	lsls	r0, r0, #3
    1034:	2800      	cmp	r0, #0
    1036:	d548      	bpl.n	10ca <CLOCK_SetPLL0Freq+0x130>
    1038:	e7ff      	b.n	103a <CLOCK_SetPLL0Freq+0xa0>
    103a:	f7ff ff57 	bl	eec <CLOCK_GetPLL0InClockRate>
    103e:	9005      	str	r0, [sp, #20]
    1040:	f7ff ff7f 	bl	f42 <findPll0PreDiv>
    1044:	4601      	mov	r1, r0
    1046:	9805      	ldr	r0, [sp, #20]
    1048:	fbb0 f0f1 	udiv	r0, r0, r1
    104c:	f248 4100 	movw	r1, #33792	; 0x8400
    1050:	f2c1 71d7 	movt	r1, #6103	; 0x17d7
    1054:	fbb1 f1f0 	udiv	r1, r1, r0
    1058:	f501 71fa 	add.w	r1, r1, #500	; 0x1f4
    105c:	9106      	str	r1, [sp, #24]
    105e:	f642 41ff 	movw	r1, #11519	; 0x2cff
    1062:	f2c0 1131 	movt	r1, #305	; 0x131
    1066:	4288      	cmp	r0, r1
    1068:	d826      	bhi.n	10b8 <CLOCK_SetPLL0Freq+0x11e>
    106a:	e7ff      	b.n	106c <CLOCK_SetPLL0Freq+0xd2>
    106c:	2000      	movs	r0, #0
    106e:	9004      	str	r0, [sp, #16]
    1070:	e7ff      	b.n	1072 <CLOCK_SetPLL0Freq+0xd8>
    1072:	9804      	ldr	r0, [sp, #16]
    1074:	9002      	str	r0, [sp, #8]
    1076:	f7ff ff88 	bl	f8a <CLOCK_IsPLL0Locked>
    107a:	4601      	mov	r1, r0
    107c:	2000      	movs	r0, #0
    107e:	9003      	str	r0, [sp, #12]
    1080:	b941      	cbnz	r1, 1094 <CLOCK_SetPLL0Freq+0xfa>
    1082:	e7ff      	b.n	1084 <CLOCK_SetPLL0Freq+0xea>
    1084:	9902      	ldr	r1, [sp, #8]
    1086:	9a06      	ldr	r2, [sp, #24]
    1088:	2000      	movs	r0, #0
    108a:	4291      	cmp	r1, r2
    108c:	bf38      	it	cc
    108e:	2001      	movcc	r0, #1
    1090:	9003      	str	r0, [sp, #12]
    1092:	e7ff      	b.n	1094 <CLOCK_SetPLL0Freq+0xfa>
    1094:	9803      	ldr	r0, [sp, #12]
    1096:	07c0      	lsls	r0, r0, #31
    1098:	b168      	cbz	r0, 10b6 <CLOCK_SetPLL0Freq+0x11c>
    109a:	e7ff      	b.n	109c <CLOCK_SetPLL0Freq+0x102>
    109c:	9802      	ldr	r0, [sp, #8]
    109e:	3064      	adds	r0, #100	; 0x64
    10a0:	9001      	str	r0, [sp, #4]
    10a2:	2064      	movs	r0, #100	; 0x64
    10a4:	f24d 1180 	movw	r1, #53632	; 0xd180
    10a8:	f6c0 01f0 	movt	r1, #2288	; 0x8f0
    10ac:	f7ff fc8e 	bl	9cc <SDK_DelayAtLeastUs>
    10b0:	9801      	ldr	r0, [sp, #4]
    10b2:	9004      	str	r0, [sp, #16]
    10b4:	e7dd      	b.n	1072 <CLOCK_SetPLL0Freq+0xd8>
    10b6:	e007      	b.n	10c8 <CLOCK_SetPLL0Freq+0x12e>
    10b8:	9806      	ldr	r0, [sp, #24]
    10ba:	f24d 1180 	movw	r1, #53632	; 0xd180
    10be:	f6c0 01f0 	movt	r1, #2288	; 0x8f0
    10c2:	f7ff fc83 	bl	9cc <SDK_DelayAtLeastUs>
    10c6:	e7ff      	b.n	10c8 <CLOCK_SetPLL0Freq+0x12e>
    10c8:	e008      	b.n	10dc <CLOCK_SetPLL0Freq+0x142>
    10ca:	f241 7070 	movw	r0, #6000	; 0x1770
    10ce:	f24d 1180 	movw	r1, #53632	; 0xd180
    10d2:	f6c0 01f0 	movt	r1, #2288	; 0x8f0
    10d6:	f7ff fc79 	bl	9cc <SDK_DelayAtLeastUs>
    10da:	e7ff      	b.n	10dc <CLOCK_SetPLL0Freq+0x142>
    10dc:	e7ff      	b.n	10de <CLOCK_SetPLL0Freq+0x144>
    10de:	9809      	ldr	r0, [sp, #36]	; 0x24
    10e0:	6980      	ldr	r0, [r0, #24]
    10e2:	f640 11d4 	movw	r1, #2516	; 0x9d4
    10e6:	f2c2 0100 	movt	r1, #8192	; 0x2000
    10ea:	6008      	str	r0, [r1, #0]
    10ec:	2000      	movs	r0, #0
    10ee:	b00a      	add	sp, #40	; 0x28
    10f0:	bd80      	pop	{r7, pc}

000010f2 <POWER_SetVoltageForFreq>:
    10f2:	b580      	push	{r7, lr}
    10f4:	466f      	mov	r7, sp
    10f6:	b084      	sub	sp, #16
    10f8:	9003      	str	r0, [sp, #12]
    10fa:	f24e 1100 	movw	r1, #57600	; 0xe100
    10fe:	f2c0 51f5 	movt	r1, #1525	; 0x5f5
    1102:	4288      	cmp	r0, r1
    1104:	d808      	bhi.n	1118 <POWER_SetVoltageForFreq+0x26>
    1106:	e7ff      	b.n	1108 <POWER_SetVoltageForFreq+0x16>
    1108:	2000      	movs	r0, #0
    110a:	9002      	str	r0, [sp, #8]
    110c:	f000 f81f 	bl	114e <lowpower_set_dcdc_power_profile>
    1110:	9802      	ldr	r0, [sp, #8]
    1112:	f000 f890 	bl	1236 <lowpower_set_voltage_for_process>
    1116:	e018      	b.n	114a <POWER_SetVoltageForFreq+0x58>
    1118:	9803      	ldr	r0, [sp, #12]
    111a:	f24a 4180 	movw	r1, #42112	; 0xa480
    111e:	f2c0 71bf 	movt	r1, #1983	; 0x7bf
    1122:	4288      	cmp	r0, r1
    1124:	d808      	bhi.n	1138 <POWER_SetVoltageForFreq+0x46>
    1126:	e7ff      	b.n	1128 <POWER_SetVoltageForFreq+0x36>
    1128:	2001      	movs	r0, #1
    112a:	9001      	str	r0, [sp, #4]
    112c:	f000 f80f 	bl	114e <lowpower_set_dcdc_power_profile>
    1130:	9801      	ldr	r0, [sp, #4]
    1132:	f000 f880 	bl	1236 <lowpower_set_voltage_for_process>
    1136:	e007      	b.n	1148 <POWER_SetVoltageForFreq+0x56>
    1138:	2002      	movs	r0, #2
    113a:	9000      	str	r0, [sp, #0]
    113c:	f000 f807 	bl	114e <lowpower_set_dcdc_power_profile>
    1140:	9800      	ldr	r0, [sp, #0]
    1142:	f000 f878 	bl	1236 <lowpower_set_voltage_for_process>
    1146:	e7ff      	b.n	1148 <POWER_SetVoltageForFreq+0x56>
    1148:	e7ff      	b.n	114a <POWER_SetVoltageForFreq+0x58>
    114a:	b004      	add	sp, #16
    114c:	bd80      	pop	{r7, pc}

0000114e <lowpower_set_dcdc_power_profile>:
    114e:	b087      	sub	sp, #28
    1150:	4601      	mov	r1, r0
    1152:	9106      	str	r1, [sp, #24]
    1154:	b140      	cbz	r0, 1168 <lowpower_set_dcdc_power_profile+0x1a>
    1156:	e7ff      	b.n	1158 <lowpower_set_dcdc_power_profile+0xa>
    1158:	9806      	ldr	r0, [sp, #24]
    115a:	2801      	cmp	r0, #1
    115c:	d020      	beq.n	11a0 <lowpower_set_dcdc_power_profile+0x52>
    115e:	e7ff      	b.n	1160 <lowpower_set_dcdc_power_profile+0x12>
    1160:	9806      	ldr	r0, [sp, #24]
    1162:	2802      	cmp	r0, #2
    1164:	d038      	beq.n	11d8 <lowpower_set_dcdc_power_profile+0x8a>
    1166:	e053      	b.n	1210 <lowpower_set_dcdc_power_profile+0xc2>
    1168:	f64f 40e0 	movw	r0, #64736	; 0xfce0
    116c:	f2c0 0009 	movt	r0, #9
    1170:	6800      	ldr	r0, [r0, #0]
    1172:	9004      	str	r0, [sp, #16]
    1174:	f64f 41e4 	movw	r1, #64740	; 0xfce4
    1178:	f2c0 0109 	movt	r1, #9
    117c:	6809      	ldr	r1, [r1, #0]
    117e:	9105      	str	r1, [sp, #20]
    1180:	07c0      	lsls	r0, r0, #31
    1182:	b160      	cbz	r0, 119e <lowpower_set_dcdc_power_profile+0x50>
    1184:	e7ff      	b.n	1186 <lowpower_set_dcdc_power_profile+0x38>
    1186:	9805      	ldr	r0, [sp, #20]
    1188:	9904      	ldr	r1, [sp, #16]
    118a:	0849      	lsrs	r1, r1, #1
    118c:	2210      	movs	r2, #16
    118e:	f2c4 0202 	movt	r2, #16386	; 0x4002
    1192:	6011      	str	r1, [r2, #0]
    1194:	2114      	movs	r1, #20
    1196:	f2c4 0102 	movt	r1, #16386	; 0x4002
    119a:	6008      	str	r0, [r1, #0]
    119c:	e7ff      	b.n	119e <lowpower_set_dcdc_power_profile+0x50>
    119e:	e048      	b.n	1232 <lowpower_set_dcdc_power_profile+0xe4>
    11a0:	f64f 40e8 	movw	r0, #64744	; 0xfce8
    11a4:	f2c0 0009 	movt	r0, #9
    11a8:	6800      	ldr	r0, [r0, #0]
    11aa:	9002      	str	r0, [sp, #8]
    11ac:	f64f 41ec 	movw	r1, #64748	; 0xfcec
    11b0:	f2c0 0109 	movt	r1, #9
    11b4:	6809      	ldr	r1, [r1, #0]
    11b6:	9103      	str	r1, [sp, #12]
    11b8:	07c0      	lsls	r0, r0, #31
    11ba:	b160      	cbz	r0, 11d6 <lowpower_set_dcdc_power_profile+0x88>
    11bc:	e7ff      	b.n	11be <lowpower_set_dcdc_power_profile+0x70>
    11be:	9803      	ldr	r0, [sp, #12]
    11c0:	9902      	ldr	r1, [sp, #8]
    11c2:	0849      	lsrs	r1, r1, #1
    11c4:	2210      	movs	r2, #16
    11c6:	f2c4 0202 	movt	r2, #16386	; 0x4002
    11ca:	6011      	str	r1, [r2, #0]
    11cc:	2114      	movs	r1, #20
    11ce:	f2c4 0102 	movt	r1, #16386	; 0x4002
    11d2:	6008      	str	r0, [r1, #0]
    11d4:	e7ff      	b.n	11d6 <lowpower_set_dcdc_power_profile+0x88>
    11d6:	e02c      	b.n	1232 <lowpower_set_dcdc_power_profile+0xe4>
    11d8:	f64f 40d8 	movw	r0, #64728	; 0xfcd8
    11dc:	f2c0 0009 	movt	r0, #9
    11e0:	6800      	ldr	r0, [r0, #0]
    11e2:	9000      	str	r0, [sp, #0]
    11e4:	f64f 41dc 	movw	r1, #64732	; 0xfcdc
    11e8:	f2c0 0109 	movt	r1, #9
    11ec:	6809      	ldr	r1, [r1, #0]
    11ee:	9101      	str	r1, [sp, #4]
    11f0:	07c0      	lsls	r0, r0, #31
    11f2:	b160      	cbz	r0, 120e <lowpower_set_dcdc_power_profile+0xc0>
    11f4:	e7ff      	b.n	11f6 <lowpower_set_dcdc_power_profile+0xa8>
    11f6:	9801      	ldr	r0, [sp, #4]
    11f8:	9900      	ldr	r1, [sp, #0]
    11fa:	0849      	lsrs	r1, r1, #1
    11fc:	2210      	movs	r2, #16
    11fe:	f2c4 0202 	movt	r2, #16386	; 0x4002
    1202:	6011      	str	r1, [r2, #0]
    1204:	2114      	movs	r1, #20
    1206:	f2c4 0102 	movt	r1, #16386	; 0x4002
    120a:	6008      	str	r0, [r1, #0]
    120c:	e7ff      	b.n	120e <lowpower_set_dcdc_power_profile+0xc0>
    120e:	e010      	b.n	1232 <lowpower_set_dcdc_power_profile+0xe4>
    1210:	2110      	movs	r1, #16
    1212:	f2c4 0102 	movt	r1, #16386	; 0x4002
    1216:	f644 6068 	movw	r0, #20072	; 0x4e68
    121a:	f2c0 100c 	movt	r0, #268	; 0x10c
    121e:	6008      	str	r0, [r1, #0]
    1220:	2114      	movs	r1, #20
    1222:	f2c4 0102 	movt	r1, #16386	; 0x4002
    1226:	f643 2098 	movw	r0, #15000	; 0x3a98
    122a:	f2c0 1080 	movt	r0, #384	; 0x180
    122e:	6008      	str	r0, [r1, #0]
    1230:	e7ff      	b.n	1232 <lowpower_set_dcdc_power_profile+0xe4>
    1232:	b007      	add	sp, #28
    1234:	4770      	bx	lr

00001236 <lowpower_set_voltage_for_process>:
    1236:	b580      	push	{r7, lr}
    1238:	466f      	mov	r7, sp
    123a:	b086      	sub	sp, #24
    123c:	9004      	str	r0, [sp, #16]
    123e:	f000 f85b 	bl	12f8 <lowpower_get_part_process_corner>
    1242:	4601      	mov	r1, r0
    1244:	9105      	str	r1, [sp, #20]
    1246:	b120      	cbz	r0, 1252 <lowpower_set_voltage_for_process+0x1c>
    1248:	e7ff      	b.n	124a <lowpower_set_voltage_for_process+0x14>
    124a:	9805      	ldr	r0, [sp, #20]
    124c:	2802      	cmp	r0, #2
    124e:	d01b      	beq.n	1288 <lowpower_set_voltage_for_process+0x52>
    1250:	e035      	b.n	12be <lowpower_set_voltage_for_process+0x88>
    1252:	9804      	ldr	r0, [sp, #16]
    1254:	b2c0      	uxtb	r0, r0
    1256:	4601      	mov	r1, r0
    1258:	9103      	str	r1, [sp, #12]
    125a:	2801      	cmp	r0, #1
    125c:	d004      	beq.n	1268 <lowpower_set_voltage_for_process+0x32>
    125e:	e7ff      	b.n	1260 <lowpower_set_voltage_for_process+0x2a>
    1260:	9803      	ldr	r0, [sp, #12]
    1262:	2802      	cmp	r0, #2
    1264:	d005      	beq.n	1272 <lowpower_set_voltage_for_process+0x3c>
    1266:	e009      	b.n	127c <lowpower_set_voltage_for_process+0x46>
    1268:	f240 407e 	movw	r0, #1150	; 0x47e
    126c:	f000 f89b 	bl	13a6 <lowpower_set_system_voltage>
    1270:	e009      	b.n	1286 <lowpower_set_voltage_for_process+0x50>
    1272:	f44f 6096 	mov.w	r0, #1200	; 0x4b0
    1276:	f000 f896 	bl	13a6 <lowpower_set_system_voltage>
    127a:	e004      	b.n	1286 <lowpower_set_voltage_for_process+0x50>
    127c:	f240 4033 	movw	r0, #1075	; 0x433
    1280:	f000 f891 	bl	13a6 <lowpower_set_system_voltage>
    1284:	e7ff      	b.n	1286 <lowpower_set_voltage_for_process+0x50>
    1286:	e035      	b.n	12f4 <lowpower_set_voltage_for_process+0xbe>
    1288:	9804      	ldr	r0, [sp, #16]
    128a:	b2c0      	uxtb	r0, r0
    128c:	4601      	mov	r1, r0
    128e:	9102      	str	r1, [sp, #8]
    1290:	2801      	cmp	r0, #1
    1292:	d004      	beq.n	129e <lowpower_set_voltage_for_process+0x68>
    1294:	e7ff      	b.n	1296 <lowpower_set_voltage_for_process+0x60>
    1296:	9802      	ldr	r0, [sp, #8]
    1298:	2802      	cmp	r0, #2
    129a:	d005      	beq.n	12a8 <lowpower_set_voltage_for_process+0x72>
    129c:	e009      	b.n	12b2 <lowpower_set_voltage_for_process+0x7c>
    129e:	f240 4001 	movw	r0, #1025	; 0x401
    12a2:	f000 f880 	bl	13a6 <lowpower_set_system_voltage>
    12a6:	e009      	b.n	12bc <lowpower_set_voltage_for_process+0x86>
    12a8:	f240 401a 	movw	r0, #1050	; 0x41a
    12ac:	f000 f87b 	bl	13a6 <lowpower_set_system_voltage>
    12b0:	e004      	b.n	12bc <lowpower_set_voltage_for_process+0x86>
    12b2:	f44f 707a 	mov.w	r0, #1000	; 0x3e8
    12b6:	f000 f876 	bl	13a6 <lowpower_set_system_voltage>
    12ba:	e7ff      	b.n	12bc <lowpower_set_voltage_for_process+0x86>
    12bc:	e01a      	b.n	12f4 <lowpower_set_voltage_for_process+0xbe>
    12be:	9804      	ldr	r0, [sp, #16]
    12c0:	b2c0      	uxtb	r0, r0
    12c2:	4601      	mov	r1, r0
    12c4:	9101      	str	r1, [sp, #4]
    12c6:	2801      	cmp	r0, #1
    12c8:	d004      	beq.n	12d4 <lowpower_set_voltage_for_process+0x9e>
    12ca:	e7ff      	b.n	12cc <lowpower_set_voltage_for_process+0x96>
    12cc:	9801      	ldr	r0, [sp, #4]
    12ce:	2802      	cmp	r0, #2
    12d0:	d005      	beq.n	12de <lowpower_set_voltage_for_process+0xa8>
    12d2:	e009      	b.n	12e8 <lowpower_set_voltage_for_process+0xb2>
    12d4:	f240 404c 	movw	r0, #1100	; 0x44c
    12d8:	f000 f865 	bl	13a6 <lowpower_set_system_voltage>
    12dc:	e009      	b.n	12f2 <lowpower_set_voltage_for_process+0xbc>
    12de:	f240 407e 	movw	r0, #1150	; 0x47e
    12e2:	f000 f860 	bl	13a6 <lowpower_set_system_voltage>
    12e6:	e004      	b.n	12f2 <lowpower_set_voltage_for_process+0xbc>
    12e8:	f44f 707a 	mov.w	r0, #1000	; 0x3e8
    12ec:	f000 f85b 	bl	13a6 <lowpower_set_system_voltage>
    12f0:	e7ff      	b.n	12f2 <lowpower_set_voltage_for_process+0xbc>
    12f2:	e7ff      	b.n	12f4 <lowpower_set_voltage_for_process+0xbe>
    12f4:	b006      	add	sp, #24
    12f6:	bd80      	pop	{r7, pc}

000012f8 <lowpower_get_part_process_corner>:
    12f8:	b08a      	sub	sp, #40	; 0x28
    12fa:	f64f 5030 	movw	r0, #64816	; 0xfd30
    12fe:	f2c0 0009 	movt	r0, #9
    1302:	6800      	ldr	r0, [r0, #0]
    1304:	9008      	str	r0, [sp, #32]
    1306:	f64f 5140 	movw	r1, #64832	; 0xfd40
    130a:	f2c0 0109 	movt	r1, #9
    130e:	6809      	ldr	r1, [r1, #0]
    1310:	9109      	str	r1, [sp, #36]	; 0x24
    1312:	07c0      	lsls	r0, r0, #31
    1314:	b120      	cbz	r0, 1320 <lowpower_get_part_process_corner+0x28>
    1316:	e7ff      	b.n	1318 <lowpower_get_part_process_corner+0x20>
    1318:	9808      	ldr	r0, [sp, #32]
    131a:	0840      	lsrs	r0, r0, #1
    131c:	9007      	str	r0, [sp, #28]
    131e:	e005      	b.n	132c <lowpower_get_part_process_corner+0x34>
    1320:	f647 60a0 	movw	r0, #32416	; 0x7ea0
    1324:	f2c0 1026 	movt	r0, #294	; 0x126
    1328:	9007      	str	r0, [sp, #28]
    132a:	e7ff      	b.n	132c <lowpower_get_part_process_corner+0x34>
    132c:	9809      	ldr	r0, [sp, #36]	; 0x24
    132e:	9907      	ldr	r1, [sp, #28]
    1330:	9106      	str	r1, [sp, #24]
    1332:	07c0      	lsls	r0, r0, #31
    1334:	b120      	cbz	r0, 1340 <lowpower_get_part_process_corner+0x48>
    1336:	e7ff      	b.n	1338 <lowpower_get_part_process_corner+0x40>
    1338:	9809      	ldr	r0, [sp, #36]	; 0x24
    133a:	0840      	lsrs	r0, r0, #1
    133c:	9005      	str	r0, [sp, #20]
    133e:	e005      	b.n	134c <lowpower_get_part_process_corner+0x54>
    1340:	f647 60a0 	movw	r0, #32416	; 0x7ea0
    1344:	f2c0 1026 	movt	r0, #294	; 0x126
    1348:	9005      	str	r0, [sp, #20]
    134a:	e7ff      	b.n	134c <lowpower_get_part_process_corner+0x54>
    134c:	9906      	ldr	r1, [sp, #24]
    134e:	9805      	ldr	r0, [sp, #20]
    1350:	9004      	str	r0, [sp, #16]
    1352:	4288      	cmp	r0, r1
    1354:	d803      	bhi.n	135e <lowpower_get_part_process_corner+0x66>
    1356:	e7ff      	b.n	1358 <lowpower_get_part_process_corner+0x60>
    1358:	9804      	ldr	r0, [sp, #16]
    135a:	9003      	str	r0, [sp, #12]
    135c:	e002      	b.n	1364 <lowpower_get_part_process_corner+0x6c>
    135e:	9806      	ldr	r0, [sp, #24]
    1360:	9003      	str	r0, [sp, #12]
    1362:	e7ff      	b.n	1364 <lowpower_get_part_process_corner+0x6c>
    1364:	9803      	ldr	r0, [sp, #12]
    1366:	9002      	str	r0, [sp, #8]
    1368:	f64d 71a0 	movw	r1, #57248	; 0xdfa0
    136c:	f2c0 1101 	movt	r1, #257	; 0x101
    1370:	4288      	cmp	r0, r1
    1372:	d803      	bhi.n	137c <lowpower_get_part_process_corner+0x84>
    1374:	e7ff      	b.n	1376 <lowpower_get_part_process_corner+0x7e>
    1376:	2000      	movs	r0, #0
    1378:	9001      	str	r0, [sp, #4]
    137a:	e010      	b.n	139e <lowpower_get_part_process_corner+0xa6>
    137c:	9802      	ldr	r0, [sp, #8]
    137e:	f641 51a0 	movw	r1, #7584	; 0x1da0
    1382:	f2c0 114b 	movt	r1, #331	; 0x14b
    1386:	4288      	cmp	r0, r1
    1388:	d803      	bhi.n	1392 <lowpower_get_part_process_corner+0x9a>
    138a:	e7ff      	b.n	138c <lowpower_get_part_process_corner+0x94>
    138c:	2001      	movs	r0, #1
    138e:	9000      	str	r0, [sp, #0]
    1390:	e002      	b.n	1398 <lowpower_get_part_process_corner+0xa0>
    1392:	2002      	movs	r0, #2
    1394:	9000      	str	r0, [sp, #0]
    1396:	e7ff      	b.n	1398 <lowpower_get_part_process_corner+0xa0>
    1398:	9800      	ldr	r0, [sp, #0]
    139a:	9001      	str	r0, [sp, #4]
    139c:	e7ff      	b.n	139e <lowpower_get_part_process_corner+0xa6>
    139e:	9801      	ldr	r0, [sp, #4]
    13a0:	b2c0      	uxtb	r0, r0
    13a2:	b00a      	add	sp, #40	; 0x28
    13a4:	4770      	bx	lr

000013a6 <lowpower_set_system_voltage>:
    13a6:	b580      	push	{r7, lr}
    13a8:	466f      	mov	r7, sp
    13aa:	b09b      	sub	sp, #108	; 0x6c
    13ac:	901a      	str	r0, [sp, #104]	; 0x68
    13ae:	f240 31b6 	movw	r1, #950	; 0x3b6
    13b2:	4288      	cmp	r0, r1
    13b4:	d807      	bhi.n	13c6 <lowpower_set_system_voltage+0x20>
    13b6:	e7ff      	b.n	13b8 <lowpower_set_system_voltage+0x12>
    13b8:	2000      	movs	r0, #0
    13ba:	210a      	movs	r1, #10
    13bc:	220f      	movs	r2, #15
    13be:	9217      	str	r2, [sp, #92]	; 0x5c
    13c0:	9118      	str	r1, [sp, #96]	; 0x60
    13c2:	9019      	str	r0, [sp, #100]	; 0x64
    13c4:	e0a7      	b.n	1516 <lowpower_set_system_voltage+0x170>
    13c6:	981a      	ldr	r0, [sp, #104]	; 0x68
    13c8:	0900      	lsrs	r0, r0, #4
    13ca:	283c      	cmp	r0, #60	; 0x3c
    13cc:	d807      	bhi.n	13de <lowpower_set_system_voltage+0x38>
    13ce:	e7ff      	b.n	13d0 <lowpower_set_system_voltage+0x2a>
    13d0:	2001      	movs	r0, #1
    13d2:	210c      	movs	r1, #12
    13d4:	2211      	movs	r2, #17
    13d6:	9214      	str	r2, [sp, #80]	; 0x50
    13d8:	9115      	str	r1, [sp, #84]	; 0x54
    13da:	9016      	str	r0, [sp, #88]	; 0x58
    13dc:	e094      	b.n	1508 <lowpower_set_system_voltage+0x162>
    13de:	981a      	ldr	r0, [sp, #104]	; 0x68
    13e0:	f5b0 7f7a 	cmp.w	r0, #1000	; 0x3e8
    13e4:	d807      	bhi.n	13f6 <lowpower_set_system_voltage+0x50>
    13e6:	e7ff      	b.n	13e8 <lowpower_set_system_voltage+0x42>
    13e8:	2002      	movs	r0, #2
    13ea:	210e      	movs	r1, #14
    13ec:	2213      	movs	r2, #19
    13ee:	9211      	str	r2, [sp, #68]	; 0x44
    13f0:	9112      	str	r1, [sp, #72]	; 0x48
    13f2:	9013      	str	r0, [sp, #76]	; 0x4c
    13f4:	e081      	b.n	14fa <lowpower_set_system_voltage+0x154>
    13f6:	981a      	ldr	r0, [sp, #104]	; 0x68
    13f8:	f240 4101 	movw	r1, #1025	; 0x401
    13fc:	4288      	cmp	r0, r1
    13fe:	d807      	bhi.n	1410 <lowpower_set_system_voltage+0x6a>
    1400:	e7ff      	b.n	1402 <lowpower_set_system_voltage+0x5c>
    1402:	2003      	movs	r0, #3
    1404:	2111      	movs	r1, #17
    1406:	2216      	movs	r2, #22
    1408:	920e      	str	r2, [sp, #56]	; 0x38
    140a:	910f      	str	r1, [sp, #60]	; 0x3c
    140c:	9010      	str	r0, [sp, #64]	; 0x40
    140e:	e06d      	b.n	14ec <lowpower_set_system_voltage+0x146>
    1410:	981a      	ldr	r0, [sp, #104]	; 0x68
    1412:	f240 411a 	movw	r1, #1050	; 0x41a
    1416:	4288      	cmp	r0, r1
    1418:	d807      	bhi.n	142a <lowpower_set_system_voltage+0x84>
    141a:	e7ff      	b.n	141c <lowpower_set_system_voltage+0x76>
    141c:	2004      	movs	r0, #4
    141e:	2114      	movs	r1, #20
    1420:	2219      	movs	r2, #25
    1422:	920b      	str	r2, [sp, #44]	; 0x2c
    1424:	910c      	str	r1, [sp, #48]	; 0x30
    1426:	900d      	str	r0, [sp, #52]	; 0x34
    1428:	e059      	b.n	14de <lowpower_set_system_voltage+0x138>
    142a:	981a      	ldr	r0, [sp, #104]	; 0x68
    142c:	f240 4133 	movw	r1, #1075	; 0x433
    1430:	4288      	cmp	r0, r1
    1432:	d807      	bhi.n	1444 <lowpower_set_system_voltage+0x9e>
    1434:	e7ff      	b.n	1436 <lowpower_set_system_voltage+0x90>
    1436:	2005      	movs	r0, #5
    1438:	2116      	movs	r1, #22
    143a:	221b      	movs	r2, #27
    143c:	9208      	str	r2, [sp, #32]
    143e:	9109      	str	r1, [sp, #36]	; 0x24
    1440:	900a      	str	r0, [sp, #40]	; 0x28
    1442:	e045      	b.n	14d0 <lowpower_set_system_voltage+0x12a>
    1444:	981a      	ldr	r0, [sp, #104]	; 0x68
    1446:	f240 414c 	movw	r1, #1100	; 0x44c
    144a:	4288      	cmp	r0, r1
    144c:	d807      	bhi.n	145e <lowpower_set_system_voltage+0xb8>
    144e:	e7ff      	b.n	1450 <lowpower_set_system_voltage+0xaa>
    1450:	2006      	movs	r0, #6
    1452:	2118      	movs	r1, #24
    1454:	221d      	movs	r2, #29
    1456:	9205      	str	r2, [sp, #20]
    1458:	9106      	str	r1, [sp, #24]
    145a:	9007      	str	r0, [sp, #28]
    145c:	e031      	b.n	14c2 <lowpower_set_system_voltage+0x11c>
    145e:	981a      	ldr	r0, [sp, #104]	; 0x68
    1460:	f240 4165 	movw	r1, #1125	; 0x465
    1464:	4288      	cmp	r0, r1
    1466:	d807      	bhi.n	1478 <lowpower_set_system_voltage+0xd2>
    1468:	e7ff      	b.n	146a <lowpower_set_system_voltage+0xc4>
    146a:	2007      	movs	r0, #7
    146c:	211b      	movs	r1, #27
    146e:	221e      	movs	r2, #30
    1470:	9202      	str	r2, [sp, #8]
    1472:	9103      	str	r1, [sp, #12]
    1474:	9004      	str	r0, [sp, #16]
    1476:	e01d      	b.n	14b4 <lowpower_set_system_voltage+0x10e>
    1478:	981a      	ldr	r0, [sp, #104]	; 0x68
    147a:	f240 417e 	movw	r1, #1150	; 0x47e
    147e:	4288      	cmp	r0, r1
    1480:	d803      	bhi.n	148a <lowpower_set_system_voltage+0xe4>
    1482:	e7ff      	b.n	1484 <lowpower_set_system_voltage+0xde>
    1484:	2008      	movs	r0, #8
    1486:	9001      	str	r0, [sp, #4]
    1488:	e00d      	b.n	14a6 <lowpower_set_system_voltage+0x100>
    148a:	981a      	ldr	r0, [sp, #104]	; 0x68
    148c:	08c0      	lsrs	r0, r0, #3
    148e:	2892      	cmp	r0, #146	; 0x92
    1490:	d803      	bhi.n	149a <lowpower_set_system_voltage+0xf4>
    1492:	e7ff      	b.n	1494 <lowpower_set_system_voltage+0xee>
    1494:	2009      	movs	r0, #9
    1496:	9000      	str	r0, [sp, #0]
    1498:	e002      	b.n	14a0 <lowpower_set_system_voltage+0xfa>
    149a:	200a      	movs	r0, #10
    149c:	9000      	str	r0, [sp, #0]
    149e:	e7ff      	b.n	14a0 <lowpower_set_system_voltage+0xfa>
    14a0:	9800      	ldr	r0, [sp, #0]
    14a2:	9001      	str	r0, [sp, #4]
    14a4:	e7ff      	b.n	14a6 <lowpower_set_system_voltage+0x100>
    14a6:	9801      	ldr	r0, [sp, #4]
    14a8:	211e      	movs	r1, #30
    14aa:	221f      	movs	r2, #31
    14ac:	9202      	str	r2, [sp, #8]
    14ae:	9103      	str	r1, [sp, #12]
    14b0:	9004      	str	r0, [sp, #16]
    14b2:	e7ff      	b.n	14b4 <lowpower_set_system_voltage+0x10e>
    14b4:	9a02      	ldr	r2, [sp, #8]
    14b6:	9903      	ldr	r1, [sp, #12]
    14b8:	9804      	ldr	r0, [sp, #16]
    14ba:	9205      	str	r2, [sp, #20]
    14bc:	9106      	str	r1, [sp, #24]
    14be:	9007      	str	r0, [sp, #28]
    14c0:	e7ff      	b.n	14c2 <lowpower_set_system_voltage+0x11c>
    14c2:	9a05      	ldr	r2, [sp, #20]
    14c4:	9906      	ldr	r1, [sp, #24]
    14c6:	9807      	ldr	r0, [sp, #28]
    14c8:	9208      	str	r2, [sp, #32]
    14ca:	9109      	str	r1, [sp, #36]	; 0x24
    14cc:	900a      	str	r0, [sp, #40]	; 0x28
    14ce:	e7ff      	b.n	14d0 <lowpower_set_system_voltage+0x12a>
    14d0:	9a08      	ldr	r2, [sp, #32]
    14d2:	9909      	ldr	r1, [sp, #36]	; 0x24
    14d4:	980a      	ldr	r0, [sp, #40]	; 0x28
    14d6:	920b      	str	r2, [sp, #44]	; 0x2c
    14d8:	910c      	str	r1, [sp, #48]	; 0x30
    14da:	900d      	str	r0, [sp, #52]	; 0x34
    14dc:	e7ff      	b.n	14de <lowpower_set_system_voltage+0x138>
    14de:	9a0b      	ldr	r2, [sp, #44]	; 0x2c
    14e0:	990c      	ldr	r1, [sp, #48]	; 0x30
    14e2:	980d      	ldr	r0, [sp, #52]	; 0x34
    14e4:	920e      	str	r2, [sp, #56]	; 0x38
    14e6:	910f      	str	r1, [sp, #60]	; 0x3c
    14e8:	9010      	str	r0, [sp, #64]	; 0x40
    14ea:	e7ff      	b.n	14ec <lowpower_set_system_voltage+0x146>
    14ec:	9a0e      	ldr	r2, [sp, #56]	; 0x38
    14ee:	990f      	ldr	r1, [sp, #60]	; 0x3c
    14f0:	9810      	ldr	r0, [sp, #64]	; 0x40
    14f2:	9211      	str	r2, [sp, #68]	; 0x44
    14f4:	9112      	str	r1, [sp, #72]	; 0x48
    14f6:	9013      	str	r0, [sp, #76]	; 0x4c
    14f8:	e7ff      	b.n	14fa <lowpower_set_system_voltage+0x154>
    14fa:	9a11      	ldr	r2, [sp, #68]	; 0x44
    14fc:	9912      	ldr	r1, [sp, #72]	; 0x48
    14fe:	9813      	ldr	r0, [sp, #76]	; 0x4c
    1500:	9214      	str	r2, [sp, #80]	; 0x50
    1502:	9115      	str	r1, [sp, #84]	; 0x54
    1504:	9016      	str	r0, [sp, #88]	; 0x58
    1506:	e7ff      	b.n	1508 <lowpower_set_system_voltage+0x162>
    1508:	9a14      	ldr	r2, [sp, #80]	; 0x50
    150a:	9915      	ldr	r1, [sp, #84]	; 0x54
    150c:	9816      	ldr	r0, [sp, #88]	; 0x58
    150e:	9217      	str	r2, [sp, #92]	; 0x5c
    1510:	9118      	str	r1, [sp, #96]	; 0x60
    1512:	9019      	str	r0, [sp, #100]	; 0x64
    1514:	e7ff      	b.n	1516 <lowpower_set_system_voltage+0x170>
    1516:	9b17      	ldr	r3, [sp, #92]	; 0x5c
    1518:	f8dd c060 	ldr.w	ip, [sp, #96]	; 0x60
    151c:	9a19      	ldr	r2, [sp, #100]	; 0x64
    151e:	211c      	movs	r1, #28
    1520:	f2c4 0102 	movt	r1, #16386	; 0x4002
    1524:	6808      	ldr	r0, [r1, #0]
    1526:	f647 4e1f 	movw	lr, #31775	; 0x7c1f
    152a:	ea20 000e 	bic.w	r0, r0, lr
    152e:	f00c 0c1f 	and.w	ip, ip, #31
    1532:	4460      	add	r0, ip
    1534:	f003 031f 	and.w	r3, r3, #31
    1538:	ea40 2083 	orr.w	r0, r0, r3, lsl #10
    153c:	6008      	str	r0, [r1, #0]
    153e:	2110      	movs	r1, #16
    1540:	f2c4 0102 	movt	r1, #16386	; 0x4002
    1544:	6808      	ldr	r0, [r1, #0]
    1546:	f362 4054 	bfi	r0, r2, #17, #4
    154a:	6008      	str	r0, [r1, #0]
    154c:	b01b      	add	sp, #108	; 0x6c
    154e:	bd80      	pop	{r7, pc}

00001550 <RESET_SetPeripheralReset>:
    1550:	b580      	push	{r7, lr}
    1552:	466f      	mov	r7, sp
    1554:	b082      	sub	sp, #8
    1556:	0c01      	lsrs	r1, r0, #16
    1558:	9100      	str	r1, [sp, #0]
    155a:	b280      	uxth	r0, r0
    155c:	2101      	movs	r1, #1
    155e:	4081      	lsls	r1, r0
    1560:	9101      	str	r1, [sp, #4]
    1562:	281f      	cmp	r0, #31
    1564:	d801      	bhi.n	156a <RESET_SetPeripheralReset+0x1a>
    1566:	e7ff      	b.n	1568 <RESET_SetPeripheralReset+0x18>
    1568:	e00e      	b.n	1588 <RESET_SetPeripheralReset+0x38>
    156a:	f645 7080 	movw	r0, #24448	; 0x5f80
    156e:	f2c0 0000 	movt	r0, #0
    1572:	f645 7294 	movw	r2, #24468	; 0x5f94
    1576:	f2c0 0200 	movt	r2, #0
    157a:	f645 73ad 	movw	r3, #24493	; 0x5fad
    157e:	f2c0 0300 	movt	r3, #0
    1582:	2130      	movs	r1, #48	; 0x30
    1584:	f001 fc44 	bl	2e10 <__assert_func>
    1588:	9801      	ldr	r0, [sp, #4]
    158a:	9a00      	ldr	r2, [sp, #0]
    158c:	f240 1120 	movw	r1, #288	; 0x120
    1590:	f2c4 0100 	movt	r1, #16384	; 0x4000
    1594:	f841 0022 	str.w	r0, [r1, r2, lsl #2]
    1598:	e7ff      	b.n	159a <RESET_SetPeripheralReset+0x4a>
    159a:	9901      	ldr	r1, [sp, #4]
    159c:	9a00      	ldr	r2, [sp, #0]
    159e:	f240 1000 	movw	r0, #256	; 0x100
    15a2:	f2c4 0000 	movt	r0, #16384	; 0x4000
    15a6:	f850 0022 	ldr.w	r0, [r0, r2, lsl #2]
    15aa:	4208      	tst	r0, r1
    15ac:	d101      	bne.n	15b2 <RESET_SetPeripheralReset+0x62>
    15ae:	e7ff      	b.n	15b0 <RESET_SetPeripheralReset+0x60>
    15b0:	e7f3      	b.n	159a <RESET_SetPeripheralReset+0x4a>
    15b2:	b002      	add	sp, #8
    15b4:	bd80      	pop	{r7, pc}

000015b6 <RESET_ClearPeripheralReset>:
    15b6:	b580      	push	{r7, lr}
    15b8:	466f      	mov	r7, sp
    15ba:	b082      	sub	sp, #8
    15bc:	0c01      	lsrs	r1, r0, #16
    15be:	9100      	str	r1, [sp, #0]
    15c0:	b280      	uxth	r0, r0
    15c2:	2101      	movs	r1, #1
    15c4:	4081      	lsls	r1, r0
    15c6:	9101      	str	r1, [sp, #4]
    15c8:	281f      	cmp	r0, #31
    15ca:	d801      	bhi.n	15d0 <RESET_ClearPeripheralReset+0x1a>
    15cc:	e7ff      	b.n	15ce <RESET_ClearPeripheralReset+0x18>
    15ce:	e00e      	b.n	15ee <RESET_ClearPeripheralReset+0x38>
    15d0:	f645 7080 	movw	r0, #24448	; 0x5f80
    15d4:	f2c0 0000 	movt	r0, #0
    15d8:	f645 72ba 	movw	r2, #24506	; 0x5fba
    15dc:	f2c0 0200 	movt	r2, #0
    15e0:	f645 73ad 	movw	r3, #24493	; 0x5fad
    15e4:	f2c0 0300 	movt	r3, #0
    15e8:	2149      	movs	r1, #73	; 0x49
    15ea:	f001 fc11 	bl	2e10 <__assert_func>
    15ee:	9801      	ldr	r0, [sp, #4]
    15f0:	9a00      	ldr	r2, [sp, #0]
    15f2:	f240 1140 	movw	r1, #320	; 0x140
    15f6:	f2c4 0100 	movt	r1, #16384	; 0x4000
    15fa:	f841 0022 	str.w	r0, [r1, r2, lsl #2]
    15fe:	e7ff      	b.n	1600 <RESET_ClearPeripheralReset+0x4a>
    1600:	9801      	ldr	r0, [sp, #4]
    1602:	9a00      	ldr	r2, [sp, #0]
    1604:	f240 1100 	movw	r1, #256	; 0x100
    1608:	f2c4 0100 	movt	r1, #16384	; 0x4000
    160c:	f851 1022 	ldr.w	r1, [r1, r2, lsl #2]
    1610:	4001      	ands	r1, r0
    1612:	4288      	cmp	r0, r1
    1614:	d101      	bne.n	161a <RESET_ClearPeripheralReset+0x64>
    1616:	e7ff      	b.n	1618 <RESET_ClearPeripheralReset+0x62>
    1618:	e7f2      	b.n	1600 <RESET_ClearPeripheralReset+0x4a>
    161a:	b002      	add	sp, #8
    161c:	bd80      	pop	{r7, pc}

0000161e <RESET_PeripheralReset>:
    161e:	b580      	push	{r7, lr}
    1620:	466f      	mov	r7, sp
    1622:	b082      	sub	sp, #8
    1624:	9001      	str	r0, [sp, #4]
    1626:	f7ff ff93 	bl	1550 <RESET_SetPeripheralReset>
    162a:	9801      	ldr	r0, [sp, #4]
    162c:	f7ff ffc3 	bl	15b6 <RESET_ClearPeripheralReset>
    1630:	b002      	add	sp, #8
    1632:	bd80      	pop	{r7, pc}

00001634 <GPIO_EnablePortClock>:
    1634:	b580      	push	{r7, lr}
    1636:	466f      	mov	r7, sp
    1638:	b082      	sub	sp, #8
    163a:	9101      	str	r1, [sp, #4]
    163c:	2903      	cmp	r1, #3
    163e:	d801      	bhi.n	1644 <GPIO_EnablePortClock+0x10>
    1640:	e7ff      	b.n	1642 <GPIO_EnablePortClock+0xe>
    1642:	e00e      	b.n	1662 <GPIO_EnablePortClock+0x2e>
    1644:	f645 70d5 	movw	r0, #24533	; 0x5fd5
    1648:	f2c0 0000 	movt	r0, #0
    164c:	f645 72e8 	movw	r2, #24552	; 0x5fe8
    1650:	f2c0 0200 	movt	r2, #0
    1654:	f645 73fd 	movw	r3, #24573	; 0x5ffd
    1658:	f2c0 0300 	movt	r3, #0
    165c:	212d      	movs	r1, #45	; 0x2d
    165e:	f001 fbd7 	bl	2e10 <__assert_func>
    1662:	9901      	ldr	r1, [sp, #4]
    1664:	f246 0020 	movw	r0, #24608	; 0x6020
    1668:	f2c0 0000 	movt	r0, #0
    166c:	f830 0011 	ldrh.w	r0, [r0, r1, lsl #1]
    1670:	f000 f847 	bl	1702 <CLOCK_EnableClock>
    1674:	b002      	add	sp, #8
    1676:	bd80      	pop	{r7, pc}

00001678 <GPIO_PinInit>:
    1678:	b580      	push	{r7, lr}
    167a:	466f      	mov	r7, sp
    167c:	b084      	sub	sp, #16
    167e:	9303      	str	r3, [sp, #12]
    1680:	9200      	str	r2, [sp, #0]
    1682:	9101      	str	r1, [sp, #4]
    1684:	9002      	str	r0, [sp, #8]
    1686:	f7ff ffd5 	bl	1634 <GPIO_EnablePortClock>
    168a:	9b03      	ldr	r3, [sp, #12]
    168c:	7818      	ldrb	r0, [r3, #0]
    168e:	b970      	cbnz	r0, 16ae <GPIO_PinInit+0x36>
    1690:	e7ff      	b.n	1692 <GPIO_PinInit+0x1a>
    1692:	9802      	ldr	r0, [sp, #8]
    1694:	9901      	ldr	r1, [sp, #4]
    1696:	9b00      	ldr	r3, [sp, #0]
    1698:	2201      	movs	r2, #1
    169a:	fa02 f303 	lsl.w	r3, r2, r3
    169e:	eb00 0181 	add.w	r1, r0, r1, lsl #2
    16a2:	f44f 5200 	mov.w	r2, #8192	; 0x2000
    16a6:	5888      	ldr	r0, [r1, r2]
    16a8:	4398      	bics	r0, r3
    16aa:	5088      	str	r0, [r1, r2]
    16ac:	e027      	b.n	16fe <GPIO_PinInit+0x86>
    16ae:	9803      	ldr	r0, [sp, #12]
    16b0:	7840      	ldrb	r0, [r0, #1]
    16b2:	b958      	cbnz	r0, 16cc <GPIO_PinInit+0x54>
    16b4:	e7ff      	b.n	16b6 <GPIO_PinInit+0x3e>
    16b6:	9902      	ldr	r1, [sp, #8]
    16b8:	9a01      	ldr	r2, [sp, #4]
    16ba:	9b00      	ldr	r3, [sp, #0]
    16bc:	2001      	movs	r0, #1
    16be:	4098      	lsls	r0, r3
    16c0:	eb01 0182 	add.w	r1, r1, r2, lsl #2
    16c4:	f44f 520a 	mov.w	r2, #8832	; 0x2280
    16c8:	5088      	str	r0, [r1, r2]
    16ca:	e00a      	b.n	16e2 <GPIO_PinInit+0x6a>
    16cc:	9902      	ldr	r1, [sp, #8]
    16ce:	9a01      	ldr	r2, [sp, #4]
    16d0:	9b00      	ldr	r3, [sp, #0]
    16d2:	2001      	movs	r0, #1
    16d4:	4098      	lsls	r0, r3
    16d6:	eb01 0182 	add.w	r1, r1, r2, lsl #2
    16da:	f44f 5208 	mov.w	r2, #8704	; 0x2200
    16de:	5088      	str	r0, [r1, r2]
    16e0:	e7ff      	b.n	16e2 <GPIO_PinInit+0x6a>
    16e2:	9802      	ldr	r0, [sp, #8]
    16e4:	9901      	ldr	r1, [sp, #4]
    16e6:	9b00      	ldr	r3, [sp, #0]
    16e8:	2201      	movs	r2, #1
    16ea:	fa02 f303 	lsl.w	r3, r2, r3
    16ee:	eb00 0181 	add.w	r1, r0, r1, lsl #2
    16f2:	f44f 5200 	mov.w	r2, #8192	; 0x2000
    16f6:	5888      	ldr	r0, [r1, r2]
    16f8:	4318      	orrs	r0, r3
    16fa:	5088      	str	r0, [r1, r2]
    16fc:	e7ff      	b.n	16fe <GPIO_PinInit+0x86>
    16fe:	b004      	add	sp, #16
    1700:	bd80      	pop	{r7, pc}

00001702 <CLOCK_EnableClock>:
    1702:	0a02      	lsrs	r2, r0, #8
    1704:	b2c1      	uxtb	r1, r0
    1706:	2001      	movs	r0, #1
    1708:	4088      	lsls	r0, r1
    170a:	f240 2120 	movw	r1, #544	; 0x220
    170e:	f2c4 0100 	movt	r1, #16384	; 0x4000
    1712:	f841 0022 	str.w	r0, [r1, r2, lsl #2]
    1716:	4770      	bx	lr

00001718 <USART_Init>:
    1718:	b5d0      	push	{r4, r6, r7, lr}
    171a:	af02      	add	r7, sp, #8
    171c:	b086      	sub	sp, #24
    171e:	9203      	str	r2, [sp, #12]
    1720:	9104      	str	r1, [sp, #16]
    1722:	9005      	str	r0, [sp, #20]
    1724:	b138      	cbz	r0, 1736 <USART_Init+0x1e>
    1726:	e7ff      	b.n	1728 <USART_Init+0x10>
    1728:	9804      	ldr	r0, [sp, #16]
    172a:	b120      	cbz	r0, 1736 <USART_Init+0x1e>
    172c:	e7ff      	b.n	172e <USART_Init+0x16>
    172e:	9803      	ldr	r0, [sp, #12]
    1730:	b108      	cbz	r0, 1736 <USART_Init+0x1e>
    1732:	e7ff      	b.n	1734 <USART_Init+0x1c>
    1734:	e00e      	b.n	1754 <USART_Init+0x3c>
    1736:	f246 0028 	movw	r0, #24616	; 0x6028
    173a:	f2c0 0000 	movt	r0, #0
    173e:	f246 1206 	movw	r2, #24838	; 0x6106
    1742:	f2c0 0200 	movt	r2, #0
    1746:	f246 1311 	movw	r3, #24849	; 0x6111
    174a:	f2c0 0300 	movt	r3, #0
    174e:	21c6      	movs	r1, #198	; 0xc6
    1750:	f001 fb5e 	bl	2e10 <__assert_func>
    1754:	9805      	ldr	r0, [sp, #20]
    1756:	b130      	cbz	r0, 1766 <USART_Init+0x4e>
    1758:	e7ff      	b.n	175a <USART_Init+0x42>
    175a:	9804      	ldr	r0, [sp, #16]
    175c:	b118      	cbz	r0, 1766 <USART_Init+0x4e>
    175e:	e7ff      	b.n	1760 <USART_Init+0x48>
    1760:	9803      	ldr	r0, [sp, #12]
    1762:	b918      	cbnz	r0, 176c <USART_Init+0x54>
    1764:	e7ff      	b.n	1766 <USART_Init+0x4e>
    1766:	2004      	movs	r0, #4
    1768:	9002      	str	r0, [sp, #8]
    176a:	e0b6      	b.n	18da <USART_Init+0x1c2>
    176c:	9805      	ldr	r0, [sp, #20]
    176e:	2101      	movs	r1, #1
    1770:	f000 f9f6 	bl	1b60 <FLEXCOMM_Init>
    1774:	4601      	mov	r1, r0
    1776:	9101      	str	r1, [sp, #4]
    1778:	b118      	cbz	r0, 1782 <USART_Init+0x6a>
    177a:	e7ff      	b.n	177c <USART_Init+0x64>
    177c:	9801      	ldr	r0, [sp, #4]
    177e:	9002      	str	r0, [sp, #8]
    1780:	e0ab      	b.n	18da <USART_Init+0x1c2>
    1782:	9804      	ldr	r0, [sp, #16]
    1784:	7a40      	ldrb	r0, [r0, #9]
    1786:	07c0      	lsls	r0, r0, #31
    1788:	b1f0      	cbz	r0, 17c8 <USART_Init+0xb0>
    178a:	e7ff      	b.n	178c <USART_Init+0x74>
    178c:	9905      	ldr	r1, [sp, #20]
    178e:	9804      	ldr	r0, [sp, #16]
    1790:	f8d1 2e00 	ldr.w	r2, [r1, #3584]	; 0xe00
    1794:	f042 1201 	orr.w	r2, r2, #65537	; 0x10001
    1798:	f8c1 2e00 	str.w	r2, [r1, #3584]	; 0xe00
    179c:	f8d1 2e08 	ldr.w	r2, [r1, #3592]	; 0xe08
    17a0:	f422 6270 	bic.w	r2, r2, #3840	; 0xf00
    17a4:	f8c1 2e08 	str.w	r2, [r1, #3592]	; 0xe08
    17a8:	7b40      	ldrb	r0, [r0, #13]
    17aa:	f000 020f 	and.w	r2, r0, #15
    17ae:	f8d1 0e08 	ldr.w	r0, [r1, #3592]	; 0xe08
    17b2:	ea40 2002 	orr.w	r0, r0, r2, lsl #8
    17b6:	f8c1 0e08 	str.w	r0, [r1, #3592]	; 0xe08
    17ba:	f8d1 0e08 	ldr.w	r0, [r1, #3592]	; 0xe08
    17be:	f040 0001 	orr.w	r0, r0, #1
    17c2:	f8c1 0e08 	str.w	r0, [r1, #3592]	; 0xe08
    17c6:	e7ff      	b.n	17c8 <USART_Init+0xb0>
    17c8:	9804      	ldr	r0, [sp, #16]
    17ca:	7a00      	ldrb	r0, [r0, #8]
    17cc:	07c0      	lsls	r0, r0, #31
    17ce:	b1f0      	cbz	r0, 180e <USART_Init+0xf6>
    17d0:	e7ff      	b.n	17d2 <USART_Init+0xba>
    17d2:	9905      	ldr	r1, [sp, #20]
    17d4:	9804      	ldr	r0, [sp, #16]
    17d6:	f8d1 2e00 	ldr.w	r2, [r1, #3584]	; 0xe00
    17da:	f042 1202 	orr.w	r2, r2, #131074	; 0x20002
    17de:	f8c1 2e00 	str.w	r2, [r1, #3584]	; 0xe00
    17e2:	f8d1 2e08 	ldr.w	r2, [r1, #3592]	; 0xe08
    17e6:	f422 2270 	bic.w	r2, r2, #983040	; 0xf0000
    17ea:	f8c1 2e08 	str.w	r2, [r1, #3592]	; 0xe08
    17ee:	7b80      	ldrb	r0, [r0, #14]
    17f0:	f000 020f 	and.w	r2, r0, #15
    17f4:	f8d1 0e08 	ldr.w	r0, [r1, #3592]	; 0xe08
    17f8:	ea40 4002 	orr.w	r0, r0, r2, lsl #16
    17fc:	f8c1 0e08 	str.w	r0, [r1, #3592]	; 0xe08
    1800:	f8d1 0e08 	ldr.w	r0, [r1, #3592]	; 0xe08
    1804:	f040 0002 	orr.w	r0, r0, #2
    1808:	f8c1 0e08 	str.w	r0, [r1, #3592]	; 0xe08
    180c:	e7ff      	b.n	180e <USART_Init+0xf6>
    180e:	9804      	ldr	r0, [sp, #16]
    1810:	9a05      	ldr	r2, [sp, #20]
    1812:	f890 e004 	ldrb.w	lr, [r0, #4]
    1816:	7944      	ldrb	r4, [r0, #5]
    1818:	f890 c006 	ldrb.w	ip, [r0, #6]
    181c:	79c3      	ldrb	r3, [r0, #7]
    181e:	2140      	movs	r1, #64	; 0x40
    1820:	ea01 1184 	and.w	r1, r1, r4, lsl #6
    1824:	f36e 1105 	bfi	r1, lr, #4, #2
    1828:	f00c 0c03 	and.w	ip, ip, #3
    182c:	ea41 018c 	orr.w	r1, r1, ip, lsl #2
    1830:	f003 0301 	and.w	r3, r3, #1
    1834:	ea41 31c3 	orr.w	r1, r1, r3, lsl #15
    1838:	7bc3      	ldrb	r3, [r0, #15]
    183a:	f003 0c02 	and.w	ip, r3, #2
    183e:	ea41 218c 	orr.w	r1, r1, ip, lsl #10
    1842:	f003 0301 	and.w	r3, r3, #1
    1846:	ea41 3183 	orr.w	r1, r1, r3, lsl #14
    184a:	7c03      	ldrb	r3, [r0, #16]
    184c:	f003 0301 	and.w	r3, r3, #1
    1850:	ea41 3103 	orr.w	r1, r1, r3, lsl #12
    1854:	7ac3      	ldrb	r3, [r0, #11]
    1856:	f003 0301 	and.w	r3, r3, #1
    185a:	ea41 11c3 	orr.w	r1, r1, r3, lsl #7
    185e:	7b03      	ldrb	r3, [r0, #12]
    1860:	f003 0301 	and.w	r3, r3, #1
    1864:	ea41 2143 	orr.w	r1, r1, r3, lsl #9
    1868:	f041 0101 	orr.w	r1, r1, #1
    186c:	6011      	str	r1, [r2, #0]
    186e:	7ac0      	ldrb	r0, [r0, #11]
    1870:	07c0      	lsls	r0, r0, #31
    1872:	b1d0      	cbz	r0, 18aa <USART_Init+0x192>
    1874:	e7ff      	b.n	1876 <USART_Init+0x15e>
    1876:	9804      	ldr	r0, [sp, #16]
    1878:	6801      	ldr	r1, [r0, #0]
    187a:	f44f 5016 	mov.w	r0, #9600	; 0x2580
    187e:	fbb0 f0f1 	udiv	r0, r0, r1
    1882:	4348      	muls	r0, r1
    1884:	f5c0 5016 	rsb	r0, r0, #9600	; 0x2580
    1888:	b950      	cbnz	r0, 18a0 <USART_Init+0x188>
    188a:	e7ff      	b.n	188c <USART_Init+0x174>
    188c:	9905      	ldr	r1, [sp, #20]
    188e:	9804      	ldr	r0, [sp, #16]
    1890:	6802      	ldr	r2, [r0, #0]
    1892:	f44f 5016 	mov.w	r0, #9600	; 0x2580
    1896:	fbb0 f0f2 	udiv	r0, r0, r2
    189a:	3801      	subs	r0, #1
    189c:	6208      	str	r0, [r1, #32]
    189e:	e003      	b.n	18a8 <USART_Init+0x190>
    18a0:	f241 6051 	movw	r0, #5713	; 0x1651
    18a4:	9002      	str	r0, [sp, #8]
    18a6:	e018      	b.n	18da <USART_Init+0x1c2>
    18a8:	e00d      	b.n	18c6 <USART_Init+0x1ae>
    18aa:	9a03      	ldr	r2, [sp, #12]
    18ac:	9805      	ldr	r0, [sp, #20]
    18ae:	9904      	ldr	r1, [sp, #16]
    18b0:	6809      	ldr	r1, [r1, #0]
    18b2:	f000 f815 	bl	18e0 <USART_SetBaudRate>
    18b6:	4601      	mov	r1, r0
    18b8:	9100      	str	r1, [sp, #0]
    18ba:	b118      	cbz	r0, 18c4 <USART_Init+0x1ac>
    18bc:	e7ff      	b.n	18be <USART_Init+0x1a6>
    18be:	9800      	ldr	r0, [sp, #0]
    18c0:	9002      	str	r0, [sp, #8]
    18c2:	e00a      	b.n	18da <USART_Init+0x1c2>
    18c4:	e7ff      	b.n	18c6 <USART_Init+0x1ae>
    18c6:	9805      	ldr	r0, [sp, #20]
    18c8:	9904      	ldr	r1, [sp, #16]
    18ca:	7a89      	ldrb	r1, [r1, #10]
    18cc:	f001 0101 	and.w	r1, r1, #1
    18d0:	f000 f900 	bl	1ad4 <USART_EnableContinuousSCLK>
    18d4:	2000      	movs	r0, #0
    18d6:	9002      	str	r0, [sp, #8]
    18d8:	e7ff      	b.n	18da <USART_Init+0x1c2>
    18da:	9802      	ldr	r0, [sp, #8]
    18dc:	b006      	add	sp, #24
    18de:	bdd0      	pop	{r4, r6, r7, pc}

000018e0 <USART_SetBaudRate>:
    18e0:	b580      	push	{r7, lr}
    18e2:	466f      	mov	r7, sp
    18e4:	b09a      	sub	sp, #104	; 0x68
    18e6:	9217      	str	r2, [sp, #92]	; 0x5c
    18e8:	9118      	str	r1, [sp, #96]	; 0x60
    18ea:	9019      	str	r0, [sp, #100]	; 0x64
    18ec:	b138      	cbz	r0, 18fe <USART_SetBaudRate+0x1e>
    18ee:	e7ff      	b.n	18f0 <USART_SetBaudRate+0x10>
    18f0:	9818      	ldr	r0, [sp, #96]	; 0x60
    18f2:	b120      	cbz	r0, 18fe <USART_SetBaudRate+0x1e>
    18f4:	e7ff      	b.n	18f6 <USART_SetBaudRate+0x16>
    18f6:	9817      	ldr	r0, [sp, #92]	; 0x5c
    18f8:	b108      	cbz	r0, 18fe <USART_SetBaudRate+0x1e>
    18fa:	e7ff      	b.n	18fc <USART_SetBaudRate+0x1c>
    18fc:	e00f      	b.n	191e <USART_SetBaudRate+0x3e>
    18fe:	f246 0028 	movw	r0, #24616	; 0x6028
    1902:	f2c0 0000 	movt	r0, #0
    1906:	f246 1281 	movw	r2, #24961	; 0x6181
    190a:	f2c0 0200 	movt	r2, #0
    190e:	f246 1393 	movw	r3, #24979	; 0x6193
    1912:	f2c0 0300 	movt	r3, #0
    1916:	f240 11af 	movw	r1, #431	; 0x1af
    191a:	f001 fa79 	bl	2e10 <__assert_func>
    191e:	9819      	ldr	r0, [sp, #100]	; 0x64
    1920:	b130      	cbz	r0, 1930 <USART_SetBaudRate+0x50>
    1922:	e7ff      	b.n	1924 <USART_SetBaudRate+0x44>
    1924:	9818      	ldr	r0, [sp, #96]	; 0x60
    1926:	b118      	cbz	r0, 1930 <USART_SetBaudRate+0x50>
    1928:	e7ff      	b.n	192a <USART_SetBaudRate+0x4a>
    192a:	9817      	ldr	r0, [sp, #92]	; 0x5c
    192c:	b918      	cbnz	r0, 1936 <USART_SetBaudRate+0x56>
    192e:	e7ff      	b.n	1930 <USART_SetBaudRate+0x50>
    1930:	2004      	movs	r0, #4
    1932:	9016      	str	r0, [sp, #88]	; 0x58
    1934:	e0cb      	b.n	1ace <USART_SetBaudRate+0x1ee>
    1936:	9819      	ldr	r0, [sp, #100]	; 0x64
    1938:	6800      	ldr	r0, [r0, #0]
    193a:	0500      	lsls	r0, r0, #20
    193c:	2800      	cmp	r0, #0
    193e:	d50f      	bpl.n	1960 <USART_SetBaudRate+0x80>
    1940:	e7ff      	b.n	1942 <USART_SetBaudRate+0x62>
    1942:	9819      	ldr	r0, [sp, #100]	; 0x64
    1944:	6800      	ldr	r0, [r0, #0]
    1946:	0440      	lsls	r0, r0, #17
    1948:	2800      	cmp	r0, #0
    194a:	d508      	bpl.n	195e <USART_SetBaudRate+0x7e>
    194c:	e7ff      	b.n	194e <USART_SetBaudRate+0x6e>
    194e:	9919      	ldr	r1, [sp, #100]	; 0x64
    1950:	9817      	ldr	r0, [sp, #92]	; 0x5c
    1952:	9a18      	ldr	r2, [sp, #96]	; 0x60
    1954:	fbb0 f0f2 	udiv	r0, r0, r2
    1958:	3801      	subs	r0, #1
    195a:	6208      	str	r0, [r1, #32]
    195c:	e7ff      	b.n	195e <USART_SetBaudRate+0x7e>
    195e:	e0b3      	b.n	1ac8 <USART_SetBaudRate+0x1e8>
    1960:	9818      	ldr	r0, [sp, #96]	; 0x60
    1962:	f248 511f 	movw	r1, #34079	; 0x851f
    1966:	f2c5 11eb 	movt	r1, #20971	; 0x51eb
    196a:	fba0 1001 	umull	r1, r0, r0, r1
    196e:	0940      	lsrs	r0, r0, #5
    1970:	eb00 0240 	add.w	r2, r0, r0, lsl #1
    1974:	f04f 30ff 	mov.w	r0, #4294967295	; 0xffffffff
    1978:	210f      	movs	r1, #15
    197a:	9211      	str	r2, [sp, #68]	; 0x44
    197c:	460a      	mov	r2, r1
    197e:	9212      	str	r2, [sp, #72]	; 0x48
    1980:	4602      	mov	r2, r0
    1982:	9213      	str	r2, [sp, #76]	; 0x4c
    1984:	9114      	str	r1, [sp, #80]	; 0x50
    1986:	9015      	str	r0, [sp, #84]	; 0x54
    1988:	e7ff      	b.n	198a <USART_SetBaudRate+0xaa>
    198a:	9812      	ldr	r0, [sp, #72]	; 0x48
    198c:	9913      	ldr	r1, [sp, #76]	; 0x4c
    198e:	9a14      	ldr	r2, [sp, #80]	; 0x50
    1990:	9b15      	ldr	r3, [sp, #84]	; 0x54
    1992:	930d      	str	r3, [sp, #52]	; 0x34
    1994:	920e      	str	r2, [sp, #56]	; 0x38
    1996:	910f      	str	r1, [sp, #60]	; 0x3c
    1998:	9010      	str	r0, [sp, #64]	; 0x40
    199a:	2804      	cmp	r0, #4
    199c:	d364      	bcc.n	1a68 <USART_SetBaudRate+0x188>
    199e:	e7ff      	b.n	19a0 <USART_SetBaudRate+0xc0>
    19a0:	9810      	ldr	r0, [sp, #64]	; 0x40
    19a2:	2808      	cmp	r0, #8
    19a4:	d806      	bhi.n	19b4 <USART_SetBaudRate+0xd4>
    19a6:	e7ff      	b.n	19a8 <USART_SetBaudRate+0xc8>
    19a8:	980d      	ldr	r0, [sp, #52]	; 0x34
    19aa:	9911      	ldr	r1, [sp, #68]	; 0x44
    19ac:	4288      	cmp	r0, r1
    19ae:	d801      	bhi.n	19b4 <USART_SetBaudRate+0xd4>
    19b0:	e7ff      	b.n	19b2 <USART_SetBaudRate+0xd2>
    19b2:	e059      	b.n	1a68 <USART_SetBaudRate+0x188>
    19b4:	9a18      	ldr	r2, [sp, #96]	; 0x60
    19b6:	9910      	ldr	r1, [sp, #64]	; 0x40
    19b8:	9817      	ldr	r0, [sp, #92]	; 0x5c
    19ba:	eb00 0080 	add.w	r0, r0, r0, lsl #2
    19be:	0040      	lsls	r0, r0, #1
    19c0:	3101      	adds	r1, #1
    19c2:	4351      	muls	r1, r2
    19c4:	fbb0 f0f1 	udiv	r0, r0, r1
    19c8:	3805      	subs	r0, #5
    19ca:	f64c 41cd 	movw	r1, #52429	; 0xcccd
    19ce:	f6cc 41cc 	movt	r1, #52428	; 0xcccc
    19d2:	fba0 1001 	umull	r1, r0, r0, r1
    19d6:	08c0      	lsrs	r0, r0, #3
    19d8:	4601      	mov	r1, r0
    19da:	910c      	str	r1, [sp, #48]	; 0x30
    19dc:	f5b0 3f80 	cmp.w	r0, #65536	; 0x10000
    19e0:	d307      	bcc.n	19f2 <USART_SetBaudRate+0x112>
    19e2:	e7ff      	b.n	19e4 <USART_SetBaudRate+0x104>
    19e4:	980d      	ldr	r0, [sp, #52]	; 0x34
    19e6:	990e      	ldr	r1, [sp, #56]	; 0x38
    19e8:	9a0f      	ldr	r2, [sp, #60]	; 0x3c
    19ea:	9209      	str	r2, [sp, #36]	; 0x24
    19ec:	910a      	str	r1, [sp, #40]	; 0x28
    19ee:	900b      	str	r0, [sp, #44]	; 0x2c
    19f0:	e030      	b.n	1a54 <USART_SetBaudRate+0x174>
    19f2:	9818      	ldr	r0, [sp, #96]	; 0x60
    19f4:	9917      	ldr	r1, [sp, #92]	; 0x5c
    19f6:	9b0c      	ldr	r3, [sp, #48]	; 0x30
    19f8:	9a10      	ldr	r2, [sp, #64]	; 0x40
    19fa:	3201      	adds	r2, #1
    19fc:	3301      	adds	r3, #1
    19fe:	435a      	muls	r2, r3
    1a00:	fbb1 f1f2 	udiv	r1, r1, r2
    1a04:	460a      	mov	r2, r1
    1a06:	9208      	str	r2, [sp, #32]
    1a08:	4288      	cmp	r0, r1
    1a0a:	d205      	bcs.n	1a18 <USART_SetBaudRate+0x138>
    1a0c:	e7ff      	b.n	1a0e <USART_SetBaudRate+0x12e>
    1a0e:	9808      	ldr	r0, [sp, #32]
    1a10:	9918      	ldr	r1, [sp, #96]	; 0x60
    1a12:	1a40      	subs	r0, r0, r1
    1a14:	9007      	str	r0, [sp, #28]
    1a16:	e004      	b.n	1a22 <USART_SetBaudRate+0x142>
    1a18:	9818      	ldr	r0, [sp, #96]	; 0x60
    1a1a:	9908      	ldr	r1, [sp, #32]
    1a1c:	1a40      	subs	r0, r0, r1
    1a1e:	9007      	str	r0, [sp, #28]
    1a20:	e7ff      	b.n	1a22 <USART_SetBaudRate+0x142>
    1a22:	980d      	ldr	r0, [sp, #52]	; 0x34
    1a24:	990e      	ldr	r1, [sp, #56]	; 0x38
    1a26:	9a0f      	ldr	r2, [sp, #60]	; 0x3c
    1a28:	9b07      	ldr	r3, [sp, #28]
    1a2a:	9303      	str	r3, [sp, #12]
    1a2c:	4283      	cmp	r3, r0
    1a2e:	9204      	str	r2, [sp, #16]
    1a30:	9105      	str	r1, [sp, #20]
    1a32:	9006      	str	r0, [sp, #24]
    1a34:	d207      	bcs.n	1a46 <USART_SetBaudRate+0x166>
    1a36:	e7ff      	b.n	1a38 <USART_SetBaudRate+0x158>
    1a38:	9803      	ldr	r0, [sp, #12]
    1a3a:	9910      	ldr	r1, [sp, #64]	; 0x40
    1a3c:	9a0c      	ldr	r2, [sp, #48]	; 0x30
    1a3e:	9204      	str	r2, [sp, #16]
    1a40:	9105      	str	r1, [sp, #20]
    1a42:	9006      	str	r0, [sp, #24]
    1a44:	e7ff      	b.n	1a46 <USART_SetBaudRate+0x166>
    1a46:	9a04      	ldr	r2, [sp, #16]
    1a48:	9905      	ldr	r1, [sp, #20]
    1a4a:	9806      	ldr	r0, [sp, #24]
    1a4c:	9209      	str	r2, [sp, #36]	; 0x24
    1a4e:	910a      	str	r1, [sp, #40]	; 0x28
    1a50:	900b      	str	r0, [sp, #44]	; 0x2c
    1a52:	e7ff      	b.n	1a54 <USART_SetBaudRate+0x174>
    1a54:	9b10      	ldr	r3, [sp, #64]	; 0x40
    1a56:	9a09      	ldr	r2, [sp, #36]	; 0x24
    1a58:	990a      	ldr	r1, [sp, #40]	; 0x28
    1a5a:	980b      	ldr	r0, [sp, #44]	; 0x2c
    1a5c:	3b01      	subs	r3, #1
    1a5e:	9312      	str	r3, [sp, #72]	; 0x48
    1a60:	9213      	str	r2, [sp, #76]	; 0x4c
    1a62:	9114      	str	r1, [sp, #80]	; 0x50
    1a64:	9015      	str	r0, [sp, #84]	; 0x54
    1a66:	e790      	b.n	198a <USART_SetBaudRate+0xaa>
    1a68:	9818      	ldr	r0, [sp, #96]	; 0x60
    1a6a:	9917      	ldr	r1, [sp, #92]	; 0x5c
    1a6c:	9b0f      	ldr	r3, [sp, #60]	; 0x3c
    1a6e:	9a0e      	ldr	r2, [sp, #56]	; 0x38
    1a70:	3201      	adds	r2, #1
    1a72:	3301      	adds	r3, #1
    1a74:	435a      	muls	r2, r3
    1a76:	fbb1 f1f2 	udiv	r1, r1, r2
    1a7a:	460a      	mov	r2, r1
    1a7c:	9202      	str	r2, [sp, #8]
    1a7e:	4288      	cmp	r0, r1
    1a80:	d205      	bcs.n	1a8e <USART_SetBaudRate+0x1ae>
    1a82:	e7ff      	b.n	1a84 <USART_SetBaudRate+0x1a4>
    1a84:	9802      	ldr	r0, [sp, #8]
    1a86:	9918      	ldr	r1, [sp, #96]	; 0x60
    1a88:	1a40      	subs	r0, r0, r1
    1a8a:	9001      	str	r0, [sp, #4]
    1a8c:	e004      	b.n	1a98 <USART_SetBaudRate+0x1b8>
    1a8e:	9818      	ldr	r0, [sp, #96]	; 0x60
    1a90:	9902      	ldr	r1, [sp, #8]
    1a92:	1a40      	subs	r0, r0, r1
    1a94:	9001      	str	r0, [sp, #4]
    1a96:	e7ff      	b.n	1a98 <USART_SetBaudRate+0x1b8>
    1a98:	9911      	ldr	r1, [sp, #68]	; 0x44
    1a9a:	9801      	ldr	r0, [sp, #4]
    1a9c:	4288      	cmp	r0, r1
    1a9e:	d904      	bls.n	1aaa <USART_SetBaudRate+0x1ca>
    1aa0:	e7ff      	b.n	1aa2 <USART_SetBaudRate+0x1c2>
    1aa2:	f241 6051 	movw	r0, #5713	; 0x1651
    1aa6:	9016      	str	r0, [sp, #88]	; 0x58
    1aa8:	e011      	b.n	1ace <USART_SetBaudRate+0x1ee>
    1aaa:	980f      	ldr	r0, [sp, #60]	; 0x3c
    1aac:	f5b0 3f80 	cmp.w	r0, #65536	; 0x10000
    1ab0:	d304      	bcc.n	1abc <USART_SetBaudRate+0x1dc>
    1ab2:	e7ff      	b.n	1ab4 <USART_SetBaudRate+0x1d4>
    1ab4:	f241 6051 	movw	r0, #5713	; 0x1651
    1ab8:	9016      	str	r0, [sp, #88]	; 0x58
    1aba:	e008      	b.n	1ace <USART_SetBaudRate+0x1ee>
    1abc:	980f      	ldr	r0, [sp, #60]	; 0x3c
    1abe:	9919      	ldr	r1, [sp, #100]	; 0x64
    1ac0:	9a0e      	ldr	r2, [sp, #56]	; 0x38
    1ac2:	628a      	str	r2, [r1, #40]	; 0x28
    1ac4:	6208      	str	r0, [r1, #32]
    1ac6:	e7ff      	b.n	1ac8 <USART_SetBaudRate+0x1e8>
    1ac8:	2000      	movs	r0, #0
    1aca:	9016      	str	r0, [sp, #88]	; 0x58
    1acc:	e7ff      	b.n	1ace <USART_SetBaudRate+0x1ee>
    1ace:	9816      	ldr	r0, [sp, #88]	; 0x58
    1ad0:	b01a      	add	sp, #104	; 0x68
    1ad2:	bd80      	pop	{r7, pc}

00001ad4 <USART_EnableContinuousSCLK>:
    1ad4:	b081      	sub	sp, #4
    1ad6:	9000      	str	r0, [sp, #0]
    1ad8:	b131      	cbz	r1, 1ae8 <USART_EnableContinuousSCLK+0x14>
    1ada:	e7ff      	b.n	1adc <USART_EnableContinuousSCLK+0x8>
    1adc:	9900      	ldr	r1, [sp, #0]
    1ade:	6848      	ldr	r0, [r1, #4]
    1ae0:	f440 7080 	orr.w	r0, r0, #256	; 0x100
    1ae4:	6048      	str	r0, [r1, #4]
    1ae6:	e005      	b.n	1af4 <USART_EnableContinuousSCLK+0x20>
    1ae8:	9900      	ldr	r1, [sp, #0]
    1aea:	6848      	ldr	r0, [r1, #4]
    1aec:	f420 7080 	bic.w	r0, r0, #256	; 0x100
    1af0:	6048      	str	r0, [r1, #4]
    1af2:	e7ff      	b.n	1af4 <USART_EnableContinuousSCLK+0x20>
    1af4:	b001      	add	sp, #4
    1af6:	4770      	bx	lr

00001af8 <FLEXCOMM_GetInstance>:
    1af8:	b580      	push	{r7, lr}
    1afa:	466f      	mov	r7, sp
    1afc:	b084      	sub	sp, #16
    1afe:	9002      	str	r0, [sp, #8]
    1b00:	2000      	movs	r0, #0
    1b02:	9003      	str	r0, [sp, #12]
    1b04:	e7ff      	b.n	1b06 <FLEXCOMM_GetInstance+0xe>
    1b06:	9803      	ldr	r0, [sp, #12]
    1b08:	9001      	str	r0, [sp, #4]
    1b0a:	2808      	cmp	r0, #8
    1b0c:	d811      	bhi.n	1b32 <FLEXCOMM_GetInstance+0x3a>
    1b0e:	e7ff      	b.n	1b10 <FLEXCOMM_GetInstance+0x18>
    1b10:	9802      	ldr	r0, [sp, #8]
    1b12:	9a01      	ldr	r2, [sp, #4]
    1b14:	f246 414c 	movw	r1, #25676	; 0x644c
    1b18:	f2c0 0100 	movt	r1, #0
    1b1c:	f851 1022 	ldr.w	r1, [r1, r2, lsl #2]
    1b20:	4288      	cmp	r0, r1
    1b22:	d101      	bne.n	1b28 <FLEXCOMM_GetInstance+0x30>
    1b24:	e7ff      	b.n	1b26 <FLEXCOMM_GetInstance+0x2e>
    1b26:	e004      	b.n	1b32 <FLEXCOMM_GetInstance+0x3a>
    1b28:	e7ff      	b.n	1b2a <FLEXCOMM_GetInstance+0x32>
    1b2a:	9801      	ldr	r0, [sp, #4]
    1b2c:	3001      	adds	r0, #1
    1b2e:	9003      	str	r0, [sp, #12]
    1b30:	e7e9      	b.n	1b06 <FLEXCOMM_GetInstance+0xe>
    1b32:	9801      	ldr	r0, [sp, #4]
    1b34:	2808      	cmp	r0, #8
    1b36:	d801      	bhi.n	1b3c <FLEXCOMM_GetInstance+0x44>
    1b38:	e7ff      	b.n	1b3a <FLEXCOMM_GetInstance+0x42>
    1b3a:	e00e      	b.n	1b5a <FLEXCOMM_GetInstance+0x62>
    1b3c:	f246 4070 	movw	r0, #25712	; 0x6470
    1b40:	f2c0 0000 	movt	r0, #0
    1b44:	f246 4287 	movw	r2, #25735	; 0x6487
    1b48:	f2c0 0200 	movt	r2, #0
    1b4c:	f246 439c 	movw	r3, #25756	; 0x649c
    1b50:	f2c0 0300 	movt	r3, #0
    1b54:	215f      	movs	r1, #95	; 0x5f
    1b56:	f001 f95b 	bl	2e10 <__assert_func>
    1b5a:	9801      	ldr	r0, [sp, #4]
    1b5c:	b004      	add	sp, #16
    1b5e:	bd80      	pop	{r7, pc}

00001b60 <FLEXCOMM_Init>:
    1b60:	b580      	push	{r7, lr}
    1b62:	466f      	mov	r7, sp
    1b64:	b084      	sub	sp, #16
    1b66:	9103      	str	r1, [sp, #12]
    1b68:	9002      	str	r0, [sp, #8]
    1b6a:	f7ff ffc5 	bl	1af8 <FLEXCOMM_GetInstance>
    1b6e:	4601      	mov	r1, r0
    1b70:	9101      	str	r1, [sp, #4]
    1b72:	f246 50e4 	movw	r0, #26084	; 0x65e4
    1b76:	f2c0 0000 	movt	r0, #0
    1b7a:	f830 0011 	ldrh.w	r0, [r0, r1, lsl #1]
    1b7e:	f000 f810 	bl	1ba2 <CLOCK_EnableClock>
    1b82:	9901      	ldr	r1, [sp, #4]
    1b84:	f246 50f8 	movw	r0, #26104	; 0x65f8
    1b88:	f2c0 0000 	movt	r0, #0
    1b8c:	f850 0021 	ldr.w	r0, [r0, r1, lsl #2]
    1b90:	f7ff fd45 	bl	161e <RESET_PeripheralReset>
    1b94:	9802      	ldr	r0, [sp, #8]
    1b96:	9903      	ldr	r1, [sp, #12]
    1b98:	2200      	movs	r2, #0
    1b9a:	f000 f80d 	bl	1bb8 <FLEXCOMM_SetPeriph>
    1b9e:	b004      	add	sp, #16
    1ba0:	bd80      	pop	{r7, pc}

00001ba2 <CLOCK_EnableClock>:
    1ba2:	0a02      	lsrs	r2, r0, #8
    1ba4:	b2c1      	uxtb	r1, r0
    1ba6:	2001      	movs	r0, #1
    1ba8:	4088      	lsls	r0, r1
    1baa:	f240 2120 	movw	r1, #544	; 0x220
    1bae:	f2c4 0100 	movt	r1, #16384	; 0x4000
    1bb2:	f841 0022 	str.w	r0, [r1, r2, lsl #2]
    1bb6:	4770      	bx	lr

00001bb8 <FLEXCOMM_SetPeriph>:
    1bb8:	b580      	push	{r7, lr}
    1bba:	466f      	mov	r7, sp
    1bbc:	b084      	sub	sp, #16
    1bbe:	9201      	str	r2, [sp, #4]
    1bc0:	9002      	str	r0, [sp, #8]
    1bc2:	460a      	mov	r2, r1
    1bc4:	9203      	str	r2, [sp, #12]
    1bc6:	f000 fa3d 	bl	2044 <FLEXCOMM_PeripheralIsPresent>
    1bca:	b918      	cbnz	r0, 1bd4 <FLEXCOMM_SetPeriph+0x1c>
    1bcc:	e7ff      	b.n	1bce <FLEXCOMM_SetPeriph+0x16>
    1bce:	2003      	movs	r0, #3
    1bd0:	9000      	str	r0, [sp, #0]
    1bd2:	e027      	b.n	1c24 <FLEXCOMM_SetPeriph+0x6c>
    1bd4:	9802      	ldr	r0, [sp, #8]
    1bd6:	f8d0 0ff8 	ldr.w	r0, [r0, #4088]	; 0xff8
    1bda:	0700      	lsls	r0, r0, #28
    1bdc:	2800      	cmp	r0, #0
    1bde:	d50d      	bpl.n	1bfc <FLEXCOMM_SetPeriph+0x44>
    1be0:	e7ff      	b.n	1be2 <FLEXCOMM_SetPeriph+0x2a>
    1be2:	9903      	ldr	r1, [sp, #12]
    1be4:	9802      	ldr	r0, [sp, #8]
    1be6:	f8d0 0ff8 	ldr.w	r0, [r0, #4088]	; 0xff8
    1bea:	f000 0007 	and.w	r0, r0, #7
    1bee:	b2c9      	uxtb	r1, r1
    1bf0:	4288      	cmp	r0, r1
    1bf2:	d003      	beq.n	1bfc <FLEXCOMM_SetPeriph+0x44>
    1bf4:	e7ff      	b.n	1bf6 <FLEXCOMM_SetPeriph+0x3e>
    1bf6:	2001      	movs	r0, #1
    1bf8:	9000      	str	r0, [sp, #0]
    1bfa:	e013      	b.n	1c24 <FLEXCOMM_SetPeriph+0x6c>
    1bfc:	9801      	ldr	r0, [sp, #4]
    1bfe:	b140      	cbz	r0, 1c12 <FLEXCOMM_SetPeriph+0x5a>
    1c00:	e7ff      	b.n	1c02 <FLEXCOMM_SetPeriph+0x4a>
    1c02:	9902      	ldr	r1, [sp, #8]
    1c04:	9803      	ldr	r0, [sp, #12]
    1c06:	f040 0008 	orr.w	r0, r0, #8
    1c0a:	b2c0      	uxtb	r0, r0
    1c0c:	f8c1 0ff8 	str.w	r0, [r1, #4088]	; 0xff8
    1c10:	e005      	b.n	1c1e <FLEXCOMM_SetPeriph+0x66>
    1c12:	9902      	ldr	r1, [sp, #8]
    1c14:	9803      	ldr	r0, [sp, #12]
    1c16:	b2c0      	uxtb	r0, r0
    1c18:	f8c1 0ff8 	str.w	r0, [r1, #4088]	; 0xff8
    1c1c:	e7ff      	b.n	1c1e <FLEXCOMM_SetPeriph+0x66>
    1c1e:	2000      	movs	r0, #0
    1c20:	9000      	str	r0, [sp, #0]
    1c22:	e7ff      	b.n	1c24 <FLEXCOMM_SetPeriph+0x6c>
    1c24:	9800      	ldr	r0, [sp, #0]
    1c26:	b004      	add	sp, #16
    1c28:	bd80      	pop	{r7, pc}

00001c2a <FLEXCOMM0_DriverIRQHandler>:
    1c2a:	b580      	push	{r7, lr}
    1c2c:	466f      	mov	r7, sp
    1c2e:	b082      	sub	sp, #8
    1c30:	f246 0000 	movw	r0, #24576	; 0x6000
    1c34:	f2c4 0008 	movt	r0, #16392	; 0x4008
    1c38:	f7ff ff5e 	bl	1af8 <FLEXCOMM_GetInstance>
    1c3c:	4601      	mov	r1, r0
    1c3e:	4608      	mov	r0, r1
    1c40:	9001      	str	r0, [sp, #4]
    1c42:	f640 10d8 	movw	r0, #2520	; 0x9d8
    1c46:	f2c2 0000 	movt	r0, #8192	; 0x2000
    1c4a:	f850 0021 	ldr.w	r0, [r0, r1, lsl #2]
    1c4e:	b108      	cbz	r0, 1c54 <FLEXCOMM0_DriverIRQHandler+0x2a>
    1c50:	e7ff      	b.n	1c52 <FLEXCOMM0_DriverIRQHandler+0x28>
    1c52:	e00e      	b.n	1c72 <FLEXCOMM0_DriverIRQHandler+0x48>
    1c54:	f246 4070 	movw	r0, #25712	; 0x6470
    1c58:	f2c0 0000 	movt	r0, #0
    1c5c:	f246 42c9 	movw	r2, #25801	; 0x64c9
    1c60:	f2c0 0200 	movt	r2, #0
    1c64:	f246 43e4 	movw	r3, #25828	; 0x64e4
    1c68:	f2c0 0300 	movt	r3, #0
    1c6c:	21ac      	movs	r1, #172	; 0xac
    1c6e:	f001 f8cf 	bl	2e10 <__assert_func>
    1c72:	9b01      	ldr	r3, [sp, #4]
    1c74:	f640 10d8 	movw	r0, #2520	; 0x9d8
    1c78:	f2c2 0000 	movt	r0, #8192	; 0x2000
    1c7c:	f850 2023 	ldr.w	r2, [r0, r3, lsl #2]
    1c80:	f246 404c 	movw	r0, #25676	; 0x644c
    1c84:	f2c0 0000 	movt	r0, #0
    1c88:	f850 0023 	ldr.w	r0, [r0, r3, lsl #2]
    1c8c:	f640 11fc 	movw	r1, #2556	; 0x9fc
    1c90:	f2c2 0100 	movt	r1, #8192	; 0x2000
    1c94:	f851 1023 	ldr.w	r1, [r1, r3, lsl #2]
    1c98:	4790      	blx	r2
    1c9a:	b002      	add	sp, #8
    1c9c:	bd80      	pop	{r7, pc}

00001c9e <FLEXCOMM1_DriverIRQHandler>:
    1c9e:	b580      	push	{r7, lr}
    1ca0:	466f      	mov	r7, sp
    1ca2:	b082      	sub	sp, #8
    1ca4:	f247 0000 	movw	r0, #28672	; 0x7000
    1ca8:	f2c4 0008 	movt	r0, #16392	; 0x4008
    1cac:	f7ff ff24 	bl	1af8 <FLEXCOMM_GetInstance>
    1cb0:	4601      	mov	r1, r0
    1cb2:	4608      	mov	r0, r1
    1cb4:	9001      	str	r0, [sp, #4]
    1cb6:	f640 10d8 	movw	r0, #2520	; 0x9d8
    1cba:	f2c2 0000 	movt	r0, #8192	; 0x2000
    1cbe:	f850 0021 	ldr.w	r0, [r0, r1, lsl #2]
    1cc2:	b108      	cbz	r0, 1cc8 <FLEXCOMM1_DriverIRQHandler+0x2a>
    1cc4:	e7ff      	b.n	1cc6 <FLEXCOMM1_DriverIRQHandler+0x28>
    1cc6:	e00e      	b.n	1ce6 <FLEXCOMM1_DriverIRQHandler+0x48>
    1cc8:	f246 4070 	movw	r0, #25712	; 0x6470
    1ccc:	f2c0 0000 	movt	r0, #0
    1cd0:	f246 520b 	movw	r2, #25867	; 0x650b
    1cd4:	f2c0 0200 	movt	r2, #0
    1cd8:	f246 43e4 	movw	r3, #25828	; 0x64e4
    1cdc:	f2c0 0300 	movt	r3, #0
    1ce0:	21ba      	movs	r1, #186	; 0xba
    1ce2:	f001 f895 	bl	2e10 <__assert_func>
    1ce6:	9b01      	ldr	r3, [sp, #4]
    1ce8:	f640 10d8 	movw	r0, #2520	; 0x9d8
    1cec:	f2c2 0000 	movt	r0, #8192	; 0x2000
    1cf0:	f850 2023 	ldr.w	r2, [r0, r3, lsl #2]
    1cf4:	f246 404c 	movw	r0, #25676	; 0x644c
    1cf8:	f2c0 0000 	movt	r0, #0
    1cfc:	f850 0023 	ldr.w	r0, [r0, r3, lsl #2]
    1d00:	f640 11fc 	movw	r1, #2556	; 0x9fc
    1d04:	f2c2 0100 	movt	r1, #8192	; 0x2000
    1d08:	f851 1023 	ldr.w	r1, [r1, r3, lsl #2]
    1d0c:	4790      	blx	r2
    1d0e:	b002      	add	sp, #8
    1d10:	bd80      	pop	{r7, pc}

00001d12 <FLEXCOMM2_DriverIRQHandler>:
    1d12:	b580      	push	{r7, lr}
    1d14:	466f      	mov	r7, sp
    1d16:	b082      	sub	sp, #8
    1d18:	f248 0000 	movw	r0, #32768	; 0x8000
    1d1c:	f2c4 0008 	movt	r0, #16392	; 0x4008
    1d20:	f7ff feea 	bl	1af8 <FLEXCOMM_GetInstance>
    1d24:	4601      	mov	r1, r0
    1d26:	4608      	mov	r0, r1
    1d28:	9001      	str	r0, [sp, #4]
    1d2a:	f640 10d8 	movw	r0, #2520	; 0x9d8
    1d2e:	f2c2 0000 	movt	r0, #8192	; 0x2000
    1d32:	f850 0021 	ldr.w	r0, [r0, r1, lsl #2]
    1d36:	b108      	cbz	r0, 1d3c <FLEXCOMM2_DriverIRQHandler+0x2a>
    1d38:	e7ff      	b.n	1d3a <FLEXCOMM2_DriverIRQHandler+0x28>
    1d3a:	e00e      	b.n	1d5a <FLEXCOMM2_DriverIRQHandler+0x48>
    1d3c:	f246 4070 	movw	r0, #25712	; 0x6470
    1d40:	f2c0 0000 	movt	r0, #0
    1d44:	f246 5226 	movw	r2, #25894	; 0x6526
    1d48:	f2c0 0200 	movt	r2, #0
    1d4c:	f246 43e4 	movw	r3, #25828	; 0x64e4
    1d50:	f2c0 0300 	movt	r3, #0
    1d54:	21c8      	movs	r1, #200	; 0xc8
    1d56:	f001 f85b 	bl	2e10 <__assert_func>
    1d5a:	9b01      	ldr	r3, [sp, #4]
    1d5c:	f640 10d8 	movw	r0, #2520	; 0x9d8
    1d60:	f2c2 0000 	movt	r0, #8192	; 0x2000
    1d64:	f850 2023 	ldr.w	r2, [r0, r3, lsl #2]
    1d68:	f246 404c 	movw	r0, #25676	; 0x644c
    1d6c:	f2c0 0000 	movt	r0, #0
    1d70:	f850 0023 	ldr.w	r0, [r0, r3, lsl #2]
    1d74:	f640 11fc 	movw	r1, #2556	; 0x9fc
    1d78:	f2c2 0100 	movt	r1, #8192	; 0x2000
    1d7c:	f851 1023 	ldr.w	r1, [r1, r3, lsl #2]
    1d80:	4790      	blx	r2
    1d82:	b002      	add	sp, #8
    1d84:	bd80      	pop	{r7, pc}

00001d86 <FLEXCOMM3_DriverIRQHandler>:
    1d86:	b580      	push	{r7, lr}
    1d88:	466f      	mov	r7, sp
    1d8a:	b082      	sub	sp, #8
    1d8c:	f249 0000 	movw	r0, #36864	; 0x9000
    1d90:	f2c4 0008 	movt	r0, #16392	; 0x4008
    1d94:	f7ff feb0 	bl	1af8 <FLEXCOMM_GetInstance>
    1d98:	4601      	mov	r1, r0
    1d9a:	4608      	mov	r0, r1
    1d9c:	9001      	str	r0, [sp, #4]
    1d9e:	f640 10d8 	movw	r0, #2520	; 0x9d8
    1da2:	f2c2 0000 	movt	r0, #8192	; 0x2000
    1da6:	f850 0021 	ldr.w	r0, [r0, r1, lsl #2]
    1daa:	b108      	cbz	r0, 1db0 <FLEXCOMM3_DriverIRQHandler+0x2a>
    1dac:	e7ff      	b.n	1dae <FLEXCOMM3_DriverIRQHandler+0x28>
    1dae:	e00e      	b.n	1dce <FLEXCOMM3_DriverIRQHandler+0x48>
    1db0:	f246 4070 	movw	r0, #25712	; 0x6470
    1db4:	f2c0 0000 	movt	r0, #0
    1db8:	f246 5241 	movw	r2, #25921	; 0x6541
    1dbc:	f2c0 0200 	movt	r2, #0
    1dc0:	f246 43e4 	movw	r3, #25828	; 0x64e4
    1dc4:	f2c0 0300 	movt	r3, #0
    1dc8:	21d6      	movs	r1, #214	; 0xd6
    1dca:	f001 f821 	bl	2e10 <__assert_func>
    1dce:	9b01      	ldr	r3, [sp, #4]
    1dd0:	f640 10d8 	movw	r0, #2520	; 0x9d8
    1dd4:	f2c2 0000 	movt	r0, #8192	; 0x2000
    1dd8:	f850 2023 	ldr.w	r2, [r0, r3, lsl #2]
    1ddc:	f246 404c 	movw	r0, #25676	; 0x644c
    1de0:	f2c0 0000 	movt	r0, #0
    1de4:	f850 0023 	ldr.w	r0, [r0, r3, lsl #2]
    1de8:	f640 11fc 	movw	r1, #2556	; 0x9fc
    1dec:	f2c2 0100 	movt	r1, #8192	; 0x2000
    1df0:	f851 1023 	ldr.w	r1, [r1, r3, lsl #2]
    1df4:	4790      	blx	r2
    1df6:	b002      	add	sp, #8
    1df8:	bd80      	pop	{r7, pc}

00001dfa <FLEXCOMM4_DriverIRQHandler>:
    1dfa:	b580      	push	{r7, lr}
    1dfc:	466f      	mov	r7, sp
    1dfe:	b082      	sub	sp, #8
    1e00:	f24a 0000 	movw	r0, #40960	; 0xa000
    1e04:	f2c4 0008 	movt	r0, #16392	; 0x4008
    1e08:	f7ff fe76 	bl	1af8 <FLEXCOMM_GetInstance>
    1e0c:	4601      	mov	r1, r0
    1e0e:	4608      	mov	r0, r1
    1e10:	9001      	str	r0, [sp, #4]
    1e12:	f640 10d8 	movw	r0, #2520	; 0x9d8
    1e16:	f2c2 0000 	movt	r0, #8192	; 0x2000
    1e1a:	f850 0021 	ldr.w	r0, [r0, r1, lsl #2]
    1e1e:	b108      	cbz	r0, 1e24 <FLEXCOMM4_DriverIRQHandler+0x2a>
    1e20:	e7ff      	b.n	1e22 <FLEXCOMM4_DriverIRQHandler+0x28>
    1e22:	e00e      	b.n	1e42 <FLEXCOMM4_DriverIRQHandler+0x48>
    1e24:	f246 4070 	movw	r0, #25712	; 0x6470
    1e28:	f2c0 0000 	movt	r0, #0
    1e2c:	f246 525c 	movw	r2, #25948	; 0x655c
    1e30:	f2c0 0200 	movt	r2, #0
    1e34:	f246 43e4 	movw	r3, #25828	; 0x64e4
    1e38:	f2c0 0300 	movt	r3, #0
    1e3c:	21e4      	movs	r1, #228	; 0xe4
    1e3e:	f000 ffe7 	bl	2e10 <__assert_func>
    1e42:	9b01      	ldr	r3, [sp, #4]
    1e44:	f640 10d8 	movw	r0, #2520	; 0x9d8
    1e48:	f2c2 0000 	movt	r0, #8192	; 0x2000
    1e4c:	f850 2023 	ldr.w	r2, [r0, r3, lsl #2]
    1e50:	f246 404c 	movw	r0, #25676	; 0x644c
    1e54:	f2c0 0000 	movt	r0, #0
    1e58:	f850 0023 	ldr.w	r0, [r0, r3, lsl #2]
    1e5c:	f640 11fc 	movw	r1, #2556	; 0x9fc
    1e60:	f2c2 0100 	movt	r1, #8192	; 0x2000
    1e64:	f851 1023 	ldr.w	r1, [r1, r3, lsl #2]
    1e68:	4790      	blx	r2
    1e6a:	b002      	add	sp, #8
    1e6c:	bd80      	pop	{r7, pc}

00001e6e <FLEXCOMM5_DriverIRQHandler>:
    1e6e:	b580      	push	{r7, lr}
    1e70:	466f      	mov	r7, sp
    1e72:	b082      	sub	sp, #8
    1e74:	f246 0000 	movw	r0, #24576	; 0x6000
    1e78:	f2c4 0009 	movt	r0, #16393	; 0x4009
    1e7c:	f7ff fe3c 	bl	1af8 <FLEXCOMM_GetInstance>
    1e80:	4601      	mov	r1, r0
    1e82:	4608      	mov	r0, r1
    1e84:	9001      	str	r0, [sp, #4]
    1e86:	f640 10d8 	movw	r0, #2520	; 0x9d8
    1e8a:	f2c2 0000 	movt	r0, #8192	; 0x2000
    1e8e:	f850 0021 	ldr.w	r0, [r0, r1, lsl #2]
    1e92:	b108      	cbz	r0, 1e98 <FLEXCOMM5_DriverIRQHandler+0x2a>
    1e94:	e7ff      	b.n	1e96 <FLEXCOMM5_DriverIRQHandler+0x28>
    1e96:	e00e      	b.n	1eb6 <FLEXCOMM5_DriverIRQHandler+0x48>
    1e98:	f246 4070 	movw	r0, #25712	; 0x6470
    1e9c:	f2c0 0000 	movt	r0, #0
    1ea0:	f246 5277 	movw	r2, #25975	; 0x6577
    1ea4:	f2c0 0200 	movt	r2, #0
    1ea8:	f246 43e4 	movw	r3, #25828	; 0x64e4
    1eac:	f2c0 0300 	movt	r3, #0
    1eb0:	21f3      	movs	r1, #243	; 0xf3
    1eb2:	f000 ffad 	bl	2e10 <__assert_func>
    1eb6:	9b01      	ldr	r3, [sp, #4]
    1eb8:	f640 10d8 	movw	r0, #2520	; 0x9d8
    1ebc:	f2c2 0000 	movt	r0, #8192	; 0x2000
    1ec0:	f850 2023 	ldr.w	r2, [r0, r3, lsl #2]
    1ec4:	f246 404c 	movw	r0, #25676	; 0x644c
    1ec8:	f2c0 0000 	movt	r0, #0
    1ecc:	f850 0023 	ldr.w	r0, [r0, r3, lsl #2]
    1ed0:	f640 11fc 	movw	r1, #2556	; 0x9fc
    1ed4:	f2c2 0100 	movt	r1, #8192	; 0x2000
    1ed8:	f851 1023 	ldr.w	r1, [r1, r3, lsl #2]
    1edc:	4790      	blx	r2
    1ede:	b002      	add	sp, #8
    1ee0:	bd80      	pop	{r7, pc}

00001ee2 <FLEXCOMM6_DriverIRQHandler>:
    1ee2:	b580      	push	{r7, lr}
    1ee4:	466f      	mov	r7, sp
    1ee6:	b082      	sub	sp, #8
    1ee8:	f247 0000 	movw	r0, #28672	; 0x7000
    1eec:	f2c4 0009 	movt	r0, #16393	; 0x4009
    1ef0:	f7ff fe02 	bl	1af8 <FLEXCOMM_GetInstance>
    1ef4:	4601      	mov	r1, r0
    1ef6:	4608      	mov	r0, r1
    1ef8:	9001      	str	r0, [sp, #4]
    1efa:	f640 10d8 	movw	r0, #2520	; 0x9d8
    1efe:	f2c2 0000 	movt	r0, #8192	; 0x2000
    1f02:	f850 0021 	ldr.w	r0, [r0, r1, lsl #2]
    1f06:	b108      	cbz	r0, 1f0c <FLEXCOMM6_DriverIRQHandler+0x2a>
    1f08:	e7ff      	b.n	1f0a <FLEXCOMM6_DriverIRQHandler+0x28>
    1f0a:	e00f      	b.n	1f2c <FLEXCOMM6_DriverIRQHandler+0x4a>
    1f0c:	f246 4070 	movw	r0, #25712	; 0x6470
    1f10:	f2c0 0000 	movt	r0, #0
    1f14:	f246 5292 	movw	r2, #26002	; 0x6592
    1f18:	f2c0 0200 	movt	r2, #0
    1f1c:	f246 43e4 	movw	r3, #25828	; 0x64e4
    1f20:	f2c0 0300 	movt	r3, #0
    1f24:	f240 1101 	movw	r1, #257	; 0x101
    1f28:	f000 ff72 	bl	2e10 <__assert_func>
    1f2c:	9b01      	ldr	r3, [sp, #4]
    1f2e:	f640 10d8 	movw	r0, #2520	; 0x9d8
    1f32:	f2c2 0000 	movt	r0, #8192	; 0x2000
    1f36:	f850 2023 	ldr.w	r2, [r0, r3, lsl #2]
    1f3a:	f246 404c 	movw	r0, #25676	; 0x644c
    1f3e:	f2c0 0000 	movt	r0, #0
    1f42:	f850 0023 	ldr.w	r0, [r0, r3, lsl #2]
    1f46:	f640 11fc 	movw	r1, #2556	; 0x9fc
    1f4a:	f2c2 0100 	movt	r1, #8192	; 0x2000
    1f4e:	f851 1023 	ldr.w	r1, [r1, r3, lsl #2]
    1f52:	4790      	blx	r2
    1f54:	b002      	add	sp, #8
    1f56:	bd80      	pop	{r7, pc}

00001f58 <FLEXCOMM7_DriverIRQHandler>:
    1f58:	b580      	push	{r7, lr}
    1f5a:	466f      	mov	r7, sp
    1f5c:	b082      	sub	sp, #8
    1f5e:	f248 0000 	movw	r0, #32768	; 0x8000
    1f62:	f2c4 0009 	movt	r0, #16393	; 0x4009
    1f66:	f7ff fdc7 	bl	1af8 <FLEXCOMM_GetInstance>
    1f6a:	4601      	mov	r1, r0
    1f6c:	4608      	mov	r0, r1
    1f6e:	9001      	str	r0, [sp, #4]
    1f70:	f640 10d8 	movw	r0, #2520	; 0x9d8
    1f74:	f2c2 0000 	movt	r0, #8192	; 0x2000
    1f78:	f850 0021 	ldr.w	r0, [r0, r1, lsl #2]
    1f7c:	b108      	cbz	r0, 1f82 <FLEXCOMM7_DriverIRQHandler+0x2a>
    1f7e:	e7ff      	b.n	1f80 <FLEXCOMM7_DriverIRQHandler+0x28>
    1f80:	e00f      	b.n	1fa2 <FLEXCOMM7_DriverIRQHandler+0x4a>
    1f82:	f246 4070 	movw	r0, #25712	; 0x6470
    1f86:	f2c0 0000 	movt	r0, #0
    1f8a:	f246 52ad 	movw	r2, #26029	; 0x65ad
    1f8e:	f2c0 0200 	movt	r2, #0
    1f92:	f246 43e4 	movw	r3, #25828	; 0x64e4
    1f96:	f2c0 0300 	movt	r3, #0
    1f9a:	f240 110f 	movw	r1, #271	; 0x10f
    1f9e:	f000 ff37 	bl	2e10 <__assert_func>
    1fa2:	9b01      	ldr	r3, [sp, #4]
    1fa4:	f640 10d8 	movw	r0, #2520	; 0x9d8
    1fa8:	f2c2 0000 	movt	r0, #8192	; 0x2000
    1fac:	f850 2023 	ldr.w	r2, [r0, r3, lsl #2]
    1fb0:	f246 404c 	movw	r0, #25676	; 0x644c
    1fb4:	f2c0 0000 	movt	r0, #0
    1fb8:	f850 0023 	ldr.w	r0, [r0, r3, lsl #2]
    1fbc:	f640 11fc 	movw	r1, #2556	; 0x9fc
    1fc0:	f2c2 0100 	movt	r1, #8192	; 0x2000
    1fc4:	f851 1023 	ldr.w	r1, [r1, r3, lsl #2]
    1fc8:	4790      	blx	r2
    1fca:	b002      	add	sp, #8
    1fcc:	bd80      	pop	{r7, pc}

00001fce <FLEXCOMM8_DriverIRQHandler>:
    1fce:	b580      	push	{r7, lr}
    1fd0:	466f      	mov	r7, sp
    1fd2:	b082      	sub	sp, #8
    1fd4:	f24f 0000 	movw	r0, #61440	; 0xf000
    1fd8:	f2c4 0009 	movt	r0, #16393	; 0x4009
    1fdc:	f7ff fd8c 	bl	1af8 <FLEXCOMM_GetInstance>
    1fe0:	4601      	mov	r1, r0
    1fe2:	4608      	mov	r0, r1
    1fe4:	9001      	str	r0, [sp, #4]
    1fe6:	f640 10d8 	movw	r0, #2520	; 0x9d8
    1fea:	f2c2 0000 	movt	r0, #8192	; 0x2000
    1fee:	f850 0021 	ldr.w	r0, [r0, r1, lsl #2]
    1ff2:	b108      	cbz	r0, 1ff8 <FLEXCOMM8_DriverIRQHandler+0x2a>
    1ff4:	e7ff      	b.n	1ff6 <FLEXCOMM8_DriverIRQHandler+0x28>
    1ff6:	e00f      	b.n	2018 <FLEXCOMM8_DriverIRQHandler+0x4a>
    1ff8:	f246 4070 	movw	r0, #25712	; 0x6470
    1ffc:	f2c0 0000 	movt	r0, #0
    2000:	f246 52c8 	movw	r2, #26056	; 0x65c8
    2004:	f2c0 0200 	movt	r2, #0
    2008:	f246 43e4 	movw	r3, #25828	; 0x64e4
    200c:	f2c0 0300 	movt	r3, #0
    2010:	f240 111d 	movw	r1, #285	; 0x11d
    2014:	f000 fefc 	bl	2e10 <__assert_func>
    2018:	9b01      	ldr	r3, [sp, #4]
    201a:	f640 10d8 	movw	r0, #2520	; 0x9d8
    201e:	f2c2 0000 	movt	r0, #8192	; 0x2000
    2022:	f850 2023 	ldr.w	r2, [r0, r3, lsl #2]
    2026:	f246 404c 	movw	r0, #25676	; 0x644c
    202a:	f2c0 0000 	movt	r0, #0
    202e:	f850 0023 	ldr.w	r0, [r0, r3, lsl #2]
    2032:	f640 11fc 	movw	r1, #2556	; 0x9fc
    2036:	f2c2 0100 	movt	r1, #8192	; 0x2000
    203a:	f851 1023 	ldr.w	r1, [r1, r3, lsl #2]
    203e:	4790      	blx	r2
    2040:	b002      	add	sp, #8
    2042:	bd80      	pop	{r7, pc}

00002044 <FLEXCOMM_PeripheralIsPresent>:
    2044:	b083      	sub	sp, #12
    2046:	9001      	str	r0, [sp, #4]
    2048:	4608      	mov	r0, r1
    204a:	9002      	str	r0, [sp, #8]
    204c:	b919      	cbnz	r1, 2056 <FLEXCOMM_PeripheralIsPresent+0x12>
    204e:	e7ff      	b.n	2050 <FLEXCOMM_PeripheralIsPresent+0xc>
    2050:	2001      	movs	r0, #1
    2052:	9000      	str	r0, [sp, #0]
    2054:	e01f      	b.n	2096 <FLEXCOMM_PeripheralIsPresent+0x52>
    2056:	9802      	ldr	r0, [sp, #8]
    2058:	b2c0      	uxtb	r0, r0
    205a:	2804      	cmp	r0, #4
    205c:	dc0c      	bgt.n	2078 <FLEXCOMM_PeripheralIsPresent+0x34>
    205e:	e7ff      	b.n	2060 <FLEXCOMM_PeripheralIsPresent+0x1c>
    2060:	9a02      	ldr	r2, [sp, #8]
    2062:	9801      	ldr	r0, [sp, #4]
    2064:	f8d0 0ff8 	ldr.w	r0, [r0, #4088]	; 0xff8
    2068:	2103      	movs	r1, #3
    206a:	fa51 f182 	uxtab	r1, r1, r2
    206e:	40c8      	lsrs	r0, r1
    2070:	f000 0001 	and.w	r0, r0, #1
    2074:	9000      	str	r0, [sp, #0]
    2076:	e00e      	b.n	2096 <FLEXCOMM_PeripheralIsPresent+0x52>
    2078:	9802      	ldr	r0, [sp, #8]
    207a:	b2c0      	uxtb	r0, r0
    207c:	2805      	cmp	r0, #5
    207e:	d107      	bne.n	2090 <FLEXCOMM_PeripheralIsPresent+0x4c>
    2080:	e7ff      	b.n	2082 <FLEXCOMM_PeripheralIsPresent+0x3e>
    2082:	9801      	ldr	r0, [sp, #4]
    2084:	f8d0 0ff8 	ldr.w	r0, [r0, #4088]	; 0xff8
    2088:	b2c0      	uxtb	r0, r0
    208a:	09c0      	lsrs	r0, r0, #7
    208c:	9000      	str	r0, [sp, #0]
    208e:	e002      	b.n	2096 <FLEXCOMM_PeripheralIsPresent+0x52>
    2090:	2000      	movs	r0, #0
    2092:	9000      	str	r0, [sp, #0]
    2094:	e7ff      	b.n	2096 <FLEXCOMM_PeripheralIsPresent+0x52>
    2096:	9800      	ldr	r0, [sp, #0]
    2098:	f000 0001 	and.w	r0, r0, #1
    209c:	b003      	add	sp, #12
    209e:	4770      	bx	lr

000020a0 <HASHCRYPT_SHA>:
    20a0:	b580      	push	{r7, lr}
    20a2:	466f      	mov	r7, sp
    20a4:	b09e      	sub	sp, #120	; 0x78
    20a6:	9302      	str	r3, [sp, #8]
    20a8:	9203      	str	r2, [sp, #12]
    20aa:	460a      	mov	r2, r1
    20ac:	9004      	str	r0, [sp, #16]
    20ae:	68f9      	ldr	r1, [r7, #12]
    20b0:	9105      	str	r1, [sp, #20]
    20b2:	68b9      	ldr	r1, [r7, #8]
    20b4:	9106      	str	r1, [sp, #24]
    20b6:	a908      	add	r1, sp, #32
    20b8:	f000 f81f 	bl	20fa <HASHCRYPT_SHA_Init>
    20bc:	4601      	mov	r1, r0
    20be:	9107      	str	r1, [sp, #28]
    20c0:	b118      	cbz	r0, 20ca <HASHCRYPT_SHA+0x2a>
    20c2:	e7ff      	b.n	20c4 <HASHCRYPT_SHA+0x24>
    20c4:	9807      	ldr	r0, [sp, #28]
    20c6:	9001      	str	r0, [sp, #4]
    20c8:	e014      	b.n	20f4 <HASHCRYPT_SHA+0x54>
    20ca:	9b02      	ldr	r3, [sp, #8]
    20cc:	9a03      	ldr	r2, [sp, #12]
    20ce:	9804      	ldr	r0, [sp, #16]
    20d0:	a908      	add	r1, sp, #32
    20d2:	f000 f830 	bl	2136 <HASHCRYPT_SHA_Update>
    20d6:	4601      	mov	r1, r0
    20d8:	9100      	str	r1, [sp, #0]
    20da:	b118      	cbz	r0, 20e4 <HASHCRYPT_SHA+0x44>
    20dc:	e7ff      	b.n	20de <HASHCRYPT_SHA+0x3e>
    20de:	9800      	ldr	r0, [sp, #0]
    20e0:	9001      	str	r0, [sp, #4]
    20e2:	e007      	b.n	20f4 <HASHCRYPT_SHA+0x54>
    20e4:	9b05      	ldr	r3, [sp, #20]
    20e6:	9a06      	ldr	r2, [sp, #24]
    20e8:	9804      	ldr	r0, [sp, #16]
    20ea:	a908      	add	r1, sp, #32
    20ec:	f000 f87b 	bl	21e6 <HASHCRYPT_SHA_Finish>
    20f0:	9001      	str	r0, [sp, #4]
    20f2:	e7ff      	b.n	20f4 <HASHCRYPT_SHA+0x54>
    20f4:	9801      	ldr	r0, [sp, #4]
    20f6:	b01e      	add	sp, #120	; 0x78
    20f8:	bd80      	pop	{r7, pc}

000020fa <HASHCRYPT_SHA_Init>:
    20fa:	b580      	push	{r7, lr}
    20fc:	466f      	mov	r7, sp
    20fe:	b084      	sub	sp, #16
    2100:	9101      	str	r1, [sp, #4]
    2102:	4613      	mov	r3, r2
    2104:	9302      	str	r3, [sp, #8]
    2106:	f000 f8d9 	bl	22bc <hashcrypt_sha_check_input_args>
    210a:	4601      	mov	r1, r0
    210c:	9103      	str	r1, [sp, #12]
    210e:	b118      	cbz	r0, 2118 <HASHCRYPT_SHA_Init+0x1e>
    2110:	e7ff      	b.n	2112 <HASHCRYPT_SHA_Init+0x18>
    2112:	9803      	ldr	r0, [sp, #12]
    2114:	9000      	str	r0, [sp, #0]
    2116:	e00b      	b.n	2130 <HASHCRYPT_SHA_Init+0x36>
    2118:	9901      	ldr	r1, [sp, #4]
    211a:	9802      	ldr	r0, [sp, #8]
    211c:	f881 0044 	strb.w	r0, [r1, #68]	; 0x44
    2120:	2000      	movs	r0, #0
    2122:	6408      	str	r0, [r1, #64]	; 0x40
    2124:	2201      	movs	r2, #1
    2126:	f881 2045 	strb.w	r2, [r1, #69]	; 0x45
    212a:	6488      	str	r0, [r1, #72]	; 0x48
    212c:	9000      	str	r0, [sp, #0]
    212e:	e7ff      	b.n	2130 <HASHCRYPT_SHA_Init+0x36>
    2130:	9800      	ldr	r0, [sp, #0]
    2132:	b004      	add	sp, #16
    2134:	bd80      	pop	{r7, pc}

00002136 <HASHCRYPT_SHA_Update>:
    2136:	b580      	push	{r7, lr}
    2138:	466f      	mov	r7, sp
    213a:	b088      	sub	sp, #32
    213c:	9304      	str	r3, [sp, #16]
    213e:	9205      	str	r2, [sp, #20]
    2140:	9106      	str	r1, [sp, #24]
    2142:	9007      	str	r0, [sp, #28]
    2144:	b91b      	cbnz	r3, 214e <HASHCRYPT_SHA_Update+0x18>
    2146:	e7ff      	b.n	2148 <HASHCRYPT_SHA_Update+0x12>
    2148:	2000      	movs	r0, #0
    214a:	9003      	str	r0, [sp, #12]
    214c:	e048      	b.n	21e0 <HASHCRYPT_SHA_Update+0xaa>
    214e:	9904      	ldr	r1, [sp, #16]
    2150:	9806      	ldr	r0, [sp, #24]
    2152:	4602      	mov	r2, r0
    2154:	9202      	str	r2, [sp, #8]
    2156:	6c82      	ldr	r2, [r0, #72]	; 0x48
    2158:	440a      	add	r2, r1
    215a:	6482      	str	r2, [r0, #72]	; 0x48
    215c:	6c00      	ldr	r0, [r0, #64]	; 0x40
    215e:	4408      	add	r0, r1
    2160:	2840      	cmp	r0, #64	; 0x40
    2162:	d80f      	bhi.n	2184 <HASHCRYPT_SHA_Update+0x4e>
    2164:	e7ff      	b.n	2166 <HASHCRYPT_SHA_Update+0x30>
    2166:	9802      	ldr	r0, [sp, #8]
    2168:	9a04      	ldr	r2, [sp, #16]
    216a:	9905      	ldr	r1, [sp, #20]
    216c:	6c03      	ldr	r3, [r0, #64]	; 0x40
    216e:	4418      	add	r0, r3
    2170:	f7fe fb86 	bl	880 <memcpy>
    2174:	9a04      	ldr	r2, [sp, #16]
    2176:	9902      	ldr	r1, [sp, #8]
    2178:	6c08      	ldr	r0, [r1, #64]	; 0x40
    217a:	4410      	add	r0, r2
    217c:	6408      	str	r0, [r1, #64]	; 0x40
    217e:	2000      	movs	r0, #0
    2180:	9003      	str	r0, [sp, #12]
    2182:	e02d      	b.n	21e0 <HASHCRYPT_SHA_Update+0xaa>
    2184:	9802      	ldr	r0, [sp, #8]
    2186:	f890 0045 	ldrb.w	r0, [r0, #69]	; 0x45
    218a:	2802      	cmp	r0, #2
    218c:	d00b      	beq.n	21a6 <HASHCRYPT_SHA_Update+0x70>
    218e:	e7ff      	b.n	2190 <HASHCRYPT_SHA_Update+0x5a>
    2190:	9902      	ldr	r1, [sp, #8]
    2192:	9807      	ldr	r0, [sp, #28]
    2194:	f891 1044 	ldrb.w	r1, [r1, #68]	; 0x44
    2198:	f000 f8ae 	bl	22f8 <hashcrypt_engine_init>
    219c:	9902      	ldr	r1, [sp, #8]
    219e:	2002      	movs	r0, #2
    21a0:	f881 0045 	strb.w	r0, [r1, #69]	; 0x45
    21a4:	e004      	b.n	21b0 <HASHCRYPT_SHA_Update+0x7a>
    21a6:	9902      	ldr	r1, [sp, #8]
    21a8:	9807      	ldr	r0, [sp, #28]
    21aa:	f000 f8ac 	bl	2306 <hashcrypt_restore_running_hash>
    21ae:	e7ff      	b.n	21b0 <HASHCRYPT_SHA_Update+0x7a>
    21b0:	e7ff      	b.n	21b2 <HASHCRYPT_SHA_Update+0x7c>
    21b2:	9b04      	ldr	r3, [sp, #16]
    21b4:	9a05      	ldr	r2, [sp, #20]
    21b6:	9902      	ldr	r1, [sp, #8]
    21b8:	9807      	ldr	r0, [sp, #28]
    21ba:	f3bf 8f4f 	dsb	sy
    21be:	f000 f8a3 	bl	2308 <hashcrypt_sha_process_message_data>
    21c2:	4601      	mov	r1, r0
    21c4:	9101      	str	r1, [sp, #4]
    21c6:	b118      	cbz	r0, 21d0 <HASHCRYPT_SHA_Update+0x9a>
    21c8:	e7ff      	b.n	21ca <HASHCRYPT_SHA_Update+0x94>
    21ca:	9801      	ldr	r0, [sp, #4]
    21cc:	9003      	str	r0, [sp, #12]
    21ce:	e007      	b.n	21e0 <HASHCRYPT_SHA_Update+0xaa>
    21d0:	9902      	ldr	r1, [sp, #8]
    21d2:	9807      	ldr	r0, [sp, #28]
    21d4:	f3bf 8f4f 	dsb	sy
    21d8:	f000 f9a6 	bl	2528 <hashcrypt_save_running_hash>
    21dc:	9003      	str	r0, [sp, #12]
    21de:	e7ff      	b.n	21e0 <HASHCRYPT_SHA_Update+0xaa>
    21e0:	9803      	ldr	r0, [sp, #12]
    21e2:	b008      	add	sp, #32
    21e4:	bd80      	pop	{r7, pc}

000021e6 <HASHCRYPT_SHA_Finish>:
    21e6:	b580      	push	{r7, lr}
    21e8:	466f      	mov	r7, sp
    21ea:	b08e      	sub	sp, #56	; 0x38
    21ec:	930a      	str	r3, [sp, #40]	; 0x28
    21ee:	920b      	str	r2, [sp, #44]	; 0x2c
    21f0:	910c      	str	r1, [sp, #48]	; 0x30
    21f2:	900d      	str	r0, [sp, #52]	; 0x34
    21f4:	b91a      	cbnz	r2, 21fe <HASHCRYPT_SHA_Finish+0x18>
    21f6:	e7ff      	b.n	21f8 <HASHCRYPT_SHA_Finish+0x12>
    21f8:	2004      	movs	r0, #4
    21fa:	9009      	str	r0, [sp, #36]	; 0x24
    21fc:	e05b      	b.n	22b6 <HASHCRYPT_SHA_Finish+0xd0>
    21fe:	980c      	ldr	r0, [sp, #48]	; 0x30
    2200:	4601      	mov	r1, r0
    2202:	9108      	str	r1, [sp, #32]
    2204:	f890 0045 	ldrb.w	r0, [r0, #69]	; 0x45
    2208:	2801      	cmp	r0, #1
    220a:	d107      	bne.n	221c <HASHCRYPT_SHA_Finish+0x36>
    220c:	e7ff      	b.n	220e <HASHCRYPT_SHA_Finish+0x28>
    220e:	980d      	ldr	r0, [sp, #52]	; 0x34
    2210:	9908      	ldr	r1, [sp, #32]
    2212:	f891 1044 	ldrb.w	r1, [r1, #68]	; 0x44
    2216:	f000 f86f 	bl	22f8 <hashcrypt_engine_init>
    221a:	e004      	b.n	2226 <HASHCRYPT_SHA_Finish+0x40>
    221c:	9908      	ldr	r1, [sp, #32]
    221e:	980d      	ldr	r0, [sp, #52]	; 0x34
    2220:	f000 f871 	bl	2306 <hashcrypt_restore_running_hash>
    2224:	e7ff      	b.n	2226 <HASHCRYPT_SHA_Finish+0x40>
    2226:	9808      	ldr	r0, [sp, #32]
    2228:	f890 0044 	ldrb.w	r0, [r0, #68]	; 0x44
    222c:	4601      	mov	r1, r0
    222e:	9107      	str	r1, [sp, #28]
    2230:	2801      	cmp	r0, #1
    2232:	d004      	beq.n	223e <HASHCRYPT_SHA_Finish+0x58>
    2234:	e7ff      	b.n	2236 <HASHCRYPT_SHA_Finish+0x50>
    2236:	9807      	ldr	r0, [sp, #28]
    2238:	2802      	cmp	r0, #2
    223a:	d003      	beq.n	2244 <HASHCRYPT_SHA_Finish+0x5e>
    223c:	e005      	b.n	224a <HASHCRYPT_SHA_Finish+0x64>
    223e:	2014      	movs	r0, #20
    2240:	9006      	str	r0, [sp, #24]
    2242:	e005      	b.n	2250 <HASHCRYPT_SHA_Finish+0x6a>
    2244:	2020      	movs	r0, #32
    2246:	9006      	str	r0, [sp, #24]
    2248:	e002      	b.n	2250 <HASHCRYPT_SHA_Finish+0x6a>
    224a:	2000      	movs	r0, #0
    224c:	9006      	str	r0, [sp, #24]
    224e:	e7ff      	b.n	2250 <HASHCRYPT_SHA_Finish+0x6a>
    2250:	9908      	ldr	r1, [sp, #32]
    2252:	980d      	ldr	r0, [sp, #52]	; 0x34
    2254:	9a06      	ldr	r2, [sp, #24]
    2256:	9204      	str	r2, [sp, #16]
    2258:	f000 f968 	bl	252c <hashcrypt_sha_finalize>
    225c:	4601      	mov	r1, r0
    225e:	9105      	str	r1, [sp, #20]
    2260:	b118      	cbz	r0, 226a <HASHCRYPT_SHA_Finish+0x84>
    2262:	e7ff      	b.n	2264 <HASHCRYPT_SHA_Finish+0x7e>
    2264:	9805      	ldr	r0, [sp, #20]
    2266:	9009      	str	r0, [sp, #36]	; 0x24
    2268:	e025      	b.n	22b6 <HASHCRYPT_SHA_Finish+0xd0>
    226a:	9804      	ldr	r0, [sp, #16]
    226c:	990a      	ldr	r1, [sp, #40]	; 0x28
    226e:	9003      	str	r0, [sp, #12]
    2270:	b191      	cbz	r1, 2298 <HASHCRYPT_SHA_Finish+0xb2>
    2272:	e7ff      	b.n	2274 <HASHCRYPT_SHA_Finish+0x8e>
    2274:	9804      	ldr	r0, [sp, #16]
    2276:	990a      	ldr	r1, [sp, #40]	; 0x28
    2278:	6809      	ldr	r1, [r1, #0]
    227a:	4288      	cmp	r0, r1
    227c:	d205      	bcs.n	228a <HASHCRYPT_SHA_Finish+0xa4>
    227e:	e7ff      	b.n	2280 <HASHCRYPT_SHA_Finish+0x9a>
    2280:	9804      	ldr	r0, [sp, #16]
    2282:	990a      	ldr	r1, [sp, #40]	; 0x28
    2284:	6008      	str	r0, [r1, #0]
    2286:	9002      	str	r0, [sp, #8]
    2288:	e003      	b.n	2292 <HASHCRYPT_SHA_Finish+0xac>
    228a:	980a      	ldr	r0, [sp, #40]	; 0x28
    228c:	6800      	ldr	r0, [r0, #0]
    228e:	9002      	str	r0, [sp, #8]
    2290:	e7ff      	b.n	2292 <HASHCRYPT_SHA_Finish+0xac>
    2292:	9802      	ldr	r0, [sp, #8]
    2294:	9003      	str	r0, [sp, #12]
    2296:	e7ff      	b.n	2298 <HASHCRYPT_SHA_Finish+0xb2>
    2298:	990b      	ldr	r1, [sp, #44]	; 0x2c
    229a:	980d      	ldr	r0, [sp, #52]	; 0x34
    229c:	9a03      	ldr	r2, [sp, #12]
    229e:	f000 f9bc 	bl	261a <hashcrypt_get_data>
    22a2:	4601      	mov	r1, r0
    22a4:	9101      	str	r1, [sp, #4]
    22a6:	b118      	cbz	r0, 22b0 <HASHCRYPT_SHA_Finish+0xca>
    22a8:	e7ff      	b.n	22aa <HASHCRYPT_SHA_Finish+0xc4>
    22aa:	9801      	ldr	r0, [sp, #4]
    22ac:	9009      	str	r0, [sp, #36]	; 0x24
    22ae:	e002      	b.n	22b6 <HASHCRYPT_SHA_Finish+0xd0>
    22b0:	9801      	ldr	r0, [sp, #4]
    22b2:	9009      	str	r0, [sp, #36]	; 0x24
    22b4:	e7ff      	b.n	22b6 <HASHCRYPT_SHA_Finish+0xd0>
    22b6:	9809      	ldr	r0, [sp, #36]	; 0x24
    22b8:	b00e      	add	sp, #56	; 0x38
    22ba:	bd80      	pop	{r7, pc}

000022bc <hashcrypt_sha_check_input_args>:
    22bc:	b580      	push	{r7, lr}
    22be:	466f      	mov	r7, sp
    22c0:	b084      	sub	sp, #16
    22c2:	9201      	str	r2, [sp, #4]
    22c4:	460a      	mov	r2, r1
    22c6:	9901      	ldr	r1, [sp, #4]
    22c8:	9202      	str	r2, [sp, #8]
    22ca:	9003      	str	r0, [sp, #12]
    22cc:	f000 fa59 	bl	2782 <hashcrypt_sha_check_input_alg>
    22d0:	b118      	cbz	r0, 22da <hashcrypt_sha_check_input_args+0x1e>
    22d2:	e7ff      	b.n	22d4 <hashcrypt_sha_check_input_args+0x18>
    22d4:	2004      	movs	r0, #4
    22d6:	9000      	str	r0, [sp, #0]
    22d8:	e00b      	b.n	22f2 <hashcrypt_sha_check_input_args+0x36>
    22da:	9802      	ldr	r0, [sp, #8]
    22dc:	b118      	cbz	r0, 22e6 <hashcrypt_sha_check_input_args+0x2a>
    22de:	e7ff      	b.n	22e0 <hashcrypt_sha_check_input_args+0x24>
    22e0:	9803      	ldr	r0, [sp, #12]
    22e2:	b918      	cbnz	r0, 22ec <hashcrypt_sha_check_input_args+0x30>
    22e4:	e7ff      	b.n	22e6 <hashcrypt_sha_check_input_args+0x2a>
    22e6:	2004      	movs	r0, #4
    22e8:	9000      	str	r0, [sp, #0]
    22ea:	e002      	b.n	22f2 <hashcrypt_sha_check_input_args+0x36>
    22ec:	2000      	movs	r0, #0
    22ee:	9000      	str	r0, [sp, #0]
    22f0:	e7ff      	b.n	22f2 <hashcrypt_sha_check_input_args+0x36>
    22f2:	9800      	ldr	r0, [sp, #0]
    22f4:	b004      	add	sp, #16
    22f6:	bd80      	pop	{r7, pc}

000022f8 <hashcrypt_engine_init>:
    22f8:	2210      	movs	r2, #16
    22fa:	6002      	str	r2, [r0, #0]
    22fc:	2202      	movs	r2, #2
    22fe:	f362 01df 	bfi	r1, r2, #3, #29
    2302:	6001      	str	r1, [r0, #0]
    2304:	4770      	bx	lr

00002306 <hashcrypt_restore_running_hash>:
    2306:	4770      	bx	lr

00002308 <hashcrypt_sha_process_message_data>:
    2308:	b580      	push	{r7, lr}
    230a:	466f      	mov	r7, sp
    230c:	b0a4      	sub	sp, #144	; 0x90
    230e:	931e      	str	r3, [sp, #120]	; 0x78
    2310:	921f      	str	r2, [sp, #124]	; 0x7c
    2312:	9120      	str	r1, [sp, #128]	; 0x80
    2314:	9021      	str	r0, [sp, #132]	; 0x84
    2316:	6c08      	ldr	r0, [r1, #64]	; 0x40
    2318:	9322      	str	r3, [sp, #136]	; 0x88
    231a:	9223      	str	r2, [sp, #140]	; 0x8c
    231c:	b1d8      	cbz	r0, 2356 <hashcrypt_sha_process_message_data+0x4e>
    231e:	e7ff      	b.n	2320 <hashcrypt_sha_process_message_data+0x18>
    2320:	9820      	ldr	r0, [sp, #128]	; 0x80
    2322:	991f      	ldr	r1, [sp, #124]	; 0x7c
    2324:	6c03      	ldr	r3, [r0, #64]	; 0x40
    2326:	f1c3 0240 	rsb	r2, r3, #64	; 0x40
    232a:	921b      	str	r2, [sp, #108]	; 0x6c
    232c:	4418      	add	r0, r3
    232e:	f7fe faa7 	bl	880 <memcpy>
    2332:	f8dd c07c 	ldr.w	ip, [sp, #124]	; 0x7c
    2336:	9b1b      	ldr	r3, [sp, #108]	; 0x6c
    2338:	9a1e      	ldr	r2, [sp, #120]	; 0x78
    233a:	9920      	ldr	r1, [sp, #128]	; 0x80
    233c:	9821      	ldr	r0, [sp, #132]	; 0x84
    233e:	449c      	add	ip, r3
    2340:	f8cd c074 	str.w	ip, [sp, #116]	; 0x74
    2344:	1ad2      	subs	r2, r2, r3
    2346:	921c      	str	r2, [sp, #112]	; 0x70
    2348:	f000 fa2f 	bl	27aa <hashcrypt_sha_one_block>
    234c:	991c      	ldr	r1, [sp, #112]	; 0x70
    234e:	981d      	ldr	r0, [sp, #116]	; 0x74
    2350:	9122      	str	r1, [sp, #136]	; 0x88
    2352:	9023      	str	r0, [sp, #140]	; 0x8c
    2354:	e7ff      	b.n	2356 <hashcrypt_sha_process_message_data+0x4e>
    2356:	9922      	ldr	r1, [sp, #136]	; 0x88
    2358:	9823      	ldr	r0, [sp, #140]	; 0x8c
    235a:	9017      	str	r0, [sp, #92]	; 0x5c
    235c:	9118      	str	r1, [sp, #96]	; 0x60
    235e:	2940      	cmp	r1, #64	; 0x40
    2360:	9119      	str	r1, [sp, #100]	; 0x64
    2362:	901a      	str	r0, [sp, #104]	; 0x68
    2364:	f0c0 80c4 	bcc.w	24f0 <hashcrypt_sha_process_message_data+0x1e8>
    2368:	e7ff      	b.n	236a <hashcrypt_sha_process_message_data+0x62>
    236a:	9817      	ldr	r0, [sp, #92]	; 0x5c
    236c:	0780      	lsls	r0, r0, #30
    236e:	b1e0      	cbz	r0, 23aa <hashcrypt_sha_process_message_data+0xa2>
    2370:	e7ff      	b.n	2372 <hashcrypt_sha_process_message_data+0x6a>
    2372:	9817      	ldr	r0, [sp, #92]	; 0x5c
    2374:	9918      	ldr	r1, [sp, #96]	; 0x60
    2376:	9115      	str	r1, [sp, #84]	; 0x54
    2378:	9016      	str	r0, [sp, #88]	; 0x58
    237a:	e7ff      	b.n	237c <hashcrypt_sha_process_message_data+0x74>
    237c:	9815      	ldr	r0, [sp, #84]	; 0x54
    237e:	9916      	ldr	r1, [sp, #88]	; 0x58
    2380:	9113      	str	r1, [sp, #76]	; 0x4c
    2382:	9014      	str	r0, [sp, #80]	; 0x50
    2384:	2840      	cmp	r0, #64	; 0x40
    2386:	d30b      	bcc.n	23a0 <hashcrypt_sha_process_message_data+0x98>
    2388:	e7ff      	b.n	238a <hashcrypt_sha_process_message_data+0x82>
    238a:	9913      	ldr	r1, [sp, #76]	; 0x4c
    238c:	9821      	ldr	r0, [sp, #132]	; 0x84
    238e:	f000 fa0c 	bl	27aa <hashcrypt_sha_one_block>
    2392:	9813      	ldr	r0, [sp, #76]	; 0x4c
    2394:	9914      	ldr	r1, [sp, #80]	; 0x50
    2396:	3040      	adds	r0, #64	; 0x40
    2398:	3940      	subs	r1, #64	; 0x40
    239a:	9115      	str	r1, [sp, #84]	; 0x54
    239c:	9016      	str	r0, [sp, #88]	; 0x58
    239e:	e7ed      	b.n	237c <hashcrypt_sha_process_message_data+0x74>
    23a0:	9813      	ldr	r0, [sp, #76]	; 0x4c
    23a2:	9914      	ldr	r1, [sp, #80]	; 0x50
    23a4:	9111      	str	r1, [sp, #68]	; 0x44
    23a6:	9012      	str	r0, [sp, #72]	; 0x48
    23a8:	e09d      	b.n	24e6 <hashcrypt_sha_process_message_data+0x1de>
    23aa:	9a17      	ldr	r2, [sp, #92]	; 0x5c
    23ac:	9b18      	ldr	r3, [sp, #96]	; 0x60
    23ae:	0998      	lsrs	r0, r3, #6
    23b0:	4601      	mov	r1, r0
    23b2:	f240 4c01 	movw	ip, #1025	; 0x401
    23b6:	f2c0 0c20 	movt	ip, #32
    23ba:	fba0 c00c 	umull	ip, r0, r0, ip
    23be:	ebc0 1c93 	rsb	ip, r0, r3, lsr #6
    23c2:	eb00 005c 	add.w	r0, r0, ip, lsr #1
    23c6:	0a80      	lsrs	r0, r0, #10
    23c8:	930d      	str	r3, [sp, #52]	; 0x34
    23ca:	920e      	str	r2, [sp, #56]	; 0x38
    23cc:	910f      	str	r1, [sp, #60]	; 0x3c
    23ce:	9010      	str	r0, [sp, #64]	; 0x40
    23d0:	e7ff      	b.n	23d2 <hashcrypt_sha_process_message_data+0xca>
    23d2:	990d      	ldr	r1, [sp, #52]	; 0x34
    23d4:	9a0e      	ldr	r2, [sp, #56]	; 0x38
    23d6:	9b0f      	ldr	r3, [sp, #60]	; 0x3c
    23d8:	9810      	ldr	r0, [sp, #64]	; 0x40
    23da:	9009      	str	r0, [sp, #36]	; 0x24
    23dc:	930a      	str	r3, [sp, #40]	; 0x28
    23de:	920b      	str	r2, [sp, #44]	; 0x2c
    23e0:	910c      	str	r1, [sp, #48]	; 0x30
    23e2:	2800      	cmp	r0, #0
    23e4:	d03f      	beq.n	2466 <hashcrypt_sha_process_message_data+0x15e>
    23e6:	e7ff      	b.n	23e8 <hashcrypt_sha_process_message_data+0xe0>
    23e8:	e7ff      	b.n	23ea <hashcrypt_sha_process_message_data+0xe2>
    23ea:	9821      	ldr	r0, [sp, #132]	; 0x84
    23ec:	6840      	ldr	r0, [r0, #4]
    23ee:	07c0      	lsls	r0, r0, #31
    23f0:	b908      	cbnz	r0, 23f6 <hashcrypt_sha_process_message_data+0xee>
    23f2:	e7ff      	b.n	23f4 <hashcrypt_sha_process_message_data+0xec>
    23f4:	e7f9      	b.n	23ea <hashcrypt_sha_process_message_data+0xe2>
    23f6:	9921      	ldr	r1, [sp, #132]	; 0x84
    23f8:	980b      	ldr	r0, [sp, #44]	; 0x2c
    23fa:	f3bf 8f4f 	dsb	sy
    23fe:	6148      	str	r0, [r1, #20]
    2400:	2001      	movs	r0, #1
    2402:	f2c0 70ff 	movt	r0, #2047	; 0x7ff
    2406:	6108      	str	r0, [r1, #16]
    2408:	f3bf 8f4f 	dsb	sy
    240c:	e7ff      	b.n	240e <hashcrypt_sha_process_message_data+0x106>
    240e:	9821      	ldr	r0, [sp, #132]	; 0x84
    2410:	6841      	ldr	r1, [r0, #4]
    2412:	2000      	movs	r0, #0
    2414:	0789      	lsls	r1, r1, #30
    2416:	2900      	cmp	r1, #0
    2418:	9008      	str	r0, [sp, #32]
    241a:	d409      	bmi.n	2430 <hashcrypt_sha_process_message_data+0x128>
    241c:	e7ff      	b.n	241e <hashcrypt_sha_process_message_data+0x116>
    241e:	9821      	ldr	r0, [sp, #132]	; 0x84
    2420:	6840      	ldr	r0, [r0, #4]
    2422:	f000 0104 	and.w	r1, r0, #4
    2426:	2001      	movs	r0, #1
    2428:	ea80 0091 	eor.w	r0, r0, r1, lsr #2
    242c:	9008      	str	r0, [sp, #32]
    242e:	e7ff      	b.n	2430 <hashcrypt_sha_process_message_data+0x128>
    2430:	9808      	ldr	r0, [sp, #32]
    2432:	07c0      	lsls	r0, r0, #31
    2434:	b108      	cbz	r0, 243a <hashcrypt_sha_process_message_data+0x132>
    2436:	e7ff      	b.n	2438 <hashcrypt_sha_process_message_data+0x130>
    2438:	e7e9      	b.n	240e <hashcrypt_sha_process_message_data+0x106>
    243a:	990a      	ldr	r1, [sp, #40]	; 0x28
    243c:	9809      	ldr	r0, [sp, #36]	; 0x24
    243e:	9b0c      	ldr	r3, [sp, #48]	; 0x30
    2440:	9a0b      	ldr	r2, [sp, #44]	; 0x2c
    2442:	f64f 7cc0 	movw	ip, #65472	; 0xffc0
    2446:	f2c0 0c01 	movt	ip, #1
    244a:	4462      	add	r2, ip
    244c:	f240 0c40 	movw	ip, #64	; 0x40
    2450:	f6cf 7cfe 	movt	ip, #65534	; 0xfffe
    2454:	4463      	add	r3, ip
    2456:	3801      	subs	r0, #1
    2458:	f2a1 71ff 	subw	r1, r1, #2047	; 0x7ff
    245c:	930d      	str	r3, [sp, #52]	; 0x34
    245e:	920e      	str	r2, [sp, #56]	; 0x38
    2460:	910f      	str	r1, [sp, #60]	; 0x3c
    2462:	9010      	str	r0, [sp, #64]	; 0x40
    2464:	e7b5      	b.n	23d2 <hashcrypt_sha_process_message_data+0xca>
    2466:	980b      	ldr	r0, [sp, #44]	; 0x2c
    2468:	990c      	ldr	r1, [sp, #48]	; 0x30
    246a:	9a0a      	ldr	r2, [sp, #40]	; 0x28
    246c:	9106      	str	r1, [sp, #24]
    246e:	9007      	str	r0, [sp, #28]
    2470:	b3a2      	cbz	r2, 24dc <hashcrypt_sha_process_message_data+0x1d4>
    2472:	e7ff      	b.n	2474 <hashcrypt_sha_process_message_data+0x16c>
    2474:	e7ff      	b.n	2476 <hashcrypt_sha_process_message_data+0x16e>
    2476:	9821      	ldr	r0, [sp, #132]	; 0x84
    2478:	6840      	ldr	r0, [r0, #4]
    247a:	07c0      	lsls	r0, r0, #31
    247c:	b908      	cbnz	r0, 2482 <hashcrypt_sha_process_message_data+0x17a>
    247e:	e7ff      	b.n	2480 <hashcrypt_sha_process_message_data+0x178>
    2480:	e7f9      	b.n	2476 <hashcrypt_sha_process_message_data+0x16e>
    2482:	9921      	ldr	r1, [sp, #132]	; 0x84
    2484:	9a0a      	ldr	r2, [sp, #40]	; 0x28
    2486:	980b      	ldr	r0, [sp, #44]	; 0x2c
    2488:	0193      	lsls	r3, r2, #6
    248a:	9305      	str	r3, [sp, #20]
    248c:	f3bf 8f4f 	dsb	sy
    2490:	6148      	str	r0, [r1, #20]
    2492:	2001      	movs	r0, #1
    2494:	f362 401a 	bfi	r0, r2, #16, #11
    2498:	6108      	str	r0, [r1, #16]
    249a:	f3bf 8f4f 	dsb	sy
    249e:	e7ff      	b.n	24a0 <hashcrypt_sha_process_message_data+0x198>
    24a0:	9821      	ldr	r0, [sp, #132]	; 0x84
    24a2:	6841      	ldr	r1, [r0, #4]
    24a4:	2000      	movs	r0, #0
    24a6:	0789      	lsls	r1, r1, #30
    24a8:	2900      	cmp	r1, #0
    24aa:	9004      	str	r0, [sp, #16]
    24ac:	d409      	bmi.n	24c2 <hashcrypt_sha_process_message_data+0x1ba>
    24ae:	e7ff      	b.n	24b0 <hashcrypt_sha_process_message_data+0x1a8>
    24b0:	9821      	ldr	r0, [sp, #132]	; 0x84
    24b2:	6840      	ldr	r0, [r0, #4]
    24b4:	f000 0104 	and.w	r1, r0, #4
    24b8:	2001      	movs	r0, #1
    24ba:	ea80 0091 	eor.w	r0, r0, r1, lsr #2
    24be:	9004      	str	r0, [sp, #16]
    24c0:	e7ff      	b.n	24c2 <hashcrypt_sha_process_message_data+0x1ba>
    24c2:	9804      	ldr	r0, [sp, #16]
    24c4:	07c0      	lsls	r0, r0, #31
    24c6:	b108      	cbz	r0, 24cc <hashcrypt_sha_process_message_data+0x1c4>
    24c8:	e7ff      	b.n	24ca <hashcrypt_sha_process_message_data+0x1c2>
    24ca:	e7e9      	b.n	24a0 <hashcrypt_sha_process_message_data+0x198>
    24cc:	990c      	ldr	r1, [sp, #48]	; 0x30
    24ce:	9a05      	ldr	r2, [sp, #20]
    24d0:	980b      	ldr	r0, [sp, #44]	; 0x2c
    24d2:	4410      	add	r0, r2
    24d4:	1a89      	subs	r1, r1, r2
    24d6:	9106      	str	r1, [sp, #24]
    24d8:	9007      	str	r0, [sp, #28]
    24da:	e7ff      	b.n	24dc <hashcrypt_sha_process_message_data+0x1d4>
    24dc:	9906      	ldr	r1, [sp, #24]
    24de:	9807      	ldr	r0, [sp, #28]
    24e0:	9111      	str	r1, [sp, #68]	; 0x44
    24e2:	9012      	str	r0, [sp, #72]	; 0x48
    24e4:	e7ff      	b.n	24e6 <hashcrypt_sha_process_message_data+0x1de>
    24e6:	9911      	ldr	r1, [sp, #68]	; 0x44
    24e8:	9812      	ldr	r0, [sp, #72]	; 0x48
    24ea:	9119      	str	r1, [sp, #100]	; 0x64
    24ec:	901a      	str	r0, [sp, #104]	; 0x68
    24ee:	e7ff      	b.n	24f0 <hashcrypt_sha_process_message_data+0x1e8>
    24f0:	9821      	ldr	r0, [sp, #132]	; 0x84
    24f2:	9919      	ldr	r1, [sp, #100]	; 0x64
    24f4:	9a1a      	ldr	r2, [sp, #104]	; 0x68
    24f6:	9201      	str	r2, [sp, #4]
    24f8:	9102      	str	r1, [sp, #8]
    24fa:	6841      	ldr	r1, [r0, #4]
    24fc:	2001      	movs	r0, #1
    24fe:	0749      	lsls	r1, r1, #29
    2500:	2900      	cmp	r1, #0
    2502:	9003      	str	r0, [sp, #12]
    2504:	d403      	bmi.n	250e <hashcrypt_sha_process_message_data+0x206>
    2506:	e7ff      	b.n	2508 <hashcrypt_sha_process_message_data+0x200>
    2508:	2000      	movs	r0, #0
    250a:	9003      	str	r0, [sp, #12]
    250c:	e7ff      	b.n	250e <hashcrypt_sha_process_message_data+0x206>
    250e:	9a02      	ldr	r2, [sp, #8]
    2510:	9820      	ldr	r0, [sp, #128]	; 0x80
    2512:	9901      	ldr	r1, [sp, #4]
    2514:	9b03      	ldr	r3, [sp, #12]
    2516:	9300      	str	r3, [sp, #0]
    2518:	f7fe f9b2 	bl	880 <memcpy>
    251c:	9a20      	ldr	r2, [sp, #128]	; 0x80
    251e:	9902      	ldr	r1, [sp, #8]
    2520:	9800      	ldr	r0, [sp, #0]
    2522:	6411      	str	r1, [r2, #64]	; 0x40
    2524:	b024      	add	sp, #144	; 0x90
    2526:	bd80      	pop	{r7, pc}

00002528 <hashcrypt_save_running_hash>:
    2528:	2000      	movs	r0, #0
    252a:	4770      	bx	lr

0000252c <hashcrypt_sha_finalize>:
    252c:	b580      	push	{r7, lr}
    252e:	466f      	mov	r7, sp
    2530:	b098      	sub	sp, #96	; 0x60
    2532:	9107      	str	r1, [sp, #28]
    2534:	9006      	str	r0, [sp, #24]
    2536:	a808      	add	r0, sp, #32
    2538:	2100      	movs	r1, #0
    253a:	2240      	movs	r2, #64	; 0x40
    253c:	f000 ffbc 	bl	34b8 <memset>
    2540:	9907      	ldr	r1, [sp, #28]
    2542:	6c08      	ldr	r0, [r1, #64]	; 0x40
    2544:	2837      	cmp	r0, #55	; 0x37
    2546:	d815      	bhi.n	2574 <hashcrypt_sha_finalize+0x48>
    2548:	e7ff      	b.n	254a <hashcrypt_sha_finalize+0x1e>
    254a:	9907      	ldr	r1, [sp, #28]
    254c:	6c0a      	ldr	r2, [r1, #64]	; 0x40
    254e:	a808      	add	r0, sp, #32
    2550:	9005      	str	r0, [sp, #20]
    2552:	f7fe f995 	bl	880 <memcpy>
    2556:	9a07      	ldr	r2, [sp, #28]
    2558:	9905      	ldr	r1, [sp, #20]
    255a:	9806      	ldr	r0, [sp, #24]
    255c:	f8d2 c040 	ldr.w	ip, [r2, #64]	; 0x40
    2560:	2380      	movs	r3, #128	; 0x80
    2562:	f801 300c 	strb.w	r3, [r1, ip]
    2566:	6c92      	ldr	r2, [r2, #72]	; 0x48
    2568:	00d2      	lsls	r2, r2, #3
    256a:	ba12      	rev	r2, r2
    256c:	9217      	str	r2, [sp, #92]	; 0x5c
    256e:	f000 f91c 	bl	27aa <hashcrypt_sha_one_block>
    2572:	e02d      	b.n	25d0 <hashcrypt_sha_finalize+0xa4>
    2574:	9807      	ldr	r0, [sp, #28]
    2576:	6c00      	ldr	r0, [r0, #64]	; 0x40
    2578:	283f      	cmp	r0, #63	; 0x3f
    257a:	d817      	bhi.n	25ac <hashcrypt_sha_finalize+0x80>
    257c:	e7ff      	b.n	257e <hashcrypt_sha_finalize+0x52>
    257e:	9807      	ldr	r0, [sp, #28]
    2580:	6c02      	ldr	r2, [r0, #64]	; 0x40
    2582:	2180      	movs	r1, #128	; 0x80
    2584:	5481      	strb	r1, [r0, r2]
    2586:	6c00      	ldr	r0, [r0, #64]	; 0x40
    2588:	3001      	adds	r0, #1
    258a:	9004      	str	r0, [sp, #16]
    258c:	e7ff      	b.n	258e <hashcrypt_sha_finalize+0x62>
    258e:	9804      	ldr	r0, [sp, #16]
    2590:	9003      	str	r0, [sp, #12]
    2592:	283f      	cmp	r0, #63	; 0x3f
    2594:	d809      	bhi.n	25aa <hashcrypt_sha_finalize+0x7e>
    2596:	e7ff      	b.n	2598 <hashcrypt_sha_finalize+0x6c>
    2598:	9907      	ldr	r1, [sp, #28]
    259a:	9a03      	ldr	r2, [sp, #12]
    259c:	2000      	movs	r0, #0
    259e:	5488      	strb	r0, [r1, r2]
    25a0:	e7ff      	b.n	25a2 <hashcrypt_sha_finalize+0x76>
    25a2:	9803      	ldr	r0, [sp, #12]
    25a4:	3001      	adds	r0, #1
    25a6:	9004      	str	r0, [sp, #16]
    25a8:	e7f1      	b.n	258e <hashcrypt_sha_finalize+0x62>
    25aa:	e003      	b.n	25b4 <hashcrypt_sha_finalize+0x88>
    25ac:	2080      	movs	r0, #128	; 0x80
    25ae:	f88d 0020 	strb.w	r0, [sp, #32]
    25b2:	e7ff      	b.n	25b4 <hashcrypt_sha_finalize+0x88>
    25b4:	9806      	ldr	r0, [sp, #24]
    25b6:	9907      	ldr	r1, [sp, #28]
    25b8:	f000 f8f7 	bl	27aa <hashcrypt_sha_one_block>
    25bc:	9907      	ldr	r1, [sp, #28]
    25be:	9806      	ldr	r0, [sp, #24]
    25c0:	6c89      	ldr	r1, [r1, #72]	; 0x48
    25c2:	00c9      	lsls	r1, r1, #3
    25c4:	ba09      	rev	r1, r1
    25c6:	9117      	str	r1, [sp, #92]	; 0x5c
    25c8:	a908      	add	r1, sp, #32
    25ca:	f000 f8ee 	bl	27aa <hashcrypt_sha_one_block>
    25ce:	e7ff      	b.n	25d0 <hashcrypt_sha_finalize+0xa4>
    25d0:	e7ff      	b.n	25d2 <hashcrypt_sha_finalize+0xa6>
    25d2:	9806      	ldr	r0, [sp, #24]
    25d4:	6841      	ldr	r1, [r0, #4]
    25d6:	2000      	movs	r0, #0
    25d8:	0789      	lsls	r1, r1, #30
    25da:	2900      	cmp	r1, #0
    25dc:	9002      	str	r0, [sp, #8]
    25de:	d409      	bmi.n	25f4 <hashcrypt_sha_finalize+0xc8>
    25e0:	e7ff      	b.n	25e2 <hashcrypt_sha_finalize+0xb6>
    25e2:	9806      	ldr	r0, [sp, #24]
    25e4:	6840      	ldr	r0, [r0, #4]
    25e6:	f000 0104 	and.w	r1, r0, #4
    25ea:	2001      	movs	r0, #1
    25ec:	ea80 0091 	eor.w	r0, r0, r1, lsr #2
    25f0:	9002      	str	r0, [sp, #8]
    25f2:	e7ff      	b.n	25f4 <hashcrypt_sha_finalize+0xc8>
    25f4:	9802      	ldr	r0, [sp, #8]
    25f6:	07c0      	lsls	r0, r0, #31
    25f8:	b108      	cbz	r0, 25fe <hashcrypt_sha_finalize+0xd2>
    25fa:	e7ff      	b.n	25fc <hashcrypt_sha_finalize+0xd0>
    25fc:	e7e9      	b.n	25d2 <hashcrypt_sha_finalize+0xa6>
    25fe:	9806      	ldr	r0, [sp, #24]
    2600:	6841      	ldr	r1, [r0, #4]
    2602:	2001      	movs	r0, #1
    2604:	0749      	lsls	r1, r1, #29
    2606:	2900      	cmp	r1, #0
    2608:	9001      	str	r0, [sp, #4]
    260a:	d403      	bmi.n	2614 <hashcrypt_sha_finalize+0xe8>
    260c:	e7ff      	b.n	260e <hashcrypt_sha_finalize+0xe2>
    260e:	2000      	movs	r0, #0
    2610:	9001      	str	r0, [sp, #4]
    2612:	e7ff      	b.n	2614 <hashcrypt_sha_finalize+0xe8>
    2614:	9801      	ldr	r0, [sp, #4]
    2616:	b018      	add	sp, #96	; 0x60
    2618:	bd80      	pop	{r7, pc}

0000261a <hashcrypt_get_data>:
    261a:	b580      	push	{r7, lr}
    261c:	466f      	mov	r7, sp
    261e:	b092      	sub	sp, #72	; 0x48
    2620:	9207      	str	r2, [sp, #28]
    2622:	9108      	str	r1, [sp, #32]
    2624:	9009      	str	r0, [sp, #36]	; 0x24
    2626:	e7ff      	b.n	2628 <hashcrypt_get_data+0xe>
    2628:	9809      	ldr	r0, [sp, #36]	; 0x24
    262a:	6841      	ldr	r1, [r0, #4]
    262c:	2000      	movs	r0, #0
    262e:	0789      	lsls	r1, r1, #30
    2630:	2900      	cmp	r1, #0
    2632:	9006      	str	r0, [sp, #24]
    2634:	d409      	bmi.n	264a <hashcrypt_get_data+0x30>
    2636:	e7ff      	b.n	2638 <hashcrypt_get_data+0x1e>
    2638:	9809      	ldr	r0, [sp, #36]	; 0x24
    263a:	6840      	ldr	r0, [r0, #4]
    263c:	f000 0104 	and.w	r1, r0, #4
    2640:	2001      	movs	r0, #1
    2642:	ea80 0091 	eor.w	r0, r0, r1, lsr #2
    2646:	9006      	str	r0, [sp, #24]
    2648:	e7ff      	b.n	264a <hashcrypt_get_data+0x30>
    264a:	9806      	ldr	r0, [sp, #24]
    264c:	07c0      	lsls	r0, r0, #31
    264e:	b108      	cbz	r0, 2654 <hashcrypt_get_data+0x3a>
    2650:	e7ff      	b.n	2652 <hashcrypt_get_data+0x38>
    2652:	e7e9      	b.n	2628 <hashcrypt_get_data+0xe>
    2654:	9809      	ldr	r0, [sp, #36]	; 0x24
    2656:	6841      	ldr	r1, [r0, #4]
    2658:	2001      	movs	r0, #1
    265a:	0749      	lsls	r1, r1, #29
    265c:	2900      	cmp	r1, #0
    265e:	9005      	str	r0, [sp, #20]
    2660:	d403      	bmi.n	266a <hashcrypt_get_data+0x50>
    2662:	e7ff      	b.n	2664 <hashcrypt_get_data+0x4a>
    2664:	2000      	movs	r0, #0
    2666:	9005      	str	r0, [sp, #20]
    2668:	e7ff      	b.n	266a <hashcrypt_get_data+0x50>
    266a:	9805      	ldr	r0, [sp, #20]
    266c:	9003      	str	r0, [sp, #12]
    266e:	f3bf 8f4f 	dsb	sy
    2672:	2000      	movs	r0, #0
    2674:	9004      	str	r0, [sp, #16]
    2676:	e7ff      	b.n	2678 <hashcrypt_get_data+0x5e>
    2678:	9804      	ldr	r0, [sp, #16]
    267a:	9002      	str	r0, [sp, #8]
    267c:	2807      	cmp	r0, #7
    267e:	dc0e      	bgt.n	269e <hashcrypt_get_data+0x84>
    2680:	e7ff      	b.n	2682 <hashcrypt_get_data+0x68>
    2682:	9a02      	ldr	r2, [sp, #8]
    2684:	9809      	ldr	r0, [sp, #36]	; 0x24
    2686:	eb00 0082 	add.w	r0, r0, r2, lsl #2
    268a:	6c00      	ldr	r0, [r0, #64]	; 0x40
    268c:	ba00      	rev	r0, r0
    268e:	a90a      	add	r1, sp, #40	; 0x28
    2690:	f841 0022 	str.w	r0, [r1, r2, lsl #2]
    2694:	e7ff      	b.n	2696 <hashcrypt_get_data+0x7c>
    2696:	9802      	ldr	r0, [sp, #8]
    2698:	3001      	adds	r0, #1
    269a:	9004      	str	r0, [sp, #16]
    269c:	e7ec      	b.n	2678 <hashcrypt_get_data+0x5e>
    269e:	9807      	ldr	r0, [sp, #28]
    26a0:	2821      	cmp	r0, #33	; 0x21
    26a2:	9001      	str	r0, [sp, #4]
    26a4:	d303      	bcc.n	26ae <hashcrypt_get_data+0x94>
    26a6:	e7ff      	b.n	26a8 <hashcrypt_get_data+0x8e>
    26a8:	2020      	movs	r0, #32
    26aa:	9001      	str	r0, [sp, #4]
    26ac:	e7ff      	b.n	26ae <hashcrypt_get_data+0x94>
    26ae:	9808      	ldr	r0, [sp, #32]
    26b0:	9a01      	ldr	r2, [sp, #4]
    26b2:	a90a      	add	r1, sp, #40	; 0x28
    26b4:	f7fe f8e4 	bl	880 <memcpy>
    26b8:	9803      	ldr	r0, [sp, #12]
    26ba:	b012      	add	sp, #72	; 0x48
    26bc:	bd80      	pop	{r7, pc}

000026be <HASHCRYPT_DriverIRQHandler>:
    26be:	b580      	push	{r7, lr}
    26c0:	466f      	mov	r7, sp
    26c2:	b084      	sub	sp, #16
    26c4:	f640 2020 	movw	r0, #2592	; 0xa20
    26c8:	f2c2 0000 	movt	r0, #8192	; 0x2000
    26cc:	6800      	ldr	r0, [r0, #0]
    26ce:	9003      	str	r0, [sp, #12]
    26d0:	f244 0004 	movw	r0, #16388	; 0x4004
    26d4:	f2c4 000a 	movt	r0, #16394	; 0x400a
    26d8:	6800      	ldr	r0, [r0, #0]
    26da:	0740      	lsls	r0, r0, #29
    26dc:	2800      	cmp	r0, #0
    26de:	d435      	bmi.n	274c <HASHCRYPT_DriverIRQHandler+0x8e>
    26e0:	e7ff      	b.n	26e2 <HASHCRYPT_DriverIRQHandler+0x24>
    26e2:	9803      	ldr	r0, [sp, #12]
    26e4:	6cc0      	ldr	r0, [r0, #76]	; 0x4c
    26e6:	b1e0      	cbz	r0, 2722 <HASHCRYPT_DriverIRQHandler+0x64>
    26e8:	e7ff      	b.n	26ea <HASHCRYPT_DriverIRQHandler+0x2c>
    26ea:	9803      	ldr	r0, [sp, #12]
    26ec:	6cc0      	ldr	r0, [r0, #76]	; 0x4c
    26ee:	f5b0 6f00 	cmp.w	r0, #2048	; 0x800
    26f2:	d304      	bcc.n	26fe <HASHCRYPT_DriverIRQHandler+0x40>
    26f4:	e7ff      	b.n	26f6 <HASHCRYPT_DriverIRQHandler+0x38>
    26f6:	f240 70ff 	movw	r0, #2047	; 0x7ff
    26fa:	9002      	str	r0, [sp, #8]
    26fc:	e003      	b.n	2706 <HASHCRYPT_DriverIRQHandler+0x48>
    26fe:	9803      	ldr	r0, [sp, #12]
    2700:	6cc0      	ldr	r0, [r0, #76]	; 0x4c
    2702:	9002      	str	r0, [sp, #8]
    2704:	e7ff      	b.n	2706 <HASHCRYPT_DriverIRQHandler+0x48>
    2706:	9a03      	ldr	r2, [sp, #12]
    2708:	9902      	ldr	r1, [sp, #8]
    270a:	6cd0      	ldr	r0, [r2, #76]	; 0x4c
    270c:	1a40      	subs	r0, r0, r1
    270e:	64d0      	str	r0, [r2, #76]	; 0x4c
    2710:	2001      	movs	r0, #1
    2712:	f361 401a 	bfi	r0, r1, #16, #11
    2716:	f244 0110 	movw	r1, #16400	; 0x4010
    271a:	f2c4 010a 	movt	r1, #16394	; 0x400a
    271e:	6008      	str	r0, [r1, #0]
    2720:	e02d      	b.n	277e <HASHCRYPT_DriverIRQHandler+0xc0>
    2722:	9903      	ldr	r1, [sp, #12]
    2724:	f244 020c 	movw	r2, #16396	; 0x400c
    2728:	f2c4 020a 	movt	r2, #16394	; 0x400a
    272c:	2006      	movs	r0, #6
    272e:	6010      	str	r0, [r2, #0]
    2730:	f244 0210 	movw	r2, #16400	; 0x4010
    2734:	f2c4 020a 	movt	r2, #16394	; 0x400a
    2738:	2000      	movs	r0, #0
    273a:	6010      	str	r0, [r2, #0]
    273c:	f244 0000 	movw	r0, #16384	; 0x4000
    2740:	f2c4 000a 	movt	r0, #16394	; 0x400a
    2744:	f7ff fef0 	bl	2528 <hashcrypt_save_running_hash>
    2748:	9001      	str	r0, [sp, #4]
    274a:	e002      	b.n	2752 <HASHCRYPT_DriverIRQHandler+0x94>
    274c:	2001      	movs	r0, #1
    274e:	9001      	str	r0, [sp, #4]
    2750:	e7ff      	b.n	2752 <HASHCRYPT_DriverIRQHandler+0x94>
    2752:	9803      	ldr	r0, [sp, #12]
    2754:	9901      	ldr	r1, [sp, #4]
    2756:	9100      	str	r1, [sp, #0]
    2758:	6d00      	ldr	r0, [r0, #80]	; 0x50
    275a:	b180      	cbz	r0, 277e <HASHCRYPT_DriverIRQHandler+0xc0>
    275c:	e7ff      	b.n	275e <HASHCRYPT_DriverIRQHandler+0xa0>
    275e:	9a00      	ldr	r2, [sp, #0]
    2760:	9803      	ldr	r0, [sp, #12]
    2762:	f640 2120 	movw	r1, #2592	; 0xa20
    2766:	f2c2 0100 	movt	r1, #8192	; 0x2000
    276a:	6809      	ldr	r1, [r1, #0]
    276c:	f8d0 c050 	ldr.w	ip, [r0, #80]	; 0x50
    2770:	6d43      	ldr	r3, [r0, #84]	; 0x54
    2772:	f244 0000 	movw	r0, #16384	; 0x4000
    2776:	f2c4 000a 	movt	r0, #16394	; 0x400a
    277a:	47e0      	blx	ip
    277c:	e7ff      	b.n	277e <HASHCRYPT_DriverIRQHandler+0xc0>
    277e:	b004      	add	sp, #16
    2780:	bd80      	pop	{r7, pc}

00002782 <hashcrypt_sha_check_input_alg>:
    2782:	b082      	sub	sp, #8
    2784:	4608      	mov	r0, r1
    2786:	9001      	str	r0, [sp, #4]
    2788:	2901      	cmp	r1, #1
    278a:	d005      	beq.n	2798 <hashcrypt_sha_check_input_alg+0x16>
    278c:	e7ff      	b.n	278e <hashcrypt_sha_check_input_alg+0xc>
    278e:	9801      	ldr	r0, [sp, #4]
    2790:	b2c0      	uxtb	r0, r0
    2792:	2802      	cmp	r0, #2
    2794:	d103      	bne.n	279e <hashcrypt_sha_check_input_alg+0x1c>
    2796:	e7ff      	b.n	2798 <hashcrypt_sha_check_input_alg+0x16>
    2798:	2000      	movs	r0, #0
    279a:	9000      	str	r0, [sp, #0]
    279c:	e002      	b.n	27a4 <hashcrypt_sha_check_input_alg+0x22>
    279e:	2004      	movs	r0, #4
    27a0:	9000      	str	r0, [sp, #0]
    27a2:	e7ff      	b.n	27a4 <hashcrypt_sha_check_input_alg+0x22>
    27a4:	9800      	ldr	r0, [sp, #0]
    27a6:	b002      	add	sp, #8
    27a8:	4770      	bx	lr

000027aa <hashcrypt_sha_one_block>:
    27aa:	b580      	push	{r7, lr}
    27ac:	466f      	mov	r7, sp
    27ae:	b096      	sub	sp, #88	; 0x58
    27b0:	9104      	str	r1, [sp, #16]
    27b2:	9005      	str	r0, [sp, #20]
    27b4:	0788      	lsls	r0, r1, #30
    27b6:	b148      	cbz	r0, 27cc <hashcrypt_sha_one_block+0x22>
    27b8:	e7ff      	b.n	27ba <hashcrypt_sha_one_block+0x10>
    27ba:	9904      	ldr	r1, [sp, #16]
    27bc:	a806      	add	r0, sp, #24
    27be:	9002      	str	r0, [sp, #8]
    27c0:	2240      	movs	r2, #64	; 0x40
    27c2:	f7fe f85d 	bl	880 <memcpy>
    27c6:	9802      	ldr	r0, [sp, #8]
    27c8:	9003      	str	r0, [sp, #12]
    27ca:	e002      	b.n	27d2 <hashcrypt_sha_one_block+0x28>
    27cc:	9804      	ldr	r0, [sp, #16]
    27ce:	9003      	str	r0, [sp, #12]
    27d0:	e7ff      	b.n	27d2 <hashcrypt_sha_one_block+0x28>
    27d2:	9803      	ldr	r0, [sp, #12]
    27d4:	9001      	str	r0, [sp, #4]
    27d6:	e7ff      	b.n	27d8 <hashcrypt_sha_one_block+0x2e>
    27d8:	9805      	ldr	r0, [sp, #20]
    27da:	6840      	ldr	r0, [r0, #4]
    27dc:	07c0      	lsls	r0, r0, #31
    27de:	b908      	cbnz	r0, 27e4 <hashcrypt_sha_one_block+0x3a>
    27e0:	e7ff      	b.n	27e2 <hashcrypt_sha_one_block+0x38>
    27e2:	e7f9      	b.n	27d8 <hashcrypt_sha_one_block+0x2e>
    27e4:	9905      	ldr	r1, [sp, #20]
    27e6:	9801      	ldr	r0, [sp, #4]
    27e8:	f3bf 8f4f 	dsb	sy
    27ec:	f3bf 8f4f 	dsb	sy
    27f0:	6148      	str	r0, [r1, #20]
    27f2:	f04f 1001 	mov.w	r0, #65537	; 0x10001
    27f6:	6108      	str	r0, [r1, #16]
    27f8:	f3bf 8f4f 	dsb	sy
    27fc:	b016      	add	sp, #88	; 0x58
    27fe:	bd80      	pop	{r7, pc}

00002800 <BOARD_InitBootClocks>:
    2800:	b580      	push	{r7, lr}
    2802:	466f      	mov	r7, sp
    2804:	f000 f801 	bl	280a <BOARD_BootClockPLL150M>
    2808:	bd80      	pop	{r7, pc}

0000280a <BOARD_BootClockPLL150M>:
    280a:	b5d0      	push	{r4, r6, r7, lr}
    280c:	af02      	add	r7, sp, #8
    280e:	b08e      	sub	sp, #56	; 0x38
    2810:	2020      	movs	r0, #32
    2812:	9001      	str	r0, [sp, #4]
    2814:	f000 f879 	bl	290a <POWER_DisablePD>
    2818:	f641 3000 	movw	r0, #6912	; 0x1b00
    281c:	f2c0 00b7 	movt	r0, #183	; 0xb7
    2820:	f7fe f99d 	bl	b5e <CLOCK_SetupFROClocking>
    2824:	f249 1008 	movw	r0, #37128	; 0x9108
    2828:	f2c0 0010 	movt	r0, #16
    282c:	f7fe f905 	bl	a3a <CLOCK_AttachClk>
    2830:	f44f 7080 	mov.w	r0, #256	; 0x100
    2834:	f000 f869 	bl	290a <POWER_DisablePD>
    2838:	f44f 1080 	mov.w	r0, #1048576	; 0x100000
    283c:	f000 f865 	bl	290a <POWER_DisablePD>
    2840:	f242 4000 	movw	r0, #9216	; 0x2400
    2844:	f2c0 00f4 	movt	r0, #244	; 0xf4
    2848:	f7fe fac4 	bl	dd4 <CLOCK_SetupExtClocking>
    284c:	f640 2118 	movw	r1, #2584	; 0xa18
    2850:	f2c4 0100 	movt	r1, #16384	; 0x4000
    2854:	6808      	ldr	r0, [r1, #0]
    2856:	f040 0020 	orr.w	r0, r0, #32
    285a:	6008      	str	r0, [r1, #0]
    285c:	f243 0120 	movw	r1, #12320	; 0x3020
    2860:	f2c4 0101 	movt	r1, #16385	; 0x4001
    2864:	6808      	ldr	r0, [r1, #0]
    2866:	f040 7080 	orr.w	r0, r0, #16777216	; 0x1000000
    286a:	6008      	str	r0, [r1, #0]
    286c:	f24d 1080 	movw	r0, #53632	; 0xd180
    2870:	f6c0 00f0 	movt	r0, #2288	; 0x8f0
    2874:	9005      	str	r0, [sp, #20]
    2876:	f7fe fc3c 	bl	10f2 <POWER_SetVoltageForFreq>
    287a:	9805      	ldr	r0, [sp, #20]
    287c:	f7fe f9c1 	bl	c02 <CLOCK_SetFLASHAccessCyclesForFreq>
    2880:	f44f 7003 	mov.w	r0, #524	; 0x20c
    2884:	f7fe f8d9 	bl	a3a <CLOCK_AttachClk>
    2888:	f44f 7000 	mov.w	r0, #512	; 0x200
    288c:	f000 f83d 	bl	290a <POWER_DisablePD>
    2890:	f44f 0000 	mov.w	r0, #8388608	; 0x800000
    2894:	f000 f839 	bl	290a <POWER_DisablePD>
    2898:	f246 621c 	movw	r2, #26140	; 0x661c
    289c:	f2c0 0200 	movt	r2, #0
    28a0:	a806      	add	r0, sp, #24
    28a2:	4601      	mov	r1, r0
    28a4:	e8b2 5018 	ldmia.w	r2!, {r3, r4, ip, lr}
    28a8:	e8a1 5018 	stmia.w	r1!, {r3, r4, ip, lr}
    28ac:	e892 5018 	ldmia.w	r2, {r3, r4, ip, lr}
    28b0:	e881 5018 	stmia.w	r1, {r3, r4, ip, lr}
    28b4:	f7fe fb71 	bl	f9a <CLOCK_SetPLL0Freq>
    28b8:	2008      	movs	r0, #8
    28ba:	2190      	movs	r1, #144	; 0x90
    28bc:	2200      	movs	r2, #0
    28be:	9204      	str	r2, [sp, #16]
    28c0:	f7fe f908 	bl	ad4 <CLOCK_SetClkDiv>
    28c4:	9801      	ldr	r0, [sp, #4]
    28c6:	9a04      	ldr	r2, [sp, #16]
    28c8:	2101      	movs	r1, #1
    28ca:	9102      	str	r1, [sp, #8]
    28cc:	f7fe f902 	bl	ad4 <CLOCK_SetClkDiv>
    28d0:	9a02      	ldr	r2, [sp, #8]
    28d2:	9904      	ldr	r1, [sp, #16]
    28d4:	2031      	movs	r0, #49	; 0x31
    28d6:	9003      	str	r0, [sp, #12]
    28d8:	f7fe f8fc 	bl	ad4 <CLOCK_SetClkDiv>
    28dc:	9803      	ldr	r0, [sp, #12]
    28de:	9a04      	ldr	r2, [sp, #16]
    28e0:	2102      	movs	r1, #2
    28e2:	f7fe f8f7 	bl	ad4 <CLOCK_SetClkDiv>
    28e6:	f249 1008 	movw	r0, #37128	; 0x9108
    28ea:	f2c0 0020 	movt	r0, #32
    28ee:	f7fe f8a4 	bl	a3a <CLOCK_AttachClk>
    28f2:	f44f 7005 	mov.w	r0, #532	; 0x214
    28f6:	f7fe f8a0 	bl	a3a <CLOCK_AttachClk>
    28fa:	9805      	ldr	r0, [sp, #20]
    28fc:	f240 0100 	movw	r1, #0
    2900:	f2c2 0100 	movt	r1, #8192	; 0x2000
    2904:	6008      	str	r0, [r1, #0]
    2906:	b00e      	add	sp, #56	; 0x38
    2908:	bdd0      	pop	{r4, r6, r7, pc}

0000290a <POWER_DisablePD>:
    290a:	21c8      	movs	r1, #200	; 0xc8
    290c:	f2c4 0102 	movt	r1, #16386	; 0x4002
    2910:	6008      	str	r0, [r1, #0]
    2912:	4770      	bx	lr

00002914 <BOARD_InitPeripherals_cm33_core0>:
    2914:	b580      	push	{r7, lr}
    2916:	466f      	mov	r7, sp
    2918:	f000 f801 	bl	291e <DEBUG_USART_init>
    291c:	bd80      	pop	{r7, pc}

0000291e <DEBUG_USART_init>:
    291e:	b580      	push	{r7, lr}
    2920:	466f      	mov	r7, sp
    2922:	b082      	sub	sp, #8
    2924:	f246 613c 	movw	r1, #26172	; 0x663c
    2928:	f2c0 0100 	movt	r1, #0
    292c:	f246 0000 	movw	r0, #24576	; 0x6000
    2930:	f2c4 0008 	movt	r0, #16392	; 0x4008
    2934:	9001      	str	r0, [sp, #4]
    2936:	f646 4200 	movw	r2, #27648	; 0x6c00
    293a:	f2c0 22dc 	movt	r2, #732	; 0x2dc
    293e:	f7fe feeb 	bl	1718 <USART_Init>
    2942:	9801      	ldr	r0, [sp, #4]
    2944:	2108      	movs	r1, #8
    2946:	f000 f80a 	bl	295e <USART_EnableInterrupts>
    294a:	200e      	movs	r0, #14
    294c:	f000 f818 	bl	2980 <EnableIRQ>
    2950:	b002      	add	sp, #8
    2952:	bd80      	pop	{r7, pc}

00002954 <BOARD_InitBootPeripherals>:
    2954:	b580      	push	{r7, lr}
    2956:	466f      	mov	r7, sp
    2958:	f7ff ffdc 	bl	2914 <BOARD_InitPeripherals_cm33_core0>
    295c:	bd80      	pop	{r7, pc}

0000295e <USART_EnableInterrupts>:
    295e:	b081      	sub	sp, #4
    2960:	9100      	str	r1, [sp, #0]
    2962:	4601      	mov	r1, r0
    2964:	9800      	ldr	r0, [sp, #0]
    2966:	f400 32fc 	and.w	r2, r0, #129024	; 0x1f800
    296a:	f400 1324 	and.w	r3, r0, #2686976	; 0x290000
    296e:	ea42 4213 	orr.w	r2, r2, r3, lsr #16
    2972:	60ca      	str	r2, [r1, #12]
    2974:	f000 000f 	and.w	r0, r0, #15
    2978:	f8c1 0e10 	str.w	r0, [r1, #3600]	; 0xe10
    297c:	b001      	add	sp, #4
    297e:	4770      	bx	lr

00002980 <EnableIRQ>:
    2980:	b580      	push	{r7, lr}
    2982:	466f      	mov	r7, sp
    2984:	b082      	sub	sp, #8
    2986:	4601      	mov	r1, r0
    2988:	9101      	str	r1, [sp, #4]
    298a:	3080      	adds	r0, #128	; 0x80
    298c:	b918      	cbnz	r0, 2996 <EnableIRQ+0x16>
    298e:	e7ff      	b.n	2990 <EnableIRQ+0x10>
    2990:	2001      	movs	r0, #1
    2992:	9000      	str	r0, [sp, #0]
    2994:	e006      	b.n	29a4 <EnableIRQ+0x24>
    2996:	9801      	ldr	r0, [sp, #4]
    2998:	b240      	sxtb	r0, r0
    299a:	f000 f806 	bl	29aa <__NVIC_EnableIRQ>
    299e:	2000      	movs	r0, #0
    29a0:	9000      	str	r0, [sp, #0]
    29a2:	e7ff      	b.n	29a4 <EnableIRQ+0x24>
    29a4:	9800      	ldr	r0, [sp, #0]
    29a6:	b002      	add	sp, #8
    29a8:	bd80      	pop	{r7, pc}

000029aa <__NVIC_EnableIRQ>:
    29aa:	b081      	sub	sp, #4
    29ac:	4601      	mov	r1, r0
    29ae:	9100      	str	r1, [sp, #0]
    29b0:	2800      	cmp	r0, #0
    29b2:	d40e      	bmi.n	29d2 <__NVIC_EnableIRQ+0x28>
    29b4:	e7ff      	b.n	29b6 <__NVIC_EnableIRQ+0xc>
    29b6:	9800      	ldr	r0, [sp, #0]
    29b8:	b241      	sxtb	r1, r0
    29ba:	f001 021f 	and.w	r2, r1, #31
    29be:	2001      	movs	r0, #1
    29c0:	4090      	lsls	r0, r2
    29c2:	094a      	lsrs	r2, r1, #5
    29c4:	f24e 1100 	movw	r1, #57600	; 0xe100
    29c8:	f2ce 0100 	movt	r1, #57344	; 0xe000
    29cc:	f841 0022 	str.w	r0, [r1, r2, lsl #2]
    29d0:	e7ff      	b.n	29d2 <__NVIC_EnableIRQ+0x28>
    29d2:	b001      	add	sp, #4
    29d4:	4770      	bx	lr

000029d6 <BOARD_InitBootPins>:
    29d6:	b580      	push	{r7, lr}
    29d8:	466f      	mov	r7, sp
    29da:	f000 f805 	bl	29e8 <BOARD_InitDEBUG_UARTPins>
    29de:	f000 f81e 	bl	2a1e <BOARD_InitLEDsPins>
    29e2:	f000 f877 	bl	2ad4 <BOARD_InitPins_Core0>
    29e6:	bd80      	pop	{r7, pc}

000029e8 <BOARD_InitDEBUG_UARTPins>:
    29e8:	b580      	push	{r7, lr}
    29ea:	466f      	mov	r7, sp
    29ec:	b084      	sub	sp, #16
    29ee:	200d      	movs	r0, #13
    29f0:	f000 f871 	bl	2ad6 <CLOCK_EnableClock>
    29f4:	f241 0000 	movw	r0, #4096	; 0x1000
    29f8:	f2c4 0000 	movt	r0, #16384	; 0x4000
    29fc:	9001      	str	r0, [sp, #4]
    29fe:	2100      	movs	r1, #0
    2a00:	9102      	str	r1, [sp, #8]
    2a02:	221d      	movs	r2, #29
    2a04:	f240 1301 	movw	r3, #257	; 0x101
    2a08:	9303      	str	r3, [sp, #12]
    2a0a:	f000 f86f 	bl	2aec <IOCON_PinMuxSet>
    2a0e:	9801      	ldr	r0, [sp, #4]
    2a10:	9902      	ldr	r1, [sp, #8]
    2a12:	9b03      	ldr	r3, [sp, #12]
    2a14:	221e      	movs	r2, #30
    2a16:	f000 f869 	bl	2aec <IOCON_PinMuxSet>
    2a1a:	b004      	add	sp, #16
    2a1c:	bd80      	pop	{r7, pc}

00002a1e <BOARD_InitLEDsPins>:
    2a1e:	b580      	push	{r7, lr}
    2a20:	466f      	mov	r7, sp
    2a22:	b08a      	sub	sp, #40	; 0x28
    2a24:	200d      	movs	r0, #13
    2a26:	f000 f856 	bl	2ad6 <CLOCK_EnableClock>
    2a2a:	200f      	movs	r0, #15
    2a2c:	f000 f853 	bl	2ad6 <CLOCK_EnableClock>
    2a30:	f246 6150 	movw	r1, #26192	; 0x6650
    2a34:	f2c0 0100 	movt	r1, #0
    2a38:	7808      	ldrb	r0, [r1, #0]
    2a3a:	7849      	ldrb	r1, [r1, #1]
    2a3c:	ea40 2001 	orr.w	r0, r0, r1, lsl #8
    2a40:	f8ad 0024 	strh.w	r0, [sp, #36]	; 0x24
    2a44:	f24c 0000 	movw	r0, #49152	; 0xc000
    2a48:	f2c4 0008 	movt	r0, #16392	; 0x4008
    2a4c:	9000      	str	r0, [sp, #0]
    2a4e:	2101      	movs	r1, #1
    2a50:	9104      	str	r1, [sp, #16]
    2a52:	2204      	movs	r2, #4
    2a54:	9201      	str	r2, [sp, #4]
    2a56:	ab09      	add	r3, sp, #36	; 0x24
    2a58:	f7fe fe0e 	bl	1678 <GPIO_PinInit>
    2a5c:	9800      	ldr	r0, [sp, #0]
    2a5e:	9904      	ldr	r1, [sp, #16]
    2a60:	f246 6352 	movw	r3, #26194	; 0x6652
    2a64:	f2c0 0300 	movt	r3, #0
    2a68:	781a      	ldrb	r2, [r3, #0]
    2a6a:	785b      	ldrb	r3, [r3, #1]
    2a6c:	ea42 2203 	orr.w	r2, r2, r3, lsl #8
    2a70:	f8ad 2020 	strh.w	r2, [sp, #32]
    2a74:	2206      	movs	r2, #6
    2a76:	9202      	str	r2, [sp, #8]
    2a78:	ab08      	add	r3, sp, #32
    2a7a:	f7fe fdfd 	bl	1678 <GPIO_PinInit>
    2a7e:	9800      	ldr	r0, [sp, #0]
    2a80:	9904      	ldr	r1, [sp, #16]
    2a82:	f246 6354 	movw	r3, #26196	; 0x6654
    2a86:	f2c0 0300 	movt	r3, #0
    2a8a:	781a      	ldrb	r2, [r3, #0]
    2a8c:	785b      	ldrb	r3, [r3, #1]
    2a8e:	ea42 2203 	orr.w	r2, r2, r3, lsl #8
    2a92:	f8ad 201c 	strh.w	r2, [sp, #28]
    2a96:	2207      	movs	r2, #7
    2a98:	9205      	str	r2, [sp, #20]
    2a9a:	ab07      	add	r3, sp, #28
    2a9c:	f7fe fdec 	bl	1678 <GPIO_PinInit>
    2aa0:	9a01      	ldr	r2, [sp, #4]
    2aa2:	9904      	ldr	r1, [sp, #16]
    2aa4:	f241 0000 	movw	r0, #4096	; 0x1000
    2aa8:	f2c4 0000 	movt	r0, #16384	; 0x4000
    2aac:	9003      	str	r0, [sp, #12]
    2aae:	f44f 7390 	mov.w	r3, #288	; 0x120
    2ab2:	9306      	str	r3, [sp, #24]
    2ab4:	f000 f81a 	bl	2aec <IOCON_PinMuxSet>
    2ab8:	9a02      	ldr	r2, [sp, #8]
    2aba:	9803      	ldr	r0, [sp, #12]
    2abc:	9904      	ldr	r1, [sp, #16]
    2abe:	9b06      	ldr	r3, [sp, #24]
    2ac0:	f000 f814 	bl	2aec <IOCON_PinMuxSet>
    2ac4:	9803      	ldr	r0, [sp, #12]
    2ac6:	9904      	ldr	r1, [sp, #16]
    2ac8:	9a05      	ldr	r2, [sp, #20]
    2aca:	9b06      	ldr	r3, [sp, #24]
    2acc:	f000 f80e 	bl	2aec <IOCON_PinMuxSet>
    2ad0:	b00a      	add	sp, #40	; 0x28
    2ad2:	bd80      	pop	{r7, pc}

00002ad4 <BOARD_InitPins_Core0>:
    2ad4:	4770      	bx	lr

00002ad6 <CLOCK_EnableClock>:
    2ad6:	0a02      	lsrs	r2, r0, #8
    2ad8:	b2c1      	uxtb	r1, r0
    2ada:	2001      	movs	r0, #1
    2adc:	4088      	lsls	r0, r1
    2ade:	f240 2120 	movw	r1, #544	; 0x220
    2ae2:	f2c4 0100 	movt	r1, #16384	; 0x4000
    2ae6:	f841 0022 	str.w	r0, [r1, r2, lsl #2]
    2aea:	4770      	bx	lr

00002aec <IOCON_PinMuxSet>:
    2aec:	eb00 10c1 	add.w	r0, r0, r1, lsl #7
    2af0:	f840 3022 	str.w	r3, [r0, r2, lsl #2]
    2af4:	4770      	bx	lr

00002af6 <lock>:
    2af6:	b580      	push	{r7, lr}
    2af8:	466f      	mov	r7, sp
    2afa:	b082      	sub	sp, #8
    2afc:	f24c 0000 	movw	r0, #49152	; 0xc000
    2b00:	f2c4 0008 	movt	r0, #16392	; 0x4008
    2b04:	9000      	str	r0, [sp, #0]
    2b06:	2101      	movs	r1, #1
    2b08:	9101      	str	r1, [sp, #4]
    2b0a:	2206      	movs	r2, #6
    2b0c:	2300      	movs	r3, #0
    2b0e:	f000 f808 	bl	2b22 <GPIO_PinWrite>
    2b12:	9800      	ldr	r0, [sp, #0]
    2b14:	9b01      	ldr	r3, [sp, #4]
    2b16:	2207      	movs	r2, #7
    2b18:	4619      	mov	r1, r3
    2b1a:	f000 f802 	bl	2b22 <GPIO_PinWrite>
    2b1e:	b002      	add	sp, #8
    2b20:	bd80      	pop	{r7, pc}

00002b22 <GPIO_PinWrite>:
    2b22:	eb00 1041 	add.w	r0, r0, r1, lsl #5
    2b26:	5483      	strb	r3, [r0, r2]
    2b28:	4770      	bx	lr

00002b2a <unlock>:
    2b2a:	b580      	push	{r7, lr}
    2b2c:	466f      	mov	r7, sp
    2b2e:	b082      	sub	sp, #8
    2b30:	f24c 0000 	movw	r0, #49152	; 0xc000
    2b34:	f2c4 0008 	movt	r0, #16392	; 0x4008
    2b38:	9000      	str	r0, [sp, #0]
    2b3a:	2206      	movs	r2, #6
    2b3c:	2301      	movs	r3, #1
    2b3e:	9301      	str	r3, [sp, #4]
    2b40:	4619      	mov	r1, r3
    2b42:	f7ff ffee 	bl	2b22 <GPIO_PinWrite>
    2b46:	9800      	ldr	r0, [sp, #0]
    2b48:	9901      	ldr	r1, [sp, #4]
    2b4a:	2207      	movs	r2, #7
    2b4c:	2300      	movs	r3, #0
    2b4e:	f7ff ffe8 	bl	2b22 <GPIO_PinWrite>
    2b52:	b002      	add	sp, #8
    2b54:	bd80      	pop	{r7, pc}

00002b56 <clear_buffer>:
    2b56:	b580      	push	{r7, lr}
    2b58:	466f      	mov	r7, sp
    2b5a:	f640 2064 	movw	r0, #2660	; 0xa64
    2b5e:	f2c2 0000 	movt	r0, #8192	; 0x2000
    2b62:	2100      	movs	r1, #0
    2b64:	6001      	str	r1, [r0, #0]
    2b66:	f640 2024 	movw	r0, #2596	; 0xa24
    2b6a:	f2c2 0000 	movt	r0, #8192	; 0x2000
    2b6e:	223f      	movs	r2, #63	; 0x3f
    2b70:	f000 fca2 	bl	34b8 <memset>
    2b74:	bd80      	pop	{r7, pc}

00002b76 <match>:
    2b76:	b580      	push	{r7, lr}
    2b78:	466f      	mov	r7, sp
    2b7a:	b082      	sub	sp, #8
    2b7c:	f246 6156 	movw	r1, #26198	; 0x6656
    2b80:	f2c0 0100 	movt	r1, #0
    2b84:	2220      	movs	r2, #32
    2b86:	f000 fc69 	bl	345c <memcmp>
    2b8a:	b918      	cbnz	r0, 2b94 <match+0x1e>
    2b8c:	e7ff      	b.n	2b8e <match+0x18>
    2b8e:	2001      	movs	r0, #1
    2b90:	9001      	str	r0, [sp, #4]
    2b92:	e002      	b.n	2b9a <match+0x24>
    2b94:	2000      	movs	r0, #0
    2b96:	9001      	str	r0, [sp, #4]
    2b98:	e7ff      	b.n	2b9a <match+0x24>
    2b9a:	9801      	ldr	r0, [sp, #4]
    2b9c:	f000 0001 	and.w	r0, r0, #1
    2ba0:	b002      	add	sp, #8
    2ba2:	bd80      	pop	{r7, pc}

00002ba4 <check>:
    2ba4:	b580      	push	{r7, lr}
    2ba6:	466f      	mov	r7, sp
    2ba8:	b08c      	sub	sp, #48	; 0x30
    2baa:	f640 2068 	movw	r0, #2664	; 0xa68
    2bae:	f2c2 0000 	movt	r0, #8192	; 0x2000
    2bb2:	7800      	ldrb	r0, [r0, #0]
    2bb4:	07c0      	lsls	r0, r0, #31
    2bb6:	b908      	cbnz	r0, 2bbc <check+0x18>
    2bb8:	e7ff      	b.n	2bba <check+0x16>
    2bba:	e05d      	b.n	2c78 <check+0xd4>
    2bbc:	200e      	movs	r0, #14
    2bbe:	f000 f85d 	bl	2c7c <DisableIRQ>
    2bc2:	f640 2064 	movw	r0, #2660	; 0xa64
    2bc6:	f2c2 0000 	movt	r0, #8192	; 0x2000
    2bca:	6803      	ldr	r3, [r0, #0]
    2bcc:	4669      	mov	r1, sp
    2bce:	a803      	add	r0, sp, #12
    2bd0:	6048      	str	r0, [r1, #4]
    2bd2:	a804      	add	r0, sp, #16
    2bd4:	6008      	str	r0, [r1, #0]
    2bd6:	f640 2224 	movw	r2, #2596	; 0xa24
    2bda:	f2c2 0200 	movt	r2, #8192	; 0x2000
    2bde:	f244 0000 	movw	r0, #16384	; 0x4000
    2be2:	f2c4 000a 	movt	r0, #16394	; 0x400a
    2be6:	2102      	movs	r1, #2
    2be8:	f7ff fa5a 	bl	20a0 <HASHCRYPT_SHA>
    2bec:	b908      	cbnz	r0, 2bf2 <check+0x4e>
    2bee:	e7ff      	b.n	2bf0 <check+0x4c>
    2bf0:	e00e      	b.n	2c10 <check+0x6c>
    2bf2:	f246 6076 	movw	r0, #26230	; 0x6676
    2bf6:	f2c0 0000 	movt	r0, #0
    2bfa:	f246 6284 	movw	r2, #26244	; 0x6684
    2bfe:	f2c0 0200 	movt	r2, #0
    2c02:	f246 638a 	movw	r3, #26250	; 0x668a
    2c06:	f2c0 0300 	movt	r3, #0
    2c0a:	215f      	movs	r1, #95	; 0x5f
    2c0c:	f000 f900 	bl	2e10 <__assert_func>
    2c10:	9803      	ldr	r0, [sp, #12]
    2c12:	2820      	cmp	r0, #32
    2c14:	d101      	bne.n	2c1a <check+0x76>
    2c16:	e7ff      	b.n	2c18 <check+0x74>
    2c18:	e00e      	b.n	2c38 <check+0x94>
    2c1a:	f246 6076 	movw	r0, #26230	; 0x6676
    2c1e:	f2c0 0000 	movt	r0, #0
    2c22:	f246 6284 	movw	r2, #26244	; 0x6684
    2c26:	f2c0 0200 	movt	r2, #0
    2c2a:	f246 63a4 	movw	r3, #26276	; 0x66a4
    2c2e:	f2c0 0300 	movt	r3, #0
    2c32:	2160      	movs	r1, #96	; 0x60
    2c34:	f000 f8ec 	bl	2e10 <__assert_func>
    2c38:	a804      	add	r0, sp, #16
    2c3a:	f7ff ff9c 	bl	2b76 <match>
    2c3e:	b178      	cbz	r0, 2c60 <check+0xbc>
    2c40:	e7ff      	b.n	2c42 <check+0x9e>
    2c42:	f7ff ff72 	bl	2b2a <unlock>
    2c46:	f24c 60c0 	movw	r0, #50880	; 0xc6c0
    2c4a:	f2c0 002d 	movt	r0, #45	; 0x2d
    2c4e:	f24d 1180 	movw	r1, #53632	; 0xd180
    2c52:	f6c0 01f0 	movt	r1, #2288	; 0x8f0
    2c56:	f7fd feb9 	bl	9cc <SDK_DelayAtLeastUs>
    2c5a:	f7ff ff4c 	bl	2af6 <lock>
    2c5e:	e7ff      	b.n	2c60 <check+0xbc>
    2c60:	200e      	movs	r0, #14
    2c62:	f000 f820 	bl	2ca6 <EnableIRQ>
    2c66:	f7ff ff76 	bl	2b56 <clear_buffer>
    2c6a:	f640 2168 	movw	r1, #2664	; 0xa68
    2c6e:	f2c2 0100 	movt	r1, #8192	; 0x2000
    2c72:	2000      	movs	r0, #0
    2c74:	7008      	strb	r0, [r1, #0]
    2c76:	e7ff      	b.n	2c78 <check+0xd4>
    2c78:	b00c      	add	sp, #48	; 0x30
    2c7a:	bd80      	pop	{r7, pc}

00002c7c <DisableIRQ>:
    2c7c:	b580      	push	{r7, lr}
    2c7e:	466f      	mov	r7, sp
    2c80:	b082      	sub	sp, #8
    2c82:	4601      	mov	r1, r0
    2c84:	9101      	str	r1, [sp, #4]
    2c86:	3080      	adds	r0, #128	; 0x80
    2c88:	b918      	cbnz	r0, 2c92 <DisableIRQ+0x16>
    2c8a:	e7ff      	b.n	2c8c <DisableIRQ+0x10>
    2c8c:	2001      	movs	r0, #1
    2c8e:	9000      	str	r0, [sp, #0]
    2c90:	e006      	b.n	2ca0 <DisableIRQ+0x24>
    2c92:	9801      	ldr	r0, [sp, #4]
    2c94:	b240      	sxtb	r0, r0
    2c96:	f000 f87a 	bl	2d8e <__NVIC_DisableIRQ>
    2c9a:	2000      	movs	r0, #0
    2c9c:	9000      	str	r0, [sp, #0]
    2c9e:	e7ff      	b.n	2ca0 <DisableIRQ+0x24>
    2ca0:	9800      	ldr	r0, [sp, #0]
    2ca2:	b002      	add	sp, #8
    2ca4:	bd80      	pop	{r7, pc}

00002ca6 <EnableIRQ>:
    2ca6:	b580      	push	{r7, lr}
    2ca8:	466f      	mov	r7, sp
    2caa:	b082      	sub	sp, #8
    2cac:	4601      	mov	r1, r0
    2cae:	9101      	str	r1, [sp, #4]
    2cb0:	3080      	adds	r0, #128	; 0x80
    2cb2:	b918      	cbnz	r0, 2cbc <EnableIRQ+0x16>
    2cb4:	e7ff      	b.n	2cb6 <EnableIRQ+0x10>
    2cb6:	2001      	movs	r0, #1
    2cb8:	9000      	str	r0, [sp, #0]
    2cba:	e006      	b.n	2cca <EnableIRQ+0x24>
    2cbc:	9801      	ldr	r0, [sp, #4]
    2cbe:	b240      	sxtb	r0, r0
    2cc0:	f000 f87f 	bl	2dc2 <__NVIC_EnableIRQ>
    2cc4:	2000      	movs	r0, #0
    2cc6:	9000      	str	r0, [sp, #0]
    2cc8:	e7ff      	b.n	2cca <EnableIRQ+0x24>
    2cca:	9800      	ldr	r0, [sp, #0]
    2ccc:	b002      	add	sp, #8
    2cce:	bd80      	pop	{r7, pc}

00002cd0 <main>:
    2cd0:	b580      	push	{r7, lr}
    2cd2:	466f      	mov	r7, sp
    2cd4:	f7ff fe7f 	bl	29d6 <BOARD_InitBootPins>
    2cd8:	f7ff fd92 	bl	2800 <BOARD_InitBootClocks>
    2cdc:	f7ff fe3a 	bl	2954 <BOARD_InitBootPeripherals>
    2ce0:	f7ff ff09 	bl	2af6 <lock>
    2ce4:	e7ff      	b.n	2ce6 <main+0x16>
    2ce6:	f7ff ff5d 	bl	2ba4 <check>
    2cea:	e7fc      	b.n	2ce6 <main+0x16>

00002cec <FLEXCOMM0_IRQHandler>:
    2cec:	b580      	push	{r7, lr}
    2cee:	466f      	mov	r7, sp
    2cf0:	b082      	sub	sp, #8
    2cf2:	f246 0000 	movw	r0, #24576	; 0x6000
    2cf6:	f2c4 0008 	movt	r0, #16392	; 0x4008
    2cfa:	f000 f833 	bl	2d64 <USART_GetStatusFlags>
    2cfe:	0640      	lsls	r0, r0, #25
    2d00:	2800      	cmp	r0, #0
    2d02:	d52d      	bpl.n	2d60 <FLEXCOMM0_IRQHandler+0x74>
    2d04:	e7ff      	b.n	2d06 <FLEXCOMM0_IRQHandler+0x1a>
    2d06:	f246 0000 	movw	r0, #24576	; 0x6000
    2d0a:	f2c4 0008 	movt	r0, #16392	; 0x4008
    2d0e:	f000 f83a 	bl	2d86 <USART_ReadByte>
    2d12:	f807 0c01 	strb.w	r0, [r7, #-1]
    2d16:	f817 0c01 	ldrb.w	r0, [r7, #-1]
    2d1a:	280d      	cmp	r0, #13
    2d1c:	d107      	bne.n	2d2e <FLEXCOMM0_IRQHandler+0x42>
    2d1e:	e7ff      	b.n	2d20 <FLEXCOMM0_IRQHandler+0x34>
    2d20:	f640 2168 	movw	r1, #2664	; 0xa68
    2d24:	f2c2 0100 	movt	r1, #8192	; 0x2000
    2d28:	2001      	movs	r0, #1
    2d2a:	7008      	strb	r0, [r1, #0]
    2d2c:	e018      	b.n	2d60 <FLEXCOMM0_IRQHandler+0x74>
    2d2e:	f640 2064 	movw	r0, #2660	; 0xa64
    2d32:	f2c2 0000 	movt	r0, #8192	; 0x2000
    2d36:	6800      	ldr	r0, [r0, #0]
    2d38:	283e      	cmp	r0, #62	; 0x3e
    2d3a:	d810      	bhi.n	2d5e <FLEXCOMM0_IRQHandler+0x72>
    2d3c:	e7ff      	b.n	2d3e <FLEXCOMM0_IRQHandler+0x52>
    2d3e:	f817 0c01 	ldrb.w	r0, [r7, #-1]
    2d42:	f640 2164 	movw	r1, #2660	; 0xa64
    2d46:	f2c2 0100 	movt	r1, #8192	; 0x2000
    2d4a:	680b      	ldr	r3, [r1, #0]
    2d4c:	f640 2224 	movw	r2, #2596	; 0xa24
    2d50:	f2c2 0200 	movt	r2, #8192	; 0x2000
    2d54:	54d0      	strb	r0, [r2, r3]
    2d56:	6808      	ldr	r0, [r1, #0]
    2d58:	3001      	adds	r0, #1
    2d5a:	6008      	str	r0, [r1, #0]
    2d5c:	e7ff      	b.n	2d5e <FLEXCOMM0_IRQHandler+0x72>
    2d5e:	e7ff      	b.n	2d60 <FLEXCOMM0_IRQHandler+0x74>
    2d60:	b002      	add	sp, #8
    2d62:	bd80      	pop	{r7, pc}

00002d64 <USART_GetStatusFlags>:
    2d64:	4601      	mov	r1, r0
    2d66:	f8d1 0e04 	ldr.w	r0, [r1, #3588]	; 0xe04
    2d6a:	f36f 2017 	bfc	r0, #8, #16
    2d6e:	688a      	ldr	r2, [r1, #8]
    2d70:	b2d2      	uxtb	r2, r2
    2d72:	ea40 4002 	orr.w	r0, r0, r2, lsl #16
    2d76:	6889      	ldr	r1, [r1, #8]
    2d78:	f64f 7200 	movw	r2, #65280	; 0xff00
    2d7c:	f2c0 02ff 	movt	r2, #255	; 0xff
    2d80:	4011      	ands	r1, r2
    2d82:	4308      	orrs	r0, r1
    2d84:	4770      	bx	lr

00002d86 <USART_ReadByte>:
    2d86:	f8d0 0e30 	ldr.w	r0, [r0, #3632]	; 0xe30
    2d8a:	b2c0      	uxtb	r0, r0
    2d8c:	4770      	bx	lr

00002d8e <__NVIC_DisableIRQ>:
    2d8e:	b081      	sub	sp, #4
    2d90:	4601      	mov	r1, r0
    2d92:	9100      	str	r1, [sp, #0]
    2d94:	2800      	cmp	r0, #0
    2d96:	d412      	bmi.n	2dbe <__NVIC_DisableIRQ+0x30>
    2d98:	e7ff      	b.n	2d9a <__NVIC_DisableIRQ+0xc>
    2d9a:	9800      	ldr	r0, [sp, #0]
    2d9c:	b241      	sxtb	r1, r0
    2d9e:	f001 021f 	and.w	r2, r1, #31
    2da2:	2001      	movs	r0, #1
    2da4:	4090      	lsls	r0, r2
    2da6:	094a      	lsrs	r2, r1, #5
    2da8:	f24e 1180 	movw	r1, #57728	; 0xe180
    2dac:	f2ce 0100 	movt	r1, #57344	; 0xe000
    2db0:	f841 0022 	str.w	r0, [r1, r2, lsl #2]
    2db4:	f3bf 8f4f 	dsb	sy
    2db8:	f3bf 8f6f 	isb	sy
    2dbc:	e7ff      	b.n	2dbe <__NVIC_DisableIRQ+0x30>
    2dbe:	b001      	add	sp, #4
    2dc0:	4770      	bx	lr

00002dc2 <__NVIC_EnableIRQ>:
    2dc2:	b081      	sub	sp, #4
    2dc4:	4601      	mov	r1, r0
    2dc6:	9100      	str	r1, [sp, #0]
    2dc8:	2800      	cmp	r0, #0
    2dca:	d40e      	bmi.n	2dea <__NVIC_EnableIRQ+0x28>
    2dcc:	e7ff      	b.n	2dce <__NVIC_EnableIRQ+0xc>
    2dce:	9800      	ldr	r0, [sp, #0]
    2dd0:	b241      	sxtb	r1, r0
    2dd2:	f001 021f 	and.w	r2, r1, #31
    2dd6:	2001      	movs	r0, #1
    2dd8:	4090      	lsls	r0, r2
    2dda:	094a      	lsrs	r2, r1, #5
    2ddc:	f24e 1100 	movw	r1, #57600	; 0xe100
    2de0:	f2ce 0100 	movt	r1, #57344	; 0xe000
    2de4:	f841 0022 	str.w	r0, [r1, r2, lsl #2]
    2de8:	e7ff      	b.n	2dea <__NVIC_EnableIRQ+0x28>
    2dea:	b001      	add	sp, #4
    2dec:	4770      	bx	lr

00002dee <SysTick_Handler>:
    2dee:	f640 206c 	movw	r0, #2668	; 0xa6c
    2df2:	f2c2 0000 	movt	r0, #8192	; 0x2000
    2df6:	6800      	ldr	r0, [r0, #0]
    2df8:	b140      	cbz	r0, 2e0c <SysTick_Handler+0x1e>
    2dfa:	e7ff      	b.n	2dfc <SysTick_Handler+0xe>
    2dfc:	f640 216c 	movw	r1, #2668	; 0xa6c
    2e00:	f2c2 0100 	movt	r1, #8192	; 0x2000
    2e04:	6808      	ldr	r0, [r1, #0]
    2e06:	3801      	subs	r0, #1
    2e08:	6008      	str	r0, [r1, #0]
    2e0a:	e7ff      	b.n	2e0c <SysTick_Handler+0x1e>
    2e0c:	4770      	bx	lr
	...

00002e10 <__assert_func>:
    2e10:	4d0a      	ldr	r5, [pc, #40]	; (2e3c <__assert_func+0x2c>)
    2e12:	4614      	mov	r4, r2
    2e14:	461a      	mov	r2, r3
    2e16:	4603      	mov	r3, r0
    2e18:	682e      	ldr	r6, [r5, #0]
    2e1a:	460d      	mov	r5, r1
    2e1c:	b500      	push	{lr}
    2e1e:	68f0      	ldr	r0, [r6, #12]
    2e20:	b085      	sub	sp, #20
    2e22:	b144      	cbz	r4, 2e36 <__assert_func+0x26>
    2e24:	4906      	ldr	r1, [pc, #24]	; (2e40 <__assert_func+0x30>)
    2e26:	9500      	str	r5, [sp, #0]
    2e28:	e9cd 1401 	strd	r1, r4, [sp, #4]
    2e2c:	4905      	ldr	r1, [pc, #20]	; (2e44 <__assert_func+0x34>)
    2e2e:	f000 f81d 	bl	2e6c <fiprintf>
    2e32:	f001 fcad 	bl	4790 <abort>
    2e36:	4904      	ldr	r1, [pc, #16]	; (2e48 <__assert_func+0x38>)
    2e38:	460c      	mov	r4, r1
    2e3a:	e7f4      	b.n	2e26 <__assert_func+0x16>
    2e3c:	20000008 	.word	0x20000008
    2e40:	000066b8 	.word	0x000066b8
    2e44:	000066c8 	.word	0x000066c8
    2e48:	000066c4 	.word	0x000066c4

00002e4c <exit>:
    2e4c:	b508      	push	{r3, lr}
    2e4e:	2100      	movs	r1, #0
    2e50:	4604      	mov	r4, r0
    2e52:	f001 fc3f 	bl	46d4 <__call_exitprocs>
    2e56:	4b04      	ldr	r3, [pc, #16]	; (2e68 <exit+0x1c>)
    2e58:	6818      	ldr	r0, [r3, #0]
    2e5a:	6bc3      	ldr	r3, [r0, #60]	; 0x3c
    2e5c:	b103      	cbz	r3, 2e60 <exit+0x14>
    2e5e:	4798      	blx	r3
    2e60:	4620      	mov	r0, r4
    2e62:	f003 f83f 	bl	5ee4 <_exit>
    2e66:	bf00      	nop
    2e68:	000066f8 	.word	0x000066f8

00002e6c <fiprintf>:
    2e6c:	b40e      	push	{r1, r2, r3}
    2e6e:	b510      	push	{r4, lr}
    2e70:	b083      	sub	sp, #12
    2e72:	4c07      	ldr	r4, [pc, #28]	; (2e90 <fiprintf+0x24>)
    2e74:	4601      	mov	r1, r0
    2e76:	ab05      	add	r3, sp, #20
    2e78:	6820      	ldr	r0, [r4, #0]
    2e7a:	f853 2b04 	ldr.w	r2, [r3], #4
    2e7e:	9301      	str	r3, [sp, #4]
    2e80:	f000 fbc4 	bl	360c <_vfiprintf_r>
    2e84:	b003      	add	sp, #12
    2e86:	e8bd 4010 	ldmia.w	sp!, {r4, lr}
    2e8a:	b003      	add	sp, #12
    2e8c:	4770      	bx	lr
    2e8e:	bf00      	nop
    2e90:	20000008 	.word	0x20000008

00002e94 <__libc_init_array>:
    2e94:	b570      	push	{r4, r5, r6, lr}
    2e96:	4e0d      	ldr	r6, [pc, #52]	; (2ecc <__libc_init_array+0x38>)
    2e98:	4d0d      	ldr	r5, [pc, #52]	; (2ed0 <__libc_init_array+0x3c>)
    2e9a:	1b76      	subs	r6, r6, r5
    2e9c:	10b6      	asrs	r6, r6, #2
    2e9e:	d006      	beq.n	2eae <__libc_init_array+0x1a>
    2ea0:	2400      	movs	r4, #0
    2ea2:	3401      	adds	r4, #1
    2ea4:	f855 3b04 	ldr.w	r3, [r5], #4
    2ea8:	4798      	blx	r3
    2eaa:	42a6      	cmp	r6, r4
    2eac:	d1f9      	bne.n	2ea2 <__libc_init_array+0xe>
    2eae:	4e09      	ldr	r6, [pc, #36]	; (2ed4 <__libc_init_array+0x40>)
    2eb0:	f003 fcf2 	bl	6898 <_init>
    2eb4:	4d08      	ldr	r5, [pc, #32]	; (2ed8 <__libc_init_array+0x44>)
    2eb6:	1b76      	subs	r6, r6, r5
    2eb8:	10b6      	asrs	r6, r6, #2
    2eba:	d006      	beq.n	2eca <__libc_init_array+0x36>
    2ebc:	2400      	movs	r4, #0
    2ebe:	3401      	adds	r4, #1
    2ec0:	f855 3b04 	ldr.w	r3, [r5], #4
    2ec4:	4798      	blx	r3
    2ec6:	42a6      	cmp	r6, r4
    2ec8:	d1f9      	bne.n	2ebe <__libc_init_array+0x2a>
    2eca:	bd70      	pop	{r4, r5, r6, pc}
    2ecc:	000068b8 	.word	0x000068b8
    2ed0:	000068b8 	.word	0x000068b8
    2ed4:	000068c0 	.word	0x000068c0
    2ed8:	000068b8 	.word	0x000068b8

00002edc <_malloc_r>:
    2edc:	f101 030b 	add.w	r3, r1, #11
    2ee0:	2b16      	cmp	r3, #22
    2ee2:	e92d 4ff0 	stmdb	sp!, {r4, r5, r6, r7, r8, r9, sl, fp, lr}
    2ee6:	4605      	mov	r5, r0
    2ee8:	b083      	sub	sp, #12
    2eea:	d824      	bhi.n	2f36 <_malloc_r+0x5a>
    2eec:	2910      	cmp	r1, #16
    2eee:	f200 80f6 	bhi.w	30de <_malloc_r+0x202>
    2ef2:	f000 fb33 	bl	355c <__malloc_lock>
    2ef6:	2410      	movs	r4, #16
    2ef8:	2218      	movs	r2, #24
    2efa:	2002      	movs	r0, #2
    2efc:	4ebb      	ldr	r6, [pc, #748]	; (31ec <_malloc_r+0x310>)
    2efe:	4432      	add	r2, r6
    2f00:	6853      	ldr	r3, [r2, #4]
    2f02:	f1a2 0108 	sub.w	r1, r2, #8
    2f06:	428b      	cmp	r3, r1
    2f08:	f000 80f0 	beq.w	30ec <_malloc_r+0x210>
    2f0c:	685a      	ldr	r2, [r3, #4]
    2f0e:	4628      	mov	r0, r5
    2f10:	f022 0203 	bic.w	r2, r2, #3
    2f14:	e9d3 4102 	ldrd	r4, r1, [r3, #8]
    2f18:	441a      	add	r2, r3
    2f1a:	60e1      	str	r1, [r4, #12]
    2f1c:	608c      	str	r4, [r1, #8]
    2f1e:	f103 0408 	add.w	r4, r3, #8
    2f22:	6853      	ldr	r3, [r2, #4]
    2f24:	f043 0301 	orr.w	r3, r3, #1
    2f28:	6053      	str	r3, [r2, #4]
    2f2a:	f000 fb1d 	bl	3568 <__malloc_unlock>
    2f2e:	4620      	mov	r0, r4
    2f30:	b003      	add	sp, #12
    2f32:	e8bd 8ff0 	ldmia.w	sp!, {r4, r5, r6, r7, r8, r9, sl, fp, pc}
    2f36:	2b00      	cmp	r3, #0
    2f38:	f023 0407 	bic.w	r4, r3, #7
    2f3c:	f2c0 80cf 	blt.w	30de <_malloc_r+0x202>
    2f40:	42a1      	cmp	r1, r4
    2f42:	f200 80cc 	bhi.w	30de <_malloc_r+0x202>
    2f46:	f000 fb09 	bl	355c <__malloc_lock>
    2f4a:	f5b4 7ffc 	cmp.w	r4, #504	; 0x1f8
    2f4e:	f0c0 81c4 	bcc.w	32da <_malloc_r+0x3fe>
    2f52:	0a63      	lsrs	r3, r4, #9
    2f54:	f000 8129 	beq.w	31aa <_malloc_r+0x2ce>
    2f58:	2b04      	cmp	r3, #4
    2f5a:	f200 818e 	bhi.w	327a <_malloc_r+0x39e>
    2f5e:	09a3      	lsrs	r3, r4, #6
    2f60:	f103 0039 	add.w	r0, r3, #57	; 0x39
    2f64:	f103 0738 	add.w	r7, r3, #56	; 0x38
    2f68:	00c3      	lsls	r3, r0, #3
    2f6a:	4ea0      	ldr	r6, [pc, #640]	; (31ec <_malloc_r+0x310>)
    2f6c:	4433      	add	r3, r6
    2f6e:	f1a3 0c08 	sub.w	ip, r3, #8
    2f72:	685b      	ldr	r3, [r3, #4]
    2f74:	459c      	cmp	ip, r3
    2f76:	d107      	bne.n	2f88 <_malloc_r+0xac>
    2f78:	e0bd      	b.n	30f6 <_malloc_r+0x21a>
    2f7a:	2900      	cmp	r1, #0
    2f7c:	f280 8146 	bge.w	320c <_malloc_r+0x330>
    2f80:	68db      	ldr	r3, [r3, #12]
    2f82:	459c      	cmp	ip, r3
    2f84:	f000 80b7 	beq.w	30f6 <_malloc_r+0x21a>
    2f88:	685a      	ldr	r2, [r3, #4]
    2f8a:	f022 0203 	bic.w	r2, r2, #3
    2f8e:	1b11      	subs	r1, r2, r4
    2f90:	290f      	cmp	r1, #15
    2f92:	ddf2      	ble.n	2f7a <_malloc_r+0x9e>
    2f94:	6933      	ldr	r3, [r6, #16]
    2f96:	4638      	mov	r0, r7
    2f98:	f8df c268 	ldr.w	ip, [pc, #616]	; 3204 <_malloc_r+0x328>
    2f9c:	4563      	cmp	r3, ip
    2f9e:	f040 80b0 	bne.w	3102 <_malloc_r+0x226>
    2fa2:	1083      	asrs	r3, r0, #2
    2fa4:	f04f 0801 	mov.w	r8, #1
    2fa8:	6871      	ldr	r1, [r6, #4]
    2faa:	fa08 f803 	lsl.w	r8, r8, r3
    2fae:	4588      	cmp	r8, r1
    2fb0:	f240 80d2 	bls.w	3158 <_malloc_r+0x27c>
    2fb4:	68b7      	ldr	r7, [r6, #8]
    2fb6:	687b      	ldr	r3, [r7, #4]
    2fb8:	f023 0903 	bic.w	r9, r3, #3
    2fbc:	eba9 0304 	sub.w	r3, r9, r4
    2fc0:	2b0f      	cmp	r3, #15
    2fc2:	dd02      	ble.n	2fca <_malloc_r+0xee>
    2fc4:	454c      	cmp	r4, r9
    2fc6:	f240 8100 	bls.w	31ca <_malloc_r+0x2ee>
    2fca:	4b89      	ldr	r3, [pc, #548]	; (31f0 <_malloc_r+0x314>)
    2fcc:	eb07 0b09 	add.w	fp, r7, r9
    2fd0:	681b      	ldr	r3, [r3, #0]
    2fd2:	eb04 0803 	add.w	r8, r4, r3
    2fd6:	4b87      	ldr	r3, [pc, #540]	; (31f4 <_malloc_r+0x318>)
    2fd8:	681a      	ldr	r2, [r3, #0]
    2fda:	3201      	adds	r2, #1
    2fdc:	f000 81ce 	beq.w	337c <_malloc_r+0x4a0>
    2fe0:	f241 020f 	movw	r2, #4111	; 0x100f
    2fe4:	4442      	add	r2, r8
    2fe6:	f8df 8220 	ldr.w	r8, [pc, #544]	; 3208 <_malloc_r+0x32c>
    2fea:	ea02 0808 	and.w	r8, r2, r8
    2fee:	4641      	mov	r1, r8
    2ff0:	4628      	mov	r0, r5
    2ff2:	f000 fabf 	bl	3574 <_sbrk_r>
    2ff6:	f1b0 3fff 	cmp.w	r0, #4294967295	; 0xffffffff
    2ffa:	4682      	mov	sl, r0
    2ffc:	4b7d      	ldr	r3, [pc, #500]	; (31f4 <_malloc_r+0x318>)
    2ffe:	f000 81ac 	beq.w	335a <_malloc_r+0x47e>
    3002:	42b7      	cmp	r7, r6
    3004:	d002      	beq.n	300c <_malloc_r+0x130>
    3006:	4583      	cmp	fp, r0
    3008:	f200 81a7 	bhi.w	335a <_malloc_r+0x47e>
    300c:	4a7a      	ldr	r2, [pc, #488]	; (31f8 <_malloc_r+0x31c>)
    300e:	45d3      	cmp	fp, sl
    3010:	6811      	ldr	r1, [r2, #0]
    3012:	4441      	add	r1, r8
    3014:	6011      	str	r1, [r2, #0]
    3016:	f000 81a3 	beq.w	3360 <_malloc_r+0x484>
    301a:	6818      	ldr	r0, [r3, #0]
    301c:	3001      	adds	r0, #1
    301e:	f000 81aa 	beq.w	3376 <_malloc_r+0x49a>
    3022:	ebaa 030b 	sub.w	r3, sl, fp
    3026:	440b      	add	r3, r1
    3028:	6013      	str	r3, [r2, #0]
    302a:	f01a 0307 	ands.w	r3, sl, #7
    302e:	f000 81b0 	beq.w	3392 <_malloc_r+0x4b6>
    3032:	f1c3 0108 	rsb	r1, r3, #8
    3036:	4628      	mov	r0, r5
    3038:	9301      	str	r3, [sp, #4]
    303a:	448a      	add	sl, r1
    303c:	f241 0108 	movw	r1, #4104	; 0x1008
    3040:	44d0      	add	r8, sl
    3042:	1ac9      	subs	r1, r1, r3
    3044:	eba1 0108 	sub.w	r1, r1, r8
    3048:	f3c1 0b0b 	ubfx	fp, r1, #0, #12
    304c:	4659      	mov	r1, fp
    304e:	f000 fa91 	bl	3574 <_sbrk_r>
    3052:	1c42      	adds	r2, r0, #1
    3054:	9b01      	ldr	r3, [sp, #4]
    3056:	4a68      	ldr	r2, [pc, #416]	; (31f8 <_malloc_r+0x31c>)
    3058:	f000 81e2 	beq.w	3420 <_malloc_r+0x544>
    305c:	eba0 000a 	sub.w	r0, r0, sl
    3060:	eb00 080b 	add.w	r8, r0, fp
    3064:	6810      	ldr	r0, [r2, #0]
    3066:	f048 0301 	orr.w	r3, r8, #1
    306a:	42b7      	cmp	r7, r6
    306c:	f8c6 a008 	str.w	sl, [r6, #8]
    3070:	eb0b 0100 	add.w	r1, fp, r0
    3074:	f8ca 3004 	str.w	r3, [sl, #4]
    3078:	6011      	str	r1, [r2, #0]
    307a:	f000 81ad 	beq.w	33d8 <_malloc_r+0x4fc>
    307e:	f1b9 0f0f 	cmp.w	r9, #15
    3082:	f240 81ab 	bls.w	33dc <_malloc_r+0x500>
    3086:	687b      	ldr	r3, [r7, #4]
    3088:	f1a9 000c 	sub.w	r0, r9, #12
    308c:	f04f 0c05 	mov.w	ip, #5
    3090:	f020 0007 	bic.w	r0, r0, #7
    3094:	f003 0301 	and.w	r3, r3, #1
    3098:	4303      	orrs	r3, r0
    309a:	280f      	cmp	r0, #15
    309c:	607b      	str	r3, [r7, #4]
    309e:	eb07 0300 	add.w	r3, r7, r0
    30a2:	e9c3 cc01 	strd	ip, ip, [r3, #4]
    30a6:	f200 81b1 	bhi.w	340c <_malloc_r+0x530>
    30aa:	f8da 3004 	ldr.w	r3, [sl, #4]
    30ae:	4657      	mov	r7, sl
    30b0:	4a52      	ldr	r2, [pc, #328]	; (31fc <_malloc_r+0x320>)
    30b2:	6810      	ldr	r0, [r2, #0]
    30b4:	4288      	cmp	r0, r1
    30b6:	bf38      	it	cc
    30b8:	6011      	strcc	r1, [r2, #0]
    30ba:	4a51      	ldr	r2, [pc, #324]	; (3200 <_malloc_r+0x324>)
    30bc:	6810      	ldr	r0, [r2, #0]
    30be:	4288      	cmp	r0, r1
    30c0:	bf38      	it	cc
    30c2:	6011      	strcc	r1, [r2, #0]
    30c4:	f023 0803 	bic.w	r8, r3, #3
    30c8:	4544      	cmp	r4, r8
    30ca:	eba8 0304 	sub.w	r3, r8, r4
    30ce:	d801      	bhi.n	30d4 <_malloc_r+0x1f8>
    30d0:	2b0f      	cmp	r3, #15
    30d2:	dc7a      	bgt.n	31ca <_malloc_r+0x2ee>
    30d4:	4628      	mov	r0, r5
    30d6:	2400      	movs	r4, #0
    30d8:	f000 fa46 	bl	3568 <__malloc_unlock>
    30dc:	e727      	b.n	2f2e <_malloc_r+0x52>
    30de:	2400      	movs	r4, #0
    30e0:	230c      	movs	r3, #12
    30e2:	4620      	mov	r0, r4
    30e4:	602b      	str	r3, [r5, #0]
    30e6:	b003      	add	sp, #12
    30e8:	e8bd 8ff0 	ldmia.w	sp!, {r4, r5, r6, r7, r8, r9, sl, fp, pc}
    30ec:	68d3      	ldr	r3, [r2, #12]
    30ee:	429a      	cmp	r2, r3
    30f0:	f47f af0c 	bne.w	2f0c <_malloc_r+0x30>
    30f4:	3002      	adds	r0, #2
    30f6:	6933      	ldr	r3, [r6, #16]
    30f8:	f8df c108 	ldr.w	ip, [pc, #264]	; 3204 <_malloc_r+0x328>
    30fc:	4563      	cmp	r3, ip
    30fe:	f43f af50 	beq.w	2fa2 <_malloc_r+0xc6>
    3102:	685f      	ldr	r7, [r3, #4]
    3104:	f027 0703 	bic.w	r7, r7, #3
    3108:	1b3a      	subs	r2, r7, r4
    310a:	2a0f      	cmp	r2, #15
    310c:	f300 80e9 	bgt.w	32e2 <_malloc_r+0x406>
    3110:	2a00      	cmp	r2, #0
    3112:	e9c6 cc04 	strd	ip, ip, [r6, #16]
    3116:	da4d      	bge.n	31b4 <_malloc_r+0x2d8>
    3118:	f5b7 7f00 	cmp.w	r7, #512	; 0x200
    311c:	f080 8088 	bcs.w	3230 <_malloc_r+0x354>
    3120:	ea4f 0ed7 	mov.w	lr, r7, lsr #3
    3124:	2101      	movs	r1, #1
    3126:	097f      	lsrs	r7, r7, #5
    3128:	6872      	ldr	r2, [r6, #4]
    312a:	f10e 0e01 	add.w	lr, lr, #1
    312e:	40b9      	lsls	r1, r7
    3130:	f856 703e 	ldr.w	r7, [r6, lr, lsl #3]
    3134:	4311      	orrs	r1, r2
    3136:	eb06 02ce 	add.w	r2, r6, lr, lsl #3
    313a:	3a08      	subs	r2, #8
    313c:	6071      	str	r1, [r6, #4]
    313e:	e9c3 7202 	strd	r7, r2, [r3, #8]
    3142:	f846 303e 	str.w	r3, [r6, lr, lsl #3]
    3146:	60fb      	str	r3, [r7, #12]
    3148:	1083      	asrs	r3, r0, #2
    314a:	f04f 0801 	mov.w	r8, #1
    314e:	fa08 f803 	lsl.w	r8, r8, r3
    3152:	4588      	cmp	r8, r1
    3154:	f63f af2e 	bhi.w	2fb4 <_malloc_r+0xd8>
    3158:	ea18 0f01 	tst.w	r8, r1
    315c:	d107      	bne.n	316e <_malloc_r+0x292>
    315e:	f020 0003 	bic.w	r0, r0, #3
    3162:	ea4f 0848 	mov.w	r8, r8, lsl #1
    3166:	3004      	adds	r0, #4
    3168:	ea18 0f01 	tst.w	r8, r1
    316c:	d0f9      	beq.n	3162 <_malloc_r+0x286>
    316e:	eb06 0ac0 	add.w	sl, r6, r0, lsl #3
    3172:	4681      	mov	r9, r0
    3174:	4651      	mov	r1, sl
    3176:	68cf      	ldr	r7, [r1, #12]
    3178:	e00e      	b.n	3198 <_malloc_r+0x2bc>
    317a:	687a      	ldr	r2, [r7, #4]
    317c:	463b      	mov	r3, r7
    317e:	68ff      	ldr	r7, [r7, #12]
    3180:	f022 0203 	bic.w	r2, r2, #3
    3184:	eba2 0e04 	sub.w	lr, r2, r4
    3188:	f1be 0f0f 	cmp.w	lr, #15
    318c:	f300 8081 	bgt.w	3292 <_malloc_r+0x3b6>
    3190:	f1be 0f00 	cmp.w	lr, #0
    3194:	f280 8093 	bge.w	32be <_malloc_r+0x3e2>
    3198:	42b9      	cmp	r1, r7
    319a:	d1ee      	bne.n	317a <_malloc_r+0x29e>
    319c:	f109 0901 	add.w	r9, r9, #1
    31a0:	3108      	adds	r1, #8
    31a2:	f019 0f03 	tst.w	r9, #3
    31a6:	d1e6      	bne.n	3176 <_malloc_r+0x29a>
    31a8:	e0be      	b.n	3328 <_malloc_r+0x44c>
    31aa:	f44f 7300 	mov.w	r3, #512	; 0x200
    31ae:	2040      	movs	r0, #64	; 0x40
    31b0:	273f      	movs	r7, #63	; 0x3f
    31b2:	e6da      	b.n	2f6a <_malloc_r+0x8e>
    31b4:	441f      	add	r7, r3
    31b6:	f103 0408 	add.w	r4, r3, #8
    31ba:	4628      	mov	r0, r5
    31bc:	687b      	ldr	r3, [r7, #4]
    31be:	f043 0301 	orr.w	r3, r3, #1
    31c2:	607b      	str	r3, [r7, #4]
    31c4:	f000 f9d0 	bl	3568 <__malloc_unlock>
    31c8:	e6b1      	b.n	2f2e <_malloc_r+0x52>
    31ca:	193a      	adds	r2, r7, r4
    31cc:	f044 0401 	orr.w	r4, r4, #1
    31d0:	f043 0301 	orr.w	r3, r3, #1
    31d4:	4628      	mov	r0, r5
    31d6:	607c      	str	r4, [r7, #4]
    31d8:	f107 0408 	add.w	r4, r7, #8
    31dc:	60b2      	str	r2, [r6, #8]
    31de:	6053      	str	r3, [r2, #4]
    31e0:	f000 f9c2 	bl	3568 <__malloc_unlock>
    31e4:	4620      	mov	r0, r4
    31e6:	b003      	add	sp, #12
    31e8:	e8bd 8ff0 	ldmia.w	sp!, {r4, r5, r6, r7, r8, r9, sl, fp, pc}
    31ec:	20000438 	.word	0x20000438
    31f0:	20000aa0 	.word	0x20000aa0
    31f4:	20000840 	.word	0x20000840
    31f8:	20000a70 	.word	0x20000a70
    31fc:	20000a98 	.word	0x20000a98
    3200:	20000a9c 	.word	0x20000a9c
    3204:	20000440 	.word	0x20000440
    3208:	fffff000 	.word	0xfffff000
    320c:	441a      	add	r2, r3
    320e:	f103 0408 	add.w	r4, r3, #8
    3212:	4628      	mov	r0, r5
    3214:	e9d3 6102 	ldrd	r6, r1, [r3, #8]
    3218:	6853      	ldr	r3, [r2, #4]
    321a:	60f1      	str	r1, [r6, #12]
    321c:	f043 0301 	orr.w	r3, r3, #1
    3220:	608e      	str	r6, [r1, #8]
    3222:	6053      	str	r3, [r2, #4]
    3224:	f000 f9a0 	bl	3568 <__malloc_unlock>
    3228:	4620      	mov	r0, r4
    322a:	b003      	add	sp, #12
    322c:	e8bd 8ff0 	ldmia.w	sp!, {r4, r5, r6, r7, r8, r9, sl, fp, pc}
    3230:	f5b7 6f20 	cmp.w	r7, #2560	; 0xa00
    3234:	ea4f 2157 	mov.w	r1, r7, lsr #9
    3238:	d365      	bcc.n	3306 <_malloc_r+0x42a>
    323a:	2914      	cmp	r1, #20
    323c:	f200 80ba 	bhi.w	33b4 <_malloc_r+0x4d8>
    3240:	f101 025c 	add.w	r2, r1, #92	; 0x5c
    3244:	315b      	adds	r1, #91	; 0x5b
    3246:	00d2      	lsls	r2, r2, #3
    3248:	eb06 0e02 	add.w	lr, r6, r2
    324c:	58b2      	ldr	r2, [r6, r2]
    324e:	f1ae 0e08 	sub.w	lr, lr, #8
    3252:	4596      	cmp	lr, r2
    3254:	f000 8095 	beq.w	3382 <_malloc_r+0x4a6>
    3258:	6851      	ldr	r1, [r2, #4]
    325a:	f021 0103 	bic.w	r1, r1, #3
    325e:	42b9      	cmp	r1, r7
    3260:	d902      	bls.n	3268 <_malloc_r+0x38c>
    3262:	6892      	ldr	r2, [r2, #8]
    3264:	4596      	cmp	lr, r2
    3266:	d1f7      	bne.n	3258 <_malloc_r+0x37c>
    3268:	f8d2 e00c 	ldr.w	lr, [r2, #12]
    326c:	6871      	ldr	r1, [r6, #4]
    326e:	e9c3 2e02 	strd	r2, lr, [r3, #8]
    3272:	f8ce 3008 	str.w	r3, [lr, #8]
    3276:	60d3      	str	r3, [r2, #12]
    3278:	e766      	b.n	3148 <_malloc_r+0x26c>
    327a:	2b14      	cmp	r3, #20
    327c:	d949      	bls.n	3312 <_malloc_r+0x436>
    327e:	2b54      	cmp	r3, #84	; 0x54
    3280:	f200 80a0 	bhi.w	33c4 <_malloc_r+0x4e8>
    3284:	0b23      	lsrs	r3, r4, #12
    3286:	f103 006f 	add.w	r0, r3, #111	; 0x6f
    328a:	f103 076e 	add.w	r7, r3, #110	; 0x6e
    328e:	00c3      	lsls	r3, r0, #3
    3290:	e66b      	b.n	2f6a <_malloc_r+0x8e>
    3292:	1919      	adds	r1, r3, r4
    3294:	f044 0401 	orr.w	r4, r4, #1
    3298:	4628      	mov	r0, r5
    329a:	689d      	ldr	r5, [r3, #8]
    329c:	605c      	str	r4, [r3, #4]
    329e:	f04e 0401 	orr.w	r4, lr, #1
    32a2:	60ef      	str	r7, [r5, #12]
    32a4:	60bd      	str	r5, [r7, #8]
    32a6:	e9c6 1104 	strd	r1, r1, [r6, #16]
    32aa:	604c      	str	r4, [r1, #4]
    32ac:	f103 0408 	add.w	r4, r3, #8
    32b0:	e9c1 cc02 	strd	ip, ip, [r1, #8]
    32b4:	f843 e002 	str.w	lr, [r3, r2]
    32b8:	f000 f956 	bl	3568 <__malloc_unlock>
    32bc:	e637      	b.n	2f2e <_malloc_r+0x52>
    32be:	441a      	add	r2, r3
    32c0:	461c      	mov	r4, r3
    32c2:	4628      	mov	r0, r5
    32c4:	6853      	ldr	r3, [r2, #4]
    32c6:	f043 0301 	orr.w	r3, r3, #1
    32ca:	6053      	str	r3, [r2, #4]
    32cc:	f854 3f08 	ldr.w	r3, [r4, #8]!
    32d0:	60df      	str	r7, [r3, #12]
    32d2:	60bb      	str	r3, [r7, #8]
    32d4:	f000 f948 	bl	3568 <__malloc_unlock>
    32d8:	e629      	b.n	2f2e <_malloc_r+0x52>
    32da:	08e0      	lsrs	r0, r4, #3
    32dc:	f104 0208 	add.w	r2, r4, #8
    32e0:	e60c      	b.n	2efc <_malloc_r+0x20>
    32e2:	1919      	adds	r1, r3, r4
    32e4:	f044 0401 	orr.w	r4, r4, #1
    32e8:	4628      	mov	r0, r5
    32ea:	605c      	str	r4, [r3, #4]
    32ec:	f042 0401 	orr.w	r4, r2, #1
    32f0:	e9c6 1104 	strd	r1, r1, [r6, #16]
    32f4:	604c      	str	r4, [r1, #4]
    32f6:	f103 0408 	add.w	r4, r3, #8
    32fa:	e9c1 cc02 	strd	ip, ip, [r1, #8]
    32fe:	51da      	str	r2, [r3, r7]
    3300:	f000 f932 	bl	3568 <__malloc_unlock>
    3304:	e613      	b.n	2f2e <_malloc_r+0x52>
    3306:	09b9      	lsrs	r1, r7, #6
    3308:	f101 0239 	add.w	r2, r1, #57	; 0x39
    330c:	3138      	adds	r1, #56	; 0x38
    330e:	00d2      	lsls	r2, r2, #3
    3310:	e79a      	b.n	3248 <_malloc_r+0x36c>
    3312:	f103 005c 	add.w	r0, r3, #92	; 0x5c
    3316:	f103 075b 	add.w	r7, r3, #91	; 0x5b
    331a:	00c3      	lsls	r3, r0, #3
    331c:	e625      	b.n	2f6a <_malloc_r+0x8e>
    331e:	f85a 3908 	ldr.w	r3, [sl], #-8
    3322:	4553      	cmp	r3, sl
    3324:	f040 8096 	bne.w	3454 <_malloc_r+0x578>
    3328:	f010 0f03 	tst.w	r0, #3
    332c:	f100 30ff 	add.w	r0, r0, #4294967295	; 0xffffffff
    3330:	d1f5      	bne.n	331e <_malloc_r+0x442>
    3332:	6873      	ldr	r3, [r6, #4]
    3334:	ea23 0308 	bic.w	r3, r3, r8
    3338:	6073      	str	r3, [r6, #4]
    333a:	ea4f 0848 	mov.w	r8, r8, lsl #1
    333e:	f108 32ff 	add.w	r2, r8, #4294967295	; 0xffffffff
    3342:	429a      	cmp	r2, r3
    3344:	d304      	bcc.n	3350 <_malloc_r+0x474>
    3346:	e635      	b.n	2fb4 <_malloc_r+0xd8>
    3348:	ea4f 0848 	mov.w	r8, r8, lsl #1
    334c:	f109 0904 	add.w	r9, r9, #4
    3350:	ea18 0f03 	tst.w	r8, r3
    3354:	d0f8      	beq.n	3348 <_malloc_r+0x46c>
    3356:	4648      	mov	r0, r9
    3358:	e709      	b.n	316e <_malloc_r+0x292>
    335a:	68b7      	ldr	r7, [r6, #8]
    335c:	687b      	ldr	r3, [r7, #4]
    335e:	e6b1      	b.n	30c4 <_malloc_r+0x1e8>
    3360:	f3cb 000b 	ubfx	r0, fp, #0, #12
    3364:	2800      	cmp	r0, #0
    3366:	f47f ae58 	bne.w	301a <_malloc_r+0x13e>
    336a:	44c8      	add	r8, r9
    336c:	68b7      	ldr	r7, [r6, #8]
    336e:	f048 0301 	orr.w	r3, r8, #1
    3372:	607b      	str	r3, [r7, #4]
    3374:	e69c      	b.n	30b0 <_malloc_r+0x1d4>
    3376:	f8c3 a000 	str.w	sl, [r3]
    337a:	e656      	b.n	302a <_malloc_r+0x14e>
    337c:	f108 0810 	add.w	r8, r8, #16
    3380:	e635      	b.n	2fee <_malloc_r+0x112>
    3382:	2701      	movs	r7, #1
    3384:	1089      	asrs	r1, r1, #2
    3386:	fa07 f101 	lsl.w	r1, r7, r1
    338a:	6877      	ldr	r7, [r6, #4]
    338c:	4339      	orrs	r1, r7
    338e:	6071      	str	r1, [r6, #4]
    3390:	e76d      	b.n	326e <_malloc_r+0x392>
    3392:	eb0a 0108 	add.w	r1, sl, r8
    3396:	4628      	mov	r0, r5
    3398:	9301      	str	r3, [sp, #4]
    339a:	4249      	negs	r1, r1
    339c:	f3c1 0b0b 	ubfx	fp, r1, #0, #12
    33a0:	4659      	mov	r1, fp
    33a2:	f000 f8e7 	bl	3574 <_sbrk_r>
    33a6:	1c43      	adds	r3, r0, #1
    33a8:	4a2b      	ldr	r2, [pc, #172]	; (3458 <_malloc_r+0x57c>)
    33aa:	9b01      	ldr	r3, [sp, #4]
    33ac:	f47f ae56 	bne.w	305c <_malloc_r+0x180>
    33b0:	469b      	mov	fp, r3
    33b2:	e657      	b.n	3064 <_malloc_r+0x188>
    33b4:	2954      	cmp	r1, #84	; 0x54
    33b6:	d815      	bhi.n	33e4 <_malloc_r+0x508>
    33b8:	0b39      	lsrs	r1, r7, #12
    33ba:	f101 026f 	add.w	r2, r1, #111	; 0x6f
    33be:	316e      	adds	r1, #110	; 0x6e
    33c0:	00d2      	lsls	r2, r2, #3
    33c2:	e741      	b.n	3248 <_malloc_r+0x36c>
    33c4:	f5b3 7faa 	cmp.w	r3, #340	; 0x154
    33c8:	d815      	bhi.n	33f6 <_malloc_r+0x51a>
    33ca:	0be3      	lsrs	r3, r4, #15
    33cc:	f103 0078 	add.w	r0, r3, #120	; 0x78
    33d0:	f103 0777 	add.w	r7, r3, #119	; 0x77
    33d4:	00c3      	lsls	r3, r0, #3
    33d6:	e5c8      	b.n	2f6a <_malloc_r+0x8e>
    33d8:	4657      	mov	r7, sl
    33da:	e669      	b.n	30b0 <_malloc_r+0x1d4>
    33dc:	2301      	movs	r3, #1
    33de:	f8ca 3004 	str.w	r3, [sl, #4]
    33e2:	e677      	b.n	30d4 <_malloc_r+0x1f8>
    33e4:	f5b1 7faa 	cmp.w	r1, #340	; 0x154
    33e8:	d821      	bhi.n	342e <_malloc_r+0x552>
    33ea:	0bf9      	lsrs	r1, r7, #15
    33ec:	f101 0278 	add.w	r2, r1, #120	; 0x78
    33f0:	3177      	adds	r1, #119	; 0x77
    33f2:	00d2      	lsls	r2, r2, #3
    33f4:	e728      	b.n	3248 <_malloc_r+0x36c>
    33f6:	f240 5254 	movw	r2, #1364	; 0x554
    33fa:	4293      	cmp	r3, r2
    33fc:	d821      	bhi.n	3442 <_malloc_r+0x566>
    33fe:	0ca3      	lsrs	r3, r4, #18
    3400:	f103 007d 	add.w	r0, r3, #125	; 0x7d
    3404:	f103 077c 	add.w	r7, r3, #124	; 0x7c
    3408:	00c3      	lsls	r3, r0, #3
    340a:	e5ae      	b.n	2f6a <_malloc_r+0x8e>
    340c:	f107 0108 	add.w	r1, r7, #8
    3410:	4628      	mov	r0, r5
    3412:	f001 fc21 	bl	4c58 <_free_r>
    3416:	68b7      	ldr	r7, [r6, #8]
    3418:	4a0f      	ldr	r2, [pc, #60]	; (3458 <_malloc_r+0x57c>)
    341a:	687b      	ldr	r3, [r7, #4]
    341c:	6811      	ldr	r1, [r2, #0]
    341e:	e647      	b.n	30b0 <_malloc_r+0x1d4>
    3420:	3b08      	subs	r3, #8
    3422:	f04f 0b00 	mov.w	fp, #0
    3426:	4498      	add	r8, r3
    3428:	eba8 080a 	sub.w	r8, r8, sl
    342c:	e61a      	b.n	3064 <_malloc_r+0x188>
    342e:	f240 5254 	movw	r2, #1364	; 0x554
    3432:	4291      	cmp	r1, r2
    3434:	d80a      	bhi.n	344c <_malloc_r+0x570>
    3436:	0cb9      	lsrs	r1, r7, #18
    3438:	f101 027d 	add.w	r2, r1, #125	; 0x7d
    343c:	317c      	adds	r1, #124	; 0x7c
    343e:	00d2      	lsls	r2, r2, #3
    3440:	e702      	b.n	3248 <_malloc_r+0x36c>
    3442:	f44f 737e 	mov.w	r3, #1016	; 0x3f8
    3446:	207f      	movs	r0, #127	; 0x7f
    3448:	277e      	movs	r7, #126	; 0x7e
    344a:	e58e      	b.n	2f6a <_malloc_r+0x8e>
    344c:	f44f 727e 	mov.w	r2, #1016	; 0x3f8
    3450:	217e      	movs	r1, #126	; 0x7e
    3452:	e6f9      	b.n	3248 <_malloc_r+0x36c>
    3454:	6873      	ldr	r3, [r6, #4]
    3456:	e770      	b.n	333a <_malloc_r+0x45e>
    3458:	20000a70 	.word	0x20000a70

0000345c <memcmp>:
    345c:	2a03      	cmp	r2, #3
    345e:	b570      	push	{r4, r5, r6, lr}
    3460:	d912      	bls.n	3488 <memcmp+0x2c>
    3462:	ea40 0301 	orr.w	r3, r0, r1
    3466:	079b      	lsls	r3, r3, #30
    3468:	d11f      	bne.n	34aa <memcmp+0x4e>
    346a:	4604      	mov	r4, r0
    346c:	460b      	mov	r3, r1
    346e:	4619      	mov	r1, r3
    3470:	4620      	mov	r0, r4
    3472:	3304      	adds	r3, #4
    3474:	3404      	adds	r4, #4
    3476:	6805      	ldr	r5, [r0, #0]
    3478:	680e      	ldr	r6, [r1, #0]
    347a:	42b5      	cmp	r5, r6
    347c:	d115      	bne.n	34aa <memcmp+0x4e>
    347e:	3a04      	subs	r2, #4
    3480:	4620      	mov	r0, r4
    3482:	4619      	mov	r1, r3
    3484:	2a03      	cmp	r2, #3
    3486:	d8f2      	bhi.n	346e <memcmp+0x12>
    3488:	1e54      	subs	r4, r2, #1
    348a:	b192      	cbz	r2, 34b2 <memcmp+0x56>
    348c:	1e42      	subs	r2, r0, #1
    348e:	3901      	subs	r1, #1
    3490:	e001      	b.n	3496 <memcmp+0x3a>
    3492:	18c3      	adds	r3, r0, r3
    3494:	d00b      	beq.n	34ae <memcmp+0x52>
    3496:	f812 ef01 	ldrb.w	lr, [r2, #1]!
    349a:	f811 cf01 	ldrb.w	ip, [r1, #1]!
    349e:	1aa3      	subs	r3, r4, r2
    34a0:	45e6      	cmp	lr, ip
    34a2:	d0f6      	beq.n	3492 <memcmp+0x36>
    34a4:	ebae 000c 	sub.w	r0, lr, ip
    34a8:	bd70      	pop	{r4, r5, r6, pc}
    34aa:	1e54      	subs	r4, r2, #1
    34ac:	e7ee      	b.n	348c <memcmp+0x30>
    34ae:	4618      	mov	r0, r3
    34b0:	bd70      	pop	{r4, r5, r6, pc}
    34b2:	4610      	mov	r0, r2
    34b4:	bd70      	pop	{r4, r5, r6, pc}
    34b6:	bf00      	nop

000034b8 <memset>:
    34b8:	b570      	push	{r4, r5, r6, lr}
    34ba:	0786      	lsls	r6, r0, #30
    34bc:	d048      	beq.n	3550 <memset+0x98>
    34be:	1e54      	subs	r4, r2, #1
    34c0:	2a00      	cmp	r2, #0
    34c2:	d03f      	beq.n	3544 <memset+0x8c>
    34c4:	b2ca      	uxtb	r2, r1
    34c6:	4603      	mov	r3, r0
    34c8:	e001      	b.n	34ce <memset+0x16>
    34ca:	3c01      	subs	r4, #1
    34cc:	d33a      	bcc.n	3544 <memset+0x8c>
    34ce:	f803 2b01 	strb.w	r2, [r3], #1
    34d2:	079d      	lsls	r5, r3, #30
    34d4:	d1f9      	bne.n	34ca <memset+0x12>
    34d6:	2c03      	cmp	r4, #3
    34d8:	d92d      	bls.n	3536 <memset+0x7e>
    34da:	b2cd      	uxtb	r5, r1
    34dc:	2c0f      	cmp	r4, #15
    34de:	ea45 2505 	orr.w	r5, r5, r5, lsl #8
    34e2:	ea45 4505 	orr.w	r5, r5, r5, lsl #16
    34e6:	d936      	bls.n	3556 <memset+0x9e>
    34e8:	f1a4 0c10 	sub.w	ip, r4, #16
    34ec:	f103 0e20 	add.w	lr, r3, #32
    34f0:	f103 0210 	add.w	r2, r3, #16
    34f4:	f02c 060f 	bic.w	r6, ip, #15
    34f8:	ea4f 1c1c 	mov.w	ip, ip, lsr #4
    34fc:	44b6      	add	lr, r6
    34fe:	e942 5504 	strd	r5, r5, [r2, #-16]
    3502:	e942 5502 	strd	r5, r5, [r2, #-8]
    3506:	3210      	adds	r2, #16
    3508:	4572      	cmp	r2, lr
    350a:	d1f8      	bne.n	34fe <memset+0x46>
    350c:	f10c 0201 	add.w	r2, ip, #1
    3510:	f014 0f0c 	tst.w	r4, #12
    3514:	f004 0c0f 	and.w	ip, r4, #15
    3518:	eb03 1202 	add.w	r2, r3, r2, lsl #4
    351c:	d013      	beq.n	3546 <memset+0x8e>
    351e:	f1ac 0304 	sub.w	r3, ip, #4
    3522:	f023 0303 	bic.w	r3, r3, #3
    3526:	3304      	adds	r3, #4
    3528:	4413      	add	r3, r2
    352a:	f842 5b04 	str.w	r5, [r2], #4
    352e:	4293      	cmp	r3, r2
    3530:	d1fb      	bne.n	352a <memset+0x72>
    3532:	f00c 0403 	and.w	r4, ip, #3
    3536:	b12c      	cbz	r4, 3544 <memset+0x8c>
    3538:	b2c9      	uxtb	r1, r1
    353a:	441c      	add	r4, r3
    353c:	f803 1b01 	strb.w	r1, [r3], #1
    3540:	429c      	cmp	r4, r3
    3542:	d1fb      	bne.n	353c <memset+0x84>
    3544:	bd70      	pop	{r4, r5, r6, pc}
    3546:	4664      	mov	r4, ip
    3548:	4613      	mov	r3, r2
    354a:	2c00      	cmp	r4, #0
    354c:	d1f4      	bne.n	3538 <memset+0x80>
    354e:	e7f9      	b.n	3544 <memset+0x8c>
    3550:	4603      	mov	r3, r0
    3552:	4614      	mov	r4, r2
    3554:	e7bf      	b.n	34d6 <memset+0x1e>
    3556:	461a      	mov	r2, r3
    3558:	46a4      	mov	ip, r4
    355a:	e7e0      	b.n	351e <memset+0x66>

0000355c <__malloc_lock>:
    355c:	4801      	ldr	r0, [pc, #4]	; (3564 <__malloc_lock+0x8>)
    355e:	f001 be31 	b.w	51c4 <__retarget_lock_acquire_recursive>
    3562:	bf00      	nop
    3564:	20000aa8 	.word	0x20000aa8

00003568 <__malloc_unlock>:
    3568:	4801      	ldr	r0, [pc, #4]	; (3570 <__malloc_unlock+0x8>)
    356a:	f001 be2d 	b.w	51c8 <__retarget_lock_release_recursive>
    356e:	bf00      	nop
    3570:	20000aa8 	.word	0x20000aa8

00003574 <_sbrk_r>:
    3574:	b538      	push	{r3, r4, r5, lr}
    3576:	2200      	movs	r2, #0
    3578:	4d06      	ldr	r5, [pc, #24]	; (3594 <_sbrk_r+0x20>)
    357a:	4604      	mov	r4, r0
    357c:	4608      	mov	r0, r1
    357e:	602a      	str	r2, [r5, #0]
    3580:	f002 fc98 	bl	5eb4 <_sbrk>
    3584:	1c43      	adds	r3, r0, #1
    3586:	d000      	beq.n	358a <_sbrk_r+0x16>
    3588:	bd38      	pop	{r3, r4, r5, pc}
    358a:	682b      	ldr	r3, [r5, #0]
    358c:	2b00      	cmp	r3, #0
    358e:	d0fb      	beq.n	3588 <_sbrk_r+0x14>
    3590:	6023      	str	r3, [r4, #0]
    3592:	bd38      	pop	{r3, r4, r5, pc}
    3594:	20000ab4 	.word	0x20000ab4

00003598 <__sprint_r.part.0>:
    3598:	e92d 4ff8 	stmdb	sp!, {r3, r4, r5, r6, r7, r8, r9, sl, fp, lr}
    359c:	6e4b      	ldr	r3, [r1, #100]	; 0x64
    359e:	4690      	mov	r8, r2
    35a0:	049c      	lsls	r4, r3, #18
    35a2:	d52c      	bpl.n	35fe <__sprint_r.part.0+0x66>
    35a4:	6893      	ldr	r3, [r2, #8]
    35a6:	6812      	ldr	r2, [r2, #0]
    35a8:	b33b      	cbz	r3, 35fa <__sprint_r.part.0+0x62>
    35aa:	468b      	mov	fp, r1
    35ac:	4606      	mov	r6, r0
    35ae:	f102 0908 	add.w	r9, r2, #8
    35b2:	e959 5a02 	ldrd	r5, sl, [r9, #-8]
    35b6:	ea5f 079a 	movs.w	r7, sl, lsr #2
    35ba:	d014      	beq.n	35e6 <__sprint_r.part.0+0x4e>
    35bc:	3d04      	subs	r5, #4
    35be:	2400      	movs	r4, #0
    35c0:	e001      	b.n	35c6 <__sprint_r.part.0+0x2e>
    35c2:	42a7      	cmp	r7, r4
    35c4:	d00d      	beq.n	35e2 <__sprint_r.part.0+0x4a>
    35c6:	465a      	mov	r2, fp
    35c8:	f855 1f04 	ldr.w	r1, [r5, #4]!
    35cc:	4630      	mov	r0, r6
    35ce:	3401      	adds	r4, #1
    35d0:	f001 fac0 	bl	4b54 <_fputwc_r>
    35d4:	1c43      	adds	r3, r0, #1
    35d6:	d1f4      	bne.n	35c2 <__sprint_r.part.0+0x2a>
    35d8:	2300      	movs	r3, #0
    35da:	e9c8 3301 	strd	r3, r3, [r8, #4]
    35de:	e8bd 8ff8 	ldmia.w	sp!, {r3, r4, r5, r6, r7, r8, r9, sl, fp, pc}
    35e2:	f8d8 3008 	ldr.w	r3, [r8, #8]
    35e6:	f02a 0a03 	bic.w	sl, sl, #3
    35ea:	f109 0908 	add.w	r9, r9, #8
    35ee:	eba3 030a 	sub.w	r3, r3, sl
    35f2:	f8c8 3008 	str.w	r3, [r8, #8]
    35f6:	2b00      	cmp	r3, #0
    35f8:	d1db      	bne.n	35b2 <__sprint_r.part.0+0x1a>
    35fa:	2000      	movs	r0, #0
    35fc:	e7ec      	b.n	35d8 <__sprint_r.part.0+0x40>
    35fe:	f001 fc27 	bl	4e50 <__sfvwrite_r>
    3602:	2300      	movs	r3, #0
    3604:	e9c8 3301 	strd	r3, r3, [r8, #4]
    3608:	e8bd 8ff8 	ldmia.w	sp!, {r3, r4, r5, r6, r7, r8, r9, sl, fp, pc}

0000360c <_vfiprintf_r>:
    360c:	e92d 4ff0 	stmdb	sp!, {r4, r5, r6, r7, r8, r9, sl, fp, lr}
    3610:	ed2d 8b02 	vpush	{d8}
    3614:	b0c5      	sub	sp, #276	; 0x114
    3616:	4683      	mov	fp, r0
    3618:	468a      	mov	sl, r1
    361a:	4615      	mov	r5, r2
    361c:	f10d 0950 	add.w	r9, sp, #80	; 0x50
    3620:	2208      	movs	r2, #8
    3622:	2100      	movs	r1, #0
    3624:	461c      	mov	r4, r3
    3626:	4648      	mov	r0, r9
    3628:	9307      	str	r3, [sp, #28]
    362a:	f7ff ff45 	bl	34b8 <memset>
    362e:	f1bb 0f00 	cmp.w	fp, #0
    3632:	d004      	beq.n	363e <_vfiprintf_r+0x32>
    3634:	f8db 3038 	ldr.w	r3, [fp, #56]	; 0x38
    3638:	2b00      	cmp	r3, #0
    363a:	f000 82d4 	beq.w	3be6 <_vfiprintf_r+0x5da>
    363e:	f8da 3064 	ldr.w	r3, [sl, #100]	; 0x64
    3642:	f9ba 100c 	ldrsh.w	r1, [sl, #12]
    3646:	07d8      	lsls	r0, r3, #31
    3648:	b28a      	uxth	r2, r1
    364a:	d402      	bmi.n	3652 <_vfiprintf_r+0x46>
    364c:	0593      	lsls	r3, r2, #22
    364e:	f140 8543 	bpl.w	40d8 <_vfiprintf_r+0xacc>
    3652:	0497      	lsls	r7, r2, #18
    3654:	d40a      	bmi.n	366c <_vfiprintf_r+0x60>
    3656:	f441 5100 	orr.w	r1, r1, #8192	; 0x2000
    365a:	f8da 3064 	ldr.w	r3, [sl, #100]	; 0x64
    365e:	b28a      	uxth	r2, r1
    3660:	f423 5300 	bic.w	r3, r3, #8192	; 0x2000
    3664:	f8aa 100c 	strh.w	r1, [sl, #12]
    3668:	f8ca 3064 	str.w	r3, [sl, #100]	; 0x64
    366c:	0716      	lsls	r6, r2, #28
    366e:	f140 80f4 	bpl.w	385a <_vfiprintf_r+0x24e>
    3672:	f8da 3010 	ldr.w	r3, [sl, #16]
    3676:	2b00      	cmp	r3, #0
    3678:	f000 80ef 	beq.w	385a <_vfiprintf_r+0x24e>
    367c:	f002 031a 	and.w	r3, r2, #26
    3680:	2b0a      	cmp	r3, #10
    3682:	f000 80f8 	beq.w	3876 <_vfiprintf_r+0x26a>
    3686:	aa1b      	add	r2, sp, #108	; 0x6c
    3688:	2300      	movs	r3, #0
    368a:	46a8      	mov	r8, r5
    368c:	4617      	mov	r7, r2
    368e:	930b      	str	r3, [sp, #44]	; 0x2c
    3690:	9218      	str	r2, [sp, #96]	; 0x60
    3692:	930c      	str	r3, [sp, #48]	; 0x30
    3694:	9305      	str	r3, [sp, #20]
    3696:	e9cd 3319 	strd	r3, r3, [sp, #100]	; 0x64
    369a:	e9cd 330d 	strd	r3, r3, [sp, #52]	; 0x34
    369e:	4644      	mov	r4, r8
    36a0:	4ba4      	ldr	r3, [pc, #656]	; (3934 <_vfiprintf_r+0x328>)
    36a2:	f8d3 50e4 	ldr.w	r5, [r3, #228]	; 0xe4
    36a6:	f001 fd7f 	bl	51a8 <__locale_mb_cur_max>
    36aa:	4622      	mov	r2, r4
    36ac:	4603      	mov	r3, r0
    36ae:	a912      	add	r1, sp, #72	; 0x48
    36b0:	4658      	mov	r0, fp
    36b2:	f8cd 9000 	str.w	r9, [sp]
    36b6:	47a8      	blx	r5
    36b8:	2800      	cmp	r0, #0
    36ba:	4603      	mov	r3, r0
    36bc:	f000 8144 	beq.w	3948 <_vfiprintf_r+0x33c>
    36c0:	f2c0 813a 	blt.w	3938 <_vfiprintf_r+0x32c>
    36c4:	9a12      	ldr	r2, [sp, #72]	; 0x48
    36c6:	2a25      	cmp	r2, #37	; 0x25
    36c8:	d001      	beq.n	36ce <_vfiprintf_r+0xc2>
    36ca:	441c      	add	r4, r3
    36cc:	e7e8      	b.n	36a0 <_vfiprintf_r+0x94>
    36ce:	ebb4 0608 	subs.w	r6, r4, r8
    36d2:	4605      	mov	r5, r0
    36d4:	f040 813c 	bne.w	3950 <_vfiprintf_r+0x344>
    36d8:	2300      	movs	r3, #0
    36da:	f104 0801 	add.w	r8, r4, #1
    36de:	7861      	ldrb	r1, [r4, #1]
    36e0:	f04f 32ff 	mov.w	r2, #4294967295	; 0xffffffff
    36e4:	461e      	mov	r6, r3
    36e6:	242b      	movs	r4, #43	; 0x2b
    36e8:	f88d 3043 	strb.w	r3, [sp, #67]	; 0x43
    36ec:	9306      	str	r3, [sp, #24]
    36ee:	9203      	str	r2, [sp, #12]
    36f0:	f108 0801 	add.w	r8, r8, #1
    36f4:	f1a1 0320 	sub.w	r3, r1, #32
    36f8:	2b5a      	cmp	r3, #90	; 0x5a
    36fa:	f200 816d 	bhi.w	39d8 <_vfiprintf_r+0x3cc>
    36fe:	e8df f013 	tbh	[pc, r3, lsl #1]
    3702:	02ae      	.short	0x02ae
    3704:	016b016b 	.word	0x016b016b
    3708:	016b02a9 	.word	0x016b02a9
    370c:	016b016b 	.word	0x016b016b
    3710:	016b006a 	.word	0x016b006a
    3714:	0276016b 	.word	0x0276016b
    3718:	016b0286 	.word	0x016b0286
    371c:	02900281 	.word	0x02900281
    3720:	028b016b 	.word	0x028b016b
    3724:	005b005b 	.word	0x005b005b
    3728:	005b005b 	.word	0x005b005b
    372c:	005b005b 	.word	0x005b005b
    3730:	005b005b 	.word	0x005b005b
    3734:	016b005b 	.word	0x016b005b
    3738:	016b016b 	.word	0x016b016b
    373c:	016b016b 	.word	0x016b016b
    3740:	016b016b 	.word	0x016b016b
    3744:	016b016b 	.word	0x016b016b
    3748:	0085024f 	.word	0x0085024f
    374c:	016b016b 	.word	0x016b016b
    3750:	016b016b 	.word	0x016b016b
    3754:	016b016b 	.word	0x016b016b
    3758:	016b016b 	.word	0x016b016b
    375c:	016b016b 	.word	0x016b016b
    3760:	016b00d3 	.word	0x016b00d3
    3764:	016b016b 	.word	0x016b016b
    3768:	016b0225 	.word	0x016b0225
    376c:	016b02c9 	.word	0x016b02c9
    3770:	053c016b 	.word	0x053c016b
    3774:	016b016b 	.word	0x016b016b
    3778:	016b016b 	.word	0x016b016b
    377c:	016b016b 	.word	0x016b016b
    3780:	016b016b 	.word	0x016b016b
    3784:	016b016b 	.word	0x016b016b
    3788:	0087024f 	.word	0x0087024f
    378c:	016b016b 	.word	0x016b016b
    3790:	02c1016b 	.word	0x02c1016b
    3794:	00800087 	.word	0x00800087
    3798:	02b9016b 	.word	0x02b9016b
    379c:	02ec016b 	.word	0x02ec016b
    37a0:	02dc00d5 	.word	0x02dc00d5
    37a4:	016b0080 	.word	0x016b0080
    37a8:	007d0225 	.word	0x007d0225
    37ac:	016b051a 	.word	0x016b051a
    37b0:	051c016b 	.word	0x051c016b
    37b4:	007d016b 	.word	0x007d016b
    37b8:	f1a1 0330 	sub.w	r3, r1, #48	; 0x30
    37bc:	2200      	movs	r2, #0
    37be:	eb02 0282 	add.w	r2, r2, r2, lsl #2
    37c2:	f818 1b01 	ldrb.w	r1, [r8], #1
    37c6:	eb03 0242 	add.w	r2, r3, r2, lsl #1
    37ca:	f1a1 0330 	sub.w	r3, r1, #48	; 0x30
    37ce:	2b09      	cmp	r3, #9
    37d0:	d9f5      	bls.n	37be <_vfiprintf_r+0x1b2>
    37d2:	9206      	str	r2, [sp, #24]
    37d4:	e78e      	b.n	36f4 <_vfiprintf_r+0xe8>
    37d6:	4658      	mov	r0, fp
    37d8:	f001 fcec 	bl	51b4 <_localeconv_r>
    37dc:	6843      	ldr	r3, [r0, #4]
    37de:	4618      	mov	r0, r3
    37e0:	930d      	str	r3, [sp, #52]	; 0x34
    37e2:	f002 f8ab 	bl	593c <strlen>
    37e6:	900e      	str	r0, [sp, #56]	; 0x38
    37e8:	4605      	mov	r5, r0
    37ea:	4658      	mov	r0, fp
    37ec:	f001 fce2 	bl	51b4 <_localeconv_r>
    37f0:	6883      	ldr	r3, [r0, #8]
    37f2:	930c      	str	r3, [sp, #48]	; 0x30
    37f4:	b115      	cbz	r5, 37fc <_vfiprintf_r+0x1f0>
    37f6:	2b00      	cmp	r3, #0
    37f8:	f040 8482 	bne.w	4100 <_vfiprintf_r+0xaf4>
    37fc:	f898 1000 	ldrb.w	r1, [r8]
    3800:	e776      	b.n	36f0 <_vfiprintf_r+0xe4>
    3802:	f046 0620 	orr.w	r6, r6, #32
    3806:	f898 1000 	ldrb.w	r1, [r8]
    380a:	e771      	b.n	36f0 <_vfiprintf_r+0xe4>
    380c:	f046 0610 	orr.w	r6, r6, #16
    3810:	06b3      	lsls	r3, r6, #26
    3812:	f140 817d 	bpl.w	3b10 <_vfiprintf_r+0x504>
    3816:	9b07      	ldr	r3, [sp, #28]
    3818:	3307      	adds	r3, #7
    381a:	f023 0307 	bic.w	r3, r3, #7
    381e:	461a      	mov	r2, r3
    3820:	6859      	ldr	r1, [r3, #4]
    3822:	f852 3b08 	ldr.w	r3, [r2], #8
    3826:	9207      	str	r2, [sp, #28]
    3828:	460a      	mov	r2, r1
    382a:	2900      	cmp	r1, #0
    382c:	f2c0 8436 	blt.w	409c <_vfiprintf_r+0xa90>
    3830:	9903      	ldr	r1, [sp, #12]
    3832:	3101      	adds	r1, #1
    3834:	f000 83e9 	beq.w	400a <_vfiprintf_r+0x9fe>
    3838:	ea53 0102 	orrs.w	r1, r3, r2
    383c:	f026 0680 	bic.w	r6, r6, #128	; 0x80
    3840:	f040 83e3 	bne.w	400a <_vfiprintf_r+0x9fe>
    3844:	9803      	ldr	r0, [sp, #12]
    3846:	1e01      	subs	r1, r0, #0
    3848:	bf18      	it	ne
    384a:	2101      	movne	r1, #1
    384c:	2800      	cmp	r0, #0
    384e:	f040 83dc 	bne.w	400a <_vfiprintf_r+0x9fe>
    3852:	ac44      	add	r4, sp, #272	; 0x110
    3854:	9103      	str	r1, [sp, #12]
    3856:	9104      	str	r1, [sp, #16]
    3858:	e05c      	b.n	3914 <_vfiprintf_r+0x308>
    385a:	4651      	mov	r1, sl
    385c:	4658      	mov	r0, fp
    385e:	f000 fec5 	bl	45ec <__swsetup_r>
    3862:	2800      	cmp	r0, #0
    3864:	f040 8632 	bne.w	44cc <_vfiprintf_r+0xec0>
    3868:	f8ba 200c 	ldrh.w	r2, [sl, #12]
    386c:	f002 031a 	and.w	r3, r2, #26
    3870:	2b0a      	cmp	r3, #10
    3872:	f47f af08 	bne.w	3686 <_vfiprintf_r+0x7a>
    3876:	f9ba 300e 	ldrsh.w	r3, [sl, #14]
    387a:	2b00      	cmp	r3, #0
    387c:	f6ff af03 	blt.w	3686 <_vfiprintf_r+0x7a>
    3880:	f8da 3064 	ldr.w	r3, [sl, #100]	; 0x64
    3884:	07d8      	lsls	r0, r3, #31
    3886:	d402      	bmi.n	388e <_vfiprintf_r+0x282>
    3888:	0591      	lsls	r1, r2, #22
    388a:	f140 85bf 	bpl.w	440c <_vfiprintf_r+0xe00>
    388e:	4623      	mov	r3, r4
    3890:	462a      	mov	r2, r5
    3892:	4651      	mov	r1, sl
    3894:	4658      	mov	r0, fp
    3896:	f000 fe37 	bl	4508 <__sbprintf>
    389a:	9005      	str	r0, [sp, #20]
    389c:	9805      	ldr	r0, [sp, #20]
    389e:	b045      	add	sp, #276	; 0x114
    38a0:	ecbd 8b02 	vpop	{d8}
    38a4:	e8bd 8ff0 	ldmia.w	sp!, {r4, r5, r6, r7, r8, r9, sl, fp, pc}
    38a8:	f046 0610 	orr.w	r6, r6, #16
    38ac:	f016 0220 	ands.w	r2, r6, #32
    38b0:	f000 813d 	beq.w	3b2e <_vfiprintf_r+0x522>
    38b4:	9b07      	ldr	r3, [sp, #28]
    38b6:	3307      	adds	r3, #7
    38b8:	f023 0307 	bic.w	r3, r3, #7
    38bc:	4619      	mov	r1, r3
    38be:	685a      	ldr	r2, [r3, #4]
    38c0:	f851 3b08 	ldr.w	r3, [r1], #8
    38c4:	9107      	str	r1, [sp, #28]
    38c6:	f426 6180 	bic.w	r1, r6, #1024	; 0x400
    38ca:	9102      	str	r1, [sp, #8]
    38cc:	2100      	movs	r1, #0
    38ce:	2000      	movs	r0, #0
    38d0:	9c03      	ldr	r4, [sp, #12]
    38d2:	f88d 0043 	strb.w	r0, [sp, #67]	; 0x43
    38d6:	1c66      	adds	r6, r4, #1
    38d8:	f000 8220 	beq.w	3d1c <_vfiprintf_r+0x710>
    38dc:	9802      	ldr	r0, [sp, #8]
    38de:	f020 0680 	bic.w	r6, r0, #128	; 0x80
    38e2:	ea53 0002 	orrs.w	r0, r3, r2
    38e6:	f040 8218 	bne.w	3d1a <_vfiprintf_r+0x70e>
    38ea:	1e20      	subs	r0, r4, #0
    38ec:	bf18      	it	ne
    38ee:	2001      	movne	r0, #1
    38f0:	2c00      	cmp	r4, #0
    38f2:	f040 8212 	bne.w	3d1a <_vfiprintf_r+0x70e>
    38f6:	2900      	cmp	r1, #0
    38f8:	f040 8383 	bne.w	4002 <_vfiprintf_r+0x9f6>
    38fc:	9b02      	ldr	r3, [sp, #8]
    38fe:	f013 0301 	ands.w	r3, r3, #1
    3902:	e9cd 1303 	strd	r1, r3, [sp, #12]
    3906:	f000 83a4 	beq.w	4052 <_vfiprintf_r+0xa46>
    390a:	2330      	movs	r3, #48	; 0x30
    390c:	f20d 140f 	addw	r4, sp, #271	; 0x10f
    3910:	f88d 310f 	strb.w	r3, [sp, #271]	; 0x10f
    3914:	e9dd 3203 	ldrd	r3, r2, [sp, #12]
    3918:	4293      	cmp	r3, r2
    391a:	bfb8      	it	lt
    391c:	4613      	movlt	r3, r2
    391e:	9302      	str	r3, [sp, #8]
    3920:	2300      	movs	r3, #0
    3922:	9308      	str	r3, [sp, #32]
    3924:	f89d 3043 	ldrb.w	r3, [sp, #67]	; 0x43
    3928:	2b00      	cmp	r3, #0
    392a:	d063      	beq.n	39f4 <_vfiprintf_r+0x3e8>
    392c:	9b02      	ldr	r3, [sp, #8]
    392e:	3301      	adds	r3, #1
    3930:	9302      	str	r3, [sp, #8]
    3932:	e05f      	b.n	39f4 <_vfiprintf_r+0x3e8>
    3934:	2000084c 	.word	0x2000084c
    3938:	2208      	movs	r2, #8
    393a:	2100      	movs	r1, #0
    393c:	4648      	mov	r0, r9
    393e:	f7ff fdbb 	bl	34b8 <memset>
    3942:	2301      	movs	r3, #1
    3944:	441c      	add	r4, r3
    3946:	e6ab      	b.n	36a0 <_vfiprintf_r+0x94>
    3948:	ebb4 0608 	subs.w	r6, r4, r8
    394c:	4605      	mov	r5, r0
    394e:	d019      	beq.n	3984 <_vfiprintf_r+0x378>
    3950:	9b19      	ldr	r3, [sp, #100]	; 0x64
    3952:	9a1a      	ldr	r2, [sp, #104]	; 0x68
    3954:	3301      	adds	r3, #1
    3956:	4432      	add	r2, r6
    3958:	2b07      	cmp	r3, #7
    395a:	9319      	str	r3, [sp, #100]	; 0x64
    395c:	921a      	str	r2, [sp, #104]	; 0x68
    395e:	e9c7 8600 	strd	r8, r6, [r7]
    3962:	dd18      	ble.n	3996 <_vfiprintf_r+0x38a>
    3964:	2a00      	cmp	r2, #0
    3966:	f000 8371 	beq.w	404c <_vfiprintf_r+0xa40>
    396a:	aa18      	add	r2, sp, #96	; 0x60
    396c:	4651      	mov	r1, sl
    396e:	4658      	mov	r0, fp
    3970:	f7ff fe12 	bl	3598 <__sprint_r.part.0>
    3974:	b9f8      	cbnz	r0, 39b6 <_vfiprintf_r+0x3aa>
    3976:	af1b      	add	r7, sp, #108	; 0x6c
    3978:	9b05      	ldr	r3, [sp, #20]
    397a:	4433      	add	r3, r6
    397c:	9305      	str	r3, [sp, #20]
    397e:	2d00      	cmp	r5, #0
    3980:	f47f aeaa 	bne.w	36d8 <_vfiprintf_r+0xcc>
    3984:	9b1a      	ldr	r3, [sp, #104]	; 0x68
    3986:	2b00      	cmp	r3, #0
    3988:	f040 8571 	bne.w	446e <_vfiprintf_r+0xe62>
    398c:	2200      	movs	r2, #0
    398e:	f9ba 300c 	ldrsh.w	r3, [sl, #12]
    3992:	9219      	str	r2, [sp, #100]	; 0x64
    3994:	e011      	b.n	39ba <_vfiprintf_r+0x3ae>
    3996:	3708      	adds	r7, #8
    3998:	e7ee      	b.n	3978 <_vfiprintf_r+0x36c>
    399a:	aa18      	add	r2, sp, #96	; 0x60
    399c:	4651      	mov	r1, sl
    399e:	4658      	mov	r0, fp
    39a0:	f7ff fdfa 	bl	3598 <__sprint_r.part.0>
    39a4:	2800      	cmp	r0, #0
    39a6:	f000 809e 	beq.w	3ae6 <_vfiprintf_r+0x4da>
    39aa:	9b08      	ldr	r3, [sp, #32]
    39ac:	b11b      	cbz	r3, 39b6 <_vfiprintf_r+0x3aa>
    39ae:	9908      	ldr	r1, [sp, #32]
    39b0:	4658      	mov	r0, fp
    39b2:	f001 f951 	bl	4c58 <_free_r>
    39b6:	f9ba 300c 	ldrsh.w	r3, [sl, #12]
    39ba:	f8da 2064 	ldr.w	r2, [sl, #100]	; 0x64
    39be:	b29b      	uxth	r3, r3
    39c0:	07d1      	lsls	r1, r2, #31
    39c2:	f140 809b 	bpl.w	3afc <_vfiprintf_r+0x4f0>
    39c6:	065b      	lsls	r3, r3, #25
    39c8:	f100 855f 	bmi.w	448a <_vfiprintf_r+0xe7e>
    39cc:	9805      	ldr	r0, [sp, #20]
    39ce:	b045      	add	sp, #276	; 0x114
    39d0:	ecbd 8b02 	vpop	{d8}
    39d4:	e8bd 8ff0 	ldmia.w	sp!, {r4, r5, r6, r7, r8, r9, sl, fp, pc}
    39d8:	2900      	cmp	r1, #0
    39da:	d0d3      	beq.n	3984 <_vfiprintf_r+0x378>
    39dc:	2300      	movs	r3, #0
    39de:	ac2b      	add	r4, sp, #172	; 0xac
    39e0:	f88d 10ac 	strb.w	r1, [sp, #172]	; 0xac
    39e4:	f88d 3043 	strb.w	r3, [sp, #67]	; 0x43
    39e8:	2301      	movs	r3, #1
    39ea:	9302      	str	r3, [sp, #8]
    39ec:	9304      	str	r3, [sp, #16]
    39ee:	2300      	movs	r3, #0
    39f0:	9308      	str	r3, [sp, #32]
    39f2:	9303      	str	r3, [sp, #12]
    39f4:	f016 0302 	ands.w	r3, r6, #2
    39f8:	9309      	str	r3, [sp, #36]	; 0x24
    39fa:	d002      	beq.n	3a02 <_vfiprintf_r+0x3f6>
    39fc:	9b02      	ldr	r3, [sp, #8]
    39fe:	3302      	adds	r3, #2
    3a00:	9302      	str	r3, [sp, #8]
    3a02:	f016 0384 	ands.w	r3, r6, #132	; 0x84
    3a06:	e9dd 2c19 	ldrd	r2, ip, [sp, #100]	; 0x64
    3a0a:	930a      	str	r3, [sp, #40]	; 0x28
    3a0c:	f102 0001 	add.w	r0, r2, #1
    3a10:	4601      	mov	r1, r0
    3a12:	d105      	bne.n	3a20 <_vfiprintf_r+0x414>
    3a14:	9b06      	ldr	r3, [sp, #24]
    3a16:	9d02      	ldr	r5, [sp, #8]
    3a18:	1b5d      	subs	r5, r3, r5
    3a1a:	2d00      	cmp	r5, #0
    3a1c:	f300 8259 	bgt.w	3ed2 <_vfiprintf_r+0x8c6>
    3a20:	f89d 0043 	ldrb.w	r0, [sp, #67]	; 0x43
    3a24:	b170      	cbz	r0, 3a44 <_vfiprintf_r+0x438>
    3a26:	f10c 0c01 	add.w	ip, ip, #1
    3a2a:	2301      	movs	r3, #1
    3a2c:	f10d 0243 	add.w	r2, sp, #67	; 0x43
    3a30:	2907      	cmp	r1, #7
    3a32:	607b      	str	r3, [r7, #4]
    3a34:	603a      	str	r2, [r7, #0]
    3a36:	e9cd 1c19 	strd	r1, ip, [sp, #100]	; 0x64
    3a3a:	f300 822e 	bgt.w	3e9a <_vfiprintf_r+0x88e>
    3a3e:	460a      	mov	r2, r1
    3a40:	3708      	adds	r7, #8
    3a42:	3101      	adds	r1, #1
    3a44:	9b09      	ldr	r3, [sp, #36]	; 0x24
    3a46:	b1d3      	cbz	r3, 3a7e <_vfiprintf_r+0x472>
    3a48:	ab11      	add	r3, sp, #68	; 0x44
    3a4a:	f10c 0c02 	add.w	ip, ip, #2
    3a4e:	2907      	cmp	r1, #7
    3a50:	603b      	str	r3, [r7, #0]
    3a52:	f04f 0302 	mov.w	r3, #2
    3a56:	e9cd 1c19 	strd	r1, ip, [sp, #100]	; 0x64
    3a5a:	607b      	str	r3, [r7, #4]
    3a5c:	f340 8235 	ble.w	3eca <_vfiprintf_r+0x8be>
    3a60:	f1bc 0f00 	cmp.w	ip, #0
    3a64:	f000 8316 	beq.w	4094 <_vfiprintf_r+0xa88>
    3a68:	aa18      	add	r2, sp, #96	; 0x60
    3a6a:	4651      	mov	r1, sl
    3a6c:	4658      	mov	r0, fp
    3a6e:	f7ff fd93 	bl	3598 <__sprint_r.part.0>
    3a72:	2800      	cmp	r0, #0
    3a74:	d199      	bne.n	39aa <_vfiprintf_r+0x39e>
    3a76:	af1b      	add	r7, sp, #108	; 0x6c
    3a78:	e9dd 2c19 	ldrd	r2, ip, [sp, #100]	; 0x64
    3a7c:	1c51      	adds	r1, r2, #1
    3a7e:	9b0a      	ldr	r3, [sp, #40]	; 0x28
    3a80:	2b80      	cmp	r3, #128	; 0x80
    3a82:	f000 817f 	beq.w	3d84 <_vfiprintf_r+0x778>
    3a86:	e9dd 3003 	ldrd	r3, r0, [sp, #12]
    3a8a:	1a1d      	subs	r5, r3, r0
    3a8c:	2d00      	cmp	r5, #0
    3a8e:	f300 81cc 	bgt.w	3e2a <_vfiprintf_r+0x81e>
    3a92:	9a04      	ldr	r2, [sp, #16]
    3a94:	2907      	cmp	r1, #7
    3a96:	603c      	str	r4, [r7, #0]
    3a98:	eb02 030c 	add.w	r3, r2, ip
    3a9c:	607a      	str	r2, [r7, #4]
    3a9e:	e9cd 1319 	strd	r1, r3, [sp, #100]	; 0x64
    3aa2:	f340 8136 	ble.w	3d12 <_vfiprintf_r+0x706>
    3aa6:	2b00      	cmp	r3, #0
    3aa8:	f000 8254 	beq.w	3f54 <_vfiprintf_r+0x948>
    3aac:	aa18      	add	r2, sp, #96	; 0x60
    3aae:	4651      	mov	r1, sl
    3ab0:	4658      	mov	r0, fp
    3ab2:	f7ff fd71 	bl	3598 <__sprint_r.part.0>
    3ab6:	2800      	cmp	r0, #0
    3ab8:	f47f af77 	bne.w	39aa <_vfiprintf_r+0x39e>
    3abc:	9b1a      	ldr	r3, [sp, #104]	; 0x68
    3abe:	af1b      	add	r7, sp, #108	; 0x6c
    3ac0:	0770      	lsls	r0, r6, #29
    3ac2:	d505      	bpl.n	3ad0 <_vfiprintf_r+0x4c4>
    3ac4:	9a06      	ldr	r2, [sp, #24]
    3ac6:	9902      	ldr	r1, [sp, #8]
    3ac8:	1a54      	subs	r4, r2, r1
    3aca:	2c00      	cmp	r4, #0
    3acc:	f300 824b 	bgt.w	3f66 <_vfiprintf_r+0x95a>
    3ad0:	9802      	ldr	r0, [sp, #8]
    3ad2:	e9dd 2105 	ldrd	r2, r1, [sp, #20]
    3ad6:	4281      	cmp	r1, r0
    3ad8:	bfac      	ite	ge
    3ada:	1852      	addge	r2, r2, r1
    3adc:	1812      	addlt	r2, r2, r0
    3ade:	9205      	str	r2, [sp, #20]
    3ae0:	2b00      	cmp	r3, #0
    3ae2:	f47f af5a 	bne.w	399a <_vfiprintf_r+0x38e>
    3ae6:	2300      	movs	r3, #0
    3ae8:	9908      	ldr	r1, [sp, #32]
    3aea:	9319      	str	r3, [sp, #100]	; 0x64
    3aec:	2900      	cmp	r1, #0
    3aee:	f000 8112 	beq.w	3d16 <_vfiprintf_r+0x70a>
    3af2:	4658      	mov	r0, fp
    3af4:	af1b      	add	r7, sp, #108	; 0x6c
    3af6:	f001 f8af 	bl	4c58 <_free_r>
    3afa:	e5d0      	b.n	369e <_vfiprintf_r+0x92>
    3afc:	059a      	lsls	r2, r3, #22
    3afe:	f53f af62 	bmi.w	39c6 <_vfiprintf_r+0x3ba>
    3b02:	f8da 0058 	ldr.w	r0, [sl, #88]	; 0x58
    3b06:	f001 fb5f 	bl	51c8 <__retarget_lock_release_recursive>
    3b0a:	f8ba 300c 	ldrh.w	r3, [sl, #12]
    3b0e:	e75a      	b.n	39c6 <_vfiprintf_r+0x3ba>
    3b10:	9a07      	ldr	r2, [sp, #28]
    3b12:	06f5      	lsls	r5, r6, #27
    3b14:	f852 3b04 	ldr.w	r3, [r2], #4
    3b18:	9207      	str	r2, [sp, #28]
    3b1a:	f100 82ed 	bmi.w	40f8 <_vfiprintf_r+0xaec>
    3b1e:	0674      	lsls	r4, r6, #25
    3b20:	f140 82e7 	bpl.w	40f2 <_vfiprintf_r+0xae6>
    3b24:	f343 32c0 	sbfx	r2, r3, #15, #1
    3b28:	b21b      	sxth	r3, r3
    3b2a:	4611      	mov	r1, r2
    3b2c:	e67d      	b.n	382a <_vfiprintf_r+0x21e>
    3b2e:	9907      	ldr	r1, [sp, #28]
    3b30:	f851 3b04 	ldr.w	r3, [r1], #4
    3b34:	9107      	str	r1, [sp, #28]
    3b36:	f016 0110 	ands.w	r1, r6, #16
    3b3a:	f47f aec4 	bne.w	38c6 <_vfiprintf_r+0x2ba>
    3b3e:	f016 0040 	ands.w	r0, r6, #64	; 0x40
    3b42:	f000 83fd 	beq.w	4340 <_vfiprintf_r+0xd34>
    3b46:	b29b      	uxth	r3, r3
    3b48:	460a      	mov	r2, r1
    3b4a:	e6bc      	b.n	38c6 <_vfiprintf_r+0x2ba>
    3b4c:	9b07      	ldr	r3, [sp, #28]
    3b4e:	461a      	mov	r2, r3
    3b50:	2300      	movs	r3, #0
    3b52:	f88d 3043 	strb.w	r3, [sp, #67]	; 0x43
    3b56:	4613      	mov	r3, r2
    3b58:	f853 4b04 	ldr.w	r4, [r3], #4
    3b5c:	9302      	str	r3, [sp, #8]
    3b5e:	2c00      	cmp	r4, #0
    3b60:	f000 83dc 	beq.w	431c <_vfiprintf_r+0xd10>
    3b64:	2953      	cmp	r1, #83	; 0x53
    3b66:	f000 8321 	beq.w	41ac <_vfiprintf_r+0xba0>
    3b6a:	f016 0510 	ands.w	r5, r6, #16
    3b6e:	f040 831d 	bne.w	41ac <_vfiprintf_r+0xba0>
    3b72:	9b03      	ldr	r3, [sp, #12]
    3b74:	1c5a      	adds	r2, r3, #1
    3b76:	f000 8467 	beq.w	4448 <_vfiprintf_r+0xe3c>
    3b7a:	461a      	mov	r2, r3
    3b7c:	4629      	mov	r1, r5
    3b7e:	4620      	mov	r0, r4
    3b80:	f001 fbaa 	bl	52d8 <memchr>
    3b84:	9008      	str	r0, [sp, #32]
    3b86:	2800      	cmp	r0, #0
    3b88:	f000 8446 	beq.w	4418 <_vfiprintf_r+0xe0c>
    3b8c:	1b03      	subs	r3, r0, r4
    3b8e:	9a02      	ldr	r2, [sp, #8]
    3b90:	9508      	str	r5, [sp, #32]
    3b92:	9207      	str	r2, [sp, #28]
    3b94:	e9cd 5303 	strd	r5, r3, [sp, #12]
    3b98:	ea23 73e3 	bic.w	r3, r3, r3, asr #31
    3b9c:	9302      	str	r3, [sp, #8]
    3b9e:	e6c1      	b.n	3924 <_vfiprintf_r+0x318>
    3ba0:	9b07      	ldr	r3, [sp, #28]
    3ba2:	2943      	cmp	r1, #67	; 0x43
    3ba4:	f103 0504 	add.w	r5, r3, #4
    3ba8:	d002      	beq.n	3bb0 <_vfiprintf_r+0x5a4>
    3baa:	06f2      	lsls	r2, r6, #27
    3bac:	f140 82e8 	bpl.w	4180 <_vfiprintf_r+0xb74>
    3bb0:	2208      	movs	r2, #8
    3bb2:	2100      	movs	r1, #0
    3bb4:	a816      	add	r0, sp, #88	; 0x58
    3bb6:	ac2b      	add	r4, sp, #172	; 0xac
    3bb8:	f7ff fc7e 	bl	34b8 <memset>
    3bbc:	9a07      	ldr	r2, [sp, #28]
    3bbe:	ab16      	add	r3, sp, #88	; 0x58
    3bc0:	4621      	mov	r1, r4
    3bc2:	6812      	ldr	r2, [r2, #0]
    3bc4:	4658      	mov	r0, fp
    3bc6:	f000 fcdf 	bl	4588 <_wcrtomb_r>
    3bca:	4603      	mov	r3, r0
    3bcc:	9004      	str	r0, [sp, #16]
    3bce:	3301      	adds	r3, #1
    3bd0:	f000 8460 	beq.w	4494 <_vfiprintf_r+0xe88>
    3bd4:	9b04      	ldr	r3, [sp, #16]
    3bd6:	ea23 73e3 	bic.w	r3, r3, r3, asr #31
    3bda:	9302      	str	r3, [sp, #8]
    3bdc:	2300      	movs	r3, #0
    3bde:	9507      	str	r5, [sp, #28]
    3be0:	f88d 3043 	strb.w	r3, [sp, #67]	; 0x43
    3be4:	e703      	b.n	39ee <_vfiprintf_r+0x3e2>
    3be6:	4658      	mov	r0, fp
    3be8:	f000 feba 	bl	4960 <__sinit>
    3bec:	e527      	b.n	363e <_vfiprintf_r+0x32>
    3bee:	9b07      	ldr	r3, [sp, #28]
    3bf0:	f853 2b04 	ldr.w	r2, [r3], #4
    3bf4:	2a00      	cmp	r2, #0
    3bf6:	9206      	str	r2, [sp, #24]
    3bf8:	f280 8269 	bge.w	40ce <_vfiprintf_r+0xac2>
    3bfc:	9a06      	ldr	r2, [sp, #24]
    3bfe:	4252      	negs	r2, r2
    3c00:	e9cd 2306 	strd	r2, r3, [sp, #24]
    3c04:	f046 0604 	orr.w	r6, r6, #4
    3c08:	f898 1000 	ldrb.w	r1, [r8]
    3c0c:	e570      	b.n	36f0 <_vfiprintf_r+0xe4>
    3c0e:	f898 1000 	ldrb.w	r1, [r8]
    3c12:	f88d 4043 	strb.w	r4, [sp, #67]	; 0x43
    3c16:	e56b      	b.n	36f0 <_vfiprintf_r+0xe4>
    3c18:	f046 0680 	orr.w	r6, r6, #128	; 0x80
    3c1c:	f898 1000 	ldrb.w	r1, [r8]
    3c20:	e566      	b.n	36f0 <_vfiprintf_r+0xe4>
    3c22:	4642      	mov	r2, r8
    3c24:	f812 1b01 	ldrb.w	r1, [r2], #1
    3c28:	292a      	cmp	r1, #42	; 0x2a
    3c2a:	f000 8443 	beq.w	44b4 <_vfiprintf_r+0xea8>
    3c2e:	f1a1 0330 	sub.w	r3, r1, #48	; 0x30
    3c32:	4690      	mov	r8, r2
    3c34:	2b09      	cmp	r3, #9
    3c36:	f200 8414 	bhi.w	4462 <_vfiprintf_r+0xe56>
    3c3a:	2200      	movs	r2, #0
    3c3c:	eb02 0282 	add.w	r2, r2, r2, lsl #2
    3c40:	f818 1b01 	ldrb.w	r1, [r8], #1
    3c44:	eb03 0242 	add.w	r2, r3, r2, lsl #1
    3c48:	f1a1 0330 	sub.w	r3, r1, #48	; 0x30
    3c4c:	2b09      	cmp	r3, #9
    3c4e:	d9f5      	bls.n	3c3c <_vfiprintf_r+0x630>
    3c50:	9203      	str	r2, [sp, #12]
    3c52:	e54f      	b.n	36f4 <_vfiprintf_r+0xe8>
    3c54:	f046 0601 	orr.w	r6, r6, #1
    3c58:	f898 1000 	ldrb.w	r1, [r8]
    3c5c:	e548      	b.n	36f0 <_vfiprintf_r+0xe4>
    3c5e:	f89d 3043 	ldrb.w	r3, [sp, #67]	; 0x43
    3c62:	f898 1000 	ldrb.w	r1, [r8]
    3c66:	2b00      	cmp	r3, #0
    3c68:	f47f ad42 	bne.w	36f0 <_vfiprintf_r+0xe4>
    3c6c:	2320      	movs	r3, #32
    3c6e:	f88d 3043 	strb.w	r3, [sp, #67]	; 0x43
    3c72:	e53d      	b.n	36f0 <_vfiprintf_r+0xe4>
    3c74:	f898 1000 	ldrb.w	r1, [r8]
    3c78:	296c      	cmp	r1, #108	; 0x6c
    3c7a:	f000 8340 	beq.w	42fe <_vfiprintf_r+0xcf2>
    3c7e:	f046 0610 	orr.w	r6, r6, #16
    3c82:	e535      	b.n	36f0 <_vfiprintf_r+0xe4>
    3c84:	f898 1000 	ldrb.w	r1, [r8]
    3c88:	2968      	cmp	r1, #104	; 0x68
    3c8a:	f000 8330 	beq.w	42ee <_vfiprintf_r+0xce2>
    3c8e:	f046 0640 	orr.w	r6, r6, #64	; 0x40
    3c92:	e52d      	b.n	36f0 <_vfiprintf_r+0xe4>
    3c94:	f046 0310 	orr.w	r3, r6, #16
    3c98:	9302      	str	r3, [sp, #8]
    3c9a:	9b02      	ldr	r3, [sp, #8]
    3c9c:	f013 0220 	ands.w	r2, r3, #32
    3ca0:	f000 81d9 	beq.w	4056 <_vfiprintf_r+0xa4a>
    3ca4:	9b07      	ldr	r3, [sp, #28]
    3ca6:	2101      	movs	r1, #1
    3ca8:	3307      	adds	r3, #7
    3caa:	f023 0307 	bic.w	r3, r3, #7
    3cae:	4618      	mov	r0, r3
    3cb0:	685a      	ldr	r2, [r3, #4]
    3cb2:	f850 3b08 	ldr.w	r3, [r0], #8
    3cb6:	9007      	str	r0, [sp, #28]
    3cb8:	e609      	b.n	38ce <_vfiprintf_r+0x2c2>
    3cba:	f046 0302 	orr.w	r3, r6, #2
    3cbe:	9a07      	ldr	r2, [sp, #28]
    3cc0:	49ac      	ldr	r1, [pc, #688]	; (3f74 <_vfiprintf_r+0x968>)
    3cc2:	9302      	str	r3, [sp, #8]
    3cc4:	f647 0330 	movw	r3, #30768	; 0x7830
    3cc8:	910b      	str	r1, [sp, #44]	; 0x2c
    3cca:	2102      	movs	r1, #2
    3ccc:	f8ad 3044 	strh.w	r3, [sp, #68]	; 0x44
    3cd0:	f852 3b04 	ldr.w	r3, [r2], #4
    3cd4:	9207      	str	r2, [sp, #28]
    3cd6:	2200      	movs	r2, #0
    3cd8:	e5f9      	b.n	38ce <_vfiprintf_r+0x2c2>
    3cda:	9a07      	ldr	r2, [sp, #28]
    3cdc:	06b1      	lsls	r1, r6, #26
    3cde:	f102 0304 	add.w	r3, r2, #4
    3ce2:	f100 8218 	bmi.w	4116 <_vfiprintf_r+0xb0a>
    3ce6:	06f2      	lsls	r2, r6, #27
    3ce8:	f100 8311 	bmi.w	430e <_vfiprintf_r+0xd02>
    3cec:	0675      	lsls	r5, r6, #25
    3cee:	f100 837d 	bmi.w	43ec <_vfiprintf_r+0xde0>
    3cf2:	05b4      	lsls	r4, r6, #22
    3cf4:	f140 830b 	bpl.w	430e <_vfiprintf_r+0xd02>
    3cf8:	9a07      	ldr	r2, [sp, #28]
    3cfa:	9905      	ldr	r1, [sp, #20]
    3cfc:	6812      	ldr	r2, [r2, #0]
    3cfe:	9307      	str	r3, [sp, #28]
    3d00:	7011      	strb	r1, [r2, #0]
    3d02:	e4cc      	b.n	369e <_vfiprintf_r+0x92>
    3d04:	9b04      	ldr	r3, [sp, #16]
    3d06:	2201      	movs	r2, #1
    3d08:	af1b      	add	r7, sp, #108	; 0x6c
    3d0a:	941b      	str	r4, [sp, #108]	; 0x6c
    3d0c:	9219      	str	r2, [sp, #100]	; 0x64
    3d0e:	931c      	str	r3, [sp, #112]	; 0x70
    3d10:	931a      	str	r3, [sp, #104]	; 0x68
    3d12:	3708      	adds	r7, #8
    3d14:	e6d4      	b.n	3ac0 <_vfiprintf_r+0x4b4>
    3d16:	af1b      	add	r7, sp, #108	; 0x6c
    3d18:	e4c1      	b.n	369e <_vfiprintf_r+0x92>
    3d1a:	9602      	str	r6, [sp, #8]
    3d1c:	2901      	cmp	r1, #1
    3d1e:	f000 8175 	beq.w	400c <_vfiprintf_r+0xa00>
    3d22:	2902      	cmp	r1, #2
    3d24:	ac44      	add	r4, sp, #272	; 0x110
    3d26:	d111      	bne.n	3d4c <_vfiprintf_r+0x740>
    3d28:	980b      	ldr	r0, [sp, #44]	; 0x2c
    3d2a:	f003 010f 	and.w	r1, r3, #15
    3d2e:	091b      	lsrs	r3, r3, #4
    3d30:	5c41      	ldrb	r1, [r0, r1]
    3d32:	ea43 7302 	orr.w	r3, r3, r2, lsl #28
    3d36:	0912      	lsrs	r2, r2, #4
    3d38:	f804 1d01 	strb.w	r1, [r4, #-1]!
    3d3c:	ea53 0102 	orrs.w	r1, r3, r2
    3d40:	d1f3      	bne.n	3d2a <_vfiprintf_r+0x71e>
    3d42:	ab44      	add	r3, sp, #272	; 0x110
    3d44:	9e02      	ldr	r6, [sp, #8]
    3d46:	1b1b      	subs	r3, r3, r4
    3d48:	9304      	str	r3, [sp, #16]
    3d4a:	e5e3      	b.n	3914 <_vfiprintf_r+0x308>
    3d4c:	f003 0107 	and.w	r1, r3, #7
    3d50:	08db      	lsrs	r3, r3, #3
    3d52:	4620      	mov	r0, r4
    3d54:	ea43 7342 	orr.w	r3, r3, r2, lsl #29
    3d58:	3130      	adds	r1, #48	; 0x30
    3d5a:	08d2      	lsrs	r2, r2, #3
    3d5c:	f804 1d01 	strb.w	r1, [r4, #-1]!
    3d60:	ea53 0502 	orrs.w	r5, r3, r2
    3d64:	d1f2      	bne.n	3d4c <_vfiprintf_r+0x740>
    3d66:	2930      	cmp	r1, #48	; 0x30
    3d68:	d0eb      	beq.n	3d42 <_vfiprintf_r+0x736>
    3d6a:	9b02      	ldr	r3, [sp, #8]
    3d6c:	07dd      	lsls	r5, r3, #31
    3d6e:	d5e8      	bpl.n	3d42 <_vfiprintf_r+0x736>
    3d70:	2330      	movs	r3, #48	; 0x30
    3d72:	3802      	subs	r0, #2
    3d74:	9e02      	ldr	r6, [sp, #8]
    3d76:	f804 3c01 	strb.w	r3, [r4, #-1]
    3d7a:	ab44      	add	r3, sp, #272	; 0x110
    3d7c:	4604      	mov	r4, r0
    3d7e:	1a1b      	subs	r3, r3, r0
    3d80:	9304      	str	r3, [sp, #16]
    3d82:	e5c7      	b.n	3914 <_vfiprintf_r+0x308>
    3d84:	9b06      	ldr	r3, [sp, #24]
    3d86:	9802      	ldr	r0, [sp, #8]
    3d88:	1a1d      	subs	r5, r3, r0
    3d8a:	2d00      	cmp	r5, #0
    3d8c:	f77f ae7b 	ble.w	3a86 <_vfiprintf_r+0x47a>
    3d90:	2d10      	cmp	r5, #16
    3d92:	f340 8378 	ble.w	4486 <_vfiprintf_r+0xe7a>
    3d96:	4660      	mov	r0, ip
    3d98:	e00c      	b.n	3db4 <_vfiprintf_r+0x7a8>
    3d9a:	4651      	mov	r1, sl
    3d9c:	4658      	mov	r0, fp
    3d9e:	f7ff fbfb 	bl	3598 <__sprint_r.part.0>
    3da2:	2800      	cmp	r0, #0
    3da4:	f47f ae01 	bne.w	39aa <_vfiprintf_r+0x39e>
    3da8:	e9dd 2019 	ldrd	r2, r0, [sp, #100]	; 0x64
    3dac:	1c51      	adds	r1, r2, #1
    3dae:	3d10      	subs	r5, #16
    3db0:	2d10      	cmp	r5, #16
    3db2:	dd19      	ble.n	3de8 <_vfiprintf_r+0x7dc>
    3db4:	1c53      	adds	r3, r2, #1
    3db6:	4970      	ldr	r1, [pc, #448]	; (3f78 <_vfiprintf_r+0x96c>)
    3db8:	3010      	adds	r0, #16
    3dba:	3708      	adds	r7, #8
    3dbc:	f847 1c08 	str.w	r1, [r7, #-8]
    3dc0:	2b07      	cmp	r3, #7
    3dc2:	f04f 0110 	mov.w	r1, #16
    3dc6:	e9cd 3019 	strd	r3, r0, [sp, #100]	; 0x64
    3dca:	f847 1c04 	str.w	r1, [r7, #-4]
    3dce:	f102 0102 	add.w	r1, r2, #2
    3dd2:	461a      	mov	r2, r3
    3dd4:	ddeb      	ble.n	3dae <_vfiprintf_r+0x7a2>
    3dd6:	aa18      	add	r2, sp, #96	; 0x60
    3dd8:	af1b      	add	r7, sp, #108	; 0x6c
    3dda:	2800      	cmp	r0, #0
    3ddc:	d1dd      	bne.n	3d9a <_vfiprintf_r+0x78e>
    3dde:	3d10      	subs	r5, #16
    3de0:	2101      	movs	r1, #1
    3de2:	4602      	mov	r2, r0
    3de4:	2d10      	cmp	r5, #16
    3de6:	dce5      	bgt.n	3db4 <_vfiprintf_r+0x7a8>
    3de8:	4684      	mov	ip, r0
    3dea:	4608      	mov	r0, r1
    3dec:	44ac      	add	ip, r5
    3dee:	4b62      	ldr	r3, [pc, #392]	; (3f78 <_vfiprintf_r+0x96c>)
    3df0:	2807      	cmp	r0, #7
    3df2:	607d      	str	r5, [r7, #4]
    3df4:	603b      	str	r3, [r7, #0]
    3df6:	e9cd 0c19 	strd	r0, ip, [sp, #100]	; 0x64
    3dfa:	f340 8176 	ble.w	40ea <_vfiprintf_r+0xade>
    3dfe:	f1bc 0f00 	cmp.w	ip, #0
    3e02:	f000 82de 	beq.w	43c2 <_vfiprintf_r+0xdb6>
    3e06:	aa18      	add	r2, sp, #96	; 0x60
    3e08:	4651      	mov	r1, sl
    3e0a:	4658      	mov	r0, fp
    3e0c:	f7ff fbc4 	bl	3598 <__sprint_r.part.0>
    3e10:	2800      	cmp	r0, #0
    3e12:	f47f adca 	bne.w	39aa <_vfiprintf_r+0x39e>
    3e16:	af1b      	add	r7, sp, #108	; 0x6c
    3e18:	e9dd 3003 	ldrd	r3, r0, [sp, #12]
    3e1c:	e9dd 2c19 	ldrd	r2, ip, [sp, #100]	; 0x64
    3e20:	1a1d      	subs	r5, r3, r0
    3e22:	1c51      	adds	r1, r2, #1
    3e24:	2d00      	cmp	r5, #0
    3e26:	f77f ae34 	ble.w	3a92 <_vfiprintf_r+0x486>
    3e2a:	2d10      	cmp	r5, #16
    3e2c:	dd29      	ble.n	3e82 <_vfiprintf_r+0x876>
    3e2e:	4660      	mov	r0, ip
    3e30:	e00b      	b.n	3e4a <_vfiprintf_r+0x83e>
    3e32:	4658      	mov	r0, fp
    3e34:	f7ff fbb0 	bl	3598 <__sprint_r.part.0>
    3e38:	2800      	cmp	r0, #0
    3e3a:	f47f adb6 	bne.w	39aa <_vfiprintf_r+0x39e>
    3e3e:	e9dd 2019 	ldrd	r2, r0, [sp, #100]	; 0x64
    3e42:	1c51      	adds	r1, r2, #1
    3e44:	3d10      	subs	r5, #16
    3e46:	2d10      	cmp	r5, #16
    3e48:	dd1a      	ble.n	3e80 <_vfiprintf_r+0x874>
    3e4a:	1c53      	adds	r3, r2, #1
    3e4c:	494a      	ldr	r1, [pc, #296]	; (3f78 <_vfiprintf_r+0x96c>)
    3e4e:	3010      	adds	r0, #16
    3e50:	3708      	adds	r7, #8
    3e52:	f847 1c08 	str.w	r1, [r7, #-8]
    3e56:	2b07      	cmp	r3, #7
    3e58:	f04f 0110 	mov.w	r1, #16
    3e5c:	e9cd 3019 	strd	r3, r0, [sp, #100]	; 0x64
    3e60:	f847 1c04 	str.w	r1, [r7, #-4]
    3e64:	f102 0102 	add.w	r1, r2, #2
    3e68:	461a      	mov	r2, r3
    3e6a:	ddeb      	ble.n	3e44 <_vfiprintf_r+0x838>
    3e6c:	aa18      	add	r2, sp, #96	; 0x60
    3e6e:	4651      	mov	r1, sl
    3e70:	af1b      	add	r7, sp, #108	; 0x6c
    3e72:	2800      	cmp	r0, #0
    3e74:	d1dd      	bne.n	3e32 <_vfiprintf_r+0x826>
    3e76:	3d10      	subs	r5, #16
    3e78:	2101      	movs	r1, #1
    3e7a:	4602      	mov	r2, r0
    3e7c:	2d10      	cmp	r5, #16
    3e7e:	dce4      	bgt.n	3e4a <_vfiprintf_r+0x83e>
    3e80:	4684      	mov	ip, r0
    3e82:	44ac      	add	ip, r5
    3e84:	4b3c      	ldr	r3, [pc, #240]	; (3f78 <_vfiprintf_r+0x96c>)
    3e86:	2907      	cmp	r1, #7
    3e88:	607d      	str	r5, [r7, #4]
    3e8a:	603b      	str	r3, [r7, #0]
    3e8c:	e9cd 1c19 	strd	r1, ip, [sp, #100]	; 0x64
    3e90:	f300 80ca 	bgt.w	4028 <_vfiprintf_r+0xa1c>
    3e94:	3708      	adds	r7, #8
    3e96:	3101      	adds	r1, #1
    3e98:	e5fb      	b.n	3a92 <_vfiprintf_r+0x486>
    3e9a:	f1bc 0f00 	cmp.w	ip, #0
    3e9e:	f000 80f2 	beq.w	4086 <_vfiprintf_r+0xa7a>
    3ea2:	aa18      	add	r2, sp, #96	; 0x60
    3ea4:	4651      	mov	r1, sl
    3ea6:	4658      	mov	r0, fp
    3ea8:	f7ff fb76 	bl	3598 <__sprint_r.part.0>
    3eac:	2800      	cmp	r0, #0
    3eae:	f47f ad7c 	bne.w	39aa <_vfiprintf_r+0x39e>
    3eb2:	af1b      	add	r7, sp, #108	; 0x6c
    3eb4:	e9dd 2c19 	ldrd	r2, ip, [sp, #100]	; 0x64
    3eb8:	1c51      	adds	r1, r2, #1
    3eba:	e5c3      	b.n	3a44 <_vfiprintf_r+0x438>
    3ebc:	2302      	movs	r3, #2
    3ebe:	2101      	movs	r1, #1
    3ec0:	af1b      	add	r7, sp, #108	; 0x6c
    3ec2:	469c      	mov	ip, r3
    3ec4:	931c      	str	r3, [sp, #112]	; 0x70
    3ec6:	ab11      	add	r3, sp, #68	; 0x44
    3ec8:	931b      	str	r3, [sp, #108]	; 0x6c
    3eca:	460a      	mov	r2, r1
    3ecc:	3708      	adds	r7, #8
    3ece:	1c51      	adds	r1, r2, #1
    3ed0:	e5d5      	b.n	3a7e <_vfiprintf_r+0x472>
    3ed2:	2d10      	cmp	r5, #16
    3ed4:	f340 82c9 	ble.w	446a <_vfiprintf_r+0xe5e>
    3ed8:	940f      	str	r4, [sp, #60]	; 0x3c
    3eda:	2310      	movs	r3, #16
    3edc:	4664      	mov	r4, ip
    3ede:	e004      	b.n	3eea <_vfiprintf_r+0x8de>
    3ee0:	4602      	mov	r2, r0
    3ee2:	3d10      	subs	r5, #16
    3ee4:	1c50      	adds	r0, r2, #1
    3ee6:	2d10      	cmp	r5, #16
    3ee8:	dd1f      	ble.n	3f2a <_vfiprintf_r+0x91e>
    3eea:	3410      	adds	r4, #16
    3eec:	4923      	ldr	r1, [pc, #140]	; (3f7c <_vfiprintf_r+0x970>)
    3eee:	2807      	cmp	r0, #7
    3ef0:	f102 0e02 	add.w	lr, r2, #2
    3ef4:	e9c7 1300 	strd	r1, r3, [r7]
    3ef8:	e9cd 0419 	strd	r0, r4, [sp, #100]	; 0x64
    3efc:	f107 0708 	add.w	r7, r7, #8
    3f00:	ddee      	ble.n	3ee0 <_vfiprintf_r+0x8d4>
    3f02:	aa18      	add	r2, sp, #96	; 0x60
    3f04:	4651      	mov	r1, sl
    3f06:	4658      	mov	r0, fp
    3f08:	af1b      	add	r7, sp, #108	; 0x6c
    3f0a:	b1fc      	cbz	r4, 3f4c <_vfiprintf_r+0x940>
    3f0c:	f7ff fb44 	bl	3598 <__sprint_r.part.0>
    3f10:	2800      	cmp	r0, #0
    3f12:	f47f ad4a 	bne.w	39aa <_vfiprintf_r+0x39e>
    3f16:	3d10      	subs	r5, #16
    3f18:	2310      	movs	r3, #16
    3f1a:	e9dd 2419 	ldrd	r2, r4, [sp, #100]	; 0x64
    3f1e:	2d10      	cmp	r5, #16
    3f20:	f102 0e01 	add.w	lr, r2, #1
    3f24:	f102 0001 	add.w	r0, r2, #1
    3f28:	dcdf      	bgt.n	3eea <_vfiprintf_r+0x8de>
    3f2a:	46a4      	mov	ip, r4
    3f2c:	9c0f      	ldr	r4, [sp, #60]	; 0x3c
    3f2e:	44ac      	add	ip, r5
    3f30:	4b12      	ldr	r3, [pc, #72]	; (3f7c <_vfiprintf_r+0x970>)
    3f32:	f1be 0f07 	cmp.w	lr, #7
    3f36:	607d      	str	r5, [r7, #4]
    3f38:	603b      	str	r3, [r7, #0]
    3f3a:	e9cd ec19 	strd	lr, ip, [sp, #100]	; 0x64
    3f3e:	f300 80b6 	bgt.w	40ae <_vfiprintf_r+0xaa2>
    3f42:	3708      	adds	r7, #8
    3f44:	f10e 0101 	add.w	r1, lr, #1
    3f48:	4672      	mov	r2, lr
    3f4a:	e569      	b.n	3a20 <_vfiprintf_r+0x414>
    3f4c:	4622      	mov	r2, r4
    3f4e:	f04f 0e01 	mov.w	lr, #1
    3f52:	e7c6      	b.n	3ee2 <_vfiprintf_r+0x8d6>
    3f54:	0774      	lsls	r4, r6, #29
    3f56:	9319      	str	r3, [sp, #100]	; 0x64
    3f58:	d54a      	bpl.n	3ff0 <_vfiprintf_r+0x9e4>
    3f5a:	9a06      	ldr	r2, [sp, #24]
    3f5c:	9902      	ldr	r1, [sp, #8]
    3f5e:	1a54      	subs	r4, r2, r1
    3f60:	2c00      	cmp	r4, #0
    3f62:	dd45      	ble.n	3ff0 <_vfiprintf_r+0x9e4>
    3f64:	af1b      	add	r7, sp, #108	; 0x6c
    3f66:	2c10      	cmp	r4, #16
    3f68:	9919      	ldr	r1, [sp, #100]	; 0x64
    3f6a:	f340 828a 	ble.w	4482 <_vfiprintf_r+0xe76>
    3f6e:	2510      	movs	r5, #16
    3f70:	460e      	mov	r6, r1
    3f72:	e013      	b.n	3f9c <_vfiprintf_r+0x990>
    3f74:	00006710 	.word	0x00006710
    3f78:	0000673c 	.word	0x0000673c
    3f7c:	0000672c 	.word	0x0000672c
    3f80:	4651      	mov	r1, sl
    3f82:	4658      	mov	r0, fp
    3f84:	f7ff fb08 	bl	3598 <__sprint_r.part.0>
    3f88:	2800      	cmp	r0, #0
    3f8a:	f47f ad0e 	bne.w	39aa <_vfiprintf_r+0x39e>
    3f8e:	af1b      	add	r7, sp, #108	; 0x6c
    3f90:	e9dd 6319 	ldrd	r6, r3, [sp, #100]	; 0x64
    3f94:	1c70      	adds	r0, r6, #1
    3f96:	3c10      	subs	r4, #16
    3f98:	2c10      	cmp	r4, #16
    3f9a:	dd15      	ble.n	3fc8 <_vfiprintf_r+0x9bc>
    3f9c:	1c72      	adds	r2, r6, #1
    3f9e:	3310      	adds	r3, #16
    3fa0:	49aa      	ldr	r1, [pc, #680]	; (424c <_vfiprintf_r+0xc40>)
    3fa2:	1cb0      	adds	r0, r6, #2
    3fa4:	2a07      	cmp	r2, #7
    3fa6:	4616      	mov	r6, r2
    3fa8:	e9c7 1500 	strd	r1, r5, [r7]
    3fac:	e9cd 2319 	strd	r2, r3, [sp, #100]	; 0x64
    3fb0:	f107 0708 	add.w	r7, r7, #8
    3fb4:	ddef      	ble.n	3f96 <_vfiprintf_r+0x98a>
    3fb6:	aa18      	add	r2, sp, #96	; 0x60
    3fb8:	2b00      	cmp	r3, #0
    3fba:	d1e1      	bne.n	3f80 <_vfiprintf_r+0x974>
    3fbc:	3c10      	subs	r4, #16
    3fbe:	2001      	movs	r0, #1
    3fc0:	461e      	mov	r6, r3
    3fc2:	af1b      	add	r7, sp, #108	; 0x6c
    3fc4:	2c10      	cmp	r4, #16
    3fc6:	dce9      	bgt.n	3f9c <_vfiprintf_r+0x990>
    3fc8:	4423      	add	r3, r4
    3fca:	4aa0      	ldr	r2, [pc, #640]	; (424c <_vfiprintf_r+0xc40>)
    3fcc:	2807      	cmp	r0, #7
    3fce:	607c      	str	r4, [r7, #4]
    3fd0:	603a      	str	r2, [r7, #0]
    3fd2:	e9cd 0319 	strd	r0, r3, [sp, #100]	; 0x64
    3fd6:	f77f ad7b 	ble.w	3ad0 <_vfiprintf_r+0x4c4>
    3fda:	b14b      	cbz	r3, 3ff0 <_vfiprintf_r+0x9e4>
    3fdc:	aa18      	add	r2, sp, #96	; 0x60
    3fde:	4651      	mov	r1, sl
    3fe0:	4658      	mov	r0, fp
    3fe2:	f7ff fad9 	bl	3598 <__sprint_r.part.0>
    3fe6:	2800      	cmp	r0, #0
    3fe8:	f47f acdf 	bne.w	39aa <_vfiprintf_r+0x39e>
    3fec:	9b1a      	ldr	r3, [sp, #104]	; 0x68
    3fee:	e56f      	b.n	3ad0 <_vfiprintf_r+0x4c4>
    3ff0:	e9dd 3205 	ldrd	r3, r2, [sp, #20]
    3ff4:	9902      	ldr	r1, [sp, #8]
    3ff6:	428a      	cmp	r2, r1
    3ff8:	bfac      	ite	ge
    3ffa:	189b      	addge	r3, r3, r2
    3ffc:	185b      	addlt	r3, r3, r1
    3ffe:	9305      	str	r3, [sp, #20]
    4000:	e571      	b.n	3ae6 <_vfiprintf_r+0x4da>
    4002:	ac44      	add	r4, sp, #272	; 0x110
    4004:	9003      	str	r0, [sp, #12]
    4006:	9004      	str	r0, [sp, #16]
    4008:	e484      	b.n	3914 <_vfiprintf_r+0x308>
    400a:	9602      	str	r6, [sp, #8]
    400c:	2b0a      	cmp	r3, #10
    400e:	f172 0100 	sbcs.w	r1, r2, #0
    4012:	f080 8106 	bcs.w	4222 <_vfiprintf_r+0xc16>
    4016:	3330      	adds	r3, #48	; 0x30
    4018:	9e02      	ldr	r6, [sp, #8]
    401a:	f20d 140f 	addw	r4, sp, #271	; 0x10f
    401e:	f88d 310f 	strb.w	r3, [sp, #271]	; 0x10f
    4022:	2301      	movs	r3, #1
    4024:	9304      	str	r3, [sp, #16]
    4026:	e475      	b.n	3914 <_vfiprintf_r+0x308>
    4028:	f1bc 0f00 	cmp.w	ip, #0
    402c:	f43f ae6a 	beq.w	3d04 <_vfiprintf_r+0x6f8>
    4030:	aa18      	add	r2, sp, #96	; 0x60
    4032:	4651      	mov	r1, sl
    4034:	4658      	mov	r0, fp
    4036:	f7ff faaf 	bl	3598 <__sprint_r.part.0>
    403a:	2800      	cmp	r0, #0
    403c:	f47f acb5 	bne.w	39aa <_vfiprintf_r+0x39e>
    4040:	9919      	ldr	r1, [sp, #100]	; 0x64
    4042:	af1b      	add	r7, sp, #108	; 0x6c
    4044:	f8dd c068 	ldr.w	ip, [sp, #104]	; 0x68
    4048:	3101      	adds	r1, #1
    404a:	e522      	b.n	3a92 <_vfiprintf_r+0x486>
    404c:	af1b      	add	r7, sp, #108	; 0x6c
    404e:	9219      	str	r2, [sp, #100]	; 0x64
    4050:	e492      	b.n	3978 <_vfiprintf_r+0x36c>
    4052:	ac44      	add	r4, sp, #272	; 0x110
    4054:	e45e      	b.n	3914 <_vfiprintf_r+0x308>
    4056:	9907      	ldr	r1, [sp, #28]
    4058:	f851 3b04 	ldr.w	r3, [r1], #4
    405c:	9107      	str	r1, [sp, #28]
    405e:	9902      	ldr	r1, [sp, #8]
    4060:	f011 0110 	ands.w	r1, r1, #16
    4064:	d10d      	bne.n	4082 <_vfiprintf_r+0xa76>
    4066:	9a02      	ldr	r2, [sp, #8]
    4068:	f012 0040 	ands.w	r0, r2, #64	; 0x40
    406c:	d003      	beq.n	4076 <_vfiprintf_r+0xa6a>
    406e:	460a      	mov	r2, r1
    4070:	b29b      	uxth	r3, r3
    4072:	2101      	movs	r1, #1
    4074:	e42b      	b.n	38ce <_vfiprintf_r+0x2c2>
    4076:	9a02      	ldr	r2, [sp, #8]
    4078:	f412 7200 	ands.w	r2, r2, #512	; 0x200
    407c:	d001      	beq.n	4082 <_vfiprintf_r+0xa76>
    407e:	b2db      	uxtb	r3, r3
    4080:	4602      	mov	r2, r0
    4082:	2101      	movs	r1, #1
    4084:	e423      	b.n	38ce <_vfiprintf_r+0x2c2>
    4086:	9b09      	ldr	r3, [sp, #36]	; 0x24
    4088:	2b00      	cmp	r3, #0
    408a:	d14c      	bne.n	4126 <_vfiprintf_r+0xb1a>
    408c:	4662      	mov	r2, ip
    408e:	2101      	movs	r1, #1
    4090:	af1b      	add	r7, sp, #108	; 0x6c
    4092:	e4f4      	b.n	3a7e <_vfiprintf_r+0x472>
    4094:	2101      	movs	r1, #1
    4096:	4662      	mov	r2, ip
    4098:	af1b      	add	r7, sp, #108	; 0x6c
    409a:	e4f0      	b.n	3a7e <_vfiprintf_r+0x472>
    409c:	425b      	negs	r3, r3
    409e:	f04f 002d 	mov.w	r0, #45	; 0x2d
    40a2:	f04f 0101 	mov.w	r1, #1
    40a6:	9602      	str	r6, [sp, #8]
    40a8:	eb62 0242 	sbc.w	r2, r2, r2, lsl #1
    40ac:	e410      	b.n	38d0 <_vfiprintf_r+0x2c4>
    40ae:	f1bc 0f00 	cmp.w	ip, #0
    40b2:	d06e      	beq.n	4192 <_vfiprintf_r+0xb86>
    40b4:	aa18      	add	r2, sp, #96	; 0x60
    40b6:	4651      	mov	r1, sl
    40b8:	4658      	mov	r0, fp
    40ba:	f7ff fa6d 	bl	3598 <__sprint_r.part.0>
    40be:	2800      	cmp	r0, #0
    40c0:	f47f ac73 	bne.w	39aa <_vfiprintf_r+0x39e>
    40c4:	af1b      	add	r7, sp, #108	; 0x6c
    40c6:	e9dd 2c19 	ldrd	r2, ip, [sp, #100]	; 0x64
    40ca:	1c51      	adds	r1, r2, #1
    40cc:	e4a8      	b.n	3a20 <_vfiprintf_r+0x414>
    40ce:	f898 1000 	ldrb.w	r1, [r8]
    40d2:	9307      	str	r3, [sp, #28]
    40d4:	f7ff bb0c 	b.w	36f0 <_vfiprintf_r+0xe4>
    40d8:	f8da 0058 	ldr.w	r0, [sl, #88]	; 0x58
    40dc:	f001 f872 	bl	51c4 <__retarget_lock_acquire_recursive>
    40e0:	f9ba 100c 	ldrsh.w	r1, [sl, #12]
    40e4:	b28a      	uxth	r2, r1
    40e6:	f7ff bab4 	b.w	3652 <_vfiprintf_r+0x46>
    40ea:	3708      	adds	r7, #8
    40ec:	1c41      	adds	r1, r0, #1
    40ee:	4602      	mov	r2, r0
    40f0:	e4c9      	b.n	3a86 <_vfiprintf_r+0x47a>
    40f2:	05b0      	lsls	r0, r6, #22
    40f4:	f100 816a 	bmi.w	43cc <_vfiprintf_r+0xdc0>
    40f8:	17da      	asrs	r2, r3, #31
    40fa:	4611      	mov	r1, r2
    40fc:	f7ff bb95 	b.w	382a <_vfiprintf_r+0x21e>
    4100:	9b0c      	ldr	r3, [sp, #48]	; 0x30
    4102:	f898 1000 	ldrb.w	r1, [r8]
    4106:	781b      	ldrb	r3, [r3, #0]
    4108:	2b00      	cmp	r3, #0
    410a:	f43f aaf1 	beq.w	36f0 <_vfiprintf_r+0xe4>
    410e:	f446 6680 	orr.w	r6, r6, #1024	; 0x400
    4112:	f7ff baed 	b.w	36f0 <_vfiprintf_r+0xe4>
    4116:	6812      	ldr	r2, [r2, #0]
    4118:	9307      	str	r3, [sp, #28]
    411a:	9b05      	ldr	r3, [sp, #20]
    411c:	6013      	str	r3, [r2, #0]
    411e:	17db      	asrs	r3, r3, #31
    4120:	6053      	str	r3, [r2, #4]
    4122:	f7ff babc 	b.w	369e <_vfiprintf_r+0x92>
    4126:	2302      	movs	r3, #2
    4128:	2201      	movs	r2, #1
    412a:	af1b      	add	r7, sp, #108	; 0x6c
    412c:	469c      	mov	ip, r3
    412e:	931c      	str	r3, [sp, #112]	; 0x70
    4130:	ab11      	add	r3, sp, #68	; 0x44
    4132:	931b      	str	r3, [sp, #108]	; 0x6c
    4134:	e6ca      	b.n	3ecc <_vfiprintf_r+0x8c0>
    4136:	9602      	str	r6, [sp, #8]
    4138:	e5af      	b.n	3c9a <_vfiprintf_r+0x68e>
    413a:	4b45      	ldr	r3, [pc, #276]	; (4250 <_vfiprintf_r+0xc44>)
    413c:	930b      	str	r3, [sp, #44]	; 0x2c
    413e:	f016 0220 	ands.w	r2, r6, #32
    4142:	d060      	beq.n	4206 <_vfiprintf_r+0xbfa>
    4144:	9b07      	ldr	r3, [sp, #28]
    4146:	3307      	adds	r3, #7
    4148:	f023 0307 	bic.w	r3, r3, #7
    414c:	4618      	mov	r0, r3
    414e:	685a      	ldr	r2, [r3, #4]
    4150:	f850 3b08 	ldr.w	r3, [r0], #8
    4154:	9007      	str	r0, [sp, #28]
    4156:	ea53 0002 	orrs.w	r0, r3, r2
    415a:	d008      	beq.n	416e <_vfiprintf_r+0xb62>
    415c:	07f0      	lsls	r0, r6, #31
    415e:	d506      	bpl.n	416e <_vfiprintf_r+0xb62>
    4160:	f88d 1045 	strb.w	r1, [sp, #69]	; 0x45
    4164:	f046 0602 	orr.w	r6, r6, #2
    4168:	2130      	movs	r1, #48	; 0x30
    416a:	f88d 1044 	strb.w	r1, [sp, #68]	; 0x44
    416e:	f426 6180 	bic.w	r1, r6, #1024	; 0x400
    4172:	9102      	str	r1, [sp, #8]
    4174:	2102      	movs	r1, #2
    4176:	f7ff bbaa 	b.w	38ce <_vfiprintf_r+0x2c2>
    417a:	4b36      	ldr	r3, [pc, #216]	; (4254 <_vfiprintf_r+0xc48>)
    417c:	930b      	str	r3, [sp, #44]	; 0x2c
    417e:	e7de      	b.n	413e <_vfiprintf_r+0xb32>
    4180:	9b07      	ldr	r3, [sp, #28]
    4182:	ac2b      	add	r4, sp, #172	; 0xac
    4184:	681b      	ldr	r3, [r3, #0]
    4186:	f88d 30ac 	strb.w	r3, [sp, #172]	; 0xac
    418a:	2301      	movs	r3, #1
    418c:	9302      	str	r3, [sp, #8]
    418e:	9304      	str	r3, [sp, #16]
    4190:	e524      	b.n	3bdc <_vfiprintf_r+0x5d0>
    4192:	f89d 2043 	ldrb.w	r2, [sp, #67]	; 0x43
    4196:	2a00      	cmp	r2, #0
    4198:	f040 811e 	bne.w	43d8 <_vfiprintf_r+0xdcc>
    419c:	9b09      	ldr	r3, [sp, #36]	; 0x24
    419e:	2b00      	cmp	r3, #0
    41a0:	f47f ae8c 	bne.w	3ebc <_vfiprintf_r+0x8b0>
    41a4:	4662      	mov	r2, ip
    41a6:	2101      	movs	r1, #1
    41a8:	af1b      	add	r7, sp, #108	; 0x6c
    41aa:	e46c      	b.n	3a86 <_vfiprintf_r+0x47a>
    41ac:	2208      	movs	r2, #8
    41ae:	2100      	movs	r1, #0
    41b0:	a816      	add	r0, sp, #88	; 0x58
    41b2:	9413      	str	r4, [sp, #76]	; 0x4c
    41b4:	f7ff f980 	bl	34b8 <memset>
    41b8:	9b03      	ldr	r3, [sp, #12]
    41ba:	1c58      	adds	r0, r3, #1
    41bc:	f000 80c8 	beq.w	4350 <_vfiprintf_r+0xd44>
    41c0:	2500      	movs	r5, #0
    41c2:	9407      	str	r4, [sp, #28]
    41c4:	f8cd 8020 	str.w	r8, [sp, #32]
    41c8:	46b8      	mov	r8, r7
    41ca:	462c      	mov	r4, r5
    41cc:	4637      	mov	r7, r6
    41ce:	461e      	mov	r6, r3
    41d0:	e00c      	b.n	41ec <_vfiprintf_r+0xbe0>
    41d2:	a92b      	add	r1, sp, #172	; 0xac
    41d4:	4658      	mov	r0, fp
    41d6:	f000 f9d7 	bl	4588 <_wcrtomb_r>
    41da:	1c41      	adds	r1, r0, #1
    41dc:	4420      	add	r0, r4
    41de:	f000 8159 	beq.w	4494 <_vfiprintf_r+0xe88>
    41e2:	42b0      	cmp	r0, r6
    41e4:	dc08      	bgt.n	41f8 <_vfiprintf_r+0xbec>
    41e6:	f000 815d 	beq.w	44a4 <_vfiprintf_r+0xe98>
    41ea:	4604      	mov	r4, r0
    41ec:	9a13      	ldr	r2, [sp, #76]	; 0x4c
    41ee:	ab16      	add	r3, sp, #88	; 0x58
    41f0:	5952      	ldr	r2, [r2, r5]
    41f2:	3504      	adds	r5, #4
    41f4:	2a00      	cmp	r2, #0
    41f6:	d1ec      	bne.n	41d2 <_vfiprintf_r+0xbc6>
    41f8:	463e      	mov	r6, r7
    41fa:	9404      	str	r4, [sp, #16]
    41fc:	4647      	mov	r7, r8
    41fe:	9c07      	ldr	r4, [sp, #28]
    4200:	f8dd 8020 	ldr.w	r8, [sp, #32]
    4204:	e0b2      	b.n	436c <_vfiprintf_r+0xd60>
    4206:	9807      	ldr	r0, [sp, #28]
    4208:	f850 3b04 	ldr.w	r3, [r0], #4
    420c:	9007      	str	r0, [sp, #28]
    420e:	f016 0010 	ands.w	r0, r6, #16
    4212:	d1a0      	bne.n	4156 <_vfiprintf_r+0xb4a>
    4214:	f016 0440 	ands.w	r4, r6, #64	; 0x40
    4218:	f000 808b 	beq.w	4332 <_vfiprintf_r+0xd26>
    421c:	b29b      	uxth	r3, r3
    421e:	4602      	mov	r2, r0
    4220:	e799      	b.n	4156 <_vfiprintf_r+0xb4a>
    4222:	9902      	ldr	r1, [sp, #8]
    4224:	f04f 0e00 	mov.w	lr, #0
    4228:	f50d 7c88 	add.w	ip, sp, #272	; 0x110
    422c:	ee08 aa90 	vmov	s17, sl
    4230:	f401 6180 	and.w	r1, r1, #1024	; 0x400
    4234:	46f2      	mov	sl, lr
    4236:	f8cd 8010 	str.w	r8, [sp, #16]
    423a:	46e6      	mov	lr, ip
    423c:	46b8      	mov	r8, r7
    423e:	4694      	mov	ip, r2
    4240:	ee08 ba10 	vmov	s16, fp
    4244:	460f      	mov	r7, r1
    4246:	461a      	mov	r2, r3
    4248:	e00d      	b.n	4266 <_vfiprintf_r+0xc5a>
    424a:	bf00      	nop
    424c:	0000672c 	.word	0x0000672c
    4250:	00006710 	.word	0x00006710
    4254:	000066fc 	.word	0x000066fc
    4258:	2a0a      	cmp	r2, #10
    425a:	f17c 0c00 	sbcs.w	ip, ip, #0
    425e:	d339      	bcc.n	42d4 <_vfiprintf_r+0xcc8>
    4260:	4632      	mov	r2, r6
    4262:	46ac      	mov	ip, r5
    4264:	46a6      	mov	lr, r4
    4266:	eb12 000c 	adds.w	r0, r2, ip
    426a:	49a5      	ldr	r1, [pc, #660]	; (4500 <_vfiprintf_r+0xef4>)
    426c:	f10a 0a01 	add.w	sl, sl, #1
    4270:	f10e 34ff 	add.w	r4, lr, #4294967295	; 0xffffffff
    4274:	f140 0000 	adc.w	r0, r0, #0
    4278:	460b      	mov	r3, r1
    427a:	fba1 1500 	umull	r1, r5, r1, r0
    427e:	f025 0103 	bic.w	r1, r5, #3
    4282:	eb01 0195 	add.w	r1, r1, r5, lsr #2
    4286:	f04f 35cc 	mov.w	r5, #3435973836	; 0xcccccccc
    428a:	1a40      	subs	r0, r0, r1
    428c:	1a11      	subs	r1, r2, r0
    428e:	f16c 0600 	sbc.w	r6, ip, #0
    4292:	fb05 f501 	mul.w	r5, r5, r1
    4296:	fb03 5506 	mla	r5, r3, r6, r5
    429a:	fba1 6103 	umull	r6, r1, r1, r3
    429e:	2305      	movs	r3, #5
    42a0:	440d      	add	r5, r1
    42a2:	f006 0101 	and.w	r1, r6, #1
    42a6:	0876      	lsrs	r6, r6, #1
    42a8:	fba1 1b03 	umull	r1, fp, r1, r3
    42ac:	ea46 76c5 	orr.w	r6, r6, r5, lsl #31
    42b0:	1809      	adds	r1, r1, r0
    42b2:	086d      	lsrs	r5, r5, #1
    42b4:	3130      	adds	r1, #48	; 0x30
    42b6:	f80e 1c01 	strb.w	r1, [lr, #-1]
    42ba:	2f00      	cmp	r7, #0
    42bc:	d0cc      	beq.n	4258 <_vfiprintf_r+0xc4c>
    42be:	9b0c      	ldr	r3, [sp, #48]	; 0x30
    42c0:	7819      	ldrb	r1, [r3, #0]
    42c2:	29ff      	cmp	r1, #255	; 0xff
    42c4:	d0c8      	beq.n	4258 <_vfiprintf_r+0xc4c>
    42c6:	4551      	cmp	r1, sl
    42c8:	d1c6      	bne.n	4258 <_vfiprintf_r+0xc4c>
    42ca:	2a0a      	cmp	r2, #10
    42cc:	f17c 0c00 	sbcs.w	ip, ip, #0
    42d0:	f080 80ab 	bcs.w	442a <_vfiprintf_r+0xe1e>
    42d4:	ab44      	add	r3, sp, #272	; 0x110
    42d6:	4647      	mov	r7, r8
    42d8:	ee18 ba10 	vmov	fp, s16
    42dc:	f8dd 8010 	ldr.w	r8, [sp, #16]
    42e0:	1b1b      	subs	r3, r3, r4
    42e2:	ee18 aa90 	vmov	sl, s17
    42e6:	9e02      	ldr	r6, [sp, #8]
    42e8:	9304      	str	r3, [sp, #16]
    42ea:	f7ff bb13 	b.w	3914 <_vfiprintf_r+0x308>
    42ee:	f898 1001 	ldrb.w	r1, [r8, #1]
    42f2:	f446 7600 	orr.w	r6, r6, #512	; 0x200
    42f6:	f108 0801 	add.w	r8, r8, #1
    42fa:	f7ff b9f9 	b.w	36f0 <_vfiprintf_r+0xe4>
    42fe:	f898 1001 	ldrb.w	r1, [r8, #1]
    4302:	f046 0620 	orr.w	r6, r6, #32
    4306:	f108 0801 	add.w	r8, r8, #1
    430a:	f7ff b9f1 	b.w	36f0 <_vfiprintf_r+0xe4>
    430e:	9a07      	ldr	r2, [sp, #28]
    4310:	9905      	ldr	r1, [sp, #20]
    4312:	6812      	ldr	r2, [r2, #0]
    4314:	6011      	str	r1, [r2, #0]
    4316:	9307      	str	r3, [sp, #28]
    4318:	f7ff b9c1 	b.w	369e <_vfiprintf_r+0x92>
    431c:	9b03      	ldr	r3, [sp, #12]
    431e:	9a02      	ldr	r2, [sp, #8]
    4320:	2b06      	cmp	r3, #6
    4322:	4c78      	ldr	r4, [pc, #480]	; (4504 <_vfiprintf_r+0xef8>)
    4324:	9207      	str	r2, [sp, #28]
    4326:	bf28      	it	cs
    4328:	2306      	movcs	r3, #6
    432a:	9304      	str	r3, [sp, #16]
    432c:	9302      	str	r3, [sp, #8]
    432e:	f7ff bb5e 	b.w	39ee <_vfiprintf_r+0x3e2>
    4332:	f416 7200 	ands.w	r2, r6, #512	; 0x200
    4336:	f43f af0e 	beq.w	4156 <_vfiprintf_r+0xb4a>
    433a:	b2db      	uxtb	r3, r3
    433c:	4622      	mov	r2, r4
    433e:	e70a      	b.n	4156 <_vfiprintf_r+0xb4a>
    4340:	f416 7200 	ands.w	r2, r6, #512	; 0x200
    4344:	f43f aabf 	beq.w	38c6 <_vfiprintf_r+0x2ba>
    4348:	b2db      	uxtb	r3, r3
    434a:	4602      	mov	r2, r0
    434c:	f7ff babb 	b.w	38c6 <_vfiprintf_r+0x2ba>
    4350:	ab16      	add	r3, sp, #88	; 0x58
    4352:	aa13      	add	r2, sp, #76	; 0x4c
    4354:	4658      	mov	r0, fp
    4356:	9300      	str	r3, [sp, #0]
    4358:	2300      	movs	r3, #0
    435a:	4619      	mov	r1, r3
    435c:	f000 f93a 	bl	45d4 <_wcsrtombs_r>
    4360:	4603      	mov	r3, r0
    4362:	9004      	str	r0, [sp, #16]
    4364:	3301      	adds	r3, #1
    4366:	f000 8095 	beq.w	4494 <_vfiprintf_r+0xe88>
    436a:	9413      	str	r4, [sp, #76]	; 0x4c
    436c:	9b04      	ldr	r3, [sp, #16]
    436e:	b303      	cbz	r3, 43b2 <_vfiprintf_r+0xda6>
    4370:	2b63      	cmp	r3, #99	; 0x63
    4372:	dc42      	bgt.n	43fa <_vfiprintf_r+0xdee>
    4374:	2300      	movs	r3, #0
    4376:	ac2b      	add	r4, sp, #172	; 0xac
    4378:	9308      	str	r3, [sp, #32]
    437a:	2208      	movs	r2, #8
    437c:	2100      	movs	r1, #0
    437e:	a816      	add	r0, sp, #88	; 0x58
    4380:	f7ff f89a 	bl	34b8 <memset>
    4384:	9d04      	ldr	r5, [sp, #16]
    4386:	ab16      	add	r3, sp, #88	; 0x58
    4388:	aa13      	add	r2, sp, #76	; 0x4c
    438a:	4621      	mov	r1, r4
    438c:	4658      	mov	r0, fp
    438e:	9300      	str	r3, [sp, #0]
    4390:	462b      	mov	r3, r5
    4392:	f000 f91f 	bl	45d4 <_wcsrtombs_r>
    4396:	4285      	cmp	r5, r0
    4398:	f040 80a9 	bne.w	44ee <_vfiprintf_r+0xee2>
    439c:	9b02      	ldr	r3, [sp, #8]
    439e:	9a04      	ldr	r2, [sp, #16]
    43a0:	9307      	str	r3, [sp, #28]
    43a2:	2300      	movs	r3, #0
    43a4:	54a3      	strb	r3, [r4, r2]
    43a6:	9303      	str	r3, [sp, #12]
    43a8:	ea22 73e2 	bic.w	r3, r2, r2, asr #31
    43ac:	9302      	str	r3, [sp, #8]
    43ae:	f7ff bab9 	b.w	3924 <_vfiprintf_r+0x318>
    43b2:	9b02      	ldr	r3, [sp, #8]
    43b4:	9307      	str	r3, [sp, #28]
    43b6:	9b04      	ldr	r3, [sp, #16]
    43b8:	e9cd 3302 	strd	r3, r3, [sp, #8]
    43bc:	9308      	str	r3, [sp, #32]
    43be:	f7ff bab1 	b.w	3924 <_vfiprintf_r+0x318>
    43c2:	2101      	movs	r1, #1
    43c4:	4662      	mov	r2, ip
    43c6:	af1b      	add	r7, sp, #108	; 0x6c
    43c8:	f7ff bb5d 	b.w	3a86 <_vfiprintf_r+0x47a>
    43cc:	f343 12c0 	sbfx	r2, r3, #7, #1
    43d0:	b25b      	sxtb	r3, r3
    43d2:	4611      	mov	r1, r2
    43d4:	f7ff ba29 	b.w	382a <_vfiprintf_r+0x21e>
    43d8:	2301      	movs	r3, #1
    43da:	f10d 0243 	add.w	r2, sp, #67	; 0x43
    43de:	af1b      	add	r7, sp, #108	; 0x6c
    43e0:	4619      	mov	r1, r3
    43e2:	469c      	mov	ip, r3
    43e4:	931c      	str	r3, [sp, #112]	; 0x70
    43e6:	921b      	str	r2, [sp, #108]	; 0x6c
    43e8:	f7ff bb29 	b.w	3a3e <_vfiprintf_r+0x432>
    43ec:	9a07      	ldr	r2, [sp, #28]
    43ee:	9905      	ldr	r1, [sp, #20]
    43f0:	6812      	ldr	r2, [r2, #0]
    43f2:	9307      	str	r3, [sp, #28]
    43f4:	8011      	strh	r1, [r2, #0]
    43f6:	f7ff b952 	b.w	369e <_vfiprintf_r+0x92>
    43fa:	1c59      	adds	r1, r3, #1
    43fc:	4658      	mov	r0, fp
    43fe:	f7fe fd6d 	bl	2edc <_malloc_r>
    4402:	4604      	mov	r4, r0
    4404:	2800      	cmp	r0, #0
    4406:	d045      	beq.n	4494 <_vfiprintf_r+0xe88>
    4408:	9008      	str	r0, [sp, #32]
    440a:	e7b6      	b.n	437a <_vfiprintf_r+0xd6e>
    440c:	f8da 0058 	ldr.w	r0, [sl, #88]	; 0x58
    4410:	f000 feda 	bl	51c8 <__retarget_lock_release_recursive>
    4414:	f7ff ba3b 	b.w	388e <_vfiprintf_r+0x282>
    4418:	9b02      	ldr	r3, [sp, #8]
    441a:	9307      	str	r3, [sp, #28]
    441c:	9b03      	ldr	r3, [sp, #12]
    441e:	9302      	str	r3, [sp, #8]
    4420:	9304      	str	r3, [sp, #16]
    4422:	9b08      	ldr	r3, [sp, #32]
    4424:	9303      	str	r3, [sp, #12]
    4426:	f7ff ba7d 	b.w	3924 <_vfiprintf_r+0x318>
    442a:	9b0e      	ldr	r3, [sp, #56]	; 0x38
    442c:	990d      	ldr	r1, [sp, #52]	; 0x34
    442e:	1ae4      	subs	r4, r4, r3
    4430:	461a      	mov	r2, r3
    4432:	4620      	mov	r0, r4
    4434:	f001 fab0 	bl	5998 <strncpy>
    4438:	9b0c      	ldr	r3, [sp, #48]	; 0x30
    443a:	785a      	ldrb	r2, [r3, #1]
    443c:	b10a      	cbz	r2, 4442 <_vfiprintf_r+0xe36>
    443e:	3301      	adds	r3, #1
    4440:	930c      	str	r3, [sp, #48]	; 0x30
    4442:	f04f 0a00 	mov.w	sl, #0
    4446:	e70b      	b.n	4260 <_vfiprintf_r+0xc54>
    4448:	9b02      	ldr	r3, [sp, #8]
    444a:	4620      	mov	r0, r4
    444c:	9503      	str	r5, [sp, #12]
    444e:	9307      	str	r3, [sp, #28]
    4450:	f001 fa74 	bl	593c <strlen>
    4454:	ea20 73e0 	bic.w	r3, r0, r0, asr #31
    4458:	9004      	str	r0, [sp, #16]
    445a:	9508      	str	r5, [sp, #32]
    445c:	9302      	str	r3, [sp, #8]
    445e:	f7ff ba61 	b.w	3924 <_vfiprintf_r+0x318>
    4462:	2300      	movs	r3, #0
    4464:	9303      	str	r3, [sp, #12]
    4466:	f7ff b945 	b.w	36f4 <_vfiprintf_r+0xe8>
    446a:	4686      	mov	lr, r0
    446c:	e55f      	b.n	3f2e <_vfiprintf_r+0x922>
    446e:	aa18      	add	r2, sp, #96	; 0x60
    4470:	4651      	mov	r1, sl
    4472:	4658      	mov	r0, fp
    4474:	f7ff f890 	bl	3598 <__sprint_r.part.0>
    4478:	2800      	cmp	r0, #0
    447a:	f43f aa87 	beq.w	398c <_vfiprintf_r+0x380>
    447e:	f7ff ba9a 	b.w	39b6 <_vfiprintf_r+0x3aa>
    4482:	1c48      	adds	r0, r1, #1
    4484:	e5a0      	b.n	3fc8 <_vfiprintf_r+0x9bc>
    4486:	4608      	mov	r0, r1
    4488:	e4b0      	b.n	3dec <_vfiprintf_r+0x7e0>
    448a:	f04f 33ff 	mov.w	r3, #4294967295	; 0xffffffff
    448e:	9305      	str	r3, [sp, #20]
    4490:	f7ff ba9c 	b.w	39cc <_vfiprintf_r+0x3c0>
    4494:	f9ba 300c 	ldrsh.w	r3, [sl, #12]
    4498:	f043 0340 	orr.w	r3, r3, #64	; 0x40
    449c:	f8aa 300c 	strh.w	r3, [sl, #12]
    44a0:	f7ff ba8b 	b.w	39ba <_vfiprintf_r+0x3ae>
    44a4:	9b03      	ldr	r3, [sp, #12]
    44a6:	463e      	mov	r6, r7
    44a8:	9c07      	ldr	r4, [sp, #28]
    44aa:	4647      	mov	r7, r8
    44ac:	9304      	str	r3, [sp, #16]
    44ae:	f8dd 8020 	ldr.w	r8, [sp, #32]
    44b2:	e75b      	b.n	436c <_vfiprintf_r+0xd60>
    44b4:	9b07      	ldr	r3, [sp, #28]
    44b6:	f898 1001 	ldrb.w	r1, [r8, #1]
    44ba:	4690      	mov	r8, r2
    44bc:	f853 2b04 	ldr.w	r2, [r3], #4
    44c0:	ea42 72e2 	orr.w	r2, r2, r2, asr #31
    44c4:	9307      	str	r3, [sp, #28]
    44c6:	9203      	str	r2, [sp, #12]
    44c8:	f7ff b912 	b.w	36f0 <_vfiprintf_r+0xe4>
    44cc:	f8da 3064 	ldr.w	r3, [sl, #100]	; 0x64
    44d0:	07dd      	lsls	r5, r3, #31
    44d2:	d4da      	bmi.n	448a <_vfiprintf_r+0xe7e>
    44d4:	f8ba 300c 	ldrh.w	r3, [sl, #12]
    44d8:	059c      	lsls	r4, r3, #22
    44da:	d4d6      	bmi.n	448a <_vfiprintf_r+0xe7e>
    44dc:	f04f 33ff 	mov.w	r3, #4294967295	; 0xffffffff
    44e0:	f8da 0058 	ldr.w	r0, [sl, #88]	; 0x58
    44e4:	9305      	str	r3, [sp, #20]
    44e6:	f000 fe6f 	bl	51c8 <__retarget_lock_release_recursive>
    44ea:	f7ff ba6f 	b.w	39cc <_vfiprintf_r+0x3c0>
    44ee:	f8ba 300c 	ldrh.w	r3, [sl, #12]
    44f2:	f043 0340 	orr.w	r3, r3, #64	; 0x40
    44f6:	f8aa 300c 	strh.w	r3, [sl, #12]
    44fa:	f7ff ba56 	b.w	39aa <_vfiprintf_r+0x39e>
    44fe:	bf00      	nop
    4500:	cccccccd 	.word	0xcccccccd
    4504:	00006724 	.word	0x00006724

00004508 <__sbprintf>:
    4508:	b570      	push	{r4, r5, r6, lr}
    450a:	460c      	mov	r4, r1
    450c:	8989      	ldrh	r1, [r1, #12]
    450e:	f5ad 6d8e 	sub.w	sp, sp, #1136	; 0x470
    4512:	4606      	mov	r6, r0
    4514:	f021 0102 	bic.w	r1, r1, #2
    4518:	a818      	add	r0, sp, #96	; 0x60
    451a:	f8ad 1014 	strh.w	r1, [sp, #20]
    451e:	6e61      	ldr	r1, [r4, #100]	; 0x64
    4520:	911b      	str	r1, [sp, #108]	; 0x6c
    4522:	89e1      	ldrh	r1, [r4, #14]
    4524:	f8ad 1016 	strh.w	r1, [sp, #22]
    4528:	69e1      	ldr	r1, [r4, #28]
    452a:	9109      	str	r1, [sp, #36]	; 0x24
    452c:	6a61      	ldr	r1, [r4, #36]	; 0x24
    452e:	910b      	str	r1, [sp, #44]	; 0x2c
    4530:	a91c      	add	r1, sp, #112	; 0x70
    4532:	9102      	str	r1, [sp, #8]
    4534:	9106      	str	r1, [sp, #24]
    4536:	f44f 6180 	mov.w	r1, #1024	; 0x400
    453a:	9104      	str	r1, [sp, #16]
    453c:	9107      	str	r1, [sp, #28]
    453e:	2100      	movs	r1, #0
    4540:	e9cd 3200 	strd	r3, r2, [sp]
    4544:	9108      	str	r1, [sp, #32]
    4546:	f000 fe39 	bl	51bc <__retarget_lock_init_recursive>
    454a:	a902      	add	r1, sp, #8
    454c:	4630      	mov	r0, r6
    454e:	e9dd 3200 	ldrd	r3, r2, [sp]
    4552:	f7ff f85b 	bl	360c <_vfiprintf_r>
    4556:	1e05      	subs	r5, r0, #0
    4558:	db07      	blt.n	456a <__sbprintf+0x62>
    455a:	a902      	add	r1, sp, #8
    455c:	4630      	mov	r0, r6
    455e:	f000 f9cb 	bl	48f8 <_fflush_r>
    4562:	2800      	cmp	r0, #0
    4564:	bf18      	it	ne
    4566:	f04f 35ff 	movne.w	r5, #4294967295	; 0xffffffff
    456a:	f8bd 3014 	ldrh.w	r3, [sp, #20]
    456e:	065b      	lsls	r3, r3, #25
    4570:	d503      	bpl.n	457a <__sbprintf+0x72>
    4572:	89a3      	ldrh	r3, [r4, #12]
    4574:	f043 0340 	orr.w	r3, r3, #64	; 0x40
    4578:	81a3      	strh	r3, [r4, #12]
    457a:	9818      	ldr	r0, [sp, #96]	; 0x60
    457c:	f000 fe20 	bl	51c0 <__retarget_lock_close_recursive>
    4580:	4628      	mov	r0, r5
    4582:	f50d 6d8e 	add.w	sp, sp, #1136	; 0x470
    4586:	bd70      	pop	{r4, r5, r6, pc}

00004588 <_wcrtomb_r>:
    4588:	b570      	push	{r4, r5, r6, lr}
    458a:	4605      	mov	r5, r0
    458c:	b084      	sub	sp, #16
    458e:	b15b      	cbz	r3, 45a8 <_wcrtomb_r+0x20>
    4590:	461c      	mov	r4, r3
    4592:	4b0f      	ldr	r3, [pc, #60]	; (45d0 <_wcrtomb_r+0x48>)
    4594:	f8d3 60e0 	ldr.w	r6, [r3, #224]	; 0xe0
    4598:	4623      	mov	r3, r4
    459a:	b169      	cbz	r1, 45b8 <_wcrtomb_r+0x30>
    459c:	4628      	mov	r0, r5
    459e:	47b0      	blx	r6
    45a0:	1c43      	adds	r3, r0, #1
    45a2:	d00f      	beq.n	45c4 <_wcrtomb_r+0x3c>
    45a4:	b004      	add	sp, #16
    45a6:	bd70      	pop	{r4, r5, r6, pc}
    45a8:	4b09      	ldr	r3, [pc, #36]	; (45d0 <_wcrtomb_r+0x48>)
    45aa:	f500 748a 	add.w	r4, r0, #276	; 0x114
    45ae:	f8d3 60e0 	ldr.w	r6, [r3, #224]	; 0xe0
    45b2:	4623      	mov	r3, r4
    45b4:	2900      	cmp	r1, #0
    45b6:	d1f1      	bne.n	459c <_wcrtomb_r+0x14>
    45b8:	460a      	mov	r2, r1
    45ba:	4628      	mov	r0, r5
    45bc:	a901      	add	r1, sp, #4
    45be:	47b0      	blx	r6
    45c0:	1c43      	adds	r3, r0, #1
    45c2:	d1ef      	bne.n	45a4 <_wcrtomb_r+0x1c>
    45c4:	2200      	movs	r2, #0
    45c6:	238a      	movs	r3, #138	; 0x8a
    45c8:	6022      	str	r2, [r4, #0]
    45ca:	602b      	str	r3, [r5, #0]
    45cc:	b004      	add	sp, #16
    45ce:	bd70      	pop	{r4, r5, r6, pc}
    45d0:	2000084c 	.word	0x2000084c

000045d4 <_wcsrtombs_r>:
    45d4:	b510      	push	{r4, lr}
    45d6:	b082      	sub	sp, #8
    45d8:	9c04      	ldr	r4, [sp, #16]
    45da:	9300      	str	r3, [sp, #0]
    45dc:	f04f 33ff 	mov.w	r3, #4294967295	; 0xffffffff
    45e0:	9401      	str	r4, [sp, #4]
    45e2:	f001 fae7 	bl	5bb4 <_wcsnrtombs_r>
    45e6:	b002      	add	sp, #8
    45e8:	bd10      	pop	{r4, pc}
    45ea:	bf00      	nop

000045ec <__swsetup_r>:
    45ec:	b538      	push	{r3, r4, r5, lr}
    45ee:	4b33      	ldr	r3, [pc, #204]	; (46bc <__swsetup_r+0xd0>)
    45f0:	4605      	mov	r5, r0
    45f2:	460c      	mov	r4, r1
    45f4:	681b      	ldr	r3, [r3, #0]
    45f6:	b10b      	cbz	r3, 45fc <__swsetup_r+0x10>
    45f8:	6b9a      	ldr	r2, [r3, #56]	; 0x38
    45fa:	b1da      	cbz	r2, 4634 <__swsetup_r+0x48>
    45fc:	f9b4 300c 	ldrsh.w	r3, [r4, #12]
    4600:	0718      	lsls	r0, r3, #28
    4602:	b29a      	uxth	r2, r3
    4604:	d51e      	bpl.n	4644 <__swsetup_r+0x58>
    4606:	6921      	ldr	r1, [r4, #16]
    4608:	b339      	cbz	r1, 465a <__swsetup_r+0x6e>
    460a:	f012 0001 	ands.w	r0, r2, #1
    460e:	d007      	beq.n	4620 <__swsetup_r+0x34>
    4610:	2000      	movs	r0, #0
    4612:	60a0      	str	r0, [r4, #8]
    4614:	6960      	ldr	r0, [r4, #20]
    4616:	4240      	negs	r0, r0
    4618:	61a0      	str	r0, [r4, #24]
    461a:	b139      	cbz	r1, 462c <__swsetup_r+0x40>
    461c:	2000      	movs	r0, #0
    461e:	bd38      	pop	{r3, r4, r5, pc}
    4620:	0795      	lsls	r5, r2, #30
    4622:	bf58      	it	pl
    4624:	6960      	ldrpl	r0, [r4, #20]
    4626:	60a0      	str	r0, [r4, #8]
    4628:	2900      	cmp	r1, #0
    462a:	d1f7      	bne.n	461c <__swsetup_r+0x30>
    462c:	0612      	lsls	r2, r2, #24
    462e:	d43e      	bmi.n	46ae <__swsetup_r+0xc2>
    4630:	4608      	mov	r0, r1
    4632:	bd38      	pop	{r3, r4, r5, pc}
    4634:	4618      	mov	r0, r3
    4636:	f000 f993 	bl	4960 <__sinit>
    463a:	f9b4 300c 	ldrsh.w	r3, [r4, #12]
    463e:	0718      	lsls	r0, r3, #28
    4640:	b29a      	uxth	r2, r3
    4642:	d4e0      	bmi.n	4606 <__swsetup_r+0x1a>
    4644:	06d1      	lsls	r1, r2, #27
    4646:	d52a      	bpl.n	469e <__swsetup_r+0xb2>
    4648:	0752      	lsls	r2, r2, #29
    464a:	d414      	bmi.n	4676 <__swsetup_r+0x8a>
    464c:	6921      	ldr	r1, [r4, #16]
    464e:	f043 0308 	orr.w	r3, r3, #8
    4652:	b29a      	uxth	r2, r3
    4654:	81a3      	strh	r3, [r4, #12]
    4656:	2900      	cmp	r1, #0
    4658:	d1d7      	bne.n	460a <__swsetup_r+0x1e>
    465a:	f402 7020 	and.w	r0, r2, #640	; 0x280
    465e:	f5b0 7f00 	cmp.w	r0, #512	; 0x200
    4662:	d0d2      	beq.n	460a <__swsetup_r+0x1e>
    4664:	4621      	mov	r1, r4
    4666:	4628      	mov	r0, r5
    4668:	f000 fdb0 	bl	51cc <__smakebuf_r>
    466c:	f9b4 300c 	ldrsh.w	r3, [r4, #12]
    4670:	6921      	ldr	r1, [r4, #16]
    4672:	b29a      	uxth	r2, r3
    4674:	e7c9      	b.n	460a <__swsetup_r+0x1e>
    4676:	6b21      	ldr	r1, [r4, #48]	; 0x30
    4678:	b151      	cbz	r1, 4690 <__swsetup_r+0xa4>
    467a:	f104 0240 	add.w	r2, r4, #64	; 0x40
    467e:	4291      	cmp	r1, r2
    4680:	d004      	beq.n	468c <__swsetup_r+0xa0>
    4682:	4628      	mov	r0, r5
    4684:	f000 fae8 	bl	4c58 <_free_r>
    4688:	f9b4 300c 	ldrsh.w	r3, [r4, #12]
    468c:	2200      	movs	r2, #0
    468e:	6322      	str	r2, [r4, #48]	; 0x30
    4690:	2200      	movs	r2, #0
    4692:	6921      	ldr	r1, [r4, #16]
    4694:	f023 0324 	bic.w	r3, r3, #36	; 0x24
    4698:	e9c4 1200 	strd	r1, r2, [r4]
    469c:	e7d7      	b.n	464e <__swsetup_r+0x62>
    469e:	2209      	movs	r2, #9
    46a0:	f043 0340 	orr.w	r3, r3, #64	; 0x40
    46a4:	f04f 30ff 	mov.w	r0, #4294967295	; 0xffffffff
    46a8:	602a      	str	r2, [r5, #0]
    46aa:	81a3      	strh	r3, [r4, #12]
    46ac:	bd38      	pop	{r3, r4, r5, pc}
    46ae:	f043 0340 	orr.w	r3, r3, #64	; 0x40
    46b2:	f04f 30ff 	mov.w	r0, #4294967295	; 0xffffffff
    46b6:	81a3      	strh	r3, [r4, #12]
    46b8:	bd38      	pop	{r3, r4, r5, pc}
    46ba:	bf00      	nop
    46bc:	20000008 	.word	0x20000008

000046c0 <register_fini>:
    46c0:	4b02      	ldr	r3, [pc, #8]	; (46cc <register_fini+0xc>)
    46c2:	b113      	cbz	r3, 46ca <register_fini+0xa>
    46c4:	4802      	ldr	r0, [pc, #8]	; (46d0 <register_fini+0x10>)
    46c6:	f000 b86b 	b.w	47a0 <atexit>
    46ca:	4770      	bx	lr
    46cc:	00000000 	.word	0x00000000
    46d0:	00004a89 	.word	0x00004a89

000046d4 <__call_exitprocs>:
    46d4:	e92d 4ff8 	stmdb	sp!, {r3, r4, r5, r6, r7, r8, r9, sl, fp, lr}
    46d8:	4b2b      	ldr	r3, [pc, #172]	; (4788 <__call_exitprocs+0xb4>)
    46da:	4683      	mov	fp, r0
    46dc:	460f      	mov	r7, r1
    46de:	6818      	ldr	r0, [r3, #0]
    46e0:	ed2d 8b02 	vpush	{d8}
    46e4:	f000 fd6e 	bl	51c4 <__retarget_lock_acquire_recursive>
    46e8:	4b28      	ldr	r3, [pc, #160]	; (478c <__call_exitprocs+0xb8>)
    46ea:	f8d3 8000 	ldr.w	r8, [r3]
    46ee:	f8d8 6148 	ldr.w	r6, [r8, #328]	; 0x148
    46f2:	b1a6      	cbz	r6, 471e <__call_exitprocs+0x4a>
    46f4:	ee08 ba10 	vmov	s16, fp
    46f8:	f04f 0901 	mov.w	r9, #1
    46fc:	f04f 0a00 	mov.w	sl, #0
    4700:	6874      	ldr	r4, [r6, #4]
    4702:	1e65      	subs	r5, r4, #1
    4704:	d40b      	bmi.n	471e <__call_exitprocs+0x4a>
    4706:	3401      	adds	r4, #1
    4708:	eb06 0484 	add.w	r4, r6, r4, lsl #2
    470c:	b17f      	cbz	r7, 472e <__call_exitprocs+0x5a>
    470e:	f8d4 3100 	ldr.w	r3, [r4, #256]	; 0x100
    4712:	42bb      	cmp	r3, r7
    4714:	d00b      	beq.n	472e <__call_exitprocs+0x5a>
    4716:	3d01      	subs	r5, #1
    4718:	3c04      	subs	r4, #4
    471a:	1c6b      	adds	r3, r5, #1
    471c:	d1f6      	bne.n	470c <__call_exitprocs+0x38>
    471e:	4b1a      	ldr	r3, [pc, #104]	; (4788 <__call_exitprocs+0xb4>)
    4720:	ecbd 8b02 	vpop	{d8}
    4724:	6818      	ldr	r0, [r3, #0]
    4726:	e8bd 4ff8 	ldmia.w	sp!, {r3, r4, r5, r6, r7, r8, r9, sl, fp, lr}
    472a:	f000 bd4d 	b.w	51c8 <__retarget_lock_release_recursive>
    472e:	6873      	ldr	r3, [r6, #4]
    4730:	6822      	ldr	r2, [r4, #0]
    4732:	3b01      	subs	r3, #1
    4734:	42ab      	cmp	r3, r5
    4736:	bf0c      	ite	eq
    4738:	6075      	streq	r5, [r6, #4]
    473a:	f8c4 a000 	strne.w	sl, [r4]
    473e:	2a00      	cmp	r2, #0
    4740:	d0e9      	beq.n	4716 <__call_exitprocs+0x42>
    4742:	fa09 fc05 	lsl.w	ip, r9, r5
    4746:	f8d6 1188 	ldr.w	r1, [r6, #392]	; 0x188
    474a:	f8d6 b004 	ldr.w	fp, [r6, #4]
    474e:	ea1c 0f01 	tst.w	ip, r1
    4752:	d10b      	bne.n	476c <__call_exitprocs+0x98>
    4754:	4790      	blx	r2
    4756:	6871      	ldr	r1, [r6, #4]
    4758:	f8d8 2148 	ldr.w	r2, [r8, #328]	; 0x148
    475c:	4559      	cmp	r1, fp
    475e:	d101      	bne.n	4764 <__call_exitprocs+0x90>
    4760:	42b2      	cmp	r2, r6
    4762:	d0d8      	beq.n	4716 <__call_exitprocs+0x42>
    4764:	2a00      	cmp	r2, #0
    4766:	d0da      	beq.n	471e <__call_exitprocs+0x4a>
    4768:	4616      	mov	r6, r2
    476a:	e7c9      	b.n	4700 <__call_exitprocs+0x2c>
    476c:	f8d6 318c 	ldr.w	r3, [r6, #396]	; 0x18c
    4770:	f8d4 1080 	ldr.w	r1, [r4, #128]	; 0x80
    4774:	ea1c 0f03 	tst.w	ip, r3
    4778:	d103      	bne.n	4782 <__call_exitprocs+0xae>
    477a:	ee18 0a10 	vmov	r0, s16
    477e:	4790      	blx	r2
    4780:	e7e9      	b.n	4756 <__call_exitprocs+0x82>
    4782:	4608      	mov	r0, r1
    4784:	4790      	blx	r2
    4786:	e7e6      	b.n	4756 <__call_exitprocs+0x82>
    4788:	20000848 	.word	0x20000848
    478c:	000066f8 	.word	0x000066f8

00004790 <abort>:
    4790:	2006      	movs	r0, #6
    4792:	b508      	push	{r3, lr}
    4794:	f001 f844 	bl	5820 <raise>
    4798:	2001      	movs	r0, #1
    479a:	f001 fba3 	bl	5ee4 <_exit>
    479e:	bf00      	nop

000047a0 <atexit>:
    47a0:	2300      	movs	r3, #0
    47a2:	4601      	mov	r1, r0
    47a4:	461a      	mov	r2, r3
    47a6:	4618      	mov	r0, r3
    47a8:	f001 ba3a 	b.w	5c20 <__register_exitproc>

000047ac <__sflush_r>:
    47ac:	f9b1 200c 	ldrsh.w	r2, [r1, #12]
    47b0:	e92d 41f0 	stmdb	sp!, {r4, r5, r6, r7, r8, lr}
    47b4:	460c      	mov	r4, r1
    47b6:	0711      	lsls	r1, r2, #28
    47b8:	4680      	mov	r8, r0
    47ba:	d433      	bmi.n	4824 <__sflush_r+0x78>
    47bc:	6863      	ldr	r3, [r4, #4]
    47be:	f442 6200 	orr.w	r2, r2, #2048	; 0x800
    47c2:	2b00      	cmp	r3, #0
    47c4:	81a2      	strh	r2, [r4, #12]
    47c6:	dd4b      	ble.n	4860 <__sflush_r+0xb4>
    47c8:	6aa5      	ldr	r5, [r4, #40]	; 0x28
    47ca:	2d00      	cmp	r5, #0
    47cc:	d045      	beq.n	485a <__sflush_r+0xae>
    47ce:	2300      	movs	r3, #0
    47d0:	f8d8 6000 	ldr.w	r6, [r8]
    47d4:	69e1      	ldr	r1, [r4, #28]
    47d6:	f8c8 3000 	str.w	r3, [r8]
    47da:	b293      	uxth	r3, r2
    47dc:	f412 5280 	ands.w	r2, r2, #4096	; 0x1000
    47e0:	d142      	bne.n	4868 <__sflush_r+0xbc>
    47e2:	2301      	movs	r3, #1
    47e4:	4640      	mov	r0, r8
    47e6:	47a8      	blx	r5
    47e8:	1c43      	adds	r3, r0, #1
    47ea:	d072      	beq.n	48d2 <__sflush_r+0x126>
    47ec:	89a3      	ldrh	r3, [r4, #12]
    47ee:	6aa5      	ldr	r5, [r4, #40]	; 0x28
    47f0:	69e1      	ldr	r1, [r4, #28]
    47f2:	075f      	lsls	r7, r3, #29
    47f4:	d505      	bpl.n	4802 <__sflush_r+0x56>
    47f6:	6863      	ldr	r3, [r4, #4]
    47f8:	1ac0      	subs	r0, r0, r3
    47fa:	6b23      	ldr	r3, [r4, #48]	; 0x30
    47fc:	b10b      	cbz	r3, 4802 <__sflush_r+0x56>
    47fe:	6be3      	ldr	r3, [r4, #60]	; 0x3c
    4800:	1ac0      	subs	r0, r0, r3
    4802:	4602      	mov	r2, r0
    4804:	2300      	movs	r3, #0
    4806:	4640      	mov	r0, r8
    4808:	47a8      	blx	r5
    480a:	1c45      	adds	r5, r0, #1
    480c:	d132      	bne.n	4874 <__sflush_r+0xc8>
    480e:	f8d8 1000 	ldr.w	r1, [r8]
    4812:	291d      	cmp	r1, #29
    4814:	d94b      	bls.n	48ae <__sflush_r+0x102>
    4816:	f9b4 300c 	ldrsh.w	r3, [r4, #12]
    481a:	f043 0340 	orr.w	r3, r3, #64	; 0x40
    481e:	81a3      	strh	r3, [r4, #12]
    4820:	e8bd 81f0 	ldmia.w	sp!, {r4, r5, r6, r7, r8, pc}
    4824:	6926      	ldr	r6, [r4, #16]
    4826:	b1c6      	cbz	r6, 485a <__sflush_r+0xae>
    4828:	b293      	uxth	r3, r2
    482a:	6825      	ldr	r5, [r4, #0]
    482c:	6026      	str	r6, [r4, #0]
    482e:	0799      	lsls	r1, r3, #30
    4830:	eba5 0506 	sub.w	r5, r5, r6
    4834:	bf0c      	ite	eq
    4836:	6963      	ldreq	r3, [r4, #20]
    4838:	2300      	movne	r3, #0
    483a:	60a3      	str	r3, [r4, #8]
    483c:	e00b      	b.n	4856 <__sflush_r+0xaa>
    483e:	462b      	mov	r3, r5
    4840:	4632      	mov	r2, r6
    4842:	69e1      	ldr	r1, [r4, #28]
    4844:	4640      	mov	r0, r8
    4846:	6a67      	ldr	r7, [r4, #36]	; 0x24
    4848:	47b8      	blx	r7
    484a:	f1b0 0c00 	subs.w	ip, r0, #0
    484e:	eba5 050c 	sub.w	r5, r5, ip
    4852:	4466      	add	r6, ip
    4854:	dd0a      	ble.n	486c <__sflush_r+0xc0>
    4856:	2d00      	cmp	r5, #0
    4858:	dcf1      	bgt.n	483e <__sflush_r+0x92>
    485a:	2000      	movs	r0, #0
    485c:	e8bd 81f0 	ldmia.w	sp!, {r4, r5, r6, r7, r8, pc}
    4860:	6be3      	ldr	r3, [r4, #60]	; 0x3c
    4862:	2b00      	cmp	r3, #0
    4864:	dcb0      	bgt.n	47c8 <__sflush_r+0x1c>
    4866:	e7f8      	b.n	485a <__sflush_r+0xae>
    4868:	6d20      	ldr	r0, [r4, #80]	; 0x50
    486a:	e7c2      	b.n	47f2 <__sflush_r+0x46>
    486c:	89a3      	ldrh	r3, [r4, #12]
    486e:	f04f 30ff 	mov.w	r0, #4294967295	; 0xffffffff
    4872:	e7d2      	b.n	481a <__sflush_r+0x6e>
    4874:	f9b4 300c 	ldrsh.w	r3, [r4, #12]
    4878:	2200      	movs	r2, #0
    487a:	f423 6300 	bic.w	r3, r3, #2048	; 0x800
    487e:	6062      	str	r2, [r4, #4]
    4880:	6922      	ldr	r2, [r4, #16]
    4882:	81a3      	strh	r3, [r4, #12]
    4884:	6022      	str	r2, [r4, #0]
    4886:	04da      	lsls	r2, r3, #19
    4888:	d500      	bpl.n	488c <__sflush_r+0xe0>
    488a:	6520      	str	r0, [r4, #80]	; 0x50
    488c:	6b21      	ldr	r1, [r4, #48]	; 0x30
    488e:	f8c8 6000 	str.w	r6, [r8]
    4892:	2900      	cmp	r1, #0
    4894:	d0e1      	beq.n	485a <__sflush_r+0xae>
    4896:	f104 0340 	add.w	r3, r4, #64	; 0x40
    489a:	4299      	cmp	r1, r3
    489c:	d002      	beq.n	48a4 <__sflush_r+0xf8>
    489e:	4640      	mov	r0, r8
    48a0:	f000 f9da 	bl	4c58 <_free_r>
    48a4:	2300      	movs	r3, #0
    48a6:	4618      	mov	r0, r3
    48a8:	6323      	str	r3, [r4, #48]	; 0x30
    48aa:	e8bd 81f0 	ldmia.w	sp!, {r4, r5, r6, r7, r8, pc}
    48ae:	4a11      	ldr	r2, [pc, #68]	; (48f4 <__sflush_r+0x148>)
    48b0:	f9b4 300c 	ldrsh.w	r3, [r4, #12]
    48b4:	410a      	asrs	r2, r1
    48b6:	f012 0201 	ands.w	r2, r2, #1
    48ba:	d1ae      	bne.n	481a <__sflush_r+0x6e>
    48bc:	f423 6300 	bic.w	r3, r3, #2048	; 0x800
    48c0:	6062      	str	r2, [r4, #4]
    48c2:	6922      	ldr	r2, [r4, #16]
    48c4:	81a3      	strh	r3, [r4, #12]
    48c6:	04db      	lsls	r3, r3, #19
    48c8:	6022      	str	r2, [r4, #0]
    48ca:	d5df      	bpl.n	488c <__sflush_r+0xe0>
    48cc:	2900      	cmp	r1, #0
    48ce:	d1dd      	bne.n	488c <__sflush_r+0xe0>
    48d0:	e7db      	b.n	488a <__sflush_r+0xde>
    48d2:	f8d8 3000 	ldr.w	r3, [r8]
    48d6:	2b00      	cmp	r3, #0
    48d8:	d088      	beq.n	47ec <__sflush_r+0x40>
    48da:	2b1d      	cmp	r3, #29
    48dc:	d006      	beq.n	48ec <__sflush_r+0x140>
    48de:	2b16      	cmp	r3, #22
    48e0:	d004      	beq.n	48ec <__sflush_r+0x140>
    48e2:	89a3      	ldrh	r3, [r4, #12]
    48e4:	f043 0340 	orr.w	r3, r3, #64	; 0x40
    48e8:	81a3      	strh	r3, [r4, #12]
    48ea:	e7b7      	b.n	485c <__sflush_r+0xb0>
    48ec:	2000      	movs	r0, #0
    48ee:	f8c8 6000 	str.w	r6, [r8]
    48f2:	e7b3      	b.n	485c <__sflush_r+0xb0>
    48f4:	dfbffffe 	.word	0xdfbffffe

000048f8 <_fflush_r>:
    48f8:	b538      	push	{r3, r4, r5, lr}
    48fa:	4605      	mov	r5, r0
    48fc:	460c      	mov	r4, r1
    48fe:	b108      	cbz	r0, 4904 <_fflush_r+0xc>
    4900:	6b83      	ldr	r3, [r0, #56]	; 0x38
    4902:	b1a3      	cbz	r3, 492e <_fflush_r+0x36>
    4904:	f9b4 000c 	ldrsh.w	r0, [r4, #12]
    4908:	b1b8      	cbz	r0, 493a <_fflush_r+0x42>
    490a:	6e63      	ldr	r3, [r4, #100]	; 0x64
    490c:	07db      	lsls	r3, r3, #31
    490e:	d401      	bmi.n	4914 <_fflush_r+0x1c>
    4910:	0581      	lsls	r1, r0, #22
    4912:	d515      	bpl.n	4940 <_fflush_r+0x48>
    4914:	4628      	mov	r0, r5
    4916:	4621      	mov	r1, r4
    4918:	f7ff ff48 	bl	47ac <__sflush_r>
    491c:	6e63      	ldr	r3, [r4, #100]	; 0x64
    491e:	4605      	mov	r5, r0
    4920:	07da      	lsls	r2, r3, #31
    4922:	d402      	bmi.n	492a <_fflush_r+0x32>
    4924:	89a3      	ldrh	r3, [r4, #12]
    4926:	059b      	lsls	r3, r3, #22
    4928:	d50e      	bpl.n	4948 <_fflush_r+0x50>
    492a:	4628      	mov	r0, r5
    492c:	bd38      	pop	{r3, r4, r5, pc}
    492e:	f000 f817 	bl	4960 <__sinit>
    4932:	f9b4 000c 	ldrsh.w	r0, [r4, #12]
    4936:	2800      	cmp	r0, #0
    4938:	d1e7      	bne.n	490a <_fflush_r+0x12>
    493a:	4605      	mov	r5, r0
    493c:	4628      	mov	r0, r5
    493e:	bd38      	pop	{r3, r4, r5, pc}
    4940:	6da0      	ldr	r0, [r4, #88]	; 0x58
    4942:	f000 fc3f 	bl	51c4 <__retarget_lock_acquire_recursive>
    4946:	e7e5      	b.n	4914 <_fflush_r+0x1c>
    4948:	6da0      	ldr	r0, [r4, #88]	; 0x58
    494a:	f000 fc3d 	bl	51c8 <__retarget_lock_release_recursive>
    494e:	4628      	mov	r0, r5
    4950:	bd38      	pop	{r3, r4, r5, pc}
    4952:	bf00      	nop

00004954 <_cleanup_r>:
    4954:	4901      	ldr	r1, [pc, #4]	; (495c <_cleanup_r+0x8>)
    4956:	f000 bc05 	b.w	5164 <_fwalk_reent>
    495a:	bf00      	nop
    495c:	00005ccd 	.word	0x00005ccd

00004960 <__sinit>:
    4960:	e92d 47f0 	stmdb	sp!, {r4, r5, r6, r7, r8, r9, sl, lr}
    4964:	4682      	mov	sl, r0
    4966:	483a      	ldr	r0, [pc, #232]	; (4a50 <__sinit+0xf0>)
    4968:	f000 fc2c 	bl	51c4 <__retarget_lock_acquire_recursive>
    496c:	f8da 4038 	ldr.w	r4, [sl, #56]	; 0x38
    4970:	2c00      	cmp	r4, #0
    4972:	d168      	bne.n	4a46 <__sinit+0xe6>
    4974:	4a37      	ldr	r2, [pc, #220]	; (4a54 <__sinit+0xf4>)
    4976:	2303      	movs	r3, #3
    4978:	f8da 5004 	ldr.w	r5, [sl, #4]
    497c:	4621      	mov	r1, r4
    497e:	f8ca 203c 	str.w	r2, [sl, #60]	; 0x3c
    4982:	f50a 723b 	add.w	r2, sl, #748	; 0x2ec
    4986:	f8ca 32e4 	str.w	r3, [sl, #740]	; 0x2e4
    498a:	2304      	movs	r3, #4
    498c:	f8df 90d8 	ldr.w	r9, [pc, #216]	; 4a68 <__sinit+0x108>
    4990:	f105 005c 	add.w	r0, r5, #92	; 0x5c
    4994:	f8df 80d4 	ldr.w	r8, [pc, #212]	; 4a6c <__sinit+0x10c>
    4998:	4f2f      	ldr	r7, [pc, #188]	; (4a58 <__sinit+0xf8>)
    499a:	4e30      	ldr	r6, [pc, #192]	; (4a5c <__sinit+0xfc>)
    499c:	f8ca 22e8 	str.w	r2, [sl, #744]	; 0x2e8
    49a0:	2208      	movs	r2, #8
    49a2:	f8ca 42e0 	str.w	r4, [sl, #736]	; 0x2e0
    49a6:	666c      	str	r4, [r5, #100]	; 0x64
    49a8:	61ac      	str	r4, [r5, #24]
    49aa:	e9c5 4302 	strd	r4, r3, [r5, #8]
    49ae:	e9c5 4400 	strd	r4, r4, [r5]
    49b2:	e9c5 4404 	strd	r4, r4, [r5, #16]
    49b6:	f7fe fd7f 	bl	34b8 <memset>
    49ba:	f105 0058 	add.w	r0, r5, #88	; 0x58
    49be:	62ee      	str	r6, [r5, #44]	; 0x2c
    49c0:	e9c5 5907 	strd	r5, r9, [r5, #28]
    49c4:	e9c5 8709 	strd	r8, r7, [r5, #36]	; 0x24
    49c8:	f000 fbf8 	bl	51bc <__retarget_lock_init_recursive>
    49cc:	f8da 5008 	ldr.w	r5, [sl, #8]
    49d0:	4b23      	ldr	r3, [pc, #140]	; (4a60 <__sinit+0x100>)
    49d2:	4621      	mov	r1, r4
    49d4:	2208      	movs	r2, #8
    49d6:	666c      	str	r4, [r5, #100]	; 0x64
    49d8:	60eb      	str	r3, [r5, #12]
    49da:	f105 005c 	add.w	r0, r5, #92	; 0x5c
    49de:	60ac      	str	r4, [r5, #8]
    49e0:	61ac      	str	r4, [r5, #24]
    49e2:	e9c5 4400 	strd	r4, r4, [r5]
    49e6:	e9c5 4404 	strd	r4, r4, [r5, #16]
    49ea:	f7fe fd65 	bl	34b8 <memset>
    49ee:	f105 0058 	add.w	r0, r5, #88	; 0x58
    49f2:	62ee      	str	r6, [r5, #44]	; 0x2c
    49f4:	e9c5 5907 	strd	r5, r9, [r5, #28]
    49f8:	e9c5 8709 	strd	r8, r7, [r5, #36]	; 0x24
    49fc:	f000 fbde 	bl	51bc <__retarget_lock_init_recursive>
    4a00:	f8da 500c 	ldr.w	r5, [sl, #12]
    4a04:	4b17      	ldr	r3, [pc, #92]	; (4a64 <__sinit+0x104>)
    4a06:	4621      	mov	r1, r4
    4a08:	2208      	movs	r2, #8
    4a0a:	f105 005c 	add.w	r0, r5, #92	; 0x5c
    4a0e:	60eb      	str	r3, [r5, #12]
    4a10:	666c      	str	r4, [r5, #100]	; 0x64
    4a12:	60ac      	str	r4, [r5, #8]
    4a14:	61ac      	str	r4, [r5, #24]
    4a16:	e9c5 4400 	strd	r4, r4, [r5]
    4a1a:	e9c5 4404 	strd	r4, r4, [r5, #16]
    4a1e:	f7fe fd4b 	bl	34b8 <memset>
    4a22:	f105 0058 	add.w	r0, r5, #88	; 0x58
    4a26:	f8c5 8024 	str.w	r8, [r5, #36]	; 0x24
    4a2a:	e9c5 5907 	strd	r5, r9, [r5, #28]
    4a2e:	e9c5 760a 	strd	r7, r6, [r5, #40]	; 0x28
    4a32:	f000 fbc3 	bl	51bc <__retarget_lock_init_recursive>
    4a36:	2301      	movs	r3, #1
    4a38:	4805      	ldr	r0, [pc, #20]	; (4a50 <__sinit+0xf0>)
    4a3a:	f8ca 3038 	str.w	r3, [sl, #56]	; 0x38
    4a3e:	e8bd 47f0 	ldmia.w	sp!, {r4, r5, r6, r7, r8, r9, sl, lr}
    4a42:	f000 bbc1 	b.w	51c8 <__retarget_lock_release_recursive>
    4a46:	4802      	ldr	r0, [pc, #8]	; (4a50 <__sinit+0xf0>)
    4a48:	e8bd 47f0 	ldmia.w	sp!, {r4, r5, r6, r7, r8, r9, sl, lr}
    4a4c:	f000 bbbc 	b.w	51c8 <__retarget_lock_release_recursive>
    4a50:	20000ab0 	.word	0x20000ab0
    4a54:	00004955 	.word	0x00004955
    4a58:	00005911 	.word	0x00005911
    4a5c:	00005935 	.word	0x00005935
    4a60:	00010009 	.word	0x00010009
    4a64:	00020012 	.word	0x00020012
    4a68:	000058ad 	.word	0x000058ad
    4a6c:	000058d1 	.word	0x000058d1

00004a70 <__sfp_lock_acquire>:
    4a70:	4801      	ldr	r0, [pc, #4]	; (4a78 <__sfp_lock_acquire+0x8>)
    4a72:	f000 bba7 	b.w	51c4 <__retarget_lock_acquire_recursive>
    4a76:	bf00      	nop
    4a78:	20000aac 	.word	0x20000aac

00004a7c <__sfp_lock_release>:
    4a7c:	4801      	ldr	r0, [pc, #4]	; (4a84 <__sfp_lock_release+0x8>)
    4a7e:	f000 bba3 	b.w	51c8 <__retarget_lock_release_recursive>
    4a82:	bf00      	nop
    4a84:	20000aac 	.word	0x20000aac

00004a88 <__libc_fini_array>:
    4a88:	b538      	push	{r3, r4, r5, lr}
    4a8a:	4d07      	ldr	r5, [pc, #28]	; (4aa8 <__libc_fini_array+0x20>)
    4a8c:	4c07      	ldr	r4, [pc, #28]	; (4aac <__libc_fini_array+0x24>)
    4a8e:	1b2c      	subs	r4, r5, r4
    4a90:	10a4      	asrs	r4, r4, #2
    4a92:	d005      	beq.n	4aa0 <__libc_fini_array+0x18>
    4a94:	3c01      	subs	r4, #1
    4a96:	f855 3d04 	ldr.w	r3, [r5, #-4]!
    4a9a:	4798      	blx	r3
    4a9c:	2c00      	cmp	r4, #0
    4a9e:	d1f9      	bne.n	4a94 <__libc_fini_array+0xc>
    4aa0:	e8bd 4038 	ldmia.w	sp!, {r3, r4, r5, lr}
    4aa4:	f001 befe 	b.w	68a4 <_fini>
    4aa8:	000068c4 	.word	0x000068c4
    4aac:	000068c0 	.word	0x000068c0

00004ab0 <__fputwc>:
    4ab0:	e92d 47f0 	stmdb	sp!, {r4, r5, r6, r7, r8, r9, sl, lr}
    4ab4:	b082      	sub	sp, #8
    4ab6:	4682      	mov	sl, r0
    4ab8:	4688      	mov	r8, r1
    4aba:	4614      	mov	r4, r2
    4abc:	f000 fb74 	bl	51a8 <__locale_mb_cur_max>
    4ac0:	2801      	cmp	r0, #1
    4ac2:	d103      	bne.n	4acc <__fputwc+0x1c>
    4ac4:	f108 33ff 	add.w	r3, r8, #4294967295	; 0xffffffff
    4ac8:	2bfe      	cmp	r3, #254	; 0xfe
    4aca:	d932      	bls.n	4b32 <__fputwc+0x82>
    4acc:	466d      	mov	r5, sp
    4ace:	4642      	mov	r2, r8
    4ad0:	f104 035c 	add.w	r3, r4, #92	; 0x5c
    4ad4:	4650      	mov	r0, sl
    4ad6:	4629      	mov	r1, r5
    4ad8:	f7ff fd56 	bl	4588 <_wcrtomb_r>
    4adc:	1c42      	adds	r2, r0, #1
    4ade:	4606      	mov	r6, r0
    4ae0:	d033      	beq.n	4b4a <__fputwc+0x9a>
    4ae2:	b368      	cbz	r0, 4b40 <__fputwc+0x90>
    4ae4:	f89d c000 	ldrb.w	ip, [sp]
    4ae8:	f1c5 0901 	rsb	r9, r5, #1
    4aec:	e00d      	b.n	4b0a <__fputwc+0x5a>
    4aee:	f1bc 0f0a 	cmp.w	ip, #10
    4af2:	d015      	beq.n	4b20 <__fputwc+0x70>
    4af4:	6823      	ldr	r3, [r4, #0]
    4af6:	1c5a      	adds	r2, r3, #1
    4af8:	6022      	str	r2, [r4, #0]
    4afa:	f883 c000 	strb.w	ip, [r3]
    4afe:	eb09 0305 	add.w	r3, r9, r5
    4b02:	429e      	cmp	r6, r3
    4b04:	d91c      	bls.n	4b40 <__fputwc+0x90>
    4b06:	f815 cf01 	ldrb.w	ip, [r5, #1]!
    4b0a:	68a3      	ldr	r3, [r4, #8]
    4b0c:	3b01      	subs	r3, #1
    4b0e:	2b00      	cmp	r3, #0
    4b10:	60a3      	str	r3, [r4, #8]
    4b12:	daef      	bge.n	4af4 <__fputwc+0x44>
    4b14:	69a7      	ldr	r7, [r4, #24]
    4b16:	4661      	mov	r1, ip
    4b18:	4622      	mov	r2, r4
    4b1a:	4650      	mov	r0, sl
    4b1c:	42bb      	cmp	r3, r7
    4b1e:	dae6      	bge.n	4aee <__fputwc+0x3e>
    4b20:	f000 ff6c 	bl	59fc <__swbuf_r>
    4b24:	1c43      	adds	r3, r0, #1
    4b26:	d1ea      	bne.n	4afe <__fputwc+0x4e>
    4b28:	4606      	mov	r6, r0
    4b2a:	4630      	mov	r0, r6
    4b2c:	b002      	add	sp, #8
    4b2e:	e8bd 87f0 	ldmia.w	sp!, {r4, r5, r6, r7, r8, r9, sl, pc}
    4b32:	fa5f fc88 	uxtb.w	ip, r8
    4b36:	4606      	mov	r6, r0
    4b38:	466d      	mov	r5, sp
    4b3a:	f88d c000 	strb.w	ip, [sp]
    4b3e:	e7d3      	b.n	4ae8 <__fputwc+0x38>
    4b40:	4646      	mov	r6, r8
    4b42:	4630      	mov	r0, r6
    4b44:	b002      	add	sp, #8
    4b46:	e8bd 87f0 	ldmia.w	sp!, {r4, r5, r6, r7, r8, r9, sl, pc}
    4b4a:	89a3      	ldrh	r3, [r4, #12]
    4b4c:	f043 0340 	orr.w	r3, r3, #64	; 0x40
    4b50:	81a3      	strh	r3, [r4, #12]
    4b52:	e7ea      	b.n	4b2a <__fputwc+0x7a>

00004b54 <_fputwc_r>:
    4b54:	b530      	push	{r4, r5, lr}
    4b56:	4614      	mov	r4, r2
    4b58:	4605      	mov	r5, r0
    4b5a:	f9b2 300c 	ldrsh.w	r3, [r2, #12]
    4b5e:	b083      	sub	sp, #12
    4b60:	6e60      	ldr	r0, [r4, #100]	; 0x64
    4b62:	b29a      	uxth	r2, r3
    4b64:	07c0      	lsls	r0, r0, #31
    4b66:	d401      	bmi.n	4b6c <_fputwc_r+0x18>
    4b68:	0590      	lsls	r0, r2, #22
    4b6a:	d51c      	bpl.n	4ba6 <_fputwc_r+0x52>
    4b6c:	0490      	lsls	r0, r2, #18
    4b6e:	d406      	bmi.n	4b7e <_fputwc_r+0x2a>
    4b70:	6e62      	ldr	r2, [r4, #100]	; 0x64
    4b72:	f443 5300 	orr.w	r3, r3, #8192	; 0x2000
    4b76:	f442 5200 	orr.w	r2, r2, #8192	; 0x2000
    4b7a:	81a3      	strh	r3, [r4, #12]
    4b7c:	6662      	str	r2, [r4, #100]	; 0x64
    4b7e:	4622      	mov	r2, r4
    4b80:	4628      	mov	r0, r5
    4b82:	f7ff ff95 	bl	4ab0 <__fputwc>
    4b86:	6e63      	ldr	r3, [r4, #100]	; 0x64
    4b88:	4605      	mov	r5, r0
    4b8a:	07da      	lsls	r2, r3, #31
    4b8c:	d402      	bmi.n	4b94 <_fputwc_r+0x40>
    4b8e:	89a3      	ldrh	r3, [r4, #12]
    4b90:	059b      	lsls	r3, r3, #22
    4b92:	d502      	bpl.n	4b9a <_fputwc_r+0x46>
    4b94:	4628      	mov	r0, r5
    4b96:	b003      	add	sp, #12
    4b98:	bd30      	pop	{r4, r5, pc}
    4b9a:	6da0      	ldr	r0, [r4, #88]	; 0x58
    4b9c:	f000 fb14 	bl	51c8 <__retarget_lock_release_recursive>
    4ba0:	4628      	mov	r0, r5
    4ba2:	b003      	add	sp, #12
    4ba4:	bd30      	pop	{r4, r5, pc}
    4ba6:	6da0      	ldr	r0, [r4, #88]	; 0x58
    4ba8:	9101      	str	r1, [sp, #4]
    4baa:	f000 fb0b 	bl	51c4 <__retarget_lock_acquire_recursive>
    4bae:	f9b4 300c 	ldrsh.w	r3, [r4, #12]
    4bb2:	9901      	ldr	r1, [sp, #4]
    4bb4:	b29a      	uxth	r2, r3
    4bb6:	e7d9      	b.n	4b6c <_fputwc_r+0x18>

00004bb8 <_malloc_trim_r>:
    4bb8:	b5f8      	push	{r3, r4, r5, r6, r7, lr}
    4bba:	4f23      	ldr	r7, [pc, #140]	; (4c48 <_malloc_trim_r+0x90>)
    4bbc:	460c      	mov	r4, r1
    4bbe:	4606      	mov	r6, r0
    4bc0:	f7fe fccc 	bl	355c <__malloc_lock>
    4bc4:	68ba      	ldr	r2, [r7, #8]
    4bc6:	f640 73ef 	movw	r3, #4079	; 0xfef
    4bca:	6855      	ldr	r5, [r2, #4]
    4bcc:	1b1b      	subs	r3, r3, r4
    4bce:	4c1f      	ldr	r4, [pc, #124]	; (4c4c <_malloc_trim_r+0x94>)
    4bd0:	f025 0503 	bic.w	r5, r5, #3
    4bd4:	442b      	add	r3, r5
    4bd6:	401c      	ands	r4, r3
    4bd8:	f5a4 5480 	sub.w	r4, r4, #4096	; 0x1000
    4bdc:	f5b4 5f80 	cmp.w	r4, #4096	; 0x1000
    4be0:	db07      	blt.n	4bf2 <_malloc_trim_r+0x3a>
    4be2:	2100      	movs	r1, #0
    4be4:	4630      	mov	r0, r6
    4be6:	f7fe fcc5 	bl	3574 <_sbrk_r>
    4bea:	68bb      	ldr	r3, [r7, #8]
    4bec:	442b      	add	r3, r5
    4bee:	4298      	cmp	r0, r3
    4bf0:	d004      	beq.n	4bfc <_malloc_trim_r+0x44>
    4bf2:	4630      	mov	r0, r6
    4bf4:	f7fe fcb8 	bl	3568 <__malloc_unlock>
    4bf8:	2000      	movs	r0, #0
    4bfa:	bdf8      	pop	{r3, r4, r5, r6, r7, pc}
    4bfc:	4261      	negs	r1, r4
    4bfe:	4630      	mov	r0, r6
    4c00:	f7fe fcb8 	bl	3574 <_sbrk_r>
    4c04:	3001      	adds	r0, #1
    4c06:	d00d      	beq.n	4c24 <_malloc_trim_r+0x6c>
    4c08:	1b2d      	subs	r5, r5, r4
    4c0a:	4a11      	ldr	r2, [pc, #68]	; (4c50 <_malloc_trim_r+0x98>)
    4c0c:	68bb      	ldr	r3, [r7, #8]
    4c0e:	4630      	mov	r0, r6
    4c10:	f045 0501 	orr.w	r5, r5, #1
    4c14:	605d      	str	r5, [r3, #4]
    4c16:	6813      	ldr	r3, [r2, #0]
    4c18:	1b1b      	subs	r3, r3, r4
    4c1a:	6013      	str	r3, [r2, #0]
    4c1c:	f7fe fca4 	bl	3568 <__malloc_unlock>
    4c20:	2001      	movs	r0, #1
    4c22:	bdf8      	pop	{r3, r4, r5, r6, r7, pc}
    4c24:	2100      	movs	r1, #0
    4c26:	4630      	mov	r0, r6
    4c28:	f7fe fca4 	bl	3574 <_sbrk_r>
    4c2c:	68ba      	ldr	r2, [r7, #8]
    4c2e:	1a83      	subs	r3, r0, r2
    4c30:	2b0f      	cmp	r3, #15
    4c32:	ddde      	ble.n	4bf2 <_malloc_trim_r+0x3a>
    4c34:	f043 0301 	orr.w	r3, r3, #1
    4c38:	4905      	ldr	r1, [pc, #20]	; (4c50 <_malloc_trim_r+0x98>)
    4c3a:	6053      	str	r3, [r2, #4]
    4c3c:	4b05      	ldr	r3, [pc, #20]	; (4c54 <_malloc_trim_r+0x9c>)
    4c3e:	681b      	ldr	r3, [r3, #0]
    4c40:	1ac0      	subs	r0, r0, r3
    4c42:	6008      	str	r0, [r1, #0]
    4c44:	e7d5      	b.n	4bf2 <_malloc_trim_r+0x3a>
    4c46:	bf00      	nop
    4c48:	20000438 	.word	0x20000438
    4c4c:	fffff000 	.word	0xfffff000
    4c50:	20000a70 	.word	0x20000a70
    4c54:	20000840 	.word	0x20000840

00004c58 <_free_r>:
    4c58:	2900      	cmp	r1, #0
    4c5a:	d05f      	beq.n	4d1c <_free_r+0xc4>
    4c5c:	e92d 41f0 	stmdb	sp!, {r4, r5, r6, r7, r8, lr}
    4c60:	460c      	mov	r4, r1
    4c62:	4680      	mov	r8, r0
    4c64:	f7fe fc7a 	bl	355c <__malloc_lock>
    4c68:	4f76      	ldr	r7, [pc, #472]	; (4e44 <_free_r+0x1ec>)
    4c6a:	f854 3c04 	ldr.w	r3, [r4, #-4]
    4c6e:	f1a4 0508 	sub.w	r5, r4, #8
    4c72:	68be      	ldr	r6, [r7, #8]
    4c74:	f023 0101 	bic.w	r1, r3, #1
    4c78:	186a      	adds	r2, r5, r1
    4c7a:	6850      	ldr	r0, [r2, #4]
    4c7c:	4296      	cmp	r6, r2
    4c7e:	f020 0003 	bic.w	r0, r0, #3
    4c82:	f000 8086 	beq.w	4d92 <_free_r+0x13a>
    4c86:	07de      	lsls	r6, r3, #31
    4c88:	eb02 0c00 	add.w	ip, r2, r0
    4c8c:	6050      	str	r0, [r2, #4]
    4c8e:	d433      	bmi.n	4cf8 <_free_r+0xa0>
    4c90:	f854 4c08 	ldr.w	r4, [r4, #-8]
    4c94:	f8dc 3004 	ldr.w	r3, [ip, #4]
    4c98:	f107 0c08 	add.w	ip, r7, #8
    4c9c:	1b2d      	subs	r5, r5, r4
    4c9e:	4421      	add	r1, r4
    4ca0:	f003 0301 	and.w	r3, r3, #1
    4ca4:	68ac      	ldr	r4, [r5, #8]
    4ca6:	4564      	cmp	r4, ip
    4ca8:	d063      	beq.n	4d72 <_free_r+0x11a>
    4caa:	f8d5 e00c 	ldr.w	lr, [r5, #12]
    4cae:	f8c4 e00c 	str.w	lr, [r4, #12]
    4cb2:	f8ce 4008 	str.w	r4, [lr, #8]
    4cb6:	2b00      	cmp	r3, #0
    4cb8:	f000 808f 	beq.w	4dda <_free_r+0x182>
    4cbc:	f041 0301 	orr.w	r3, r1, #1
    4cc0:	606b      	str	r3, [r5, #4]
    4cc2:	6011      	str	r1, [r2, #0]
    4cc4:	f5b1 7f00 	cmp.w	r1, #512	; 0x200
    4cc8:	d231      	bcs.n	4d2e <_free_r+0xd6>
    4cca:	08cb      	lsrs	r3, r1, #3
    4ccc:	2201      	movs	r2, #1
    4cce:	0949      	lsrs	r1, r1, #5
    4cd0:	3301      	adds	r3, #1
    4cd2:	408a      	lsls	r2, r1
    4cd4:	6879      	ldr	r1, [r7, #4]
    4cd6:	430a      	orrs	r2, r1
    4cd8:	f857 1033 	ldr.w	r1, [r7, r3, lsl #3]
    4cdc:	607a      	str	r2, [r7, #4]
    4cde:	eb07 02c3 	add.w	r2, r7, r3, lsl #3
    4ce2:	3a08      	subs	r2, #8
    4ce4:	e9c5 1202 	strd	r1, r2, [r5, #8]
    4ce8:	f847 5033 	str.w	r5, [r7, r3, lsl #3]
    4cec:	60cd      	str	r5, [r1, #12]
    4cee:	4640      	mov	r0, r8
    4cf0:	e8bd 41f0 	ldmia.w	sp!, {r4, r5, r6, r7, r8, lr}
    4cf4:	f7fe bc38 	b.w	3568 <__malloc_unlock>
    4cf8:	f8dc 3004 	ldr.w	r3, [ip, #4]
    4cfc:	07db      	lsls	r3, r3, #31
    4cfe:	d40e      	bmi.n	4d1e <_free_r+0xc6>
    4d00:	4401      	add	r1, r0
    4d02:	f107 0c08 	add.w	ip, r7, #8
    4d06:	6893      	ldr	r3, [r2, #8]
    4d08:	f041 0001 	orr.w	r0, r1, #1
    4d0c:	4563      	cmp	r3, ip
    4d0e:	d06c      	beq.n	4dea <_free_r+0x192>
    4d10:	68d2      	ldr	r2, [r2, #12]
    4d12:	60da      	str	r2, [r3, #12]
    4d14:	6093      	str	r3, [r2, #8]
    4d16:	6068      	str	r0, [r5, #4]
    4d18:	5069      	str	r1, [r5, r1]
    4d1a:	e7d3      	b.n	4cc4 <_free_r+0x6c>
    4d1c:	4770      	bx	lr
    4d1e:	f041 0301 	orr.w	r3, r1, #1
    4d22:	f5b1 7f00 	cmp.w	r1, #512	; 0x200
    4d26:	f844 3c04 	str.w	r3, [r4, #-4]
    4d2a:	6011      	str	r1, [r2, #0]
    4d2c:	d3cd      	bcc.n	4cca <_free_r+0x72>
    4d2e:	f5b1 6f20 	cmp.w	r1, #2560	; 0xa00
    4d32:	ea4f 2351 	mov.w	r3, r1, lsr #9
    4d36:	d245      	bcs.n	4dc4 <_free_r+0x16c>
    4d38:	098b      	lsrs	r3, r1, #6
    4d3a:	f103 0039 	add.w	r0, r3, #57	; 0x39
    4d3e:	f103 0238 	add.w	r2, r3, #56	; 0x38
    4d42:	00c3      	lsls	r3, r0, #3
    4d44:	18f8      	adds	r0, r7, r3
    4d46:	58fb      	ldr	r3, [r7, r3]
    4d48:	3808      	subs	r0, #8
    4d4a:	4298      	cmp	r0, r3
    4d4c:	d054      	beq.n	4df8 <_free_r+0x1a0>
    4d4e:	685a      	ldr	r2, [r3, #4]
    4d50:	f022 0203 	bic.w	r2, r2, #3
    4d54:	428a      	cmp	r2, r1
    4d56:	d902      	bls.n	4d5e <_free_r+0x106>
    4d58:	689b      	ldr	r3, [r3, #8]
    4d5a:	4298      	cmp	r0, r3
    4d5c:	d1f7      	bne.n	4d4e <_free_r+0xf6>
    4d5e:	68d8      	ldr	r0, [r3, #12]
    4d60:	e9c5 3002 	strd	r3, r0, [r5, #8]
    4d64:	6085      	str	r5, [r0, #8]
    4d66:	4640      	mov	r0, r8
    4d68:	60dd      	str	r5, [r3, #12]
    4d6a:	e8bd 41f0 	ldmia.w	sp!, {r4, r5, r6, r7, r8, lr}
    4d6e:	f7fe bbfb 	b.w	3568 <__malloc_unlock>
    4d72:	2b00      	cmp	r3, #0
    4d74:	d161      	bne.n	4e3a <_free_r+0x1e2>
    4d76:	4408      	add	r0, r1
    4d78:	e9d2 2302 	ldrd	r2, r3, [r2, #8]
    4d7c:	60d3      	str	r3, [r2, #12]
    4d7e:	609a      	str	r2, [r3, #8]
    4d80:	f040 0301 	orr.w	r3, r0, #1
    4d84:	606b      	str	r3, [r5, #4]
    4d86:	5028      	str	r0, [r5, r0]
    4d88:	4640      	mov	r0, r8
    4d8a:	e8bd 41f0 	ldmia.w	sp!, {r4, r5, r6, r7, r8, lr}
    4d8e:	f7fe bbeb 	b.w	3568 <__malloc_unlock>
    4d92:	07db      	lsls	r3, r3, #31
    4d94:	4408      	add	r0, r1
    4d96:	d407      	bmi.n	4da8 <_free_r+0x150>
    4d98:	f854 3c08 	ldr.w	r3, [r4, #-8]
    4d9c:	1aed      	subs	r5, r5, r3
    4d9e:	4418      	add	r0, r3
    4da0:	e9d5 2302 	ldrd	r2, r3, [r5, #8]
    4da4:	60d3      	str	r3, [r2, #12]
    4da6:	609a      	str	r2, [r3, #8]
    4da8:	f040 0301 	orr.w	r3, r0, #1
    4dac:	606b      	str	r3, [r5, #4]
    4dae:	4b26      	ldr	r3, [pc, #152]	; (4e48 <_free_r+0x1f0>)
    4db0:	60bd      	str	r5, [r7, #8]
    4db2:	681b      	ldr	r3, [r3, #0]
    4db4:	4283      	cmp	r3, r0
    4db6:	d89a      	bhi.n	4cee <_free_r+0x96>
    4db8:	4b24      	ldr	r3, [pc, #144]	; (4e4c <_free_r+0x1f4>)
    4dba:	4640      	mov	r0, r8
    4dbc:	6819      	ldr	r1, [r3, #0]
    4dbe:	f7ff fefb 	bl	4bb8 <_malloc_trim_r>
    4dc2:	e794      	b.n	4cee <_free_r+0x96>
    4dc4:	2b14      	cmp	r3, #20
    4dc6:	d90a      	bls.n	4dde <_free_r+0x186>
    4dc8:	2b54      	cmp	r3, #84	; 0x54
    4dca:	d81d      	bhi.n	4e08 <_free_r+0x1b0>
    4dcc:	0b0b      	lsrs	r3, r1, #12
    4dce:	f103 006f 	add.w	r0, r3, #111	; 0x6f
    4dd2:	f103 026e 	add.w	r2, r3, #110	; 0x6e
    4dd6:	00c3      	lsls	r3, r0, #3
    4dd8:	e7b4      	b.n	4d44 <_free_r+0xec>
    4dda:	4401      	add	r1, r0
    4ddc:	e793      	b.n	4d06 <_free_r+0xae>
    4dde:	f103 005c 	add.w	r0, r3, #92	; 0x5c
    4de2:	f103 025b 	add.w	r2, r3, #91	; 0x5b
    4de6:	00c3      	lsls	r3, r0, #3
    4de8:	e7ac      	b.n	4d44 <_free_r+0xec>
    4dea:	e9c7 5504 	strd	r5, r5, [r7, #16]
    4dee:	e9c5 cc02 	strd	ip, ip, [r5, #8]
    4df2:	6068      	str	r0, [r5, #4]
    4df4:	5069      	str	r1, [r5, r1]
    4df6:	e77a      	b.n	4cee <_free_r+0x96>
    4df8:	2101      	movs	r1, #1
    4dfa:	1092      	asrs	r2, r2, #2
    4dfc:	fa01 f202 	lsl.w	r2, r1, r2
    4e00:	6879      	ldr	r1, [r7, #4]
    4e02:	430a      	orrs	r2, r1
    4e04:	607a      	str	r2, [r7, #4]
    4e06:	e7ab      	b.n	4d60 <_free_r+0x108>
    4e08:	f5b3 7faa 	cmp.w	r3, #340	; 0x154
    4e0c:	d806      	bhi.n	4e1c <_free_r+0x1c4>
    4e0e:	0bcb      	lsrs	r3, r1, #15
    4e10:	f103 0078 	add.w	r0, r3, #120	; 0x78
    4e14:	f103 0277 	add.w	r2, r3, #119	; 0x77
    4e18:	00c3      	lsls	r3, r0, #3
    4e1a:	e793      	b.n	4d44 <_free_r+0xec>
    4e1c:	f240 5254 	movw	r2, #1364	; 0x554
    4e20:	4293      	cmp	r3, r2
    4e22:	d806      	bhi.n	4e32 <_free_r+0x1da>
    4e24:	0c8b      	lsrs	r3, r1, #18
    4e26:	f103 007d 	add.w	r0, r3, #125	; 0x7d
    4e2a:	f103 027c 	add.w	r2, r3, #124	; 0x7c
    4e2e:	00c3      	lsls	r3, r0, #3
    4e30:	e788      	b.n	4d44 <_free_r+0xec>
    4e32:	f44f 737e 	mov.w	r3, #1016	; 0x3f8
    4e36:	227e      	movs	r2, #126	; 0x7e
    4e38:	e784      	b.n	4d44 <_free_r+0xec>
    4e3a:	f041 0301 	orr.w	r3, r1, #1
    4e3e:	606b      	str	r3, [r5, #4]
    4e40:	6011      	str	r1, [r2, #0]
    4e42:	e754      	b.n	4cee <_free_r+0x96>
    4e44:	20000438 	.word	0x20000438
    4e48:	20000844 	.word	0x20000844
    4e4c:	20000aa0 	.word	0x20000aa0

00004e50 <__sfvwrite_r>:
    4e50:	6893      	ldr	r3, [r2, #8]
    4e52:	2b00      	cmp	r3, #0
    4e54:	f000 80ff 	beq.w	5056 <__sfvwrite_r+0x206>
    4e58:	f9b1 300c 	ldrsh.w	r3, [r1, #12]
    4e5c:	fa1f fc83 	uxth.w	ip, r3
    4e60:	071b      	lsls	r3, r3, #28
    4e62:	e92d 4ff0 	stmdb	sp!, {r4, r5, r6, r7, r8, r9, sl, fp, lr}
    4e66:	4690      	mov	r8, r2
    4e68:	b083      	sub	sp, #12
    4e6a:	4681      	mov	r9, r0
    4e6c:	460c      	mov	r4, r1
    4e6e:	d531      	bpl.n	4ed4 <__sfvwrite_r+0x84>
    4e70:	690b      	ldr	r3, [r1, #16]
    4e72:	b37b      	cbz	r3, 4ed4 <__sfvwrite_r+0x84>
    4e74:	f01c 0702 	ands.w	r7, ip, #2
    4e78:	f8d8 6000 	ldr.w	r6, [r8]
    4e7c:	d03a      	beq.n	4ef4 <__sfvwrite_r+0xa4>
    4e7e:	2700      	movs	r7, #0
    4e80:	f8d4 b024 	ldr.w	fp, [r4, #36]	; 0x24
    4e84:	69e1      	ldr	r1, [r4, #28]
    4e86:	f8df a2d8 	ldr.w	sl, [pc, #728]	; 5160 <__sfvwrite_r+0x310>
    4e8a:	463d      	mov	r5, r7
    4e8c:	4555      	cmp	r5, sl
    4e8e:	462b      	mov	r3, r5
    4e90:	463a      	mov	r2, r7
    4e92:	4648      	mov	r0, r9
    4e94:	bf28      	it	cs
    4e96:	4653      	movcs	r3, sl
    4e98:	b1c5      	cbz	r5, 4ecc <__sfvwrite_r+0x7c>
    4e9a:	47d8      	blx	fp
    4e9c:	2800      	cmp	r0, #0
    4e9e:	f340 80d0 	ble.w	5042 <__sfvwrite_r+0x1f2>
    4ea2:	f8d8 3008 	ldr.w	r3, [r8, #8]
    4ea6:	4407      	add	r7, r0
    4ea8:	1a2d      	subs	r5, r5, r0
    4eaa:	1a1b      	subs	r3, r3, r0
    4eac:	f8c8 3008 	str.w	r3, [r8, #8]
    4eb0:	2b00      	cmp	r3, #0
    4eb2:	f000 80bc 	beq.w	502e <__sfvwrite_r+0x1de>
    4eb6:	4555      	cmp	r5, sl
    4eb8:	462b      	mov	r3, r5
    4eba:	f8d4 b024 	ldr.w	fp, [r4, #36]	; 0x24
    4ebe:	463a      	mov	r2, r7
    4ec0:	69e1      	ldr	r1, [r4, #28]
    4ec2:	bf28      	it	cs
    4ec4:	4653      	movcs	r3, sl
    4ec6:	4648      	mov	r0, r9
    4ec8:	2d00      	cmp	r5, #0
    4eca:	d1e6      	bne.n	4e9a <__sfvwrite_r+0x4a>
    4ecc:	e9d6 7500 	ldrd	r7, r5, [r6]
    4ed0:	3608      	adds	r6, #8
    4ed2:	e7db      	b.n	4e8c <__sfvwrite_r+0x3c>
    4ed4:	4621      	mov	r1, r4
    4ed6:	4648      	mov	r0, r9
    4ed8:	f7ff fb88 	bl	45ec <__swsetup_r>
    4edc:	2800      	cmp	r0, #0
    4ede:	f040 813b 	bne.w	5158 <__sfvwrite_r+0x308>
    4ee2:	f9b4 300c 	ldrsh.w	r3, [r4, #12]
    4ee6:	f8d8 6000 	ldr.w	r6, [r8]
    4eea:	fa1f fc83 	uxth.w	ip, r3
    4eee:	f01c 0702 	ands.w	r7, ip, #2
    4ef2:	d1c4      	bne.n	4e7e <__sfvwrite_r+0x2e>
    4ef4:	f01c 0a01 	ands.w	sl, ip, #1
    4ef8:	d167      	bne.n	4fca <__sfvwrite_r+0x17a>
    4efa:	6823      	ldr	r3, [r4, #0]
    4efc:	4657      	mov	r7, sl
    4efe:	68a1      	ldr	r1, [r4, #8]
    4f00:	4618      	mov	r0, r3
    4f02:	468b      	mov	fp, r1
    4f04:	2f00      	cmp	r7, #0
    4f06:	d05c      	beq.n	4fc2 <__sfvwrite_r+0x172>
    4f08:	f41c 7f00 	tst.w	ip, #512	; 0x200
    4f0c:	f000 80b9 	beq.w	5082 <__sfvwrite_r+0x232>
    4f10:	42b9      	cmp	r1, r7
    4f12:	460a      	mov	r2, r1
    4f14:	f200 80e5 	bhi.w	50e2 <__sfvwrite_r+0x292>
    4f18:	f41c 6f90 	tst.w	ip, #1152	; 0x480
    4f1c:	d031      	beq.n	4f82 <__sfvwrite_r+0x132>
    4f1e:	6921      	ldr	r1, [r4, #16]
    4f20:	6965      	ldr	r5, [r4, #20]
    4f22:	eba3 0b01 	sub.w	fp, r3, r1
    4f26:	eb15 0545 	adds.w	r5, r5, r5, lsl #1
    4f2a:	f10b 0301 	add.w	r3, fp, #1
    4f2e:	bf48      	it	mi
    4f30:	3501      	addmi	r5, #1
    4f32:	443b      	add	r3, r7
    4f34:	106d      	asrs	r5, r5, #1
    4f36:	42ab      	cmp	r3, r5
    4f38:	462a      	mov	r2, r5
    4f3a:	d901      	bls.n	4f40 <__sfvwrite_r+0xf0>
    4f3c:	461d      	mov	r5, r3
    4f3e:	461a      	mov	r2, r3
    4f40:	f41c 6f80 	tst.w	ip, #1024	; 0x400
    4f44:	f000 80ec 	beq.w	5120 <__sfvwrite_r+0x2d0>
    4f48:	4611      	mov	r1, r2
    4f4a:	4648      	mov	r0, r9
    4f4c:	f7fd ffc6 	bl	2edc <_malloc_r>
    4f50:	2800      	cmp	r0, #0
    4f52:	f000 80fb 	beq.w	514c <__sfvwrite_r+0x2fc>
    4f56:	465a      	mov	r2, fp
    4f58:	6921      	ldr	r1, [r4, #16]
    4f5a:	9000      	str	r0, [sp, #0]
    4f5c:	f7fb fc90 	bl	880 <memcpy>
    4f60:	89a2      	ldrh	r2, [r4, #12]
    4f62:	9b00      	ldr	r3, [sp, #0]
    4f64:	f422 6290 	bic.w	r2, r2, #1152	; 0x480
    4f68:	f042 0280 	orr.w	r2, r2, #128	; 0x80
    4f6c:	81a2      	strh	r2, [r4, #12]
    4f6e:	eb03 000b 	add.w	r0, r3, fp
    4f72:	6123      	str	r3, [r4, #16]
    4f74:	463a      	mov	r2, r7
    4f76:	eba5 030b 	sub.w	r3, r5, fp
    4f7a:	46bb      	mov	fp, r7
    4f7c:	6165      	str	r5, [r4, #20]
    4f7e:	60a3      	str	r3, [r4, #8]
    4f80:	6020      	str	r0, [r4, #0]
    4f82:	4651      	mov	r1, sl
    4f84:	9200      	str	r2, [sp, #0]
    4f86:	f000 f9e3 	bl	5350 <memmove>
    4f8a:	68a1      	ldr	r1, [r4, #8]
    4f8c:	6823      	ldr	r3, [r4, #0]
    4f8e:	463d      	mov	r5, r7
    4f90:	9a00      	ldr	r2, [sp, #0]
    4f92:	eba1 010b 	sub.w	r1, r1, fp
    4f96:	2700      	movs	r7, #0
    4f98:	441a      	add	r2, r3
    4f9a:	60a1      	str	r1, [r4, #8]
    4f9c:	6022      	str	r2, [r4, #0]
    4f9e:	f8d8 3008 	ldr.w	r3, [r8, #8]
    4fa2:	44aa      	add	sl, r5
    4fa4:	1b5b      	subs	r3, r3, r5
    4fa6:	f8c8 3008 	str.w	r3, [r8, #8]
    4faa:	2b00      	cmp	r3, #0
    4fac:	d03f      	beq.n	502e <__sfvwrite_r+0x1de>
    4fae:	f9b4 c00c 	ldrsh.w	ip, [r4, #12]
    4fb2:	6823      	ldr	r3, [r4, #0]
    4fb4:	68a1      	ldr	r1, [r4, #8]
    4fb6:	fa1f fc8c 	uxth.w	ip, ip
    4fba:	4618      	mov	r0, r3
    4fbc:	468b      	mov	fp, r1
    4fbe:	2f00      	cmp	r7, #0
    4fc0:	d1a2      	bne.n	4f08 <__sfvwrite_r+0xb8>
    4fc2:	e9d6 a700 	ldrd	sl, r7, [r6]
    4fc6:	3608      	adds	r6, #8
    4fc8:	e79a      	b.n	4f00 <__sfvwrite_r+0xb0>
    4fca:	4638      	mov	r0, r7
    4fcc:	46bb      	mov	fp, r7
    4fce:	463d      	mov	r5, r7
    4fd0:	9700      	str	r7, [sp, #0]
    4fd2:	2d00      	cmp	r5, #0
    4fd4:	d041      	beq.n	505a <__sfvwrite_r+0x20a>
    4fd6:	2800      	cmp	r0, #0
    4fd8:	d046      	beq.n	5068 <__sfvwrite_r+0x218>
    4fda:	9a00      	ldr	r2, [sp, #0]
    4fdc:	68a1      	ldr	r1, [r4, #8]
    4fde:	42aa      	cmp	r2, r5
    4fe0:	6963      	ldr	r3, [r4, #20]
    4fe2:	6820      	ldr	r0, [r4, #0]
    4fe4:	bf28      	it	cs
    4fe6:	462a      	movcs	r2, r5
    4fe8:	eb03 0a01 	add.w	sl, r3, r1
    4fec:	6921      	ldr	r1, [r4, #16]
    4fee:	4288      	cmp	r0, r1
    4ff0:	d902      	bls.n	4ff8 <__sfvwrite_r+0x1a8>
    4ff2:	4552      	cmp	r2, sl
    4ff4:	f300 8085 	bgt.w	5102 <__sfvwrite_r+0x2b2>
    4ff8:	4293      	cmp	r3, r2
    4ffa:	dc75      	bgt.n	50e8 <__sfvwrite_r+0x298>
    4ffc:	465a      	mov	r2, fp
    4ffe:	69e1      	ldr	r1, [r4, #28]
    5000:	4648      	mov	r0, r9
    5002:	6a67      	ldr	r7, [r4, #36]	; 0x24
    5004:	47b8      	blx	r7
    5006:	f1b0 0a00 	subs.w	sl, r0, #0
    500a:	dd1a      	ble.n	5042 <__sfvwrite_r+0x1f2>
    500c:	9b00      	ldr	r3, [sp, #0]
    500e:	ebb3 030a 	subs.w	r3, r3, sl
    5012:	9300      	str	r3, [sp, #0]
    5014:	d00f      	beq.n	5036 <__sfvwrite_r+0x1e6>
    5016:	2001      	movs	r0, #1
    5018:	f8d8 3008 	ldr.w	r3, [r8, #8]
    501c:	44d3      	add	fp, sl
    501e:	eba5 050a 	sub.w	r5, r5, sl
    5022:	eba3 030a 	sub.w	r3, r3, sl
    5026:	f8c8 3008 	str.w	r3, [r8, #8]
    502a:	2b00      	cmp	r3, #0
    502c:	d1d1      	bne.n	4fd2 <__sfvwrite_r+0x182>
    502e:	2000      	movs	r0, #0
    5030:	b003      	add	sp, #12
    5032:	e8bd 8ff0 	ldmia.w	sp!, {r4, r5, r6, r7, r8, r9, sl, fp, pc}
    5036:	4621      	mov	r1, r4
    5038:	4648      	mov	r0, r9
    503a:	f7ff fc5d 	bl	48f8 <_fflush_r>
    503e:	2800      	cmp	r0, #0
    5040:	d0ea      	beq.n	5018 <__sfvwrite_r+0x1c8>
    5042:	f9b4 300c 	ldrsh.w	r3, [r4, #12]
    5046:	f043 0340 	orr.w	r3, r3, #64	; 0x40
    504a:	f04f 30ff 	mov.w	r0, #4294967295	; 0xffffffff
    504e:	81a3      	strh	r3, [r4, #12]
    5050:	b003      	add	sp, #12
    5052:	e8bd 8ff0 	ldmia.w	sp!, {r4, r5, r6, r7, r8, r9, sl, fp, pc}
    5056:	2000      	movs	r0, #0
    5058:	4770      	bx	lr
    505a:	6875      	ldr	r5, [r6, #4]
    505c:	4633      	mov	r3, r6
    505e:	3608      	adds	r6, #8
    5060:	2d00      	cmp	r5, #0
    5062:	d0fa      	beq.n	505a <__sfvwrite_r+0x20a>
    5064:	f8d3 b000 	ldr.w	fp, [r3]
    5068:	462a      	mov	r2, r5
    506a:	210a      	movs	r1, #10
    506c:	4658      	mov	r0, fp
    506e:	f000 f933 	bl	52d8 <memchr>
    5072:	2800      	cmp	r0, #0
    5074:	d067      	beq.n	5146 <__sfvwrite_r+0x2f6>
    5076:	3001      	adds	r0, #1
    5078:	eba0 030b 	sub.w	r3, r0, fp
    507c:	461a      	mov	r2, r3
    507e:	9300      	str	r3, [sp, #0]
    5080:	e7ac      	b.n	4fdc <__sfvwrite_r+0x18c>
    5082:	6922      	ldr	r2, [r4, #16]
    5084:	429a      	cmp	r2, r3
    5086:	d314      	bcc.n	50b2 <__sfvwrite_r+0x262>
    5088:	6962      	ldr	r2, [r4, #20]
    508a:	42ba      	cmp	r2, r7
    508c:	d811      	bhi.n	50b2 <__sfvwrite_r+0x262>
    508e:	f06f 4300 	mvn.w	r3, #2147483648	; 0x80000000
    5092:	6a65      	ldr	r5, [r4, #36]	; 0x24
    5094:	69e1      	ldr	r1, [r4, #28]
    5096:	4648      	mov	r0, r9
    5098:	42bb      	cmp	r3, r7
    509a:	bf28      	it	cs
    509c:	463b      	movcs	r3, r7
    509e:	fb93 f3f2 	sdiv	r3, r3, r2
    50a2:	fb02 f303 	mul.w	r3, r2, r3
    50a6:	4652      	mov	r2, sl
    50a8:	47a8      	blx	r5
    50aa:	1e05      	subs	r5, r0, #0
    50ac:	ddc9      	ble.n	5042 <__sfvwrite_r+0x1f2>
    50ae:	1b7f      	subs	r7, r7, r5
    50b0:	e775      	b.n	4f9e <__sfvwrite_r+0x14e>
    50b2:	42b9      	cmp	r1, r7
    50b4:	4618      	mov	r0, r3
    50b6:	bf28      	it	cs
    50b8:	4639      	movcs	r1, r7
    50ba:	460d      	mov	r5, r1
    50bc:	4651      	mov	r1, sl
    50be:	462a      	mov	r2, r5
    50c0:	f000 f946 	bl	5350 <memmove>
    50c4:	68a1      	ldr	r1, [r4, #8]
    50c6:	6823      	ldr	r3, [r4, #0]
    50c8:	1b49      	subs	r1, r1, r5
    50ca:	442b      	add	r3, r5
    50cc:	60a1      	str	r1, [r4, #8]
    50ce:	6023      	str	r3, [r4, #0]
    50d0:	2900      	cmp	r1, #0
    50d2:	d1ec      	bne.n	50ae <__sfvwrite_r+0x25e>
    50d4:	4621      	mov	r1, r4
    50d6:	4648      	mov	r0, r9
    50d8:	f7ff fc0e 	bl	48f8 <_fflush_r>
    50dc:	2800      	cmp	r0, #0
    50de:	d0e6      	beq.n	50ae <__sfvwrite_r+0x25e>
    50e0:	e7af      	b.n	5042 <__sfvwrite_r+0x1f2>
    50e2:	46bb      	mov	fp, r7
    50e4:	463a      	mov	r2, r7
    50e6:	e74c      	b.n	4f82 <__sfvwrite_r+0x132>
    50e8:	4659      	mov	r1, fp
    50ea:	9201      	str	r2, [sp, #4]
    50ec:	f000 f930 	bl	5350 <memmove>
    50f0:	9a01      	ldr	r2, [sp, #4]
    50f2:	68a3      	ldr	r3, [r4, #8]
    50f4:	4692      	mov	sl, r2
    50f6:	1a9b      	subs	r3, r3, r2
    50f8:	60a3      	str	r3, [r4, #8]
    50fa:	6823      	ldr	r3, [r4, #0]
    50fc:	4413      	add	r3, r2
    50fe:	6023      	str	r3, [r4, #0]
    5100:	e784      	b.n	500c <__sfvwrite_r+0x1bc>
    5102:	4659      	mov	r1, fp
    5104:	4652      	mov	r2, sl
    5106:	f000 f923 	bl	5350 <memmove>
    510a:	6823      	ldr	r3, [r4, #0]
    510c:	4621      	mov	r1, r4
    510e:	4648      	mov	r0, r9
    5110:	4453      	add	r3, sl
    5112:	6023      	str	r3, [r4, #0]
    5114:	f7ff fbf0 	bl	48f8 <_fflush_r>
    5118:	2800      	cmp	r0, #0
    511a:	f43f af77 	beq.w	500c <__sfvwrite_r+0x1bc>
    511e:	e790      	b.n	5042 <__sfvwrite_r+0x1f2>
    5120:	4648      	mov	r0, r9
    5122:	f000 f991 	bl	5448 <_realloc_r>
    5126:	4603      	mov	r3, r0
    5128:	2800      	cmp	r0, #0
    512a:	f47f af20 	bne.w	4f6e <__sfvwrite_r+0x11e>
    512e:	6921      	ldr	r1, [r4, #16]
    5130:	4648      	mov	r0, r9
    5132:	f7ff fd91 	bl	4c58 <_free_r>
    5136:	f9b4 300c 	ldrsh.w	r3, [r4, #12]
    513a:	220c      	movs	r2, #12
    513c:	f023 0380 	bic.w	r3, r3, #128	; 0x80
    5140:	f8c9 2000 	str.w	r2, [r9]
    5144:	e77f      	b.n	5046 <__sfvwrite_r+0x1f6>
    5146:	1c6a      	adds	r2, r5, #1
    5148:	9200      	str	r2, [sp, #0]
    514a:	e747      	b.n	4fdc <__sfvwrite_r+0x18c>
    514c:	220c      	movs	r2, #12
    514e:	f9b4 300c 	ldrsh.w	r3, [r4, #12]
    5152:	f8c9 2000 	str.w	r2, [r9]
    5156:	e776      	b.n	5046 <__sfvwrite_r+0x1f6>
    5158:	f04f 30ff 	mov.w	r0, #4294967295	; 0xffffffff
    515c:	e768      	b.n	5030 <__sfvwrite_r+0x1e0>
    515e:	bf00      	nop
    5160:	7ffffc00 	.word	0x7ffffc00

00005164 <_fwalk_reent>:
    5164:	e92d 43f8 	stmdb	sp!, {r3, r4, r5, r6, r7, r8, r9, lr}
    5168:	2600      	movs	r6, #0
    516a:	4681      	mov	r9, r0
    516c:	4688      	mov	r8, r1
    516e:	f500 7738 	add.w	r7, r0, #736	; 0x2e0
    5172:	e9d7 5401 	ldrd	r5, r4, [r7, #4]
    5176:	3d01      	subs	r5, #1
    5178:	d40f      	bmi.n	519a <_fwalk_reent+0x36>
    517a:	89a3      	ldrh	r3, [r4, #12]
    517c:	3d01      	subs	r5, #1
    517e:	2b01      	cmp	r3, #1
    5180:	d907      	bls.n	5192 <_fwalk_reent+0x2e>
    5182:	f9b4 300e 	ldrsh.w	r3, [r4, #14]
    5186:	4621      	mov	r1, r4
    5188:	4648      	mov	r0, r9
    518a:	3301      	adds	r3, #1
    518c:	d001      	beq.n	5192 <_fwalk_reent+0x2e>
    518e:	47c0      	blx	r8
    5190:	4306      	orrs	r6, r0
    5192:	1c6b      	adds	r3, r5, #1
    5194:	f104 0468 	add.w	r4, r4, #104	; 0x68
    5198:	d1ef      	bne.n	517a <_fwalk_reent+0x16>
    519a:	683f      	ldr	r7, [r7, #0]
    519c:	2f00      	cmp	r7, #0
    519e:	d1e8      	bne.n	5172 <_fwalk_reent+0xe>
    51a0:	4630      	mov	r0, r6
    51a2:	e8bd 83f8 	ldmia.w	sp!, {r3, r4, r5, r6, r7, r8, r9, pc}
    51a6:	bf00      	nop

000051a8 <__locale_mb_cur_max>:
    51a8:	4b01      	ldr	r3, [pc, #4]	; (51b0 <__locale_mb_cur_max+0x8>)
    51aa:	f893 0128 	ldrb.w	r0, [r3, #296]	; 0x128
    51ae:	4770      	bx	lr
    51b0:	2000084c 	.word	0x2000084c

000051b4 <_localeconv_r>:
    51b4:	4800      	ldr	r0, [pc, #0]	; (51b8 <_localeconv_r+0x4>)
    51b6:	4770      	bx	lr
    51b8:	2000093c 	.word	0x2000093c

000051bc <__retarget_lock_init_recursive>:
    51bc:	4770      	bx	lr
    51be:	bf00      	nop

000051c0 <__retarget_lock_close_recursive>:
    51c0:	4770      	bx	lr
    51c2:	bf00      	nop

000051c4 <__retarget_lock_acquire_recursive>:
    51c4:	4770      	bx	lr
    51c6:	bf00      	nop

000051c8 <__retarget_lock_release_recursive>:
    51c8:	4770      	bx	lr
    51ca:	bf00      	nop

000051cc <__smakebuf_r>:
    51cc:	898b      	ldrh	r3, [r1, #12]
    51ce:	e92d 41f0 	stmdb	sp!, {r4, r5, r6, r7, r8, lr}
    51d2:	460c      	mov	r4, r1
    51d4:	0799      	lsls	r1, r3, #30
    51d6:	b096      	sub	sp, #88	; 0x58
    51d8:	d508      	bpl.n	51ec <__smakebuf_r+0x20>
    51da:	f104 0343 	add.w	r3, r4, #67	; 0x43
    51de:	2201      	movs	r2, #1
    51e0:	6023      	str	r3, [r4, #0]
    51e2:	e9c4 3204 	strd	r3, r2, [r4, #16]
    51e6:	b016      	add	sp, #88	; 0x58
    51e8:	e8bd 81f0 	ldmia.w	sp!, {r4, r5, r6, r7, r8, pc}
    51ec:	f9b4 100e 	ldrsh.w	r1, [r4, #14]
    51f0:	4606      	mov	r6, r0
    51f2:	2900      	cmp	r1, #0
    51f4:	db27      	blt.n	5246 <__smakebuf_r+0x7a>
    51f6:	466a      	mov	r2, sp
    51f8:	f000 fdd0 	bl	5d9c <_fstat_r>
    51fc:	2800      	cmp	r0, #0
    51fe:	db21      	blt.n	5244 <__smakebuf_r+0x78>
    5200:	9d01      	ldr	r5, [sp, #4]
    5202:	f44f 6880 	mov.w	r8, #1024	; 0x400
    5206:	f44f 6700 	mov.w	r7, #2048	; 0x800
    520a:	f405 4570 	and.w	r5, r5, #61440	; 0xf000
    520e:	f5a5 5500 	sub.w	r5, r5, #8192	; 0x2000
    5212:	fab5 f585 	clz	r5, r5
    5216:	096d      	lsrs	r5, r5, #5
    5218:	4641      	mov	r1, r8
    521a:	4630      	mov	r0, r6
    521c:	f7fd fe5e 	bl	2edc <_malloc_r>
    5220:	f9b4 300c 	ldrsh.w	r3, [r4, #12]
    5224:	b1f0      	cbz	r0, 5264 <__smakebuf_r+0x98>
    5226:	f043 0380 	orr.w	r3, r3, #128	; 0x80
    522a:	4a1f      	ldr	r2, [pc, #124]	; (52a8 <__smakebuf_r+0xdc>)
    522c:	63f2      	str	r2, [r6, #60]	; 0x3c
    522e:	f8c4 8014 	str.w	r8, [r4, #20]
    5232:	81a3      	strh	r3, [r4, #12]
    5234:	6020      	str	r0, [r4, #0]
    5236:	6120      	str	r0, [r4, #16]
    5238:	bb35      	cbnz	r5, 5288 <__smakebuf_r+0xbc>
    523a:	433b      	orrs	r3, r7
    523c:	81a3      	strh	r3, [r4, #12]
    523e:	b016      	add	sp, #88	; 0x58
    5240:	e8bd 81f0 	ldmia.w	sp!, {r4, r5, r6, r7, r8, pc}
    5244:	89a3      	ldrh	r3, [r4, #12]
    5246:	f013 0580 	ands.w	r5, r3, #128	; 0x80
    524a:	d019      	beq.n	5280 <__smakebuf_r+0xb4>
    524c:	f04f 0840 	mov.w	r8, #64	; 0x40
    5250:	2500      	movs	r5, #0
    5252:	4630      	mov	r0, r6
    5254:	4641      	mov	r1, r8
    5256:	462f      	mov	r7, r5
    5258:	f7fd fe40 	bl	2edc <_malloc_r>
    525c:	f9b4 300c 	ldrsh.w	r3, [r4, #12]
    5260:	2800      	cmp	r0, #0
    5262:	d1e0      	bne.n	5226 <__smakebuf_r+0x5a>
    5264:	059a      	lsls	r2, r3, #22
    5266:	d4be      	bmi.n	51e6 <__smakebuf_r+0x1a>
    5268:	f023 0303 	bic.w	r3, r3, #3
    526c:	f104 0243 	add.w	r2, r4, #67	; 0x43
    5270:	2101      	movs	r1, #1
    5272:	f043 0302 	orr.w	r3, r3, #2
    5276:	6022      	str	r2, [r4, #0]
    5278:	e9c4 2104 	strd	r2, r1, [r4, #16]
    527c:	81a3      	strh	r3, [r4, #12]
    527e:	e7b2      	b.n	51e6 <__smakebuf_r+0x1a>
    5280:	f44f 6880 	mov.w	r8, #1024	; 0x400
    5284:	462f      	mov	r7, r5
    5286:	e7c7      	b.n	5218 <__smakebuf_r+0x4c>
    5288:	f9b4 100e 	ldrsh.w	r1, [r4, #14]
    528c:	4630      	mov	r0, r6
    528e:	f000 fd9b 	bl	5dc8 <_isatty_r>
    5292:	b910      	cbnz	r0, 529a <__smakebuf_r+0xce>
    5294:	f9b4 300c 	ldrsh.w	r3, [r4, #12]
    5298:	e7cf      	b.n	523a <__smakebuf_r+0x6e>
    529a:	89a3      	ldrh	r3, [r4, #12]
    529c:	f023 0303 	bic.w	r3, r3, #3
    52a0:	f043 0301 	orr.w	r3, r3, #1
    52a4:	b21b      	sxth	r3, r3
    52a6:	e7c8      	b.n	523a <__smakebuf_r+0x6e>
    52a8:	00004955 	.word	0x00004955

000052ac <__ascii_mbtowc>:
    52ac:	b082      	sub	sp, #8
    52ae:	b149      	cbz	r1, 52c4 <__ascii_mbtowc+0x18>
    52b0:	b15a      	cbz	r2, 52ca <__ascii_mbtowc+0x1e>
    52b2:	b16b      	cbz	r3, 52d0 <__ascii_mbtowc+0x24>
    52b4:	7813      	ldrb	r3, [r2, #0]
    52b6:	600b      	str	r3, [r1, #0]
    52b8:	7812      	ldrb	r2, [r2, #0]
    52ba:	1e10      	subs	r0, r2, #0
    52bc:	bf18      	it	ne
    52be:	2001      	movne	r0, #1
    52c0:	b002      	add	sp, #8
    52c2:	4770      	bx	lr
    52c4:	a901      	add	r1, sp, #4
    52c6:	2a00      	cmp	r2, #0
    52c8:	d1f3      	bne.n	52b2 <__ascii_mbtowc+0x6>
    52ca:	4610      	mov	r0, r2
    52cc:	b002      	add	sp, #8
    52ce:	4770      	bx	lr
    52d0:	f06f 0001 	mvn.w	r0, #1
    52d4:	e7f4      	b.n	52c0 <__ascii_mbtowc+0x14>
    52d6:	bf00      	nop

000052d8 <memchr>:
    52d8:	b510      	push	{r4, lr}
    52da:	fa5f fe81 	uxtb.w	lr, r1
    52de:	0781      	lsls	r1, r0, #30
    52e0:	d010      	beq.n	5304 <memchr+0x2c>
    52e2:	4603      	mov	r3, r0
    52e4:	1e51      	subs	r1, r2, #1
    52e6:	b922      	cbnz	r2, 52f2 <memchr+0x1a>
    52e8:	e00a      	b.n	5300 <memchr+0x28>
    52ea:	079a      	lsls	r2, r3, #30
    52ec:	d00c      	beq.n	5308 <memchr+0x30>
    52ee:	3901      	subs	r1, #1
    52f0:	d306      	bcc.n	5300 <memchr+0x28>
    52f2:	4618      	mov	r0, r3
    52f4:	f813 2b01 	ldrb.w	r2, [r3], #1
    52f8:	4572      	cmp	r2, lr
    52fa:	469c      	mov	ip, r3
    52fc:	d1f5      	bne.n	52ea <memchr+0x12>
    52fe:	bd10      	pop	{r4, pc}
    5300:	2000      	movs	r0, #0
    5302:	bd10      	pop	{r4, pc}
    5304:	4684      	mov	ip, r0
    5306:	4611      	mov	r1, r2
    5308:	2903      	cmp	r1, #3
    530a:	d914      	bls.n	5336 <memchr+0x5e>
    530c:	ea4e 240e 	orr.w	r4, lr, lr, lsl #8
    5310:	4662      	mov	r2, ip
    5312:	ea44 4404 	orr.w	r4, r4, r4, lsl #16
    5316:	4694      	mov	ip, r2
    5318:	3204      	adds	r2, #4
    531a:	f8dc 3000 	ldr.w	r3, [ip]
    531e:	4063      	eors	r3, r4
    5320:	f1a3 3001 	sub.w	r0, r3, #16843009	; 0x1010101
    5324:	ea20 0303 	bic.w	r3, r0, r3
    5328:	f013 3f80 	tst.w	r3, #2155905152	; 0x80808080
    532c:	d104      	bne.n	5338 <memchr+0x60>
    532e:	3904      	subs	r1, #4
    5330:	4694      	mov	ip, r2
    5332:	2903      	cmp	r1, #3
    5334:	d8ef      	bhi.n	5316 <memchr+0x3e>
    5336:	b149      	cbz	r1, 534c <memchr+0x74>
    5338:	4461      	add	r1, ip
    533a:	e001      	b.n	5340 <memchr+0x68>
    533c:	458c      	cmp	ip, r1
    533e:	d0df      	beq.n	5300 <memchr+0x28>
    5340:	4660      	mov	r0, ip
    5342:	f81c 3b01 	ldrb.w	r3, [ip], #1
    5346:	4573      	cmp	r3, lr
    5348:	d1f8      	bne.n	533c <memchr+0x64>
    534a:	bd10      	pop	{r4, pc}
    534c:	4608      	mov	r0, r1
    534e:	bd10      	pop	{r4, pc}

00005350 <memmove>:
    5350:	4288      	cmp	r0, r1
    5352:	d90d      	bls.n	5370 <memmove+0x20>
    5354:	188b      	adds	r3, r1, r2
    5356:	4283      	cmp	r3, r0
    5358:	d90a      	bls.n	5370 <memmove+0x20>
    535a:	eb00 0c02 	add.w	ip, r0, r2
    535e:	b1ba      	cbz	r2, 5390 <memmove+0x40>
    5360:	4662      	mov	r2, ip
    5362:	f813 cd01 	ldrb.w	ip, [r3, #-1]!
    5366:	4299      	cmp	r1, r3
    5368:	f802 cd01 	strb.w	ip, [r2, #-1]!
    536c:	d1f9      	bne.n	5362 <memmove+0x12>
    536e:	4770      	bx	lr
    5370:	2a0f      	cmp	r2, #15
    5372:	d80e      	bhi.n	5392 <memmove+0x42>
    5374:	4603      	mov	r3, r0
    5376:	f102 3cff 	add.w	ip, r2, #4294967295	; 0xffffffff
    537a:	b14a      	cbz	r2, 5390 <memmove+0x40>
    537c:	f10c 0c01 	add.w	ip, ip, #1
    5380:	3b01      	subs	r3, #1
    5382:	448c      	add	ip, r1
    5384:	f811 2b01 	ldrb.w	r2, [r1], #1
    5388:	4561      	cmp	r1, ip
    538a:	f803 2f01 	strb.w	r2, [r3, #1]!
    538e:	d1f9      	bne.n	5384 <memmove+0x34>
    5390:	4770      	bx	lr
    5392:	ea40 0301 	orr.w	r3, r0, r1
    5396:	079b      	lsls	r3, r3, #30
    5398:	d150      	bne.n	543c <memmove+0xec>
    539a:	f1a2 0310 	sub.w	r3, r2, #16
    539e:	f101 0c20 	add.w	ip, r1, #32
    53a2:	b570      	push	{r4, r5, r6, lr}
    53a4:	f023 050f 	bic.w	r5, r3, #15
    53a8:	f101 0e10 	add.w	lr, r1, #16
    53ac:	f100 0410 	add.w	r4, r0, #16
    53b0:	091b      	lsrs	r3, r3, #4
    53b2:	44ac      	add	ip, r5
    53b4:	f85e 5c10 	ldr.w	r5, [lr, #-16]
    53b8:	f10e 0e10 	add.w	lr, lr, #16
    53bc:	3410      	adds	r4, #16
    53be:	f844 5c20 	str.w	r5, [r4, #-32]
    53c2:	f85e 5c1c 	ldr.w	r5, [lr, #-28]
    53c6:	f844 5c1c 	str.w	r5, [r4, #-28]
    53ca:	f85e 5c18 	ldr.w	r5, [lr, #-24]
    53ce:	f844 5c18 	str.w	r5, [r4, #-24]
    53d2:	f85e 5c14 	ldr.w	r5, [lr, #-20]
    53d6:	45e6      	cmp	lr, ip
    53d8:	f844 5c14 	str.w	r5, [r4, #-20]
    53dc:	d1ea      	bne.n	53b4 <memmove+0x64>
    53de:	3301      	adds	r3, #1
    53e0:	f012 0f0c 	tst.w	r2, #12
    53e4:	f002 0c0f 	and.w	ip, r2, #15
    53e8:	eb01 1103 	add.w	r1, r1, r3, lsl #4
    53ec:	eb00 1303 	add.w	r3, r0, r3, lsl #4
    53f0:	d028      	beq.n	5444 <memmove+0xf4>
    53f2:	f1ac 0c04 	sub.w	ip, ip, #4
    53f6:	1f1c      	subs	r4, r3, #4
    53f8:	468e      	mov	lr, r1
    53fa:	f02c 0603 	bic.w	r6, ip, #3
    53fe:	ea4f 0c9c 	mov.w	ip, ip, lsr #2
    5402:	441e      	add	r6, r3
    5404:	f85e 5b04 	ldr.w	r5, [lr], #4
    5408:	f844 5f04 	str.w	r5, [r4, #4]!
    540c:	42b4      	cmp	r4, r6
    540e:	d1f9      	bne.n	5404 <memmove+0xb4>
    5410:	f10c 0c01 	add.w	ip, ip, #1
    5414:	f002 0203 	and.w	r2, r2, #3
    5418:	eb03 038c 	add.w	r3, r3, ip, lsl #2
    541c:	eb01 018c 	add.w	r1, r1, ip, lsl #2
    5420:	f102 3cff 	add.w	ip, r2, #4294967295	; 0xffffffff
    5424:	b14a      	cbz	r2, 543a <memmove+0xea>
    5426:	f10c 0c01 	add.w	ip, ip, #1
    542a:	3b01      	subs	r3, #1
    542c:	448c      	add	ip, r1
    542e:	f811 2b01 	ldrb.w	r2, [r1], #1
    5432:	4561      	cmp	r1, ip
    5434:	f803 2f01 	strb.w	r2, [r3, #1]!
    5438:	d1f9      	bne.n	542e <memmove+0xde>
    543a:	bd70      	pop	{r4, r5, r6, pc}
    543c:	f102 3cff 	add.w	ip, r2, #4294967295	; 0xffffffff
    5440:	4603      	mov	r3, r0
    5442:	e79b      	b.n	537c <memmove+0x2c>
    5444:	4662      	mov	r2, ip
    5446:	e7eb      	b.n	5420 <memmove+0xd0>

00005448 <_realloc_r>:
    5448:	e92d 4ff8 	stmdb	sp!, {r3, r4, r5, r6, r7, r8, r9, sl, fp, lr}
    544c:	4616      	mov	r6, r2
    544e:	2900      	cmp	r1, #0
    5450:	f000 8096 	beq.w	5580 <_realloc_r+0x138>
    5454:	460c      	mov	r4, r1
    5456:	f106 050b 	add.w	r5, r6, #11
    545a:	4680      	mov	r8, r0
    545c:	f7fe f87e 	bl	355c <__malloc_lock>
    5460:	f854 0c04 	ldr.w	r0, [r4, #-4]
    5464:	2d16      	cmp	r5, #22
    5466:	f1a4 0908 	sub.w	r9, r4, #8
    546a:	f020 0703 	bic.w	r7, r0, #3
    546e:	d85b      	bhi.n	5528 <_realloc_r+0xe0>
    5470:	2210      	movs	r2, #16
    5472:	2300      	movs	r3, #0
    5474:	4615      	mov	r5, r2
    5476:	42b5      	cmp	r5, r6
    5478:	f0c0 8099 	bcc.w	55ae <_realloc_r+0x166>
    547c:	2b00      	cmp	r3, #0
    547e:	f040 8096 	bne.w	55ae <_realloc_r+0x166>
    5482:	4297      	cmp	r7, r2
    5484:	da5a      	bge.n	553c <_realloc_r+0xf4>
    5486:	4bbf      	ldr	r3, [pc, #764]	; (5784 <_realloc_r+0x33c>)
    5488:	eb09 0c07 	add.w	ip, r9, r7
    548c:	6899      	ldr	r1, [r3, #8]
    548e:	f8dc e004 	ldr.w	lr, [ip, #4]
    5492:	4561      	cmp	r1, ip
    5494:	f000 8092 	beq.w	55bc <_realloc_r+0x174>
    5498:	f02e 0301 	bic.w	r3, lr, #1
    549c:	4463      	add	r3, ip
    549e:	685b      	ldr	r3, [r3, #4]
    54a0:	07d9      	lsls	r1, r3, #31
    54a2:	d462      	bmi.n	556a <_realloc_r+0x122>
    54a4:	f02e 0a03 	bic.w	sl, lr, #3
    54a8:	eb07 030a 	add.w	r3, r7, sl
    54ac:	4293      	cmp	r3, r2
    54ae:	da40      	bge.n	5532 <_realloc_r+0xea>
    54b0:	07c0      	lsls	r0, r0, #31
    54b2:	d410      	bmi.n	54d6 <_realloc_r+0x8e>
    54b4:	f854 3c08 	ldr.w	r3, [r4, #-8]
    54b8:	eba9 0b03 	sub.w	fp, r9, r3
    54bc:	f8db 3004 	ldr.w	r3, [fp, #4]
    54c0:	f023 0103 	bic.w	r1, r3, #3
    54c4:	448a      	add	sl, r1
    54c6:	44ba      	add	sl, r7
    54c8:	4592      	cmp	sl, r2
    54ca:	f280 80f8 	bge.w	56be <_realloc_r+0x276>
    54ce:	187b      	adds	r3, r7, r1
    54d0:	4293      	cmp	r3, r2
    54d2:	f280 80cf 	bge.w	5674 <_realloc_r+0x22c>
    54d6:	4631      	mov	r1, r6
    54d8:	4640      	mov	r0, r8
    54da:	f7fd fcff 	bl	2edc <_malloc_r>
    54de:	4606      	mov	r6, r0
    54e0:	b1e0      	cbz	r0, 551c <_realloc_r+0xd4>
    54e2:	f854 3c04 	ldr.w	r3, [r4, #-4]
    54e6:	f1a0 0208 	sub.w	r2, r0, #8
    54ea:	f023 0301 	bic.w	r3, r3, #1
    54ee:	444b      	add	r3, r9
    54f0:	4293      	cmp	r3, r2
    54f2:	f000 80ae 	beq.w	5652 <_realloc_r+0x20a>
    54f6:	1f3a      	subs	r2, r7, #4
    54f8:	2a24      	cmp	r2, #36	; 0x24
    54fa:	f200 80dc 	bhi.w	56b6 <_realloc_r+0x26e>
    54fe:	2a13      	cmp	r2, #19
    5500:	f200 80ad 	bhi.w	565e <_realloc_r+0x216>
    5504:	4603      	mov	r3, r0
    5506:	4622      	mov	r2, r4
    5508:	6811      	ldr	r1, [r2, #0]
    550a:	6019      	str	r1, [r3, #0]
    550c:	6851      	ldr	r1, [r2, #4]
    550e:	6059      	str	r1, [r3, #4]
    5510:	6892      	ldr	r2, [r2, #8]
    5512:	609a      	str	r2, [r3, #8]
    5514:	4621      	mov	r1, r4
    5516:	4640      	mov	r0, r8
    5518:	f7ff fb9e 	bl	4c58 <_free_r>
    551c:	4640      	mov	r0, r8
    551e:	f7fe f823 	bl	3568 <__malloc_unlock>
    5522:	4630      	mov	r0, r6
    5524:	e8bd 8ff8 	ldmia.w	sp!, {r3, r4, r5, r6, r7, r8, r9, sl, fp, pc}
    5528:	f025 0507 	bic.w	r5, r5, #7
    552c:	462a      	mov	r2, r5
    552e:	0feb      	lsrs	r3, r5, #31
    5530:	e7a1      	b.n	5476 <_realloc_r+0x2e>
    5532:	461f      	mov	r7, r3
    5534:	e9dc 2302 	ldrd	r2, r3, [ip, #8]
    5538:	60d3      	str	r3, [r2, #12]
    553a:	609a      	str	r2, [r3, #8]
    553c:	1b7a      	subs	r2, r7, r5
    553e:	f8d9 3004 	ldr.w	r3, [r9, #4]
    5542:	eb09 0007 	add.w	r0, r9, r7
    5546:	2a0f      	cmp	r2, #15
    5548:	f003 0301 	and.w	r3, r3, #1
    554c:	d81d      	bhi.n	558a <_realloc_r+0x142>
    554e:	433b      	orrs	r3, r7
    5550:	f8c9 3004 	str.w	r3, [r9, #4]
    5554:	6843      	ldr	r3, [r0, #4]
    5556:	f043 0301 	orr.w	r3, r3, #1
    555a:	6043      	str	r3, [r0, #4]
    555c:	4640      	mov	r0, r8
    555e:	4626      	mov	r6, r4
    5560:	f7fe f802 	bl	3568 <__malloc_unlock>
    5564:	4630      	mov	r0, r6
    5566:	e8bd 8ff8 	ldmia.w	sp!, {r3, r4, r5, r6, r7, r8, r9, sl, fp, pc}
    556a:	07c3      	lsls	r3, r0, #31
    556c:	d4b3      	bmi.n	54d6 <_realloc_r+0x8e>
    556e:	f854 3c08 	ldr.w	r3, [r4, #-8]
    5572:	eba9 0b03 	sub.w	fp, r9, r3
    5576:	f8db 1004 	ldr.w	r1, [fp, #4]
    557a:	f021 0103 	bic.w	r1, r1, #3
    557e:	e7a6      	b.n	54ce <_realloc_r+0x86>
    5580:	4611      	mov	r1, r2
    5582:	e8bd 4ff8 	ldmia.w	sp!, {r3, r4, r5, r6, r7, r8, r9, sl, fp, lr}
    5586:	f7fd bca9 	b.w	2edc <_malloc_r>
    558a:	432b      	orrs	r3, r5
    558c:	eb09 0105 	add.w	r1, r9, r5
    5590:	f042 0201 	orr.w	r2, r2, #1
    5594:	f8c9 3004 	str.w	r3, [r9, #4]
    5598:	3108      	adds	r1, #8
    559a:	f841 2c04 	str.w	r2, [r1, #-4]
    559e:	6843      	ldr	r3, [r0, #4]
    55a0:	f043 0301 	orr.w	r3, r3, #1
    55a4:	6043      	str	r3, [r0, #4]
    55a6:	4640      	mov	r0, r8
    55a8:	f7ff fb56 	bl	4c58 <_free_r>
    55ac:	e7d6      	b.n	555c <_realloc_r+0x114>
    55ae:	230c      	movs	r3, #12
    55b0:	2600      	movs	r6, #0
    55b2:	f8c8 3000 	str.w	r3, [r8]
    55b6:	4630      	mov	r0, r6
    55b8:	e8bd 8ff8 	ldmia.w	sp!, {r3, r4, r5, r6, r7, r8, r9, sl, fp, pc}
    55bc:	f02e 0a03 	bic.w	sl, lr, #3
    55c0:	f105 0c10 	add.w	ip, r5, #16
    55c4:	eb07 010a 	add.w	r1, r7, sl
    55c8:	4561      	cmp	r1, ip
    55ca:	f280 80b2 	bge.w	5732 <_realloc_r+0x2ea>
    55ce:	07c1      	lsls	r1, r0, #31
    55d0:	d481      	bmi.n	54d6 <_realloc_r+0x8e>
    55d2:	f854 1c08 	ldr.w	r1, [r4, #-8]
    55d6:	eba9 0b01 	sub.w	fp, r9, r1
    55da:	f8db 1004 	ldr.w	r1, [fp, #4]
    55de:	f021 0103 	bic.w	r1, r1, #3
    55e2:	448a      	add	sl, r1
    55e4:	44ba      	add	sl, r7
    55e6:	45d4      	cmp	ip, sl
    55e8:	f73f af71 	bgt.w	54ce <_realloc_r+0x86>
    55ec:	1f3a      	subs	r2, r7, #4
    55ee:	465e      	mov	r6, fp
    55f0:	f8db 100c 	ldr.w	r1, [fp, #12]
    55f4:	f856 0f08 	ldr.w	r0, [r6, #8]!
    55f8:	2a24      	cmp	r2, #36	; 0x24
    55fa:	60c1      	str	r1, [r0, #12]
    55fc:	6088      	str	r0, [r1, #8]
    55fe:	f200 80da 	bhi.w	57b6 <_realloc_r+0x36e>
    5602:	2a13      	cmp	r2, #19
    5604:	f240 80d5 	bls.w	57b2 <_realloc_r+0x36a>
    5608:	6821      	ldr	r1, [r4, #0]
    560a:	2a1b      	cmp	r2, #27
    560c:	f8cb 1008 	str.w	r1, [fp, #8]
    5610:	6861      	ldr	r1, [r4, #4]
    5612:	f8cb 100c 	str.w	r1, [fp, #12]
    5616:	f200 80df 	bhi.w	57d8 <_realloc_r+0x390>
    561a:	3408      	adds	r4, #8
    561c:	f10b 0210 	add.w	r2, fp, #16
    5620:	6821      	ldr	r1, [r4, #0]
    5622:	6011      	str	r1, [r2, #0]
    5624:	6861      	ldr	r1, [r4, #4]
    5626:	6051      	str	r1, [r2, #4]
    5628:	68a1      	ldr	r1, [r4, #8]
    562a:	6091      	str	r1, [r2, #8]
    562c:	ebaa 0205 	sub.w	r2, sl, r5
    5630:	eb0b 0105 	add.w	r1, fp, r5
    5634:	4640      	mov	r0, r8
    5636:	f042 0201 	orr.w	r2, r2, #1
    563a:	6099      	str	r1, [r3, #8]
    563c:	604a      	str	r2, [r1, #4]
    563e:	f8db 3004 	ldr.w	r3, [fp, #4]
    5642:	f003 0301 	and.w	r3, r3, #1
    5646:	432b      	orrs	r3, r5
    5648:	f8cb 3004 	str.w	r3, [fp, #4]
    564c:	f7fd ff8c 	bl	3568 <__malloc_unlock>
    5650:	e788      	b.n	5564 <_realloc_r+0x11c>
    5652:	f850 3c04 	ldr.w	r3, [r0, #-4]
    5656:	f023 0303 	bic.w	r3, r3, #3
    565a:	441f      	add	r7, r3
    565c:	e76e      	b.n	553c <_realloc_r+0xf4>
    565e:	6823      	ldr	r3, [r4, #0]
    5660:	2a1b      	cmp	r2, #27
    5662:	6003      	str	r3, [r0, #0]
    5664:	6863      	ldr	r3, [r4, #4]
    5666:	6043      	str	r3, [r0, #4]
    5668:	d84e      	bhi.n	5708 <_realloc_r+0x2c0>
    566a:	f104 0208 	add.w	r2, r4, #8
    566e:	f100 0308 	add.w	r3, r0, #8
    5672:	e749      	b.n	5508 <_realloc_r+0xc0>
    5674:	1f3a      	subs	r2, r7, #4
    5676:	465e      	mov	r6, fp
    5678:	f8db 100c 	ldr.w	r1, [fp, #12]
    567c:	f856 0f08 	ldr.w	r0, [r6, #8]!
    5680:	2a24      	cmp	r2, #36	; 0x24
    5682:	60c1      	str	r1, [r0, #12]
    5684:	6088      	str	r0, [r1, #8]
    5686:	d84c      	bhi.n	5722 <_realloc_r+0x2da>
    5688:	2a13      	cmp	r2, #19
    568a:	d948      	bls.n	571e <_realloc_r+0x2d6>
    568c:	6821      	ldr	r1, [r4, #0]
    568e:	2a1b      	cmp	r2, #27
    5690:	f8cb 1008 	str.w	r1, [fp, #8]
    5694:	6861      	ldr	r1, [r4, #4]
    5696:	f8cb 100c 	str.w	r1, [fp, #12]
    569a:	d867      	bhi.n	576c <_realloc_r+0x324>
    569c:	3408      	adds	r4, #8
    569e:	f10b 0210 	add.w	r2, fp, #16
    56a2:	461f      	mov	r7, r3
    56a4:	6823      	ldr	r3, [r4, #0]
    56a6:	46d9      	mov	r9, fp
    56a8:	6013      	str	r3, [r2, #0]
    56aa:	6863      	ldr	r3, [r4, #4]
    56ac:	6053      	str	r3, [r2, #4]
    56ae:	68a3      	ldr	r3, [r4, #8]
    56b0:	4634      	mov	r4, r6
    56b2:	6093      	str	r3, [r2, #8]
    56b4:	e742      	b.n	553c <_realloc_r+0xf4>
    56b6:	4621      	mov	r1, r4
    56b8:	f7ff fe4a 	bl	5350 <memmove>
    56bc:	e72a      	b.n	5514 <_realloc_r+0xcc>
    56be:	e9dc 1302 	ldrd	r1, r3, [ip, #8]
    56c2:	1f3a      	subs	r2, r7, #4
    56c4:	465e      	mov	r6, fp
    56c6:	60cb      	str	r3, [r1, #12]
    56c8:	2a24      	cmp	r2, #36	; 0x24
    56ca:	6099      	str	r1, [r3, #8]
    56cc:	f8db 300c 	ldr.w	r3, [fp, #12]
    56d0:	f856 1f08 	ldr.w	r1, [r6, #8]!
    56d4:	60cb      	str	r3, [r1, #12]
    56d6:	6099      	str	r1, [r3, #8]
    56d8:	d840      	bhi.n	575c <_realloc_r+0x314>
    56da:	2a13      	cmp	r2, #19
    56dc:	d93c      	bls.n	5758 <_realloc_r+0x310>
    56de:	6823      	ldr	r3, [r4, #0]
    56e0:	2a1b      	cmp	r2, #27
    56e2:	f8cb 3008 	str.w	r3, [fp, #8]
    56e6:	6863      	ldr	r3, [r4, #4]
    56e8:	f8cb 300c 	str.w	r3, [fp, #12]
    56ec:	d855      	bhi.n	579a <_realloc_r+0x352>
    56ee:	3408      	adds	r4, #8
    56f0:	f10b 0310 	add.w	r3, fp, #16
    56f4:	6822      	ldr	r2, [r4, #0]
    56f6:	4657      	mov	r7, sl
    56f8:	46d9      	mov	r9, fp
    56fa:	601a      	str	r2, [r3, #0]
    56fc:	6862      	ldr	r2, [r4, #4]
    56fe:	605a      	str	r2, [r3, #4]
    5700:	68a2      	ldr	r2, [r4, #8]
    5702:	4634      	mov	r4, r6
    5704:	609a      	str	r2, [r3, #8]
    5706:	e719      	b.n	553c <_realloc_r+0xf4>
    5708:	68a3      	ldr	r3, [r4, #8]
    570a:	2a24      	cmp	r2, #36	; 0x24
    570c:	6083      	str	r3, [r0, #8]
    570e:	68e3      	ldr	r3, [r4, #12]
    5710:	60c3      	str	r3, [r0, #12]
    5712:	d039      	beq.n	5788 <_realloc_r+0x340>
    5714:	f104 0210 	add.w	r2, r4, #16
    5718:	f100 0310 	add.w	r3, r0, #16
    571c:	e6f4      	b.n	5508 <_realloc_r+0xc0>
    571e:	4632      	mov	r2, r6
    5720:	e7bf      	b.n	56a2 <_realloc_r+0x25a>
    5722:	4621      	mov	r1, r4
    5724:	4630      	mov	r0, r6
    5726:	461f      	mov	r7, r3
    5728:	46d9      	mov	r9, fp
    572a:	4634      	mov	r4, r6
    572c:	f7ff fe10 	bl	5350 <memmove>
    5730:	e704      	b.n	553c <_realloc_r+0xf4>
    5732:	1b49      	subs	r1, r1, r5
    5734:	eb09 0205 	add.w	r2, r9, r5
    5738:	4640      	mov	r0, r8
    573a:	4626      	mov	r6, r4
    573c:	f041 0101 	orr.w	r1, r1, #1
    5740:	609a      	str	r2, [r3, #8]
    5742:	6051      	str	r1, [r2, #4]
    5744:	f854 3c04 	ldr.w	r3, [r4, #-4]
    5748:	f003 0301 	and.w	r3, r3, #1
    574c:	432b      	orrs	r3, r5
    574e:	f844 3c04 	str.w	r3, [r4, #-4]
    5752:	f7fd ff09 	bl	3568 <__malloc_unlock>
    5756:	e705      	b.n	5564 <_realloc_r+0x11c>
    5758:	4633      	mov	r3, r6
    575a:	e7cb      	b.n	56f4 <_realloc_r+0x2ac>
    575c:	4621      	mov	r1, r4
    575e:	4630      	mov	r0, r6
    5760:	4657      	mov	r7, sl
    5762:	46d9      	mov	r9, fp
    5764:	4634      	mov	r4, r6
    5766:	f7ff fdf3 	bl	5350 <memmove>
    576a:	e6e7      	b.n	553c <_realloc_r+0xf4>
    576c:	68a1      	ldr	r1, [r4, #8]
    576e:	2a24      	cmp	r2, #36	; 0x24
    5770:	f8cb 1010 	str.w	r1, [fp, #16]
    5774:	68e1      	ldr	r1, [r4, #12]
    5776:	f8cb 1014 	str.w	r1, [fp, #20]
    577a:	d022      	beq.n	57c2 <_realloc_r+0x37a>
    577c:	3410      	adds	r4, #16
    577e:	f10b 0218 	add.w	r2, fp, #24
    5782:	e78e      	b.n	56a2 <_realloc_r+0x25a>
    5784:	20000438 	.word	0x20000438
    5788:	6923      	ldr	r3, [r4, #16]
    578a:	f104 0218 	add.w	r2, r4, #24
    578e:	6103      	str	r3, [r0, #16]
    5790:	6963      	ldr	r3, [r4, #20]
    5792:	6143      	str	r3, [r0, #20]
    5794:	f100 0318 	add.w	r3, r0, #24
    5798:	e6b6      	b.n	5508 <_realloc_r+0xc0>
    579a:	68a3      	ldr	r3, [r4, #8]
    579c:	2a24      	cmp	r2, #36	; 0x24
    579e:	f8cb 3010 	str.w	r3, [fp, #16]
    57a2:	68e3      	ldr	r3, [r4, #12]
    57a4:	f8cb 3014 	str.w	r3, [fp, #20]
    57a8:	d022      	beq.n	57f0 <_realloc_r+0x3a8>
    57aa:	3410      	adds	r4, #16
    57ac:	f10b 0318 	add.w	r3, fp, #24
    57b0:	e7a0      	b.n	56f4 <_realloc_r+0x2ac>
    57b2:	4632      	mov	r2, r6
    57b4:	e734      	b.n	5620 <_realloc_r+0x1d8>
    57b6:	4621      	mov	r1, r4
    57b8:	4630      	mov	r0, r6
    57ba:	f7ff fdc9 	bl	5350 <memmove>
    57be:	4b17      	ldr	r3, [pc, #92]	; (581c <_realloc_r+0x3d4>)
    57c0:	e734      	b.n	562c <_realloc_r+0x1e4>
    57c2:	6922      	ldr	r2, [r4, #16]
    57c4:	3418      	adds	r4, #24
    57c6:	f8cb 2018 	str.w	r2, [fp, #24]
    57ca:	f854 2c04 	ldr.w	r2, [r4, #-4]
    57ce:	f8cb 201c 	str.w	r2, [fp, #28]
    57d2:	f10b 0220 	add.w	r2, fp, #32
    57d6:	e764      	b.n	56a2 <_realloc_r+0x25a>
    57d8:	68a1      	ldr	r1, [r4, #8]
    57da:	2a24      	cmp	r2, #36	; 0x24
    57dc:	f8cb 1010 	str.w	r1, [fp, #16]
    57e0:	68e1      	ldr	r1, [r4, #12]
    57e2:	f8cb 1014 	str.w	r1, [fp, #20]
    57e6:	d00e      	beq.n	5806 <_realloc_r+0x3be>
    57e8:	3410      	adds	r4, #16
    57ea:	f10b 0218 	add.w	r2, fp, #24
    57ee:	e717      	b.n	5620 <_realloc_r+0x1d8>
    57f0:	6923      	ldr	r3, [r4, #16]
    57f2:	3418      	adds	r4, #24
    57f4:	f8cb 3018 	str.w	r3, [fp, #24]
    57f8:	f854 3c04 	ldr.w	r3, [r4, #-4]
    57fc:	f8cb 301c 	str.w	r3, [fp, #28]
    5800:	f10b 0320 	add.w	r3, fp, #32
    5804:	e776      	b.n	56f4 <_realloc_r+0x2ac>
    5806:	6922      	ldr	r2, [r4, #16]
    5808:	3418      	adds	r4, #24
    580a:	f8cb 2018 	str.w	r2, [fp, #24]
    580e:	f854 2c04 	ldr.w	r2, [r4, #-4]
    5812:	f8cb 201c 	str.w	r2, [fp, #28]
    5816:	f10b 0220 	add.w	r2, fp, #32
    581a:	e701      	b.n	5620 <_realloc_r+0x1d8>
    581c:	20000438 	.word	0x20000438

00005820 <raise>:
    5820:	b538      	push	{r3, r4, r5, lr}
    5822:	281f      	cmp	r0, #31
    5824:	4b14      	ldr	r3, [pc, #80]	; (5878 <raise+0x58>)
    5826:	681d      	ldr	r5, [r3, #0]
    5828:	d820      	bhi.n	586c <raise+0x4c>
    582a:	f8d5 22dc 	ldr.w	r2, [r5, #732]	; 0x2dc
    582e:	4604      	mov	r4, r0
    5830:	b162      	cbz	r2, 584c <raise+0x2c>
    5832:	f852 3020 	ldr.w	r3, [r2, r0, lsl #2]
    5836:	b14b      	cbz	r3, 584c <raise+0x2c>
    5838:	2b01      	cmp	r3, #1
    583a:	d015      	beq.n	5868 <raise+0x48>
    583c:	1c59      	adds	r1, r3, #1
    583e:	d00f      	beq.n	5860 <raise+0x40>
    5840:	2500      	movs	r5, #0
    5842:	f842 5020 	str.w	r5, [r2, r0, lsl #2]
    5846:	4798      	blx	r3
    5848:	4628      	mov	r0, r5
    584a:	bd38      	pop	{r3, r4, r5, pc}
    584c:	4628      	mov	r0, r5
    584e:	f000 f82b 	bl	58a8 <_getpid_r>
    5852:	4622      	mov	r2, r4
    5854:	4601      	mov	r1, r0
    5856:	4628      	mov	r0, r5
    5858:	e8bd 4038 	ldmia.w	sp!, {r3, r4, r5, lr}
    585c:	f000 b80e 	b.w	587c <_kill_r>
    5860:	2316      	movs	r3, #22
    5862:	2001      	movs	r0, #1
    5864:	602b      	str	r3, [r5, #0]
    5866:	bd38      	pop	{r3, r4, r5, pc}
    5868:	2000      	movs	r0, #0
    586a:	bd38      	pop	{r3, r4, r5, pc}
    586c:	2316      	movs	r3, #22
    586e:	f04f 30ff 	mov.w	r0, #4294967295	; 0xffffffff
    5872:	602b      	str	r3, [r5, #0]
    5874:	bd38      	pop	{r3, r4, r5, pc}
    5876:	bf00      	nop
    5878:	20000008 	.word	0x20000008

0000587c <_kill_r>:
    587c:	b570      	push	{r4, r5, r6, lr}
    587e:	460c      	mov	r4, r1
    5880:	4603      	mov	r3, r0
    5882:	4d08      	ldr	r5, [pc, #32]	; (58a4 <_kill_r+0x28>)
    5884:	2600      	movs	r6, #0
    5886:	4620      	mov	r0, r4
    5888:	4611      	mov	r1, r2
    588a:	461c      	mov	r4, r3
    588c:	602e      	str	r6, [r5, #0]
    588e:	f000 faf9 	bl	5e84 <_kill>
    5892:	1c43      	adds	r3, r0, #1
    5894:	d000      	beq.n	5898 <_kill_r+0x1c>
    5896:	bd70      	pop	{r4, r5, r6, pc}
    5898:	682b      	ldr	r3, [r5, #0]
    589a:	2b00      	cmp	r3, #0
    589c:	d0fb      	beq.n	5896 <_kill_r+0x1a>
    589e:	6023      	str	r3, [r4, #0]
    58a0:	bd70      	pop	{r4, r5, r6, pc}
    58a2:	bf00      	nop
    58a4:	20000ab4 	.word	0x20000ab4

000058a8 <_getpid_r>:
    58a8:	f000 badc 	b.w	5e64 <_getpid>

000058ac <__sread>:
    58ac:	b510      	push	{r4, lr}
    58ae:	460c      	mov	r4, r1
    58b0:	f9b1 100e 	ldrsh.w	r1, [r1, #14]
    58b4:	f000 fab0 	bl	5e18 <_read_r>
    58b8:	2800      	cmp	r0, #0
    58ba:	db03      	blt.n	58c4 <__sread+0x18>
    58bc:	6d23      	ldr	r3, [r4, #80]	; 0x50
    58be:	4403      	add	r3, r0
    58c0:	6523      	str	r3, [r4, #80]	; 0x50
    58c2:	bd10      	pop	{r4, pc}
    58c4:	89a3      	ldrh	r3, [r4, #12]
    58c6:	f423 5380 	bic.w	r3, r3, #4096	; 0x1000
    58ca:	81a3      	strh	r3, [r4, #12]
    58cc:	bd10      	pop	{r4, pc}
    58ce:	bf00      	nop

000058d0 <__swrite>:
    58d0:	e92d 41f0 	stmdb	sp!, {r4, r5, r6, r7, r8, lr}
    58d4:	460c      	mov	r4, r1
    58d6:	f9b1 100c 	ldrsh.w	r1, [r1, #12]
    58da:	461f      	mov	r7, r3
    58dc:	4605      	mov	r5, r0
    58de:	05cb      	lsls	r3, r1, #23
    58e0:	4616      	mov	r6, r2
    58e2:	d40b      	bmi.n	58fc <__swrite+0x2c>
    58e4:	f421 5180 	bic.w	r1, r1, #4096	; 0x1000
    58e8:	463b      	mov	r3, r7
    58ea:	4632      	mov	r2, r6
    58ec:	4628      	mov	r0, r5
    58ee:	81a1      	strh	r1, [r4, #12]
    58f0:	f9b4 100e 	ldrsh.w	r1, [r4, #14]
    58f4:	e8bd 41f0 	ldmia.w	sp!, {r4, r5, r6, r7, r8, lr}
    58f8:	f000 b97c 	b.w	5bf4 <_write_r>
    58fc:	f9b4 100e 	ldrsh.w	r1, [r4, #14]
    5900:	2302      	movs	r3, #2
    5902:	2200      	movs	r2, #0
    5904:	f000 fa72 	bl	5dec <_lseek_r>
    5908:	f9b4 100c 	ldrsh.w	r1, [r4, #12]
    590c:	e7ea      	b.n	58e4 <__swrite+0x14>
    590e:	bf00      	nop

00005910 <__sseek>:
    5910:	b510      	push	{r4, lr}
    5912:	460c      	mov	r4, r1
    5914:	f9b1 100e 	ldrsh.w	r1, [r1, #14]
    5918:	f000 fa68 	bl	5dec <_lseek_r>
    591c:	1c42      	adds	r2, r0, #1
    591e:	89a3      	ldrh	r3, [r4, #12]
    5920:	d004      	beq.n	592c <__sseek+0x1c>
    5922:	f443 5380 	orr.w	r3, r3, #4096	; 0x1000
    5926:	6520      	str	r0, [r4, #80]	; 0x50
    5928:	81a3      	strh	r3, [r4, #12]
    592a:	bd10      	pop	{r4, pc}
    592c:	f423 5380 	bic.w	r3, r3, #4096	; 0x1000
    5930:	81a3      	strh	r3, [r4, #12]
    5932:	bd10      	pop	{r4, pc}

00005934 <__sclose>:
    5934:	f9b1 100e 	ldrsh.w	r1, [r1, #14]
    5938:	f000 b9b6 	b.w	5ca8 <_close_r>

0000593c <strlen>:
    593c:	f020 0103 	bic.w	r1, r0, #3
    5940:	f010 0003 	ands.w	r0, r0, #3
    5944:	f1c0 0000 	rsb	r0, r0, #0
    5948:	f851 3b04 	ldr.w	r3, [r1], #4
    594c:	f100 0c04 	add.w	ip, r0, #4
    5950:	ea4f 0ccc 	mov.w	ip, ip, lsl #3
    5954:	f06f 0200 	mvn.w	r2, #0
    5958:	bf1c      	itt	ne
    595a:	fa22 f20c 	lsrne.w	r2, r2, ip
    595e:	4313      	orrne	r3, r2
    5960:	f04f 0c01 	mov.w	ip, #1
    5964:	ea4c 2c0c 	orr.w	ip, ip, ip, lsl #8
    5968:	ea4c 4c0c 	orr.w	ip, ip, ip, lsl #16
    596c:	eba3 020c 	sub.w	r2, r3, ip
    5970:	ea22 0203 	bic.w	r2, r2, r3
    5974:	ea12 12cc 	ands.w	r2, r2, ip, lsl #7
    5978:	bf04      	itt	eq
    597a:	f851 3b04 	ldreq.w	r3, [r1], #4
    597e:	3004      	addeq	r0, #4
    5980:	d0f4      	beq.n	596c <strlen+0x30>
    5982:	f1c2 0100 	rsb	r1, r2, #0
    5986:	ea02 0201 	and.w	r2, r2, r1
    598a:	fab2 f282 	clz	r2, r2
    598e:	f1c2 021f 	rsb	r2, r2, #31
    5992:	eb00 00d2 	add.w	r0, r0, r2, lsr #3
    5996:	4770      	bx	lr

00005998 <strncpy>:
    5998:	ea40 0301 	orr.w	r3, r0, r1
    599c:	079b      	lsls	r3, r3, #30
    599e:	b530      	push	{r4, r5, lr}
    59a0:	d101      	bne.n	59a6 <strncpy+0xe>
    59a2:	2a03      	cmp	r2, #3
    59a4:	d80f      	bhi.n	59c6 <strncpy+0x2e>
    59a6:	4684      	mov	ip, r0
    59a8:	f101 3eff 	add.w	lr, r1, #4294967295	; 0xffffffff
    59ac:	e007      	b.n	59be <strncpy+0x26>
    59ae:	f81e 1f01 	ldrb.w	r1, [lr, #1]!
    59b2:	1e54      	subs	r4, r2, #1
    59b4:	f803 1b01 	strb.w	r1, [r3], #1
    59b8:	b1c1      	cbz	r1, 59ec <strncpy+0x54>
    59ba:	4622      	mov	r2, r4
    59bc:	469c      	mov	ip, r3
    59be:	4663      	mov	r3, ip
    59c0:	2a00      	cmp	r2, #0
    59c2:	d1f4      	bne.n	59ae <strncpy+0x16>
    59c4:	bd30      	pop	{r4, r5, pc}
    59c6:	460b      	mov	r3, r1
    59c8:	4684      	mov	ip, r0
    59ca:	4619      	mov	r1, r3
    59cc:	f853 5b04 	ldr.w	r5, [r3], #4
    59d0:	f1a5 3401 	sub.w	r4, r5, #16843009	; 0x1010101
    59d4:	ea24 0405 	bic.w	r4, r4, r5
    59d8:	f014 3f80 	tst.w	r4, #2155905152	; 0x80808080
    59dc:	d1e4      	bne.n	59a8 <strncpy+0x10>
    59de:	3a04      	subs	r2, #4
    59e0:	4619      	mov	r1, r3
    59e2:	f84c 5b04 	str.w	r5, [ip], #4
    59e6:	2a03      	cmp	r2, #3
    59e8:	d8ef      	bhi.n	59ca <strncpy+0x32>
    59ea:	e7dd      	b.n	59a8 <strncpy+0x10>
    59ec:	2c00      	cmp	r4, #0
    59ee:	d0e9      	beq.n	59c4 <strncpy+0x2c>
    59f0:	4494      	add	ip, r2
    59f2:	f803 1b01 	strb.w	r1, [r3], #1
    59f6:	4563      	cmp	r3, ip
    59f8:	d1fb      	bne.n	59f2 <strncpy+0x5a>
    59fa:	bd30      	pop	{r4, r5, pc}

000059fc <__swbuf_r>:
    59fc:	b5f8      	push	{r3, r4, r5, r6, r7, lr}
    59fe:	460d      	mov	r5, r1
    5a00:	4606      	mov	r6, r0
    5a02:	4614      	mov	r4, r2
    5a04:	b110      	cbz	r0, 5a0c <__swbuf_r+0x10>
    5a06:	6b83      	ldr	r3, [r0, #56]	; 0x38
    5a08:	2b00      	cmp	r3, #0
    5a0a:	d043      	beq.n	5a94 <__swbuf_r+0x98>
    5a0c:	f9b4 200c 	ldrsh.w	r2, [r4, #12]
    5a10:	69a3      	ldr	r3, [r4, #24]
    5a12:	0717      	lsls	r7, r2, #28
    5a14:	b290      	uxth	r0, r2
    5a16:	60a3      	str	r3, [r4, #8]
    5a18:	d51b      	bpl.n	5a52 <__swbuf_r+0x56>
    5a1a:	6923      	ldr	r3, [r4, #16]
    5a1c:	b1cb      	cbz	r3, 5a52 <__swbuf_r+0x56>
    5a1e:	b2ed      	uxtb	r5, r5
    5a20:	0481      	lsls	r1, r0, #18
    5a22:	462f      	mov	r7, r5
    5a24:	d522      	bpl.n	5a6c <__swbuf_r+0x70>
    5a26:	6822      	ldr	r2, [r4, #0]
    5a28:	6961      	ldr	r1, [r4, #20]
    5a2a:	1ad3      	subs	r3, r2, r3
    5a2c:	4299      	cmp	r1, r3
    5a2e:	dd29      	ble.n	5a84 <__swbuf_r+0x88>
    5a30:	3301      	adds	r3, #1
    5a32:	68a1      	ldr	r1, [r4, #8]
    5a34:	3901      	subs	r1, #1
    5a36:	60a1      	str	r1, [r4, #8]
    5a38:	1c51      	adds	r1, r2, #1
    5a3a:	6021      	str	r1, [r4, #0]
    5a3c:	7015      	strb	r5, [r2, #0]
    5a3e:	6962      	ldr	r2, [r4, #20]
    5a40:	429a      	cmp	r2, r3
    5a42:	d02a      	beq.n	5a9a <__swbuf_r+0x9e>
    5a44:	2d0a      	cmp	r5, #10
    5a46:	d102      	bne.n	5a4e <__swbuf_r+0x52>
    5a48:	89a3      	ldrh	r3, [r4, #12]
    5a4a:	07db      	lsls	r3, r3, #31
    5a4c:	d425      	bmi.n	5a9a <__swbuf_r+0x9e>
    5a4e:	4638      	mov	r0, r7
    5a50:	bdf8      	pop	{r3, r4, r5, r6, r7, pc}
    5a52:	4621      	mov	r1, r4
    5a54:	4630      	mov	r0, r6
    5a56:	f7fe fdc9 	bl	45ec <__swsetup_r>
    5a5a:	bb20      	cbnz	r0, 5aa6 <__swbuf_r+0xaa>
    5a5c:	f9b4 200c 	ldrsh.w	r2, [r4, #12]
    5a60:	b2ed      	uxtb	r5, r5
    5a62:	6923      	ldr	r3, [r4, #16]
    5a64:	b290      	uxth	r0, r2
    5a66:	462f      	mov	r7, r5
    5a68:	0481      	lsls	r1, r0, #18
    5a6a:	d4dc      	bmi.n	5a26 <__swbuf_r+0x2a>
    5a6c:	f442 5200 	orr.w	r2, r2, #8192	; 0x2000
    5a70:	6961      	ldr	r1, [r4, #20]
    5a72:	81a2      	strh	r2, [r4, #12]
    5a74:	6e62      	ldr	r2, [r4, #100]	; 0x64
    5a76:	f422 5200 	bic.w	r2, r2, #8192	; 0x2000
    5a7a:	6662      	str	r2, [r4, #100]	; 0x64
    5a7c:	6822      	ldr	r2, [r4, #0]
    5a7e:	1ad3      	subs	r3, r2, r3
    5a80:	4299      	cmp	r1, r3
    5a82:	dcd5      	bgt.n	5a30 <__swbuf_r+0x34>
    5a84:	4621      	mov	r1, r4
    5a86:	4630      	mov	r0, r6
    5a88:	f7fe ff36 	bl	48f8 <_fflush_r>
    5a8c:	b958      	cbnz	r0, 5aa6 <__swbuf_r+0xaa>
    5a8e:	6822      	ldr	r2, [r4, #0]
    5a90:	2301      	movs	r3, #1
    5a92:	e7ce      	b.n	5a32 <__swbuf_r+0x36>
    5a94:	f7fe ff64 	bl	4960 <__sinit>
    5a98:	e7b8      	b.n	5a0c <__swbuf_r+0x10>
    5a9a:	4621      	mov	r1, r4
    5a9c:	4630      	mov	r0, r6
    5a9e:	f7fe ff2b 	bl	48f8 <_fflush_r>
    5aa2:	2800      	cmp	r0, #0
    5aa4:	d0d3      	beq.n	5a4e <__swbuf_r+0x52>
    5aa6:	f04f 37ff 	mov.w	r7, #4294967295	; 0xffffffff
    5aaa:	e7d0      	b.n	5a4e <__swbuf_r+0x52>

00005aac <_wcsnrtombs_l>:
    5aac:	e92d 4ff0 	stmdb	sp!, {r4, r5, r6, r7, r8, r9, sl, fp, lr}
    5ab0:	b08b      	sub	sp, #44	; 0x2c
    5ab2:	4681      	mov	r9, r0
    5ab4:	461e      	mov	r6, r3
    5ab6:	f8dd a058 	ldr.w	sl, [sp, #88]	; 0x58
    5aba:	9103      	str	r1, [sp, #12]
    5abc:	9205      	str	r2, [sp, #20]
    5abe:	e9dd 7814 	ldrd	r7, r8, [sp, #80]	; 0x50
    5ac2:	f1b8 0f00 	cmp.w	r8, #0
    5ac6:	d05c      	beq.n	5b82 <_wcsnrtombs_l+0xd6>
    5ac8:	9b05      	ldr	r3, [sp, #20]
    5aca:	681d      	ldr	r5, [r3, #0]
    5acc:	9b03      	ldr	r3, [sp, #12]
    5ace:	2b00      	cmp	r3, #0
    5ad0:	d05e      	beq.n	5b90 <_wcsnrtombs_l+0xe4>
    5ad2:	2f00      	cmp	r7, #0
    5ad4:	d06a      	beq.n	5bac <_wcsnrtombs_l+0x100>
    5ad6:	1e74      	subs	r4, r6, #1
    5ad8:	b34e      	cbz	r6, 5b2e <_wcsnrtombs_l+0x82>
    5ada:	3d04      	subs	r5, #4
    5adc:	9b03      	ldr	r3, [sp, #12]
    5ade:	2600      	movs	r6, #0
    5ae0:	9304      	str	r3, [sp, #16]
    5ae2:	9501      	str	r5, [sp, #4]
    5ae4:	e00b      	b.n	5afe <_wcsnrtombs_l+0x52>
    5ae6:	9b03      	ldr	r3, [sp, #12]
    5ae8:	bb2b      	cbnz	r3, 5b36 <_wcsnrtombs_l+0x8a>
    5aea:	9b01      	ldr	r3, [sp, #4]
    5aec:	681a      	ldr	r2, [r3, #0]
    5aee:	2a00      	cmp	r2, #0
    5af0:	d03a      	beq.n	5b68 <_wcsnrtombs_l+0xbc>
    5af2:	45bc      	cmp	ip, r7
    5af4:	d25c      	bcs.n	5bb0 <_wcsnrtombs_l+0x104>
    5af6:	3c01      	subs	r4, #1
    5af8:	4666      	mov	r6, ip
    5afa:	1c63      	adds	r3, r4, #1
    5afc:	d017      	beq.n	5b2e <_wcsnrtombs_l+0x82>
    5afe:	9901      	ldr	r1, [sp, #4]
    5b00:	4648      	mov	r0, r9
    5b02:	f8d8 3000 	ldr.w	r3, [r8]
    5b06:	f851 2f04 	ldr.w	r2, [r1, #4]!
    5b0a:	9302      	str	r3, [sp, #8]
    5b0c:	4643      	mov	r3, r8
    5b0e:	9101      	str	r1, [sp, #4]
    5b10:	a907      	add	r1, sp, #28
    5b12:	f8da 50e0 	ldr.w	r5, [sl, #224]	; 0xe0
    5b16:	f8d8 b004 	ldr.w	fp, [r8, #4]
    5b1a:	47a8      	blx	r5
    5b1c:	1c42      	adds	r2, r0, #1
    5b1e:	d03a      	beq.n	5b96 <_wcsnrtombs_l+0xea>
    5b20:	eb00 0c06 	add.w	ip, r0, r6
    5b24:	45bc      	cmp	ip, r7
    5b26:	d9de      	bls.n	5ae6 <_wcsnrtombs_l+0x3a>
    5b28:	9b02      	ldr	r3, [sp, #8]
    5b2a:	e9c8 3b00 	strd	r3, fp, [r8]
    5b2e:	4630      	mov	r0, r6
    5b30:	b00b      	add	sp, #44	; 0x2c
    5b32:	e8bd 8ff0 	ldmia.w	sp!, {r4, r5, r6, r7, r8, r9, sl, fp, pc}
    5b36:	2800      	cmp	r0, #0
    5b38:	dd0e      	ble.n	5b58 <_wcsnrtombs_l+0xac>
    5b3a:	9b04      	ldr	r3, [sp, #16]
    5b3c:	a907      	add	r1, sp, #28
    5b3e:	9d01      	ldr	r5, [sp, #4]
    5b40:	4418      	add	r0, r3
    5b42:	1e5a      	subs	r2, r3, #1
    5b44:	f100 3eff 	add.w	lr, r0, #4294967295	; 0xffffffff
    5b48:	f811 3b01 	ldrb.w	r3, [r1], #1
    5b4c:	f802 3f01 	strb.w	r3, [r2, #1]!
    5b50:	4596      	cmp	lr, r2
    5b52:	d1f9      	bne.n	5b48 <_wcsnrtombs_l+0x9c>
    5b54:	9501      	str	r5, [sp, #4]
    5b56:	9004      	str	r0, [sp, #16]
    5b58:	9b05      	ldr	r3, [sp, #20]
    5b5a:	681a      	ldr	r2, [r3, #0]
    5b5c:	3204      	adds	r2, #4
    5b5e:	601a      	str	r2, [r3, #0]
    5b60:	9b01      	ldr	r3, [sp, #4]
    5b62:	681a      	ldr	r2, [r3, #0]
    5b64:	2a00      	cmp	r2, #0
    5b66:	d1c4      	bne.n	5af2 <_wcsnrtombs_l+0x46>
    5b68:	9b03      	ldr	r3, [sp, #12]
    5b6a:	b10b      	cbz	r3, 5b70 <_wcsnrtombs_l+0xc4>
    5b6c:	9b05      	ldr	r3, [sp, #20]
    5b6e:	601a      	str	r2, [r3, #0]
    5b70:	f10c 36ff 	add.w	r6, ip, #4294967295	; 0xffffffff
    5b74:	2200      	movs	r2, #0
    5b76:	4630      	mov	r0, r6
    5b78:	f8c8 2000 	str.w	r2, [r8]
    5b7c:	b00b      	add	sp, #44	; 0x2c
    5b7e:	e8bd 8ff0 	ldmia.w	sp!, {r4, r5, r6, r7, r8, r9, sl, fp, pc}
    5b82:	9b05      	ldr	r3, [sp, #20]
    5b84:	f500 788e 	add.w	r8, r0, #284	; 0x11c
    5b88:	681d      	ldr	r5, [r3, #0]
    5b8a:	9b03      	ldr	r3, [sp, #12]
    5b8c:	2b00      	cmp	r3, #0
    5b8e:	d1a0      	bne.n	5ad2 <_wcsnrtombs_l+0x26>
    5b90:	f04f 37ff 	mov.w	r7, #4294967295	; 0xffffffff
    5b94:	e79f      	b.n	5ad6 <_wcsnrtombs_l+0x2a>
    5b96:	4606      	mov	r6, r0
    5b98:	218a      	movs	r1, #138	; 0x8a
    5b9a:	2200      	movs	r2, #0
    5b9c:	4630      	mov	r0, r6
    5b9e:	f8c9 1000 	str.w	r1, [r9]
    5ba2:	f8c8 2000 	str.w	r2, [r8]
    5ba6:	b00b      	add	sp, #44	; 0x2c
    5ba8:	e8bd 8ff0 	ldmia.w	sp!, {r4, r5, r6, r7, r8, r9, sl, fp, pc}
    5bac:	463e      	mov	r6, r7
    5bae:	e7be      	b.n	5b2e <_wcsnrtombs_l+0x82>
    5bb0:	4666      	mov	r6, ip
    5bb2:	e7bc      	b.n	5b2e <_wcsnrtombs_l+0x82>

00005bb4 <_wcsnrtombs_r>:
    5bb4:	b510      	push	{r4, lr}
    5bb6:	b084      	sub	sp, #16
    5bb8:	4c05      	ldr	r4, [pc, #20]	; (5bd0 <_wcsnrtombs_r+0x1c>)
    5bba:	9806      	ldr	r0, [sp, #24]
    5bbc:	9000      	str	r0, [sp, #0]
    5bbe:	9807      	ldr	r0, [sp, #28]
    5bc0:	9001      	str	r0, [sp, #4]
    5bc2:	4804      	ldr	r0, [pc, #16]	; (5bd4 <_wcsnrtombs_r+0x20>)
    5bc4:	6800      	ldr	r0, [r0, #0]
    5bc6:	9402      	str	r4, [sp, #8]
    5bc8:	f7ff ff70 	bl	5aac <_wcsnrtombs_l>
    5bcc:	b004      	add	sp, #16
    5bce:	bd10      	pop	{r4, pc}
    5bd0:	2000084c 	.word	0x2000084c
    5bd4:	20000008 	.word	0x20000008

00005bd8 <__ascii_wctomb>:
    5bd8:	4603      	mov	r3, r0
    5bda:	b149      	cbz	r1, 5bf0 <__ascii_wctomb+0x18>
    5bdc:	2aff      	cmp	r2, #255	; 0xff
    5bde:	d802      	bhi.n	5be6 <__ascii_wctomb+0xe>
    5be0:	2001      	movs	r0, #1
    5be2:	700a      	strb	r2, [r1, #0]
    5be4:	4770      	bx	lr
    5be6:	228a      	movs	r2, #138	; 0x8a
    5be8:	f04f 30ff 	mov.w	r0, #4294967295	; 0xffffffff
    5bec:	601a      	str	r2, [r3, #0]
    5bee:	4770      	bx	lr
    5bf0:	4608      	mov	r0, r1
    5bf2:	4770      	bx	lr

00005bf4 <_write_r>:
    5bf4:	b538      	push	{r3, r4, r5, lr}
    5bf6:	460c      	mov	r4, r1
    5bf8:	4684      	mov	ip, r0
    5bfa:	4611      	mov	r1, r2
    5bfc:	4d07      	ldr	r5, [pc, #28]	; (5c1c <_write_r+0x28>)
    5bfe:	461a      	mov	r2, r3
    5c00:	2300      	movs	r3, #0
    5c02:	4620      	mov	r0, r4
    5c04:	4664      	mov	r4, ip
    5c06:	602b      	str	r3, [r5, #0]
    5c08:	f000 f964 	bl	5ed4 <_write>
    5c0c:	1c43      	adds	r3, r0, #1
    5c0e:	d000      	beq.n	5c12 <_write_r+0x1e>
    5c10:	bd38      	pop	{r3, r4, r5, pc}
    5c12:	682b      	ldr	r3, [r5, #0]
    5c14:	2b00      	cmp	r3, #0
    5c16:	d0fb      	beq.n	5c10 <_write_r+0x1c>
    5c18:	6023      	str	r3, [r4, #0]
    5c1a:	bd38      	pop	{r3, r4, r5, pc}
    5c1c:	20000ab4 	.word	0x20000ab4

00005c20 <__register_exitproc>:
    5c20:	e92d 43f8 	stmdb	sp!, {r3, r4, r5, r6, r7, r8, r9, lr}
    5c24:	4d1e      	ldr	r5, [pc, #120]	; (5ca0 <__register_exitproc+0x80>)
    5c26:	4606      	mov	r6, r0
    5c28:	4698      	mov	r8, r3
    5c2a:	460f      	mov	r7, r1
    5c2c:	6828      	ldr	r0, [r5, #0]
    5c2e:	4691      	mov	r9, r2
    5c30:	f7ff fac8 	bl	51c4 <__retarget_lock_acquire_recursive>
    5c34:	4b1b      	ldr	r3, [pc, #108]	; (5ca4 <__register_exitproc+0x84>)
    5c36:	681b      	ldr	r3, [r3, #0]
    5c38:	f8d3 4148 	ldr.w	r4, [r3, #328]	; 0x148
    5c3c:	b32c      	cbz	r4, 5c8a <__register_exitproc+0x6a>
    5c3e:	6828      	ldr	r0, [r5, #0]
    5c40:	6865      	ldr	r5, [r4, #4]
    5c42:	2d1f      	cmp	r5, #31
    5c44:	dc26      	bgt.n	5c94 <__register_exitproc+0x74>
    5c46:	b94e      	cbnz	r6, 5c5c <__register_exitproc+0x3c>
    5c48:	1c6b      	adds	r3, r5, #1
    5c4a:	3502      	adds	r5, #2
    5c4c:	6063      	str	r3, [r4, #4]
    5c4e:	f844 7025 	str.w	r7, [r4, r5, lsl #2]
    5c52:	f7ff fab9 	bl	51c8 <__retarget_lock_release_recursive>
    5c56:	2000      	movs	r0, #0
    5c58:	e8bd 83f8 	ldmia.w	sp!, {r3, r4, r5, r6, r7, r8, r9, pc}
    5c5c:	eb04 0185 	add.w	r1, r4, r5, lsl #2
    5c60:	2301      	movs	r3, #1
    5c62:	2e02      	cmp	r6, #2
    5c64:	f8c1 9088 	str.w	r9, [r1, #136]	; 0x88
    5c68:	fa03 f305 	lsl.w	r3, r3, r5
    5c6c:	f8d4 2188 	ldr.w	r2, [r4, #392]	; 0x188
    5c70:	ea42 0203 	orr.w	r2, r2, r3
    5c74:	f8c4 2188 	str.w	r2, [r4, #392]	; 0x188
    5c78:	f8c1 8108 	str.w	r8, [r1, #264]	; 0x108
    5c7c:	d1e4      	bne.n	5c48 <__register_exitproc+0x28>
    5c7e:	f8d4 218c 	ldr.w	r2, [r4, #396]	; 0x18c
    5c82:	431a      	orrs	r2, r3
    5c84:	f8c4 218c 	str.w	r2, [r4, #396]	; 0x18c
    5c88:	e7de      	b.n	5c48 <__register_exitproc+0x28>
    5c8a:	f503 74a6 	add.w	r4, r3, #332	; 0x14c
    5c8e:	f8c3 4148 	str.w	r4, [r3, #328]	; 0x148
    5c92:	e7d4      	b.n	5c3e <__register_exitproc+0x1e>
    5c94:	f7ff fa98 	bl	51c8 <__retarget_lock_release_recursive>
    5c98:	f04f 30ff 	mov.w	r0, #4294967295	; 0xffffffff
    5c9c:	e7dc      	b.n	5c58 <__register_exitproc+0x38>
    5c9e:	bf00      	nop
    5ca0:	20000848 	.word	0x20000848
    5ca4:	000066f8 	.word	0x000066f8

00005ca8 <_close_r>:
    5ca8:	b538      	push	{r3, r4, r5, lr}
    5caa:	2200      	movs	r2, #0
    5cac:	4d06      	ldr	r5, [pc, #24]	; (5cc8 <_close_r+0x20>)
    5cae:	4604      	mov	r4, r0
    5cb0:	4608      	mov	r0, r1
    5cb2:	602a      	str	r2, [r5, #0]
    5cb4:	f000 f8c6 	bl	5e44 <_close>
    5cb8:	1c43      	adds	r3, r0, #1
    5cba:	d000      	beq.n	5cbe <_close_r+0x16>
    5cbc:	bd38      	pop	{r3, r4, r5, pc}
    5cbe:	682b      	ldr	r3, [r5, #0]
    5cc0:	2b00      	cmp	r3, #0
    5cc2:	d0fb      	beq.n	5cbc <_close_r+0x14>
    5cc4:	6023      	str	r3, [r4, #0]
    5cc6:	bd38      	pop	{r3, r4, r5, pc}
    5cc8:	20000ab4 	.word	0x20000ab4

00005ccc <_fclose_r>:
    5ccc:	b570      	push	{r4, r5, r6, lr}
    5cce:	2900      	cmp	r1, #0
    5cd0:	d04a      	beq.n	5d68 <_fclose_r+0x9c>
    5cd2:	4605      	mov	r5, r0
    5cd4:	460c      	mov	r4, r1
    5cd6:	b110      	cbz	r0, 5cde <_fclose_r+0x12>
    5cd8:	6b83      	ldr	r3, [r0, #56]	; 0x38
    5cda:	2b00      	cmp	r3, #0
    5cdc:	d047      	beq.n	5d6e <_fclose_r+0xa2>
    5cde:	6e63      	ldr	r3, [r4, #100]	; 0x64
    5ce0:	f9b4 200c 	ldrsh.w	r2, [r4, #12]
    5ce4:	07d8      	lsls	r0, r3, #31
    5ce6:	d532      	bpl.n	5d4e <_fclose_r+0x82>
    5ce8:	2a00      	cmp	r2, #0
    5cea:	d03d      	beq.n	5d68 <_fclose_r+0x9c>
    5cec:	4621      	mov	r1, r4
    5cee:	4628      	mov	r0, r5
    5cf0:	f7fe fd5c 	bl	47ac <__sflush_r>
    5cf4:	6ae3      	ldr	r3, [r4, #44]	; 0x2c
    5cf6:	4606      	mov	r6, r0
    5cf8:	b133      	cbz	r3, 5d08 <_fclose_r+0x3c>
    5cfa:	69e1      	ldr	r1, [r4, #28]
    5cfc:	4628      	mov	r0, r5
    5cfe:	4798      	blx	r3
    5d00:	2800      	cmp	r0, #0
    5d02:	bfb8      	it	lt
    5d04:	f04f 36ff 	movlt.w	r6, #4294967295	; 0xffffffff
    5d08:	89a3      	ldrh	r3, [r4, #12]
    5d0a:	061a      	lsls	r2, r3, #24
    5d0c:	d43c      	bmi.n	5d88 <_fclose_r+0xbc>
    5d0e:	6b21      	ldr	r1, [r4, #48]	; 0x30
    5d10:	b141      	cbz	r1, 5d24 <_fclose_r+0x58>
    5d12:	f104 0340 	add.w	r3, r4, #64	; 0x40
    5d16:	4299      	cmp	r1, r3
    5d18:	d002      	beq.n	5d20 <_fclose_r+0x54>
    5d1a:	4628      	mov	r0, r5
    5d1c:	f7fe ff9c 	bl	4c58 <_free_r>
    5d20:	2300      	movs	r3, #0
    5d22:	6323      	str	r3, [r4, #48]	; 0x30
    5d24:	6c61      	ldr	r1, [r4, #68]	; 0x44
    5d26:	b121      	cbz	r1, 5d32 <_fclose_r+0x66>
    5d28:	4628      	mov	r0, r5
    5d2a:	f7fe ff95 	bl	4c58 <_free_r>
    5d2e:	2300      	movs	r3, #0
    5d30:	6463      	str	r3, [r4, #68]	; 0x44
    5d32:	f7fe fe9d 	bl	4a70 <__sfp_lock_acquire>
    5d36:	6e63      	ldr	r3, [r4, #100]	; 0x64
    5d38:	2200      	movs	r2, #0
    5d3a:	07db      	lsls	r3, r3, #31
    5d3c:	81a2      	strh	r2, [r4, #12]
    5d3e:	d528      	bpl.n	5d92 <_fclose_r+0xc6>
    5d40:	6da0      	ldr	r0, [r4, #88]	; 0x58
    5d42:	f7ff fa3d 	bl	51c0 <__retarget_lock_close_recursive>
    5d46:	f7fe fe99 	bl	4a7c <__sfp_lock_release>
    5d4a:	4630      	mov	r0, r6
    5d4c:	bd70      	pop	{r4, r5, r6, pc}
    5d4e:	0591      	lsls	r1, r2, #22
    5d50:	d4cc      	bmi.n	5cec <_fclose_r+0x20>
    5d52:	6da0      	ldr	r0, [r4, #88]	; 0x58
    5d54:	f7ff fa36 	bl	51c4 <__retarget_lock_acquire_recursive>
    5d58:	f9b4 300c 	ldrsh.w	r3, [r4, #12]
    5d5c:	2b00      	cmp	r3, #0
    5d5e:	d1c5      	bne.n	5cec <_fclose_r+0x20>
    5d60:	6e66      	ldr	r6, [r4, #100]	; 0x64
    5d62:	f016 0601 	ands.w	r6, r6, #1
    5d66:	d00a      	beq.n	5d7e <_fclose_r+0xb2>
    5d68:	2600      	movs	r6, #0
    5d6a:	4630      	mov	r0, r6
    5d6c:	bd70      	pop	{r4, r5, r6, pc}
    5d6e:	f7fe fdf7 	bl	4960 <__sinit>
    5d72:	6e63      	ldr	r3, [r4, #100]	; 0x64
    5d74:	f9b4 200c 	ldrsh.w	r2, [r4, #12]
    5d78:	07d8      	lsls	r0, r3, #31
    5d7a:	d4b5      	bmi.n	5ce8 <_fclose_r+0x1c>
    5d7c:	e7e7      	b.n	5d4e <_fclose_r+0x82>
    5d7e:	6da0      	ldr	r0, [r4, #88]	; 0x58
    5d80:	f7ff fa22 	bl	51c8 <__retarget_lock_release_recursive>
    5d84:	4630      	mov	r0, r6
    5d86:	bd70      	pop	{r4, r5, r6, pc}
    5d88:	6921      	ldr	r1, [r4, #16]
    5d8a:	4628      	mov	r0, r5
    5d8c:	f7fe ff64 	bl	4c58 <_free_r>
    5d90:	e7bd      	b.n	5d0e <_fclose_r+0x42>
    5d92:	6da0      	ldr	r0, [r4, #88]	; 0x58
    5d94:	f7ff fa18 	bl	51c8 <__retarget_lock_release_recursive>
    5d98:	e7d2      	b.n	5d40 <_fclose_r+0x74>
    5d9a:	bf00      	nop

00005d9c <_fstat_r>:
    5d9c:	b570      	push	{r4, r5, r6, lr}
    5d9e:	460c      	mov	r4, r1
    5da0:	4603      	mov	r3, r0
    5da2:	4d08      	ldr	r5, [pc, #32]	; (5dc4 <_fstat_r+0x28>)
    5da4:	2600      	movs	r6, #0
    5da6:	4620      	mov	r0, r4
    5da8:	4611      	mov	r1, r2
    5daa:	461c      	mov	r4, r3
    5dac:	602e      	str	r6, [r5, #0]
    5dae:	f000 f851 	bl	5e54 <_fstat>
    5db2:	1c43      	adds	r3, r0, #1
    5db4:	d000      	beq.n	5db8 <_fstat_r+0x1c>
    5db6:	bd70      	pop	{r4, r5, r6, pc}
    5db8:	682b      	ldr	r3, [r5, #0]
    5dba:	2b00      	cmp	r3, #0
    5dbc:	d0fb      	beq.n	5db6 <_fstat_r+0x1a>
    5dbe:	6023      	str	r3, [r4, #0]
    5dc0:	bd70      	pop	{r4, r5, r6, pc}
    5dc2:	bf00      	nop
    5dc4:	20000ab4 	.word	0x20000ab4

00005dc8 <_isatty_r>:
    5dc8:	b538      	push	{r3, r4, r5, lr}
    5dca:	2200      	movs	r2, #0
    5dcc:	4d06      	ldr	r5, [pc, #24]	; (5de8 <_isatty_r+0x20>)
    5dce:	4604      	mov	r4, r0
    5dd0:	4608      	mov	r0, r1
    5dd2:	602a      	str	r2, [r5, #0]
    5dd4:	f000 f84e 	bl	5e74 <_isatty>
    5dd8:	1c43      	adds	r3, r0, #1
    5dda:	d000      	beq.n	5dde <_isatty_r+0x16>
    5ddc:	bd38      	pop	{r3, r4, r5, pc}
    5dde:	682b      	ldr	r3, [r5, #0]
    5de0:	2b00      	cmp	r3, #0
    5de2:	d0fb      	beq.n	5ddc <_isatty_r+0x14>
    5de4:	6023      	str	r3, [r4, #0]
    5de6:	bd38      	pop	{r3, r4, r5, pc}
    5de8:	20000ab4 	.word	0x20000ab4

00005dec <_lseek_r>:
    5dec:	b538      	push	{r3, r4, r5, lr}
    5dee:	460c      	mov	r4, r1
    5df0:	4684      	mov	ip, r0
    5df2:	4611      	mov	r1, r2
    5df4:	4d07      	ldr	r5, [pc, #28]	; (5e14 <_lseek_r+0x28>)
    5df6:	461a      	mov	r2, r3
    5df8:	2300      	movs	r3, #0
    5dfa:	4620      	mov	r0, r4
    5dfc:	4664      	mov	r4, ip
    5dfe:	602b      	str	r3, [r5, #0]
    5e00:	f000 f848 	bl	5e94 <_lseek>
    5e04:	1c43      	adds	r3, r0, #1
    5e06:	d000      	beq.n	5e0a <_lseek_r+0x1e>
    5e08:	bd38      	pop	{r3, r4, r5, pc}
    5e0a:	682b      	ldr	r3, [r5, #0]
    5e0c:	2b00      	cmp	r3, #0
    5e0e:	d0fb      	beq.n	5e08 <_lseek_r+0x1c>
    5e10:	6023      	str	r3, [r4, #0]
    5e12:	bd38      	pop	{r3, r4, r5, pc}
    5e14:	20000ab4 	.word	0x20000ab4

00005e18 <_read_r>:
    5e18:	b538      	push	{r3, r4, r5, lr}
    5e1a:	460c      	mov	r4, r1
    5e1c:	4684      	mov	ip, r0
    5e1e:	4611      	mov	r1, r2
    5e20:	4d07      	ldr	r5, [pc, #28]	; (5e40 <_read_r+0x28>)
    5e22:	461a      	mov	r2, r3
    5e24:	2300      	movs	r3, #0
    5e26:	4620      	mov	r0, r4
    5e28:	4664      	mov	r4, ip
    5e2a:	602b      	str	r3, [r5, #0]
    5e2c:	f000 f83a 	bl	5ea4 <_read>
    5e30:	1c43      	adds	r3, r0, #1
    5e32:	d000      	beq.n	5e36 <_read_r+0x1e>
    5e34:	bd38      	pop	{r3, r4, r5, pc}
    5e36:	682b      	ldr	r3, [r5, #0]
    5e38:	2b00      	cmp	r3, #0
    5e3a:	d0fb      	beq.n	5e34 <_read_r+0x1c>
    5e3c:	6023      	str	r3, [r4, #0]
    5e3e:	bd38      	pop	{r3, r4, r5, pc}
    5e40:	20000ab4 	.word	0x20000ab4

00005e44 <_close>:
    5e44:	4b02      	ldr	r3, [pc, #8]	; (5e50 <_close+0xc>)
    5e46:	2258      	movs	r2, #88	; 0x58
    5e48:	f04f 30ff 	mov.w	r0, #4294967295	; 0xffffffff
    5e4c:	601a      	str	r2, [r3, #0]
    5e4e:	4770      	bx	lr
    5e50:	20000ab4 	.word	0x20000ab4

00005e54 <_fstat>:
    5e54:	4b02      	ldr	r3, [pc, #8]	; (5e60 <_fstat+0xc>)
    5e56:	2258      	movs	r2, #88	; 0x58
    5e58:	f04f 30ff 	mov.w	r0, #4294967295	; 0xffffffff
    5e5c:	601a      	str	r2, [r3, #0]
    5e5e:	4770      	bx	lr
    5e60:	20000ab4 	.word	0x20000ab4

00005e64 <_getpid>:
    5e64:	4b02      	ldr	r3, [pc, #8]	; (5e70 <_getpid+0xc>)
    5e66:	2258      	movs	r2, #88	; 0x58
    5e68:	f04f 30ff 	mov.w	r0, #4294967295	; 0xffffffff
    5e6c:	601a      	str	r2, [r3, #0]
    5e6e:	4770      	bx	lr
    5e70:	20000ab4 	.word	0x20000ab4

00005e74 <_isatty>:
    5e74:	4b02      	ldr	r3, [pc, #8]	; (5e80 <_isatty+0xc>)
    5e76:	2258      	movs	r2, #88	; 0x58
    5e78:	2000      	movs	r0, #0
    5e7a:	601a      	str	r2, [r3, #0]
    5e7c:	4770      	bx	lr
    5e7e:	bf00      	nop
    5e80:	20000ab4 	.word	0x20000ab4

00005e84 <_kill>:
    5e84:	4b02      	ldr	r3, [pc, #8]	; (5e90 <_kill+0xc>)
    5e86:	2258      	movs	r2, #88	; 0x58
    5e88:	f04f 30ff 	mov.w	r0, #4294967295	; 0xffffffff
    5e8c:	601a      	str	r2, [r3, #0]
    5e8e:	4770      	bx	lr
    5e90:	20000ab4 	.word	0x20000ab4

00005e94 <_lseek>:
    5e94:	4b02      	ldr	r3, [pc, #8]	; (5ea0 <_lseek+0xc>)
    5e96:	2258      	movs	r2, #88	; 0x58
    5e98:	f04f 30ff 	mov.w	r0, #4294967295	; 0xffffffff
    5e9c:	601a      	str	r2, [r3, #0]
    5e9e:	4770      	bx	lr
    5ea0:	20000ab4 	.word	0x20000ab4

00005ea4 <_read>:
    5ea4:	4b02      	ldr	r3, [pc, #8]	; (5eb0 <_read+0xc>)
    5ea6:	2258      	movs	r2, #88	; 0x58
    5ea8:	f04f 30ff 	mov.w	r0, #4294967295	; 0xffffffff
    5eac:	601a      	str	r2, [r3, #0]
    5eae:	4770      	bx	lr
    5eb0:	20000ab4 	.word	0x20000ab4

00005eb4 <_sbrk>:
    5eb4:	4a05      	ldr	r2, [pc, #20]	; (5ecc <_sbrk+0x18>)
    5eb6:	4603      	mov	r3, r0
    5eb8:	6810      	ldr	r0, [r2, #0]
    5eba:	b110      	cbz	r0, 5ec2 <_sbrk+0xe>
    5ebc:	4403      	add	r3, r0
    5ebe:	6013      	str	r3, [r2, #0]
    5ec0:	4770      	bx	lr
    5ec2:	4803      	ldr	r0, [pc, #12]	; (5ed0 <_sbrk+0x1c>)
    5ec4:	4403      	add	r3, r0
    5ec6:	6013      	str	r3, [r2, #0]
    5ec8:	4770      	bx	lr
    5eca:	bf00      	nop
    5ecc:	20000ab8 	.word	0x20000ab8
    5ed0:	20000ac0 	.word	0x20000ac0

00005ed4 <_write>:
    5ed4:	4b02      	ldr	r3, [pc, #8]	; (5ee0 <_write+0xc>)
    5ed6:	2258      	movs	r2, #88	; 0x58
    5ed8:	f04f 30ff 	mov.w	r0, #4294967295	; 0xffffffff
    5edc:	601a      	str	r2, [r3, #0]
    5ede:	4770      	bx	lr
    5ee0:	20000ab4 	.word	0x20000ab4

00005ee4 <_exit>:
    5ee4:	e7fe      	b.n	5ee4 <_exit>
    5ee6:	bf00      	nop
    5ee8:	76697264 	.word	0x76697264
    5eec:	2f737265 	.word	0x2f737265
    5ef0:	5f6c7366 	.word	0x5f6c7366
    5ef4:	6d6d6f63 	.word	0x6d6d6f63
    5ef8:	615f6e6f 	.word	0x615f6e6f
    5efc:	632e6d72 	.word	0x632e6d72
    5f00:	44534d00 	.word	0x44534d00
    5f04:	6e455f4b 	.word	0x6e455f4b
    5f08:	656c6261 	.word	0x656c6261
    5f0c:	43757043 	.word	0x43757043
    5f10:	656c6379 	.word	0x656c6379
    5f14:	6e756f43 	.word	0x6e756f43
    5f18:	00726574 	.word	0x00726574
    5f1c:	5f545744 	.word	0x5f545744
    5f20:	4c525443 	.word	0x4c525443
    5f24:	434f4e5f 	.word	0x434f4e5f
    5f28:	4e434359 	.word	0x4e434359
    5f2c:	734d5f54 	.word	0x734d5f54
    5f30:	3d21206b 	.word	0x3d21206b
    5f34:	57442820 	.word	0x57442820
    5f38:	433e2d54 	.word	0x433e2d54
    5f3c:	204c5254 	.word	0x204c5254
    5f40:	57442026 	.word	0x57442026
    5f44:	54435f54 	.word	0x54435f54
    5f48:	4e5f4c52 	.word	0x4e5f4c52
    5f4c:	4359434f 	.word	0x4359434f
    5f50:	5f544e43 	.word	0x5f544e43
    5f54:	296b734d 	.word	0x296b734d
    5f58:	4b445300 	.word	0x4b445300
    5f5c:	6c65445f 	.word	0x6c65445f
    5f60:	74417961 	.word	0x74417961
    5f64:	7361654c 	.word	0x7361654c
    5f68:	00735574 	.word	0x00735574
    5f6c:	6e756f63 	.word	0x6e756f63
    5f70:	3d3c2074 	.word	0x3d3c2074
    5f74:	4e495520 	.word	0x4e495520
    5f78:	5f323354 	.word	0x5f323354
    5f7c:	0058414d 	.word	0x0058414d
    5f80:	76697264 	.word	0x76697264
    5f84:	2f737265 	.word	0x2f737265
    5f88:	5f6c7366 	.word	0x5f6c7366
    5f8c:	65736572 	.word	0x65736572
    5f90:	00632e74 	.word	0x00632e74
    5f94:	45534552 	.word	0x45534552
    5f98:	65535f54 	.word	0x65535f54
    5f9c:	72655074 	.word	0x72655074
    5fa0:	65687069 	.word	0x65687069
    5fa4:	526c6172 	.word	0x526c6172
    5fa8:	74657365 	.word	0x74657365
    5fac:	74696200 	.word	0x74696200
    5fb0:	20736f50 	.word	0x20736f50
    5fb4:	3233203c 	.word	0x3233203c
    5fb8:	45520075 	.word	0x45520075
    5fbc:	5f544553 	.word	0x5f544553
    5fc0:	61656c43 	.word	0x61656c43
    5fc4:	72655072 	.word	0x72655072
    5fc8:	65687069 	.word	0x65687069
    5fcc:	526c6172 	.word	0x526c6172
    5fd0:	74657365 	.word	0x74657365
    5fd4:	00          	.byte	0x00
    5fd5:	64          	.byte	0x64
    5fd6:	6972      	.short	0x6972
    5fd8:	73726576 	.word	0x73726576
    5fdc:	6c73662f 	.word	0x6c73662f
    5fe0:	6970675f 	.word	0x6970675f
    5fe4:	00632e6f 	.word	0x00632e6f
    5fe8:	4f495047 	.word	0x4f495047
    5fec:	616e455f 	.word	0x616e455f
    5ff0:	50656c62 	.word	0x50656c62
    5ff4:	4374726f 	.word	0x4374726f
    5ff8:	6b636f6c 	.word	0x6b636f6c
    5ffc:	726f7000 	.word	0x726f7000
    6000:	203c2074 	.word	0x203c2074
    6004:	41525241 	.word	0x41525241
    6008:	49535f59 	.word	0x49535f59
    600c:	7328455a 	.word	0x7328455a
    6010:	6970675f 	.word	0x6970675f
    6014:	6f6c436f 	.word	0x6f6c436f
    6018:	614e6b63 	.word	0x614e6b63
    601c:	0029656d 	.word	0x0029656d

00006020 <s_gpioClockName>:
    6020:	000f000e 00110010 76697264 2f737265     ........drivers/
    6030:	5f6c7366 72617375 00632e74 52415355     fsl_usart.c.USAR
    6040:	65475f54 736e4974 636e6174 20690065     T_GetInstance.i 
    6050:	7528203c 33746e69 29745f32 5f4c5346     < (uint32_t)FSL_
    6060:	54414546 5f455255 5f434f53 52415355     FEATURE_SOC_USAR
    6070:	4f435f54 00544e55 52415355 72545f54     T_COUNT.USART_Tr
    6080:	66736e61 65477265 52785274 42676e69     ansferGetRxRingB
    6090:	65666675 6e654c72 00687467 4c4c554e     ufferLength.NULL
    60a0:	203d2120 646e6168 5500656c 54524153      != handle.USART
    60b0:	6172545f 6566736e 61745372 69527472     _TransferStartRi
    60c0:	7542676e 72656666 4c554e00 3d21204c     ngBuffer.NULL !=
    60d0:	73616220 554e0065 21204c4c 6972203d      base.NULL != ri
    60e0:	7542676e 72656666 41535500 545f5452     ngBuffer.USART_T
    60f0:	736e6172 53726566 52706f74 42676e69     ransferStopRingB
    6100:	65666675 53550072 5f545241 74696e49     uffer.USART_Init
    6110:	28282100 4c4c554e 203d3d20 65736162     .!((NULL == base
    6120:	7c7c2029 554e2820 3d204c4c 6f63203d     ) || (NULL == co
    6130:	6769666e 7c7c2029 55302820 203d3d20     nfig) || (0U == 
    6140:	43637273 6b636f6c 297a485f 53550029     srcClock_Hz)).US
    6150:	5f545241 6e696544 55007469 54524153     ART_Deinit.USART
    6160:	7465475f 61666544 43746c75 69666e6f     _GetDefaultConfi
    6170:	554e0067 21204c4c 6f63203d 6769666e     g.NULL != config
    6180:	41535500 535f5452 61427465 61526475     .USART_SetBaudRa
    6190:	21006574 554e2828 3d204c4c 6162203d     te.!((NULL == ba
    61a0:	20296573 28207c7c 3d205530 6162203d     se) || (0U == ba
    61b0:	61726475 425f6574 20297370 28207c7c     udrate_Bps) || (
    61c0:	3d205530 7273203d 6f6c4363 485f6b63     0U == srcClock_H
    61d0:	0029297a 52415355 6e455f54 656c6261     z)).USART_Enable
    61e0:	74696239 65646f4d 73616200 3d212065     9bitMode.base !=
    61f0:	4c554e20 5355004c 5f545241 646e6553      NULL.USART_Send
    6200:	72646441 00737365 52415355 72575f54     Address.USART_Wr
    6210:	42657469 6b636f6c 00676e69 4e282821     iteBlocking.!((N
    6220:	204c4c55 62203d3d 29657361 207c7c20     ULL == base) || 
    6230:	4c554e28 3d3d204c 74616420 00292961     (NULL == data)).
    6240:	52415355 65525f54 6c426461 696b636f     USART_ReadBlocki
    6250:	5500676e 54524153 6172545f 6566736e     ng.USART_Transfe
    6260:	65724372 48657461 6c646e61 28210065     rCreateHandle.!(
    6270:	4c554e28 3d3d204c 73616220 7c202965     (NULL == base) |
    6280:	4e28207c 204c4c55 68203d3d 6c646e61     | (NULL == handl
    6290:	00292965 52415355 72545f54 66736e61     e)).USART_Transf
    62a0:	65537265 6f4e646e 6f6c426e 6e696b63     erSendNonBlockin
    62b0:	28210067 4c554e28 3d3d204c 73616220     g.!((NULL == bas
    62c0:	7c202965 4e28207c 204c4c55 68203d3d     e) || (NULL == h
    62d0:	6c646e61 7c202965 4e28207c 204c4c55     andle) || (NULL 
    62e0:	78203d3d 29726566 28210029 20553028     == xfer)).!((0U 
    62f0:	78203d3d 2d726566 7461643e 7a695361     == xfer->dataSiz
    6300:	7c202965 4e28207c 204c4c55 78203d3d     e) || (NULL == x
    6310:	2d726566 4478743e 29617461 53550029     fer->txData)).US
    6320:	5f545241 6e617254 72656673 726f6241     ART_TransferAbor
    6330:	6e655374 53550064 5f545241 6e617254     tSend.USART_Tran
    6340:	72656673 53746547 43646e65 746e756f     sferGetSendCount
    6350:	4c554e00 3d21204c 756f6320 5500746e     .NULL != count.U
    6360:	54524153 6172545f 6566736e 63655272     SART_TransferRec
    6370:	65766965 426e6f4e 6b636f6c 00676e69     eiveNonBlocking.
    6380:	30282821 3d3d2055 65667820 643e2d72     !((0U == xfer->d
    6390:	53617461 29657a69 207c7c20 4c554e28     ataSize) || (NUL
    63a0:	3d3d204c 65667820 723e2d72 74614478     L == xfer->rxDat
    63b0:	00292961 52415355 72545f54 66736e61     a)).USART_Transf
    63c0:	62417265 5274726f 69656365 55006576     erAbortReceive.U
    63d0:	54524153 6172545f 6566736e 74654772     SART_TransferGet
    63e0:	65636552 43657669 746e756f 41535500     ReceiveCount.USA
    63f0:	545f5452 736e6172 48726566 6c646e61     RT_TransferHandl
    6400:	51524965 554e2800 21204c4c 6162203d     eIRQ.(NULL != ba
    6410:	20296573 28202626 4c4c554e 203d2120     se) && (NULL != 
    6420:	646e6168 0029656c 52415355 72545f54     handle).USART_Tr
    6430:	66736e61 73497265 69527852 7542676e     ansferIsRxRingBu
    6440:	72656666 6c6c7546 00000000              fferFull....

0000644c <s_flexcommBaseAddrs>:
    644c:	40086000 40087000 40088000 40089000     .`.@.p.@...@...@
    645c:	4008a000 40096000 40097000 40098000     ...@.`.@.p.@...@
    646c:	4009f000 76697264 2f737265 5f6c7366     ...@drivers/fsl_
    647c:	78656c66 6d6d6f63 4600632e 4358454c     flexcomm.c.FLEXC
    648c:	5f4d4d4f 49746547 6174736e 0065636e     OMM_GetInstance.
    649c:	203c2069 6e697528 5f323374 53462974     i < (uint32_t)FS
    64ac:	45465f4c 52555441 4f535f45 4c465f43     L_FEATURE_SOC_FL
    64bc:	4f435845 435f4d4d 544e554f 454c4600     EXCOMM_COUNT.FLE
    64cc:	4d4f4358 445f304d 65766972 51524972     XCOMM0_DriverIRQ
    64dc:	646e6148 0072656c 6c665f73 6f637865     Handler.s_flexco
    64ec:	72496d6d 6e614871 72656c64 736e695b     mmIrqHandler[ins
    64fc:	636e6174 21205d65 554e203d 46004c4c     tance] != NULL.F
    650c:	4358454c 314d4d4f 6972445f 49726576     LEXCOMM1_DriverI
    651c:	61485152 656c646e 4c460072 4f435845     RQHandler.FLEXCO
    652c:	5f324d4d 76697244 52497265 6e614851     MM2_DriverIRQHan
    653c:	72656c64 454c4600 4d4f4358 445f334d     dler.FLEXCOMM3_D
    654c:	65766972 51524972 646e6148 0072656c     riverIRQHandler.
    655c:	58454c46 4d4d4f43 72445f34 72657669     FLEXCOMM4_Driver
    656c:	48515249 6c646e61 46007265 4358454c     IRQHandler.FLEXC
    657c:	354d4d4f 6972445f 49726576 61485152     OMM5_DriverIRQHa
    658c:	656c646e 4c460072 4f435845 5f364d4d     ndler.FLEXCOMM6_
    659c:	76697244 52497265 6e614851 72656c64     DriverIRQHandler
    65ac:	454c4600 4d4f4358 445f374d 65766972     .FLEXCOMM7_Drive
    65bc:	51524972 646e6148 0072656c 58454c46     rIRQHandler.FLEX
    65cc:	4d4d4f43 72445f38 72657669 48515249     COMM8_DriverIRQH
    65dc:	6c646e61 00007265                       andler..

000065e4 <s_flexcommClocks>:
    65e4:	010c010b 010e010d 0110010f 01120111     ................
    65f4:	0000021c                                ....

000065f8 <s_flexcommResets>:
    65f8:	0001000b 0001000c 0001000d 0001000e     ................
    6608:	0001000f 00010010 00010011 00010012     ................
    6618:	0002001c 00207f50 00000008 00000001     ....P. .........
	...
    6630:	10025800 08f0d180 00000002              .X..........

0000663c <DEBUG_USART_config>:
    663c:	0001c200 00010000 00000101 00000000     ................
    664c:	00000000 01010101                        ..........

00006656 <key_stored>:
    6656:	ef9e968d c2d3ca6e 92623a9a cf86e680     ....n....:b.....
    6666:	5a5d3f0c caf3af86 920c0212 926cdc3a     .?]Z........:.l.
    6676:	72756f73 6d2f6563 2e6e6961 68630063     source/main.c.ch
    6686:	006b6365 6174536b 5f737574 63637553     eck.kStatus_Succ
    6696:	20737365 73203d3d 75746174 756f0073     ess == status.ou
    66a6:	74757074 7a69735f 3d3d2065 75323320     tput_size == 32u
    66b6:	202c0000 636e7566 6e6f6974 0000203a     .., function: ..
    66c6:	73610000 74726573 206e6f69 22732522     ..assertion "%s"
    66d6:	69616620 3a64656c 6c696620 25222065      failed: file "%
    66e6:	202c2273 656e696c 25642520 0a732573     s", line %d%s%s.
	...

000066f8 <_global_impure_ptr>:
    66f8:	20000010 33323130 37363534 42413938     ... 0123456789AB
    6708:	46454443 00000000 33323130 37363534     CDEF....01234567
    6718:	62613938 66656463 00000000 6c756e28     89abcdef....(nul
    6728:	0000296c                                l)..

0000672c <blanks.1>:
    672c:	20202020 20202020 20202020 20202020                     

0000673c <zeroes.0>:
    673c:	30303030 30303030 30303030 30303030     0000000000000000
    674c:	0000002e 435f434c 414c4c4f 00004554     ....LC_COLLATE..
    675c:	435f434c 45505954 00000000 4d5f434c     LC_CTYPE....LC_M
    676c:	54454e4f 00595241 4e5f434c 52454d55     ONETARY.LC_NUMER
    677c:	00004349 545f434c 00454d49 4d5f434c     IC..LC_TIME.LC_M
    678c:	41535345 00534547                       ESSAGES.

00006794 <_ctype_>:
    6794:	20202000 20202020 28282020 20282828     .         ((((( 
    67a4:	20202020 20202020 20202020 20202020                     
    67b4:	10108820 10101010 10101010 10101010      ...............
    67c4:	04040410 04040404 10040404 10101010     ................
    67d4:	41411010 41414141 01010101 01010101     ..AAAAAA........
    67e4:	01010101 01010101 01010101 10101010     ................
    67f4:	42421010 42424242 02020202 02020202     ..BBBBBB........
    6804:	02020202 02020202 02020202 10101010     ................
    6814:	00000020 00000000 00000000 00000000      ...............
	...

00006898 <_init>:
    6898:	b5f8      	push	{r3, r4, r5, r6, r7, lr}
    689a:	bf00      	nop
    689c:	bcf8      	pop	{r3, r4, r5, r6, r7}
    689e:	bc08      	pop	{r3}
    68a0:	469e      	mov	lr, r3
    68a2:	4770      	bx	lr

000068a4 <_fini>:
    68a4:	b5f8      	push	{r3, r4, r5, r6, r7, lr}
    68a6:	bf00      	nop
    68a8:	bcf8      	pop	{r3, r4, r5, r6, r7}
    68aa:	bc08      	pop	{r3}
    68ac:	469e      	mov	lr, r3
    68ae:	4770      	bx	lr
