
../lpc_firmware/freertos_pinlock/output/freertos_pinlock.elf:     file format elf32-littlearm


Disassembly of section .text:

00000200 <__do_global_dtors_aux>:
     200:	b510      	push	{r4, lr}
     202:	4c05      	ldr	r4, [pc, #20]	; (218 <__do_global_dtors_aux+0x18>)
     204:	7823      	ldrb	r3, [r4, #0]
     206:	b933      	cbnz	r3, 216 <__do_global_dtors_aux+0x16>
     208:	4b04      	ldr	r3, [pc, #16]	; (21c <__do_global_dtors_aux+0x1c>)
     20a:	b113      	cbz	r3, 212 <__do_global_dtors_aux+0x12>
     20c:	4804      	ldr	r0, [pc, #16]	; (220 <__do_global_dtors_aux+0x20>)
     20e:	f3af 8000 	nop.w
     212:	2301      	movs	r3, #1
     214:	7023      	strb	r3, [r4, #0]
     216:	bd10      	pop	{r4, pc}
     218:	200009b8 	.word	0x200009b8
     21c:	00000000 	.word	0x00000000
     220:	00008900 	.word	0x00008900

00000224 <frame_dummy>:
     224:	b508      	push	{r3, lr}
     226:	4b03      	ldr	r3, [pc, #12]	; (234 <frame_dummy+0x10>)
     228:	b11b      	cbz	r3, 232 <frame_dummy+0xe>
     22a:	4903      	ldr	r1, [pc, #12]	; (238 <frame_dummy+0x14>)
     22c:	4803      	ldr	r0, [pc, #12]	; (23c <frame_dummy+0x18>)
     22e:	f3af 8000 	nop.w
     232:	bd08      	pop	{r3, pc}
     234:	00000000 	.word	0x00000000
     238:	200009bc 	.word	0x200009bc
     23c:	00008900 	.word	0x00008900

00000240 <_stack_init>:
     240:	f5a3 3a80 	sub.w	sl, r3, #65536	; 0x10000
     244:	4770      	bx	lr
     246:	bf00      	nop

00000248 <_mainCRTStartup>:
     248:	4b17      	ldr	r3, [pc, #92]	; (2a8 <_mainCRTStartup+0x60>)
     24a:	2b00      	cmp	r3, #0
     24c:	bf08      	it	eq
     24e:	4b13      	ldreq	r3, [pc, #76]	; (29c <_mainCRTStartup+0x54>)
     250:	469d      	mov	sp, r3
     252:	f7ff fff5 	bl	240 <_stack_init>
     256:	2100      	movs	r1, #0
     258:	468b      	mov	fp, r1
     25a:	460f      	mov	r7, r1
     25c:	4813      	ldr	r0, [pc, #76]	; (2ac <_mainCRTStartup+0x64>)
     25e:	4a14      	ldr	r2, [pc, #80]	; (2b0 <_mainCRTStartup+0x68>)
     260:	1a12      	subs	r2, r2, r0
     262:	f005 f94b 	bl	54fc <memset>
     266:	4b0e      	ldr	r3, [pc, #56]	; (2a0 <_mainCRTStartup+0x58>)
     268:	2b00      	cmp	r3, #0
     26a:	d000      	beq.n	26e <_mainCRTStartup+0x26>
     26c:	4798      	blx	r3
     26e:	4b0d      	ldr	r3, [pc, #52]	; (2a4 <_mainCRTStartup+0x5c>)
     270:	2b00      	cmp	r3, #0
     272:	d000      	beq.n	276 <_mainCRTStartup+0x2e>
     274:	4798      	blx	r3
     276:	2000      	movs	r0, #0
     278:	2100      	movs	r1, #0
     27a:	0004      	movs	r4, r0
     27c:	000d      	movs	r5, r1
     27e:	480d      	ldr	r0, [pc, #52]	; (2b4 <_mainCRTStartup+0x6c>)
     280:	2800      	cmp	r0, #0
     282:	d002      	beq.n	28a <_mainCRTStartup+0x42>
     284:	480c      	ldr	r0, [pc, #48]	; (2b8 <_mainCRTStartup+0x70>)
     286:	f006 faad 	bl	67e4 <atexit>
     28a:	f004 fe25 	bl	4ed8 <__libc_init_array>
     28e:	0020      	movs	r0, r4
     290:	0029      	movs	r1, r5
     292:	f004 fd3d 	bl	4d10 <main>
     296:	f004 fdfb 	bl	4e90 <exit>
     29a:	bf00      	nop
     29c:	00080000 	.word	0x00080000
	...
     2a8:	20033000 	.word	0x20033000
     2ac:	200009b8 	.word	0x200009b8
     2b0:	20003454 	.word	0x20003454
     2b4:	000067e5 	.word	0x000067e5
     2b8:	00006acd 	.word	0x00006acd

000002bc <Reset_Handler>:
     2bc:	b672      	cpsid	i
     2be:	4817      	ldr	r0, [pc, #92]	; (31c <Reset_Handler+0x60>)
     2c0:	4917      	ldr	r1, [pc, #92]	; (320 <Reset_Handler+0x64>)
     2c2:	6001      	str	r1, [r0, #0]
     2c4:	680a      	ldr	r2, [r1, #0]
     2c6:	f382 8808 	msr	MSP, r2
     2ca:	4816      	ldr	r0, [pc, #88]	; (324 <Reset_Handler+0x68>)
     2cc:	f380 880a 	msr	MSPLIM, r0
     2d0:	4815      	ldr	r0, [pc, #84]	; (328 <Reset_Handler+0x6c>)
     2d2:	4780      	blx	r0
     2d4:	4915      	ldr	r1, [pc, #84]	; (32c <Reset_Handler+0x70>)
     2d6:	4a16      	ldr	r2, [pc, #88]	; (330 <Reset_Handler+0x74>)
     2d8:	4b16      	ldr	r3, [pc, #88]	; (334 <Reset_Handler+0x78>)
     2da:	429a      	cmp	r2, r3
     2dc:	bfbe      	ittt	lt
     2de:	f851 0b04 	ldrlt.w	r0, [r1], #4
     2e2:	f842 0b04 	strlt.w	r0, [r2], #4
     2e6:	e7f8      	blt.n	2da <Reset_Handler+0x1e>
     2e8:	4913      	ldr	r1, [pc, #76]	; (338 <Reset_Handler+0x7c>)
     2ea:	4a14      	ldr	r2, [pc, #80]	; (33c <Reset_Handler+0x80>)
     2ec:	2000      	movs	r0, #0
     2ee:	4291      	cmp	r1, r2
     2f0:	bfbc      	itt	lt
     2f2:	f841 0b04 	strlt.w	r0, [r1], #4
     2f6:	e7fa      	blt.n	2ee <Reset_Handler+0x32>
     2f8:	2000      	movs	r0, #0
     2fa:	4911      	ldr	r1, [pc, #68]	; (340 <Reset_Handler+0x84>)
     2fc:	4a11      	ldr	r2, [pc, #68]	; (344 <Reset_Handler+0x88>)
     2fe:	4291      	cmp	r1, r2
     300:	bfbc      	itt	lt
     302:	f841 0b04 	strlt.w	r0, [r1], #4
     306:	e7fa      	blt.n	2fe <Reset_Handler+0x42>
     308:	490f      	ldr	r1, [pc, #60]	; (348 <Reset_Handler+0x8c>)
     30a:	4a10      	ldr	r2, [pc, #64]	; (34c <Reset_Handler+0x90>)
     30c:	4291      	cmp	r1, r2
     30e:	bfbc      	itt	lt
     310:	f841 0b04 	strlt.w	r0, [r1], #4
     314:	e7fa      	blt.n	30c <Reset_Handler+0x50>
     316:	b662      	cpsie	i
     318:	480d      	ldr	r0, [pc, #52]	; (350 <Reset_Handler+0x94>)
     31a:	4780      	blx	r0
     31c:	e000ed08 	.word	0xe000ed08
     320:	00000000 	.word	0x00000000
     324:	20032800 	.word	0x20032800
     328:	0000096d 	.word	0x0000096d
     32c:	0000892c 	.word	0x0000892c
     330:	20000000 	.word	0x20000000
     334:	200009b8 	.word	0x200009b8
     338:	200009b8 	.word	0x200009b8
     33c:	20003454 	.word	0x20003454
     340:	20003458 	.word	0x20003458
     344:	20003858 	.word	0x20003858
     348:	20032800 	.word	0x20032800
     34c:	20033000 	.word	0x20033000
     350:	00000249 	.word	0x00000249

00000354 <ACMP_DriverIRQHandler>:
     354:	f7ff bffe 	b.w	354 <ACMP_DriverIRQHandler>

00000358 <NMI_Handler>:
     358:	4840      	ldr	r0, [pc, #256]	; (45c <FLEXCOMM8_IRQHandler+0x4>)
     35a:	4700      	bx	r0

0000035c <HardFault_Handler>:
     35c:	4840      	ldr	r0, [pc, #256]	; (460 <FLEXCOMM8_IRQHandler+0x8>)
     35e:	4700      	bx	r0
     360:	4840      	ldr	r0, [pc, #256]	; (464 <FLEXCOMM8_IRQHandler+0xc>)
     362:	4700      	bx	r0
     364:	4840      	ldr	r0, [pc, #256]	; (468 <FLEXCOMM8_IRQHandler+0x10>)
     366:	4700      	bx	r0
     368:	4840      	ldr	r0, [pc, #256]	; (46c <FLEXCOMM8_IRQHandler+0x14>)
     36a:	4700      	bx	r0

0000036c <WDT_BOD_IRQHandler>:
     36c:	4840      	ldr	r0, [pc, #256]	; (470 <FLEXCOMM8_IRQHandler+0x18>)
     36e:	4700      	bx	r0

00000370 <DMA0_IRQHandler>:
     370:	4840      	ldr	r0, [pc, #256]	; (474 <FLEXCOMM8_IRQHandler+0x1c>)
     372:	4700      	bx	r0

00000374 <GINT0_IRQHandler>:
     374:	4840      	ldr	r0, [pc, #256]	; (478 <FLEXCOMM8_IRQHandler+0x20>)
     376:	4700      	bx	r0

00000378 <GINT1_IRQHandler>:
     378:	4840      	ldr	r0, [pc, #256]	; (47c <FLEXCOMM8_IRQHandler+0x24>)
     37a:	4700      	bx	r0

0000037c <PIN_INT0_IRQHandler>:
     37c:	4840      	ldr	r0, [pc, #256]	; (480 <FLEXCOMM8_IRQHandler+0x28>)
     37e:	4700      	bx	r0

00000380 <PIN_INT1_IRQHandler>:
     380:	4840      	ldr	r0, [pc, #256]	; (484 <FLEXCOMM8_IRQHandler+0x2c>)
     382:	4700      	bx	r0

00000384 <PIN_INT2_IRQHandler>:
     384:	4840      	ldr	r0, [pc, #256]	; (488 <FLEXCOMM8_IRQHandler+0x30>)
     386:	4700      	bx	r0

00000388 <PIN_INT3_IRQHandler>:
     388:	4840      	ldr	r0, [pc, #256]	; (48c <FLEXCOMM8_IRQHandler+0x34>)
     38a:	4700      	bx	r0

0000038c <UTICK0_IRQHandler>:
     38c:	4840      	ldr	r0, [pc, #256]	; (490 <FLEXCOMM8_IRQHandler+0x38>)
     38e:	4700      	bx	r0

00000390 <MRT0_IRQHandler>:
     390:	4840      	ldr	r0, [pc, #256]	; (494 <FLEXCOMM8_IRQHandler+0x3c>)
     392:	4700      	bx	r0

00000394 <CTIMER0_IRQHandler>:
     394:	4840      	ldr	r0, [pc, #256]	; (498 <FLEXCOMM8_IRQHandler+0x40>)
     396:	4700      	bx	r0

00000398 <CTIMER1_IRQHandler>:
     398:	4840      	ldr	r0, [pc, #256]	; (49c <FLEXCOMM8_IRQHandler+0x44>)
     39a:	4700      	bx	r0

0000039c <SCT0_IRQHandler>:
     39c:	4840      	ldr	r0, [pc, #256]	; (4a0 <FLEXCOMM8_IRQHandler+0x48>)
     39e:	4700      	bx	r0

000003a0 <CTIMER3_IRQHandler>:
     3a0:	4840      	ldr	r0, [pc, #256]	; (4a4 <FLEXCOMM8_IRQHandler+0x4c>)
     3a2:	4700      	bx	r0
     3a4:	4840      	ldr	r0, [pc, #256]	; (4a8 <FLEXCOMM8_IRQHandler+0x50>)
     3a6:	4700      	bx	r0

000003a8 <FLEXCOMM1_IRQHandler>:
     3a8:	4840      	ldr	r0, [pc, #256]	; (4ac <FLEXCOMM8_IRQHandler+0x54>)
     3aa:	4700      	bx	r0

000003ac <FLEXCOMM2_IRQHandler>:
     3ac:	4840      	ldr	r0, [pc, #256]	; (4b0 <FLEXCOMM8_IRQHandler+0x58>)
     3ae:	4700      	bx	r0

000003b0 <FLEXCOMM3_IRQHandler>:
     3b0:	4840      	ldr	r0, [pc, #256]	; (4b4 <FLEXCOMM8_IRQHandler+0x5c>)
     3b2:	4700      	bx	r0

000003b4 <FLEXCOMM4_IRQHandler>:
     3b4:	4840      	ldr	r0, [pc, #256]	; (4b8 <FLEXCOMM8_IRQHandler+0x60>)
     3b6:	4700      	bx	r0

000003b8 <FLEXCOMM5_IRQHandler>:
     3b8:	4840      	ldr	r0, [pc, #256]	; (4bc <FLEXCOMM8_IRQHandler+0x64>)
     3ba:	4700      	bx	r0

000003bc <FLEXCOMM6_IRQHandler>:
     3bc:	4840      	ldr	r0, [pc, #256]	; (4c0 <FLEXCOMM8_IRQHandler+0x68>)
     3be:	4700      	bx	r0

000003c0 <FLEXCOMM7_IRQHandler>:
     3c0:	4840      	ldr	r0, [pc, #256]	; (4c4 <FLEXCOMM8_IRQHandler+0x6c>)
     3c2:	4700      	bx	r0

000003c4 <ADC0_IRQHandler>:
     3c4:	4840      	ldr	r0, [pc, #256]	; (4c8 <FLEXCOMM8_IRQHandler+0x70>)
     3c6:	4700      	bx	r0

000003c8 <Reserved39_IRQHandler>:
     3c8:	4840      	ldr	r0, [pc, #256]	; (4cc <FLEXCOMM8_IRQHandler+0x74>)
     3ca:	4700      	bx	r0

000003cc <ACMP_IRQHandler>:
     3cc:	4840      	ldr	r0, [pc, #256]	; (4d0 <FLEXCOMM8_IRQHandler+0x78>)
     3ce:	4700      	bx	r0

000003d0 <Reserved41_IRQHandler>:
     3d0:	4840      	ldr	r0, [pc, #256]	; (4d4 <FLEXCOMM8_IRQHandler+0x7c>)
     3d2:	4700      	bx	r0

000003d4 <Reserved42_IRQHandler>:
     3d4:	4840      	ldr	r0, [pc, #256]	; (4d8 <FLEXCOMM8_IRQHandler+0x80>)
     3d6:	4700      	bx	r0

000003d8 <USB0_NEEDCLK_IRQHandler>:
     3d8:	4840      	ldr	r0, [pc, #256]	; (4dc <FLEXCOMM8_IRQHandler+0x84>)
     3da:	4700      	bx	r0

000003dc <USB0_IRQHandler>:
     3dc:	4840      	ldr	r0, [pc, #256]	; (4e0 <FLEXCOMM8_IRQHandler+0x88>)
     3de:	4700      	bx	r0

000003e0 <RTC_IRQHandler>:
     3e0:	4840      	ldr	r0, [pc, #256]	; (4e4 <FLEXCOMM8_IRQHandler+0x8c>)
     3e2:	4700      	bx	r0

000003e4 <Reserved46_IRQHandler>:
     3e4:	4840      	ldr	r0, [pc, #256]	; (4e8 <FLEXCOMM8_IRQHandler+0x90>)
     3e6:	4700      	bx	r0

000003e8 <MAILBOX_IRQHandler>:
     3e8:	4840      	ldr	r0, [pc, #256]	; (4ec <FLEXCOMM8_IRQHandler+0x94>)
     3ea:	4700      	bx	r0

000003ec <PIN_INT4_IRQHandler>:
     3ec:	4840      	ldr	r0, [pc, #256]	; (4f0 <FLEXCOMM8_IRQHandler+0x98>)
     3ee:	4700      	bx	r0

000003f0 <PIN_INT5_IRQHandler>:
     3f0:	4840      	ldr	r0, [pc, #256]	; (4f4 <FLEXCOMM8_IRQHandler+0x9c>)
     3f2:	4700      	bx	r0

000003f4 <PIN_INT6_IRQHandler>:
     3f4:	4840      	ldr	r0, [pc, #256]	; (4f8 <FLEXCOMM8_IRQHandler+0xa0>)
     3f6:	4700      	bx	r0

000003f8 <PIN_INT7_IRQHandler>:
     3f8:	4840      	ldr	r0, [pc, #256]	; (4fc <FLEXCOMM8_IRQHandler+0xa4>)
     3fa:	4700      	bx	r0

000003fc <CTIMER2_IRQHandler>:
     3fc:	4840      	ldr	r0, [pc, #256]	; (500 <FLEXCOMM8_IRQHandler+0xa8>)
     3fe:	4700      	bx	r0

00000400 <CTIMER4_IRQHandler>:
     400:	4840      	ldr	r0, [pc, #256]	; (504 <FLEXCOMM8_IRQHandler+0xac>)
     402:	4700      	bx	r0

00000404 <OS_EVENT_IRQHandler>:
     404:	4840      	ldr	r0, [pc, #256]	; (508 <FLEXCOMM8_IRQHandler+0xb0>)
     406:	4700      	bx	r0

00000408 <Reserved55_IRQHandler>:
     408:	4840      	ldr	r0, [pc, #256]	; (50c <FLEXCOMM8_IRQHandler+0xb4>)
     40a:	4700      	bx	r0

0000040c <Reserved56_IRQHandler>:
     40c:	4840      	ldr	r0, [pc, #256]	; (510 <FLEXCOMM8_IRQHandler+0xb8>)
     40e:	4700      	bx	r0

00000410 <Reserved57_IRQHandler>:
     410:	4840      	ldr	r0, [pc, #256]	; (514 <FLEXCOMM8_IRQHandler+0xbc>)
     412:	4700      	bx	r0

00000414 <SDIO_IRQHandler>:
     414:	4840      	ldr	r0, [pc, #256]	; (518 <FLEXCOMM8_IRQHandler+0xc0>)
     416:	4700      	bx	r0

00000418 <Reserved59_IRQHandler>:
     418:	4840      	ldr	r0, [pc, #256]	; (51c <FLEXCOMM8_IRQHandler+0xc4>)
     41a:	4700      	bx	r0

0000041c <Reserved60_IRQHandler>:
     41c:	4840      	ldr	r0, [pc, #256]	; (520 <FLEXCOMM8_IRQHandler+0xc8>)
     41e:	4700      	bx	r0

00000420 <Reserved61_IRQHandler>:
     420:	4840      	ldr	r0, [pc, #256]	; (524 <FLEXCOMM8_IRQHandler+0xcc>)
     422:	4700      	bx	r0

00000424 <USB1_PHY_IRQHandler>:
     424:	4840      	ldr	r0, [pc, #256]	; (528 <FLEXCOMM8_IRQHandler+0xd0>)
     426:	4700      	bx	r0

00000428 <USB1_IRQHandler>:
     428:	4840      	ldr	r0, [pc, #256]	; (52c <FLEXCOMM8_IRQHandler+0xd4>)
     42a:	4700      	bx	r0

0000042c <USB1_NEEDCLK_IRQHandler>:
     42c:	4840      	ldr	r0, [pc, #256]	; (530 <FLEXCOMM8_IRQHandler+0xd8>)
     42e:	4700      	bx	r0

00000430 <SEC_HYPERVISOR_CALL_IRQHandler>:
     430:	4840      	ldr	r0, [pc, #256]	; (534 <FLEXCOMM8_IRQHandler+0xdc>)
     432:	4700      	bx	r0

00000434 <SEC_GPIO_INT0_IRQ0_IRQHandler>:
     434:	4840      	ldr	r0, [pc, #256]	; (538 <FLEXCOMM8_IRQHandler+0xe0>)
     436:	4700      	bx	r0

00000438 <SEC_GPIO_INT0_IRQ1_IRQHandler>:
     438:	4840      	ldr	r0, [pc, #256]	; (53c <FLEXCOMM8_IRQHandler+0xe4>)
     43a:	4700      	bx	r0

0000043c <PLU_IRQHandler>:
     43c:	4840      	ldr	r0, [pc, #256]	; (540 <FLEXCOMM8_IRQHandler+0xe8>)
     43e:	4700      	bx	r0

00000440 <SEC_VIO_IRQHandler>:
     440:	4840      	ldr	r0, [pc, #256]	; (544 <FLEXCOMM8_IRQHandler+0xec>)
     442:	4700      	bx	r0

00000444 <HASHCRYPT_IRQHandler>:
     444:	4840      	ldr	r0, [pc, #256]	; (548 <FLEXCOMM8_IRQHandler+0xf0>)
     446:	4700      	bx	r0

00000448 <CASER_IRQHandler>:
     448:	4840      	ldr	r0, [pc, #256]	; (54c <FLEXCOMM8_IRQHandler+0xf4>)
     44a:	4700      	bx	r0

0000044c <PUF_IRQHandler>:
     44c:	4840      	ldr	r0, [pc, #256]	; (550 <FLEXCOMM8_IRQHandler+0xf8>)
     44e:	4700      	bx	r0

00000450 <PQ_IRQHandler>:
     450:	4840      	ldr	r0, [pc, #256]	; (554 <FLEXCOMM8_IRQHandler+0xfc>)
     452:	4700      	bx	r0

00000454 <DMA1_IRQHandler>:
     454:	4840      	ldr	r0, [pc, #256]	; (558 <FLEXCOMM8_IRQHandler+0x100>)
     456:	4700      	bx	r0

00000458 <FLEXCOMM8_IRQHandler>:
     458:	4840      	ldr	r0, [pc, #256]	; (55c <FLEXCOMM8_IRQHandler+0x104>)
     45a:	4700      	bx	r0
     45c:	00000359 	.word	0x00000359
     460:	0000035d 	.word	0x0000035d
     464:	00002b31 	.word	0x00002b31
     468:	00002ac1 	.word	0x00002ac1
     46c:	000028b5 	.word	0x000028b5
     470:	00000355 	.word	0x00000355
     474:	00000355 	.word	0x00000355
     478:	00000355 	.word	0x00000355
     47c:	00000355 	.word	0x00000355
     480:	00000355 	.word	0x00000355
     484:	00000355 	.word	0x00000355
     488:	00000355 	.word	0x00000355
     48c:	00000355 	.word	0x00000355
     490:	00000355 	.word	0x00000355
     494:	00000355 	.word	0x00000355
     498:	00000355 	.word	0x00000355
     49c:	00000355 	.word	0x00000355
     4a0:	00000355 	.word	0x00000355
     4a4:	00000355 	.word	0x00000355
     4a8:	0000184b 	.word	0x0000184b
     4ac:	000018bf 	.word	0x000018bf
     4b0:	00001933 	.word	0x00001933
     4b4:	000019a7 	.word	0x000019a7
     4b8:	00001a1b 	.word	0x00001a1b
     4bc:	00001a8f 	.word	0x00001a8f
     4c0:	00001b03 	.word	0x00001b03
     4c4:	00001b79 	.word	0x00001b79
     4c8:	00000355 	.word	0x00000355
     4cc:	00000355 	.word	0x00000355
     4d0:	00000355 	.word	0x00000355
     4d4:	00000355 	.word	0x00000355
     4d8:	00000355 	.word	0x00000355
     4dc:	00000355 	.word	0x00000355
     4e0:	00000355 	.word	0x00000355
     4e4:	00000355 	.word	0x00000355
     4e8:	00000355 	.word	0x00000355
     4ec:	00000355 	.word	0x00000355
     4f0:	00000355 	.word	0x00000355
     4f4:	00000355 	.word	0x00000355
     4f8:	00000355 	.word	0x00000355
     4fc:	00000355 	.word	0x00000355
     500:	00000355 	.word	0x00000355
     504:	00000355 	.word	0x00000355
     508:	00000355 	.word	0x00000355
     50c:	00000355 	.word	0x00000355
     510:	00000355 	.word	0x00000355
     514:	00000355 	.word	0x00000355
     518:	00000355 	.word	0x00000355
     51c:	00000355 	.word	0x00000355
     520:	00000355 	.word	0x00000355
     524:	00000355 	.word	0x00000355
     528:	00000355 	.word	0x00000355
     52c:	00000355 	.word	0x00000355
     530:	00000355 	.word	0x00000355
     534:	00000355 	.word	0x00000355
     538:	00000355 	.word	0x00000355
     53c:	00000355 	.word	0x00000355
     540:	00000355 	.word	0x00000355
     544:	00000355 	.word	0x00000355
     548:	000026bf 	.word	0x000026bf
     54c:	00000355 	.word	0x00000355
     550:	00000355 	.word	0x00000355
     554:	00000355 	.word	0x00000355
     558:	00000355 	.word	0x00000355
     55c:	00001bef 	.word	0x00001bef

00000560 <__aeabi_uldivmod>:
     560:	b953      	cbnz	r3, 578 <__aeabi_uldivmod+0x18>
     562:	b94a      	cbnz	r2, 578 <__aeabi_uldivmod+0x18>
     564:	2900      	cmp	r1, #0
     566:	bf08      	it	eq
     568:	2800      	cmpeq	r0, #0
     56a:	bf1c      	itt	ne
     56c:	f04f 31ff 	movne.w	r1, #4294967295	; 0xffffffff
     570:	f04f 30ff 	movne.w	r0, #4294967295	; 0xffffffff
     574:	f000 b982 	b.w	87c <__aeabi_idiv0>
     578:	f1ad 0c08 	sub.w	ip, sp, #8
     57c:	e96d ce04 	strd	ip, lr, [sp, #-16]!
     580:	f000 f806 	bl	590 <__udivmoddi4>
     584:	f8dd e004 	ldr.w	lr, [sp, #4]
     588:	e9dd 2302 	ldrd	r2, r3, [sp, #8]
     58c:	b004      	add	sp, #16
     58e:	4770      	bx	lr

00000590 <__udivmoddi4>:
     590:	e92d 4ff0 	stmdb	sp!, {r4, r5, r6, r7, r8, r9, sl, fp, lr}
     594:	9d09      	ldr	r5, [sp, #36]	; 0x24
     596:	460e      	mov	r6, r1
     598:	4604      	mov	r4, r0
     59a:	460f      	mov	r7, r1
     59c:	2b00      	cmp	r3, #0
     59e:	d147      	bne.n	630 <__udivmoddi4+0xa0>
     5a0:	428a      	cmp	r2, r1
     5a2:	4694      	mov	ip, r2
     5a4:	d95f      	bls.n	666 <__udivmoddi4+0xd6>
     5a6:	fab2 f382 	clz	r3, r2
     5aa:	b143      	cbz	r3, 5be <__udivmoddi4+0x2e>
     5ac:	fa02 fc03 	lsl.w	ip, r2, r3
     5b0:	f1c3 0220 	rsb	r2, r3, #32
     5b4:	409f      	lsls	r7, r3
     5b6:	409c      	lsls	r4, r3
     5b8:	fa20 f202 	lsr.w	r2, r0, r2
     5bc:	4317      	orrs	r7, r2
     5be:	ea4f 461c 	mov.w	r6, ip, lsr #16
     5c2:	fa1f fe8c 	uxth.w	lr, ip
     5c6:	0c22      	lsrs	r2, r4, #16
     5c8:	fbb7 f1f6 	udiv	r1, r7, r6
     5cc:	fb06 7711 	mls	r7, r6, r1, r7
     5d0:	fb01 f00e 	mul.w	r0, r1, lr
     5d4:	ea42 4207 	orr.w	r2, r2, r7, lsl #16
     5d8:	4290      	cmp	r0, r2
     5da:	d908      	bls.n	5ee <__udivmoddi4+0x5e>
     5dc:	eb1c 0202 	adds.w	r2, ip, r2
     5e0:	f101 37ff 	add.w	r7, r1, #4294967295	; 0xffffffff
     5e4:	d202      	bcs.n	5ec <__udivmoddi4+0x5c>
     5e6:	4290      	cmp	r0, r2
     5e8:	f200 8137 	bhi.w	85a <STACK_SIZE+0x5a>
     5ec:	4639      	mov	r1, r7
     5ee:	1a12      	subs	r2, r2, r0
     5f0:	b2a4      	uxth	r4, r4
     5f2:	fbb2 f0f6 	udiv	r0, r2, r6
     5f6:	fb06 2210 	mls	r2, r6, r0, r2
     5fa:	fb00 fe0e 	mul.w	lr, r0, lr
     5fe:	ea44 4402 	orr.w	r4, r4, r2, lsl #16
     602:	45a6      	cmp	lr, r4
     604:	d908      	bls.n	618 <__udivmoddi4+0x88>
     606:	eb1c 0404 	adds.w	r4, ip, r4
     60a:	f100 32ff 	add.w	r2, r0, #4294967295	; 0xffffffff
     60e:	d202      	bcs.n	616 <__udivmoddi4+0x86>
     610:	45a6      	cmp	lr, r4
     612:	f200 811c 	bhi.w	84e <STACK_SIZE+0x4e>
     616:	4610      	mov	r0, r2
     618:	ea40 4001 	orr.w	r0, r0, r1, lsl #16
     61c:	eba4 040e 	sub.w	r4, r4, lr
     620:	2100      	movs	r1, #0
     622:	b11d      	cbz	r5, 62c <__udivmoddi4+0x9c>
     624:	40dc      	lsrs	r4, r3
     626:	2300      	movs	r3, #0
     628:	e9c5 4300 	strd	r4, r3, [r5]
     62c:	e8bd 8ff0 	ldmia.w	sp!, {r4, r5, r6, r7, r8, r9, sl, fp, pc}
     630:	428b      	cmp	r3, r1
     632:	d908      	bls.n	646 <__udivmoddi4+0xb6>
     634:	2d00      	cmp	r5, #0
     636:	f000 80fe 	beq.w	836 <STACK_SIZE+0x36>
     63a:	2100      	movs	r1, #0
     63c:	e9c5 0600 	strd	r0, r6, [r5]
     640:	4608      	mov	r0, r1
     642:	e8bd 8ff0 	ldmia.w	sp!, {r4, r5, r6, r7, r8, r9, sl, fp, pc}
     646:	fab3 f183 	clz	r1, r3
     64a:	2900      	cmp	r1, #0
     64c:	d14c      	bne.n	6e8 <__udivmoddi4+0x158>
     64e:	42b3      	cmp	r3, r6
     650:	f0c0 80f4 	bcc.w	83c <STACK_SIZE+0x3c>
     654:	4282      	cmp	r2, r0
     656:	f240 80f1 	bls.w	83c <STACK_SIZE+0x3c>
     65a:	4608      	mov	r0, r1
     65c:	2d00      	cmp	r5, #0
     65e:	d0e5      	beq.n	62c <__udivmoddi4+0x9c>
     660:	e9c5 4700 	strd	r4, r7, [r5]
     664:	e7e2      	b.n	62c <__udivmoddi4+0x9c>
     666:	b902      	cbnz	r2, 66a <__udivmoddi4+0xda>
     668:	deff      	udf	#255	; 0xff
     66a:	fab2 f382 	clz	r3, r2
     66e:	2b00      	cmp	r3, #0
     670:	f040 80a1 	bne.w	7b6 <__udivmoddi4+0x226>
     674:	1a8a      	subs	r2, r1, r2
     676:	ea4f 4e1c 	mov.w	lr, ip, lsr #16
     67a:	fa1f f78c 	uxth.w	r7, ip
     67e:	2101      	movs	r1, #1
     680:	fbb2 f6fe 	udiv	r6, r2, lr
     684:	fb0e 2016 	mls	r0, lr, r6, r2
     688:	0c22      	lsrs	r2, r4, #16
     68a:	ea42 4200 	orr.w	r2, r2, r0, lsl #16
     68e:	fb07 f006 	mul.w	r0, r7, r6
     692:	4290      	cmp	r0, r2
     694:	d90f      	bls.n	6b6 <__udivmoddi4+0x126>
     696:	eb1c 0202 	adds.w	r2, ip, r2
     69a:	f106 38ff 	add.w	r8, r6, #4294967295	; 0xffffffff
     69e:	bf2c      	ite	cs
     6a0:	f04f 0901 	movcs.w	r9, #1
     6a4:	f04f 0900 	movcc.w	r9, #0
     6a8:	4290      	cmp	r0, r2
     6aa:	d903      	bls.n	6b4 <__udivmoddi4+0x124>
     6ac:	f1b9 0f00 	cmp.w	r9, #0
     6b0:	f000 80d0 	beq.w	854 <STACK_SIZE+0x54>
     6b4:	4646      	mov	r6, r8
     6b6:	1a12      	subs	r2, r2, r0
     6b8:	b2a4      	uxth	r4, r4
     6ba:	fbb2 f0fe 	udiv	r0, r2, lr
     6be:	fb0e 2210 	mls	r2, lr, r0, r2
     6c2:	fb00 f707 	mul.w	r7, r0, r7
     6c6:	ea44 4402 	orr.w	r4, r4, r2, lsl #16
     6ca:	42a7      	cmp	r7, r4
     6cc:	d908      	bls.n	6e0 <__udivmoddi4+0x150>
     6ce:	eb1c 0404 	adds.w	r4, ip, r4
     6d2:	f100 32ff 	add.w	r2, r0, #4294967295	; 0xffffffff
     6d6:	d202      	bcs.n	6de <__udivmoddi4+0x14e>
     6d8:	42a7      	cmp	r7, r4
     6da:	f200 80b5 	bhi.w	848 <STACK_SIZE+0x48>
     6de:	4610      	mov	r0, r2
     6e0:	1be4      	subs	r4, r4, r7
     6e2:	ea40 4006 	orr.w	r0, r0, r6, lsl #16
     6e6:	e79c      	b.n	622 <__udivmoddi4+0x92>
     6e8:	f1c1 0420 	rsb	r4, r1, #32
     6ec:	408b      	lsls	r3, r1
     6ee:	fa06 fc01 	lsl.w	ip, r6, r1
     6f2:	fa00 fe01 	lsl.w	lr, r0, r1
     6f6:	fa22 f704 	lsr.w	r7, r2, r4
     6fa:	40e6      	lsrs	r6, r4
     6fc:	408a      	lsls	r2, r1
     6fe:	431f      	orrs	r7, r3
     700:	fa20 f304 	lsr.w	r3, r0, r4
     704:	ea4f 4817 	mov.w	r8, r7, lsr #16
     708:	ea43 030c 	orr.w	r3, r3, ip
     70c:	fa1f fc87 	uxth.w	ip, r7
     710:	ea4f 4913 	mov.w	r9, r3, lsr #16
     714:	fbb6 f0f8 	udiv	r0, r6, r8
     718:	fb08 6610 	mls	r6, r8, r0, r6
     71c:	ea49 4606 	orr.w	r6, r9, r6, lsl #16
     720:	fb00 f90c 	mul.w	r9, r0, ip
     724:	45b1      	cmp	r9, r6
     726:	d90e      	bls.n	746 <__udivmoddi4+0x1b6>
     728:	19be      	adds	r6, r7, r6
     72a:	f100 3aff 	add.w	sl, r0, #4294967295	; 0xffffffff
     72e:	bf2c      	ite	cs
     730:	f04f 0b01 	movcs.w	fp, #1
     734:	f04f 0b00 	movcc.w	fp, #0
     738:	45b1      	cmp	r9, r6
     73a:	d903      	bls.n	744 <__udivmoddi4+0x1b4>
     73c:	f1bb 0f00 	cmp.w	fp, #0
     740:	f000 808e 	beq.w	860 <STACK_SIZE+0x60>
     744:	4650      	mov	r0, sl
     746:	eba6 0609 	sub.w	r6, r6, r9
     74a:	fa1f f983 	uxth.w	r9, r3
     74e:	fbb6 f3f8 	udiv	r3, r6, r8
     752:	fb08 6613 	mls	r6, r8, r3, r6
     756:	fb03 fc0c 	mul.w	ip, r3, ip
     75a:	ea49 4606 	orr.w	r6, r9, r6, lsl #16
     75e:	45b4      	cmp	ip, r6
     760:	d906      	bls.n	770 <__udivmoddi4+0x1e0>
     762:	19be      	adds	r6, r7, r6
     764:	f103 38ff 	add.w	r8, r3, #4294967295	; 0xffffffff
     768:	d201      	bcs.n	76e <__udivmoddi4+0x1de>
     76a:	45b4      	cmp	ip, r6
     76c:	d87e      	bhi.n	86c <STACK_SIZE+0x6c>
     76e:	4643      	mov	r3, r8
     770:	ea43 4000 	orr.w	r0, r3, r0, lsl #16
     774:	eba6 060c 	sub.w	r6, r6, ip
     778:	fba0 8c02 	umull	r8, ip, r0, r2
     77c:	4566      	cmp	r6, ip
     77e:	4643      	mov	r3, r8
     780:	46e1      	mov	r9, ip
     782:	d302      	bcc.n	78a <__udivmoddi4+0x1fa>
     784:	d107      	bne.n	796 <__udivmoddi4+0x206>
     786:	45c6      	cmp	lr, r8
     788:	d205      	bcs.n	796 <__udivmoddi4+0x206>
     78a:	ebb8 0302 	subs.w	r3, r8, r2
     78e:	eb6c 0c07 	sbc.w	ip, ip, r7
     792:	3801      	subs	r0, #1
     794:	46e1      	mov	r9, ip
     796:	2d00      	cmp	r5, #0
     798:	d06e      	beq.n	878 <STACK_SIZE+0x78>
     79a:	ebbe 0203 	subs.w	r2, lr, r3
     79e:	eb66 0609 	sbc.w	r6, r6, r9
     7a2:	fa22 f301 	lsr.w	r3, r2, r1
     7a6:	fa06 f404 	lsl.w	r4, r6, r4
     7aa:	40ce      	lsrs	r6, r1
     7ac:	2100      	movs	r1, #0
     7ae:	431c      	orrs	r4, r3
     7b0:	e9c5 4600 	strd	r4, r6, [r5]
     7b4:	e73a      	b.n	62c <__udivmoddi4+0x9c>
     7b6:	fa02 fc03 	lsl.w	ip, r2, r3
     7ba:	f1c3 0220 	rsb	r2, r3, #32
     7be:	4099      	lsls	r1, r3
     7c0:	409c      	lsls	r4, r3
     7c2:	40d6      	lsrs	r6, r2
     7c4:	ea4f 4e1c 	mov.w	lr, ip, lsr #16
     7c8:	fa20 f202 	lsr.w	r2, r0, r2
     7cc:	fa1f f78c 	uxth.w	r7, ip
     7d0:	fbb6 f0fe 	udiv	r0, r6, lr
     7d4:	430a      	orrs	r2, r1
     7d6:	fb0e 6610 	mls	r6, lr, r0, r6
     7da:	0c11      	lsrs	r1, r2, #16
     7dc:	ea41 4106 	orr.w	r1, r1, r6, lsl #16
     7e0:	fb00 f607 	mul.w	r6, r0, r7
     7e4:	428e      	cmp	r6, r1
     7e6:	d90e      	bls.n	806 <STACK_SIZE+0x6>
     7e8:	eb1c 0101 	adds.w	r1, ip, r1
     7ec:	f100 38ff 	add.w	r8, r0, #4294967295	; 0xffffffff
     7f0:	bf2c      	ite	cs
     7f2:	f04f 0901 	movcs.w	r9, #1
     7f6:	f04f 0900 	movcc.w	r9, #0
     7fa:	428e      	cmp	r6, r1
     7fc:	d902      	bls.n	804 <STACK_SIZE+0x4>
     7fe:	f1b9 0f00 	cmp.w	r9, #0
     802:	d030      	beq.n	866 <STACK_SIZE+0x66>
     804:	4640      	mov	r0, r8
     806:	1b89      	subs	r1, r1, r6
     808:	b292      	uxth	r2, r2
     80a:	fbb1 f6fe 	udiv	r6, r1, lr
     80e:	fb0e 1116 	mls	r1, lr, r6, r1
     812:	ea42 4201 	orr.w	r2, r2, r1, lsl #16
     816:	fb06 f107 	mul.w	r1, r6, r7
     81a:	4291      	cmp	r1, r2
     81c:	d907      	bls.n	82e <STACK_SIZE+0x2e>
     81e:	eb1c 0202 	adds.w	r2, ip, r2
     822:	f106 38ff 	add.w	r8, r6, #4294967295	; 0xffffffff
     826:	d201      	bcs.n	82c <STACK_SIZE+0x2c>
     828:	4291      	cmp	r1, r2
     82a:	d822      	bhi.n	872 <STACK_SIZE+0x72>
     82c:	4646      	mov	r6, r8
     82e:	1a52      	subs	r2, r2, r1
     830:	ea46 4100 	orr.w	r1, r6, r0, lsl #16
     834:	e724      	b.n	680 <__udivmoddi4+0xf0>
     836:	4629      	mov	r1, r5
     838:	4628      	mov	r0, r5
     83a:	e6f7      	b.n	62c <__udivmoddi4+0x9c>
     83c:	1a84      	subs	r4, r0, r2
     83e:	eb66 0203 	sbc.w	r2, r6, r3
     842:	2001      	movs	r0, #1
     844:	4617      	mov	r7, r2
     846:	e709      	b.n	65c <__udivmoddi4+0xcc>
     848:	4464      	add	r4, ip
     84a:	3802      	subs	r0, #2
     84c:	e748      	b.n	6e0 <__udivmoddi4+0x150>
     84e:	4464      	add	r4, ip
     850:	3802      	subs	r0, #2
     852:	e6e1      	b.n	618 <__udivmoddi4+0x88>
     854:	3e02      	subs	r6, #2
     856:	4462      	add	r2, ip
     858:	e72d      	b.n	6b6 <__udivmoddi4+0x126>
     85a:	3902      	subs	r1, #2
     85c:	4462      	add	r2, ip
     85e:	e6c6      	b.n	5ee <__udivmoddi4+0x5e>
     860:	3802      	subs	r0, #2
     862:	443e      	add	r6, r7
     864:	e76f      	b.n	746 <__udivmoddi4+0x1b6>
     866:	3802      	subs	r0, #2
     868:	4461      	add	r1, ip
     86a:	e7cc      	b.n	806 <STACK_SIZE+0x6>
     86c:	3b02      	subs	r3, #2
     86e:	443e      	add	r6, r7
     870:	e77e      	b.n	770 <__udivmoddi4+0x1e0>
     872:	3e02      	subs	r6, #2
     874:	4462      	add	r2, ip
     876:	e7da      	b.n	82e <STACK_SIZE+0x2e>
     878:	4629      	mov	r1, r5
     87a:	e6d7      	b.n	62c <__udivmoddi4+0x9c>

0000087c <__aeabi_idiv0>:
     87c:	4770      	bx	lr
     87e:	bf00      	nop

00000880 <memcpy>:
     880:	4684      	mov	ip, r0
     882:	ea41 0300 	orr.w	r3, r1, r0
     886:	f013 0303 	ands.w	r3, r3, #3
     88a:	d149      	bne.n	920 <memcpy+0xa0>
     88c:	3a40      	subs	r2, #64	; 0x40
     88e:	d323      	bcc.n	8d8 <memcpy+0x58>
     890:	680b      	ldr	r3, [r1, #0]
     892:	6003      	str	r3, [r0, #0]
     894:	684b      	ldr	r3, [r1, #4]
     896:	6043      	str	r3, [r0, #4]
     898:	688b      	ldr	r3, [r1, #8]
     89a:	6083      	str	r3, [r0, #8]
     89c:	68cb      	ldr	r3, [r1, #12]
     89e:	60c3      	str	r3, [r0, #12]
     8a0:	690b      	ldr	r3, [r1, #16]
     8a2:	6103      	str	r3, [r0, #16]
     8a4:	694b      	ldr	r3, [r1, #20]
     8a6:	6143      	str	r3, [r0, #20]
     8a8:	698b      	ldr	r3, [r1, #24]
     8aa:	6183      	str	r3, [r0, #24]
     8ac:	69cb      	ldr	r3, [r1, #28]
     8ae:	61c3      	str	r3, [r0, #28]
     8b0:	6a0b      	ldr	r3, [r1, #32]
     8b2:	6203      	str	r3, [r0, #32]
     8b4:	6a4b      	ldr	r3, [r1, #36]	; 0x24
     8b6:	6243      	str	r3, [r0, #36]	; 0x24
     8b8:	6a8b      	ldr	r3, [r1, #40]	; 0x28
     8ba:	6283      	str	r3, [r0, #40]	; 0x28
     8bc:	6acb      	ldr	r3, [r1, #44]	; 0x2c
     8be:	62c3      	str	r3, [r0, #44]	; 0x2c
     8c0:	6b0b      	ldr	r3, [r1, #48]	; 0x30
     8c2:	6303      	str	r3, [r0, #48]	; 0x30
     8c4:	6b4b      	ldr	r3, [r1, #52]	; 0x34
     8c6:	6343      	str	r3, [r0, #52]	; 0x34
     8c8:	6b8b      	ldr	r3, [r1, #56]	; 0x38
     8ca:	6383      	str	r3, [r0, #56]	; 0x38
     8cc:	6bcb      	ldr	r3, [r1, #60]	; 0x3c
     8ce:	63c3      	str	r3, [r0, #60]	; 0x3c
     8d0:	3040      	adds	r0, #64	; 0x40
     8d2:	3140      	adds	r1, #64	; 0x40
     8d4:	3a40      	subs	r2, #64	; 0x40
     8d6:	d2db      	bcs.n	890 <memcpy+0x10>
     8d8:	3230      	adds	r2, #48	; 0x30
     8da:	d30b      	bcc.n	8f4 <memcpy+0x74>
     8dc:	680b      	ldr	r3, [r1, #0]
     8de:	6003      	str	r3, [r0, #0]
     8e0:	684b      	ldr	r3, [r1, #4]
     8e2:	6043      	str	r3, [r0, #4]
     8e4:	688b      	ldr	r3, [r1, #8]
     8e6:	6083      	str	r3, [r0, #8]
     8e8:	68cb      	ldr	r3, [r1, #12]
     8ea:	60c3      	str	r3, [r0, #12]
     8ec:	3010      	adds	r0, #16
     8ee:	3110      	adds	r1, #16
     8f0:	3a10      	subs	r2, #16
     8f2:	d2f3      	bcs.n	8dc <memcpy+0x5c>
     8f4:	320c      	adds	r2, #12
     8f6:	d305      	bcc.n	904 <memcpy+0x84>
     8f8:	f851 3b04 	ldr.w	r3, [r1], #4
     8fc:	f840 3b04 	str.w	r3, [r0], #4
     900:	3a04      	subs	r2, #4
     902:	d2f9      	bcs.n	8f8 <memcpy+0x78>
     904:	3204      	adds	r2, #4
     906:	d008      	beq.n	91a <memcpy+0x9a>
     908:	07d2      	lsls	r2, r2, #31
     90a:	bf1c      	itt	ne
     90c:	f811 3b01 	ldrbne.w	r3, [r1], #1
     910:	f800 3b01 	strbne.w	r3, [r0], #1
     914:	d301      	bcc.n	91a <memcpy+0x9a>
     916:	880b      	ldrh	r3, [r1, #0]
     918:	8003      	strh	r3, [r0, #0]
     91a:	4660      	mov	r0, ip
     91c:	4770      	bx	lr
     91e:	bf00      	nop
     920:	2a08      	cmp	r2, #8
     922:	d313      	bcc.n	94c <memcpy+0xcc>
     924:	078b      	lsls	r3, r1, #30
     926:	d0b1      	beq.n	88c <memcpy+0xc>
     928:	f010 0303 	ands.w	r3, r0, #3
     92c:	d0ae      	beq.n	88c <memcpy+0xc>
     92e:	f1c3 0304 	rsb	r3, r3, #4
     932:	1ad2      	subs	r2, r2, r3
     934:	07db      	lsls	r3, r3, #31
     936:	bf1c      	itt	ne
     938:	f811 3b01 	ldrbne.w	r3, [r1], #1
     93c:	f800 3b01 	strbne.w	r3, [r0], #1
     940:	d3a4      	bcc.n	88c <memcpy+0xc>
     942:	f831 3b02 	ldrh.w	r3, [r1], #2
     946:	f820 3b02 	strh.w	r3, [r0], #2
     94a:	e79f      	b.n	88c <memcpy+0xc>
     94c:	3a04      	subs	r2, #4
     94e:	d3d9      	bcc.n	904 <memcpy+0x84>
     950:	3a01      	subs	r2, #1
     952:	f811 3b01 	ldrb.w	r3, [r1], #1
     956:	f800 3b01 	strb.w	r3, [r0], #1
     95a:	d2f9      	bcs.n	950 <memcpy+0xd0>
     95c:	780b      	ldrb	r3, [r1, #0]
     95e:	7003      	strb	r3, [r0, #0]
     960:	784b      	ldrb	r3, [r1, #1]
     962:	7043      	strb	r3, [r0, #1]
     964:	788b      	ldrb	r3, [r1, #2]
     966:	7083      	strb	r3, [r0, #2]
     968:	4660      	mov	r0, ip
     96a:	4770      	bx	lr

0000096c <SystemInit>:
     96c:	b580      	push	{r7, lr}
     96e:	466f      	mov	r7, sp
     970:	f64e 5188 	movw	r1, #60808	; 0xed88
     974:	f2ce 0100 	movt	r1, #57344	; 0xe000
     978:	6808      	ldr	r0, [r1, #0]
     97a:	f440 0070 	orr.w	r0, r0, #15728640	; 0xf00000
     97e:	6008      	str	r0, [r1, #0]
     980:	6808      	ldr	r0, [r1, #0]
     982:	f040 000f 	orr.w	r0, r0, #15
     986:	6008      	str	r0, [r1, #0]
     988:	f64e 518c 	movw	r1, #60812	; 0xed8c
     98c:	f2ce 0100 	movt	r1, #57344	; 0xe000
     990:	6808      	ldr	r0, [r1, #0]
     992:	f640 4203 	movw	r2, #3075	; 0xc03
     996:	4310      	orrs	r0, r2
     998:	6008      	str	r0, [r1, #0]
     99a:	f240 0000 	movw	r0, #0
     99e:	f2c0 0000 	movt	r0, #0
     9a2:	f64e 5108 	movw	r1, #60680	; 0xed08
     9a6:	f2ce 0100 	movt	r1, #57344	; 0xe000
     9aa:	6008      	str	r0, [r1, #0]
     9ac:	f240 3108 	movw	r1, #776	; 0x308
     9b0:	f2c4 0100 	movt	r1, #16384	; 0x4000
     9b4:	2000      	movs	r0, #0
     9b6:	6008      	str	r0, [r1, #0]
     9b8:	f240 2120 	movw	r1, #544	; 0x220
     9bc:	f2c4 0100 	movt	r1, #16384	; 0x4000
     9c0:	2078      	movs	r0, #120	; 0x78
     9c2:	6008      	str	r0, [r1, #0]
     9c4:	f000 f801 	bl	9ca <SystemInitHook>
     9c8:	bd80      	pop	{r7, pc}

000009ca <SystemInitHook>:
     9ca:	4770      	bx	lr

000009cc <SDK_DelayAtLeastUs>:
     9cc:	b580      	push	{r7, lr}
     9ce:	466f      	mov	r7, sp
     9d0:	b084      	sub	sp, #16
     9d2:	9102      	str	r1, [sp, #8]
     9d4:	9003      	str	r0, [sp, #12]
     9d6:	b340      	cbz	r0, a2a <SDK_DelayAtLeastUs+0x5e>
     9d8:	e7ff      	b.n	9da <SDK_DelayAtLeastUs+0xe>
     9da:	9803      	ldr	r0, [sp, #12]
     9dc:	9902      	ldr	r1, [sp, #8]
     9de:	fba0 0101 	umull	r0, r1, r0, r1
     9e2:	f244 2240 	movw	r2, #16960	; 0x4240
     9e6:	f2c0 020f 	movt	r2, #15
     9ea:	2300      	movs	r3, #0
     9ec:	f7ff fdb8 	bl	560 <__aeabi_uldivmod>
     9f0:	460a      	mov	r2, r1
     9f2:	9200      	str	r2, [sp, #0]
     9f4:	9001      	str	r0, [sp, #4]
     9f6:	b909      	cbnz	r1, 9fc <SDK_DelayAtLeastUs+0x30>
     9f8:	e7ff      	b.n	9fa <SDK_DelayAtLeastUs+0x2e>
     9fa:	e00e      	b.n	a1a <SDK_DelayAtLeastUs+0x4e>
     9fc:	f647 702c 	movw	r0, #32556	; 0x7f2c
     a00:	f2c0 0000 	movt	r0, #0
     a04:	f647 729d 	movw	r2, #32669	; 0x7f9d
     a08:	f2c0 0200 	movt	r2, #0
     a0c:	f647 73b0 	movw	r3, #32688	; 0x7fb0
     a10:	f2c0 0300 	movt	r3, #0
     a14:	21d5      	movs	r1, #213	; 0xd5
     a16:	f004 fa1d 	bl	4e54 <__assert_func>
     a1a:	9900      	ldr	r1, [sp, #0]
     a1c:	9801      	ldr	r0, [sp, #4]
     a1e:	0880      	lsrs	r0, r0, #2
     a20:	ea40 7081 	orr.w	r0, r0, r1, lsl #30
     a24:	f000 f803 	bl	a2e <DelayLoop>
     a28:	e7ff      	b.n	a2a <SDK_DelayAtLeastUs+0x5e>
     a2a:	b004      	add	sp, #16
     a2c:	bd80      	pop	{r7, pc}

00000a2e <DelayLoop>:
     a2e:	4600      	mov	r0, r0

00000a30 <loop>:
     a30:	f1a0 0001 	sub.w	r0, r0, #1
     a34:	2800      	cmp	r0, #0
     a36:	d1fb      	bne.n	a30 <loop>
     a38:	4770      	bx	lr

00000a3a <CLOCK_AttachClk>:
     a3a:	b089      	sub	sp, #36	; 0x24
     a3c:	9008      	str	r0, [sp, #32]
     a3e:	f1b0 4f00 	cmp.w	r0, #2147483648	; 0x80000000
     a42:	d045      	beq.n	ad0 <CLOCK_AttachClk+0x96>
     a44:	e7ff      	b.n	a46 <CLOCK_AttachClk+0xc>
     a46:	9908      	ldr	r1, [sp, #32]
     a48:	2000      	movs	r0, #0
     a4a:	9106      	str	r1, [sp, #24]
     a4c:	9007      	str	r0, [sp, #28]
     a4e:	e7ff      	b.n	a50 <CLOCK_AttachClk+0x16>
     a50:	9906      	ldr	r1, [sp, #24]
     a52:	9807      	ldr	r0, [sp, #28]
     a54:	9004      	str	r0, [sp, #16]
     a56:	9105      	str	r1, [sp, #20]
     a58:	2801      	cmp	r0, #1
     a5a:	d838      	bhi.n	ace <CLOCK_AttachClk+0x94>
     a5c:	e7ff      	b.n	a5e <CLOCK_AttachClk+0x24>
     a5e:	9805      	ldr	r0, [sp, #20]
     a60:	b908      	cbnz	r0, a66 <CLOCK_AttachClk+0x2c>
     a62:	e7ff      	b.n	a64 <CLOCK_AttachClk+0x2a>
     a64:	e033      	b.n	ace <CLOCK_AttachClk+0x94>
     a66:	9805      	ldr	r0, [sp, #20]
     a68:	f36f 301f 	bfc	r0, #12, #20
     a6c:	4601      	mov	r1, r0
     a6e:	9103      	str	r1, [sp, #12]
     a70:	b318      	cbz	r0, aba <CLOCK_AttachClk+0x80>
     a72:	e7ff      	b.n	a74 <CLOCK_AttachClk+0x3a>
     a74:	9903      	ldr	r1, [sp, #12]
     a76:	b2c8      	uxtb	r0, r1
     a78:	4602      	mov	r2, r0
     a7a:	9201      	str	r2, [sp, #4]
     a7c:	f401 6270 	and.w	r2, r1, #3840	; 0xf00
     a80:	f04f 31ff 	mov.w	r1, #4294967295	; 0xffffffff
     a84:	eb01 2112 	add.w	r1, r1, r2, lsr #8
     a88:	9102      	str	r1, [sp, #8]
     a8a:	283f      	cmp	r0, #63	; 0x3f
     a8c:	d109      	bne.n	aa2 <CLOCK_AttachClk+0x68>
     a8e:	e7ff      	b.n	a90 <CLOCK_AttachClk+0x56>
     a90:	9a02      	ldr	r2, [sp, #8]
     a92:	2198      	movs	r1, #152	; 0x98
     a94:	f2c4 0102 	movt	r1, #16386	; 0x4002
     a98:	6808      	ldr	r0, [r1, #0]
     a9a:	f362 0000 	bfi	r0, r2, #0, #1
     a9e:	6008      	str	r0, [r1, #0]
     aa0:	e00a      	b.n	ab8 <CLOCK_AttachClk+0x7e>
     aa2:	9901      	ldr	r1, [sp, #4]
     aa4:	9802      	ldr	r0, [sp, #8]
     aa6:	b2c0      	uxtb	r0, r0
     aa8:	b2ca      	uxtb	r2, r1
     aaa:	f240 2160 	movw	r1, #608	; 0x260
     aae:	f2c4 0100 	movt	r1, #16384	; 0x4000
     ab2:	f841 0022 	str.w	r0, [r1, r2, lsl #2]
     ab6:	e7ff      	b.n	ab8 <CLOCK_AttachClk+0x7e>
     ab8:	e7ff      	b.n	aba <CLOCK_AttachClk+0x80>
     aba:	9805      	ldr	r0, [sp, #20]
     abc:	0b00      	lsrs	r0, r0, #12
     abe:	9000      	str	r0, [sp, #0]
     ac0:	e7ff      	b.n	ac2 <CLOCK_AttachClk+0x88>
     ac2:	9900      	ldr	r1, [sp, #0]
     ac4:	9804      	ldr	r0, [sp, #16]
     ac6:	3001      	adds	r0, #1
     ac8:	9106      	str	r1, [sp, #24]
     aca:	9007      	str	r0, [sp, #28]
     acc:	e7c0      	b.n	a50 <CLOCK_AttachClk+0x16>
     ace:	e7ff      	b.n	ad0 <CLOCK_AttachClk+0x96>
     ad0:	b009      	add	sp, #36	; 0x24
     ad2:	4770      	bx	lr

00000ad4 <CLOCK_SetClkDiv>:
     ad4:	b083      	sub	sp, #12
     ad6:	9100      	str	r1, [sp, #0]
     ad8:	4601      	mov	r1, r0
     ada:	9101      	str	r1, [sp, #4]
     adc:	9202      	str	r2, [sp, #8]
     ade:	2808      	cmp	r0, #8
     ae0:	db12      	blt.n	b08 <CLOCK_SetClkDiv+0x34>
     ae2:	e7ff      	b.n	ae4 <CLOCK_SetClkDiv+0x10>
     ae4:	9801      	ldr	r0, [sp, #4]
     ae6:	b2c0      	uxtb	r0, r0
     ae8:	280f      	cmp	r0, #15
     aea:	dc0d      	bgt.n	b08 <CLOCK_SetClkDiv+0x34>
     aec:	e7ff      	b.n	aee <CLOCK_SetClkDiv+0x1a>
     aee:	9901      	ldr	r1, [sp, #4]
     af0:	9a00      	ldr	r2, [sp, #0]
     af2:	20ff      	movs	r0, #255	; 0xff
     af4:	f362 200f 	bfi	r0, r2, #8, #8
     af8:	b2ca      	uxtb	r2, r1
     afa:	f240 3100 	movw	r1, #768	; 0x300
     afe:	f2c4 0100 	movt	r1, #16384	; 0x4000
     b02:	f841 0022 	str.w	r0, [r1, r2, lsl #2]
     b06:	e028      	b.n	b5a <CLOCK_SetClkDiv+0x86>
     b08:	9802      	ldr	r0, [sp, #8]
     b0a:	07c0      	lsls	r0, r0, #31
     b0c:	b158      	cbz	r0, b26 <CLOCK_SetClkDiv+0x52>
     b0e:	e7ff      	b.n	b10 <CLOCK_SetClkDiv+0x3c>
     b10:	9801      	ldr	r0, [sp, #4]
     b12:	b2c2      	uxtb	r2, r0
     b14:	f240 3100 	movw	r1, #768	; 0x300
     b18:	f2c4 0100 	movt	r1, #16384	; 0x4000
     b1c:	f04f 5000 	mov.w	r0, #536870912	; 0x20000000
     b20:	f841 0022 	str.w	r0, [r1, r2, lsl #2]
     b24:	e7ff      	b.n	b26 <CLOCK_SetClkDiv+0x52>
     b26:	9800      	ldr	r0, [sp, #0]
     b28:	b958      	cbnz	r0, b42 <CLOCK_SetClkDiv+0x6e>
     b2a:	e7ff      	b.n	b2c <CLOCK_SetClkDiv+0x58>
     b2c:	9801      	ldr	r0, [sp, #4]
     b2e:	b2c2      	uxtb	r2, r0
     b30:	f240 3100 	movw	r1, #768	; 0x300
     b34:	f2c4 0100 	movt	r1, #16384	; 0x4000
     b38:	f04f 4080 	mov.w	r0, #1073741824	; 0x40000000
     b3c:	f841 0022 	str.w	r0, [r1, r2, lsl #2]
     b40:	e00a      	b.n	b58 <CLOCK_SetClkDiv+0x84>
     b42:	9901      	ldr	r1, [sp, #4]
     b44:	9800      	ldr	r0, [sp, #0]
     b46:	3801      	subs	r0, #1
     b48:	b2ca      	uxtb	r2, r1
     b4a:	f240 3100 	movw	r1, #768	; 0x300
     b4e:	f2c4 0100 	movt	r1, #16384	; 0x4000
     b52:	f841 0022 	str.w	r0, [r1, r2, lsl #2]
     b56:	e7ff      	b.n	b58 <CLOCK_SetClkDiv+0x84>
     b58:	e7ff      	b.n	b5a <CLOCK_SetClkDiv+0x86>
     b5a:	b003      	add	sp, #12
     b5c:	4770      	bx	lr

00000b5e <CLOCK_SetupFROClocking>:
     b5e:	b580      	push	{r7, lr}
     b60:	466f      	mov	r7, sp
     b62:	b082      	sub	sp, #8
     b64:	9001      	str	r0, [sp, #4]
     b66:	f641 3100 	movw	r1, #6912	; 0x1b00
     b6a:	f2c0 01b7 	movt	r1, #183	; 0xb7
     b6e:	4288      	cmp	r0, r1
     b70:	d013      	beq.n	b9a <CLOCK_SetupFROClocking+0x3c>
     b72:	e7ff      	b.n	b74 <CLOCK_SetupFROClocking+0x16>
     b74:	9801      	ldr	r0, [sp, #4]
     b76:	f646 4100 	movw	r1, #27648	; 0x6c00
     b7a:	f2c0 21dc 	movt	r1, #732	; 0x2dc
     b7e:	4288      	cmp	r0, r1
     b80:	d00b      	beq.n	b9a <CLOCK_SetupFROClocking+0x3c>
     b82:	e7ff      	b.n	b84 <CLOCK_SetupFROClocking+0x26>
     b84:	9801      	ldr	r0, [sp, #4]
     b86:	f64d 0100 	movw	r1, #55296	; 0xd800
     b8a:	f2c0 51b8 	movt	r1, #1464	; 0x5b8
     b8e:	4288      	cmp	r0, r1
     b90:	d003      	beq.n	b9a <CLOCK_SetupFROClocking+0x3c>
     b92:	e7ff      	b.n	b94 <CLOCK_SetupFROClocking+0x36>
     b94:	2001      	movs	r0, #1
     b96:	9000      	str	r0, [sp, #0]
     b98:	e02b      	b.n	bf2 <CLOCK_SetupFROClocking+0x94>
     b9a:	f240 1148 	movw	r1, #328	; 0x148
     b9e:	f2c4 0100 	movt	r1, #16384	; 0x4000
     ba2:	f04f 6000 	mov.w	r0, #134217728	; 0x8000000
     ba6:	6008      	str	r0, [r1, #0]
     ba8:	f240 2128 	movw	r1, #552	; 0x228
     bac:	f2c4 0100 	movt	r1, #16384	; 0x4000
     bb0:	6008      	str	r0, [r1, #0]
     bb2:	2020      	movs	r0, #32
     bb4:	f000 f820 	bl	bf8 <POWER_DisablePD>
     bb8:	9801      	ldr	r0, [sp, #4]
     bba:	f64d 0100 	movw	r1, #55296	; 0xd800
     bbe:	f2c0 51b8 	movt	r1, #1464	; 0x5b8
     bc2:	4288      	cmp	r0, r1
     bc4:	d109      	bne.n	bda <CLOCK_SetupFROClocking+0x7c>
     bc6:	e7ff      	b.n	bc8 <CLOCK_SetupFROClocking+0x6a>
     bc8:	f243 0110 	movw	r1, #12304	; 0x3010
     bcc:	f2c4 0101 	movt	r1, #16385	; 0x4001
     bd0:	6808      	ldr	r0, [r1, #0]
     bd2:	f040 4080 	orr.w	r0, r0, #1073741824	; 0x40000000
     bd6:	6008      	str	r0, [r1, #0]
     bd8:	e008      	b.n	bec <CLOCK_SetupFROClocking+0x8e>
     bda:	f243 0110 	movw	r1, #12304	; 0x3010
     bde:	f2c4 0101 	movt	r1, #16385	; 0x4001
     be2:	6808      	ldr	r0, [r1, #0]
     be4:	f440 4080 	orr.w	r0, r0, #16384	; 0x4000
     be8:	6008      	str	r0, [r1, #0]
     bea:	e7ff      	b.n	bec <CLOCK_SetupFROClocking+0x8e>
     bec:	2000      	movs	r0, #0
     bee:	9000      	str	r0, [sp, #0]
     bf0:	e7ff      	b.n	bf2 <CLOCK_SetupFROClocking+0x94>
     bf2:	9800      	ldr	r0, [sp, #0]
     bf4:	b002      	add	sp, #8
     bf6:	bd80      	pop	{r7, pc}

00000bf8 <POWER_DisablePD>:
     bf8:	21c8      	movs	r1, #200	; 0xc8
     bfa:	f2c4 0102 	movt	r1, #16386	; 0x4002
     bfe:	6008      	str	r0, [r1, #0]
     c00:	4770      	bx	lr

00000c02 <CLOCK_SetFLASHAccessCyclesForFreq>:
     c02:	b08f      	sub	sp, #60	; 0x3c
     c04:	900d      	str	r0, [sp, #52]	; 0x34
     c06:	f240 4100 	movw	r1, #1024	; 0x400
     c0a:	f2c4 0100 	movt	r1, #16384	; 0x4000
     c0e:	6809      	ldr	r1, [r1, #0]
     c10:	f001 0120 	and.w	r1, r1, #32
     c14:	910e      	str	r1, [sp, #56]	; 0x38
     c16:	f64d 01c0 	movw	r1, #55488	; 0xd8c0
     c1a:	f2c0 01a7 	movt	r1, #167	; 0xa7
     c1e:	4288      	cmp	r0, r1
     c20:	d803      	bhi.n	c2a <CLOCK_SetFLASHAccessCyclesForFreq+0x28>
     c22:	e7ff      	b.n	c24 <CLOCK_SetFLASHAccessCyclesForFreq+0x22>
     c24:	2000      	movs	r0, #0
     c26:	900c      	str	r0, [sp, #48]	; 0x30
     c28:	e09c      	b.n	d64 <CLOCK_SetFLASHAccessCyclesForFreq+0x162>
     c2a:	980d      	ldr	r0, [sp, #52]	; 0x34
     c2c:	f24b 1180 	movw	r1, #45440	; 0xb180
     c30:	f2c0 114f 	movt	r1, #335	; 0x14f
     c34:	4288      	cmp	r0, r1
     c36:	d803      	bhi.n	c40 <CLOCK_SetFLASHAccessCyclesForFreq+0x3e>
     c38:	e7ff      	b.n	c3a <CLOCK_SetFLASHAccessCyclesForFreq+0x38>
     c3a:	2001      	movs	r0, #1
     c3c:	900b      	str	r0, [sp, #44]	; 0x2c
     c3e:	e08e      	b.n	d5e <CLOCK_SetFLASHAccessCyclesForFreq+0x15c>
     c40:	980d      	ldr	r0, [sp, #52]	; 0x34
     c42:	f648 2140 	movw	r1, #35392	; 0x8a40
     c46:	f2c0 11f7 	movt	r1, #503	; 0x1f7
     c4a:	4288      	cmp	r0, r1
     c4c:	d803      	bhi.n	c56 <CLOCK_SetFLASHAccessCyclesForFreq+0x54>
     c4e:	e7ff      	b.n	c50 <CLOCK_SetFLASHAccessCyclesForFreq+0x4e>
     c50:	2002      	movs	r0, #2
     c52:	900a      	str	r0, [sp, #40]	; 0x28
     c54:	e080      	b.n	d58 <CLOCK_SetFLASHAccessCyclesForFreq+0x156>
     c56:	980d      	ldr	r0, [sp, #52]	; 0x34
     c58:	f246 3100 	movw	r1, #25344	; 0x6300
     c5c:	f2c0 219f 	movt	r1, #671	; 0x29f
     c60:	4288      	cmp	r0, r1
     c62:	d803      	bhi.n	c6c <CLOCK_SetFLASHAccessCyclesForFreq+0x6a>
     c64:	e7ff      	b.n	c66 <CLOCK_SetFLASHAccessCyclesForFreq+0x64>
     c66:	2003      	movs	r0, #3
     c68:	9009      	str	r0, [sp, #36]	; 0x24
     c6a:	e072      	b.n	d52 <CLOCK_SetFLASHAccessCyclesForFreq+0x150>
     c6c:	980d      	ldr	r0, [sp, #52]	; 0x34
     c6e:	f643 31c0 	movw	r1, #15296	; 0x3bc0
     c72:	f2c0 3147 	movt	r1, #839	; 0x347
     c76:	4288      	cmp	r0, r1
     c78:	d803      	bhi.n	c82 <CLOCK_SetFLASHAccessCyclesForFreq+0x80>
     c7a:	e7ff      	b.n	c7c <CLOCK_SetFLASHAccessCyclesForFreq+0x7a>
     c7c:	2004      	movs	r0, #4
     c7e:	9008      	str	r0, [sp, #32]
     c80:	e064      	b.n	d4c <CLOCK_SetFLASHAccessCyclesForFreq+0x14a>
     c82:	980d      	ldr	r0, [sp, #52]	; 0x34
     c84:	f241 4180 	movw	r1, #5248	; 0x1480
     c88:	f2c0 31ef 	movt	r1, #1007	; 0x3ef
     c8c:	4288      	cmp	r0, r1
     c8e:	d803      	bhi.n	c98 <CLOCK_SetFLASHAccessCyclesForFreq+0x96>
     c90:	e7ff      	b.n	c92 <CLOCK_SetFLASHAccessCyclesForFreq+0x90>
     c92:	2005      	movs	r0, #5
     c94:	9007      	str	r0, [sp, #28]
     c96:	e056      	b.n	d46 <CLOCK_SetFLASHAccessCyclesForFreq+0x144>
     c98:	980d      	ldr	r0, [sp, #52]	; 0x34
     c9a:	f64e 5140 	movw	r1, #60736	; 0xed40
     c9e:	f2c0 4196 	movt	r1, #1174	; 0x496
     ca2:	4288      	cmp	r0, r1
     ca4:	d803      	bhi.n	cae <CLOCK_SetFLASHAccessCyclesForFreq+0xac>
     ca6:	e7ff      	b.n	ca8 <CLOCK_SetFLASHAccessCyclesForFreq+0xa6>
     ca8:	2006      	movs	r0, #6
     caa:	9006      	str	r0, [sp, #24]
     cac:	e048      	b.n	d40 <CLOCK_SetFLASHAccessCyclesForFreq+0x13e>
     cae:	980d      	ldr	r0, [sp, #52]	; 0x34
     cb0:	f24c 6100 	movw	r1, #50688	; 0xc600
     cb4:	f2c0 513e 	movt	r1, #1342	; 0x53e
     cb8:	4288      	cmp	r0, r1
     cba:	d803      	bhi.n	cc4 <CLOCK_SetFLASHAccessCyclesForFreq+0xc2>
     cbc:	e7ff      	b.n	cbe <CLOCK_SetFLASHAccessCyclesForFreq+0xbc>
     cbe:	2007      	movs	r0, #7
     cc0:	9005      	str	r0, [sp, #20]
     cc2:	e03a      	b.n	d3a <CLOCK_SetFLASHAccessCyclesForFreq+0x138>
     cc4:	980d      	ldr	r0, [sp, #52]	; 0x34
     cc6:	f24e 1100 	movw	r1, #57600	; 0xe100
     cca:	f2c0 51f5 	movt	r1, #1525	; 0x5f5
     cce:	4288      	cmp	r0, r1
     cd0:	d803      	bhi.n	cda <CLOCK_SetFLASHAccessCyclesForFreq+0xd8>
     cd2:	e7ff      	b.n	cd4 <CLOCK_SetFLASHAccessCyclesForFreq+0xd2>
     cd4:	2008      	movs	r0, #8
     cd6:	9004      	str	r0, [sp, #16]
     cd8:	e02c      	b.n	d34 <CLOCK_SetFLASHAccessCyclesForFreq+0x132>
     cda:	980d      	ldr	r0, [sp, #52]	; 0x34
     cdc:	f24c 21c0 	movw	r1, #49856	; 0xc2c0
     ce0:	f2c0 61da 	movt	r1, #1754	; 0x6da
     ce4:	4288      	cmp	r0, r1
     ce6:	d803      	bhi.n	cf0 <CLOCK_SetFLASHAccessCyclesForFreq+0xee>
     ce8:	e7ff      	b.n	cea <CLOCK_SetFLASHAccessCyclesForFreq+0xe8>
     cea:	2009      	movs	r0, #9
     cec:	9003      	str	r0, [sp, #12]
     cee:	e01e      	b.n	d2e <CLOCK_SetFLASHAccessCyclesForFreq+0x12c>
     cf0:	980d      	ldr	r0, [sp, #52]	; 0x34
     cf2:	f24a 4180 	movw	r1, #42112	; 0xa480
     cf6:	f2c0 71bf 	movt	r1, #1983	; 0x7bf
     cfa:	4288      	cmp	r0, r1
     cfc:	d803      	bhi.n	d06 <CLOCK_SetFLASHAccessCyclesForFreq+0x104>
     cfe:	e7ff      	b.n	d00 <CLOCK_SetFLASHAccessCyclesForFreq+0xfe>
     d00:	200a      	movs	r0, #10
     d02:	9002      	str	r0, [sp, #8]
     d04:	e010      	b.n	d28 <CLOCK_SetFLASHAccessCyclesForFreq+0x126>
     d06:	980d      	ldr	r0, [sp, #52]	; 0x34
     d08:	f24d 1180 	movw	r1, #53632	; 0xd180
     d0c:	f6c0 01f0 	movt	r1, #2288	; 0x8f0
     d10:	4288      	cmp	r0, r1
     d12:	d803      	bhi.n	d1c <CLOCK_SetFLASHAccessCyclesForFreq+0x11a>
     d14:	e7ff      	b.n	d16 <CLOCK_SetFLASHAccessCyclesForFreq+0x114>
     d16:	200b      	movs	r0, #11
     d18:	9001      	str	r0, [sp, #4]
     d1a:	e002      	b.n	d22 <CLOCK_SetFLASHAccessCyclesForFreq+0x120>
     d1c:	200c      	movs	r0, #12
     d1e:	9001      	str	r0, [sp, #4]
     d20:	e7ff      	b.n	d22 <CLOCK_SetFLASHAccessCyclesForFreq+0x120>
     d22:	9801      	ldr	r0, [sp, #4]
     d24:	9002      	str	r0, [sp, #8]
     d26:	e7ff      	b.n	d28 <CLOCK_SetFLASHAccessCyclesForFreq+0x126>
     d28:	9802      	ldr	r0, [sp, #8]
     d2a:	9003      	str	r0, [sp, #12]
     d2c:	e7ff      	b.n	d2e <CLOCK_SetFLASHAccessCyclesForFreq+0x12c>
     d2e:	9803      	ldr	r0, [sp, #12]
     d30:	9004      	str	r0, [sp, #16]
     d32:	e7ff      	b.n	d34 <CLOCK_SetFLASHAccessCyclesForFreq+0x132>
     d34:	9804      	ldr	r0, [sp, #16]
     d36:	9005      	str	r0, [sp, #20]
     d38:	e7ff      	b.n	d3a <CLOCK_SetFLASHAccessCyclesForFreq+0x138>
     d3a:	9805      	ldr	r0, [sp, #20]
     d3c:	9006      	str	r0, [sp, #24]
     d3e:	e7ff      	b.n	d40 <CLOCK_SetFLASHAccessCyclesForFreq+0x13e>
     d40:	9806      	ldr	r0, [sp, #24]
     d42:	9007      	str	r0, [sp, #28]
     d44:	e7ff      	b.n	d46 <CLOCK_SetFLASHAccessCyclesForFreq+0x144>
     d46:	9807      	ldr	r0, [sp, #28]
     d48:	9008      	str	r0, [sp, #32]
     d4a:	e7ff      	b.n	d4c <CLOCK_SetFLASHAccessCyclesForFreq+0x14a>
     d4c:	9808      	ldr	r0, [sp, #32]
     d4e:	9009      	str	r0, [sp, #36]	; 0x24
     d50:	e7ff      	b.n	d52 <CLOCK_SetFLASHAccessCyclesForFreq+0x150>
     d52:	9809      	ldr	r0, [sp, #36]	; 0x24
     d54:	900a      	str	r0, [sp, #40]	; 0x28
     d56:	e7ff      	b.n	d58 <CLOCK_SetFLASHAccessCyclesForFreq+0x156>
     d58:	980a      	ldr	r0, [sp, #40]	; 0x28
     d5a:	900b      	str	r0, [sp, #44]	; 0x2c
     d5c:	e7ff      	b.n	d5e <CLOCK_SetFLASHAccessCyclesForFreq+0x15c>
     d5e:	980b      	ldr	r0, [sp, #44]	; 0x2c
     d60:	900c      	str	r0, [sp, #48]	; 0x30
     d62:	e7ff      	b.n	d64 <CLOCK_SetFLASHAccessCyclesForFreq+0x162>
     d64:	9a0c      	ldr	r2, [sp, #48]	; 0x30
     d66:	9200      	str	r2, [sp, #0]
     d68:	f240 4100 	movw	r1, #1024	; 0x400
     d6c:	f2c4 0100 	movt	r1, #16384	; 0x4000
     d70:	6808      	ldr	r0, [r1, #0]
     d72:	f020 0020 	bic.w	r0, r0, #32
     d76:	6008      	str	r0, [r1, #0]
     d78:	f644 71e8 	movw	r1, #20456	; 0x4fe8
     d7c:	f2c4 0103 	movt	r1, #16387	; 0x4003
     d80:	201f      	movs	r0, #31
     d82:	6008      	str	r0, [r1, #0]
     d84:	f244 0180 	movw	r1, #16512	; 0x4080
     d88:	f2c4 0103 	movt	r1, #16387	; 0x4003
     d8c:	6808      	ldr	r0, [r1, #0]
     d8e:	f362 0003 	bfi	r0, r2, #0, #4
     d92:	6008      	str	r0, [r1, #0]
     d94:	f244 0100 	movw	r1, #16384	; 0x4000
     d98:	f2c4 0103 	movt	r1, #16387	; 0x4003
     d9c:	2002      	movs	r0, #2
     d9e:	6008      	str	r0, [r1, #0]
     da0:	e7ff      	b.n	da2 <CLOCK_SetFLASHAccessCyclesForFreq+0x1a0>
     da2:	f644 70e0 	movw	r0, #20448	; 0x4fe0
     da6:	f2c4 0003 	movt	r0, #16387	; 0x4003
     daa:	6800      	ldr	r0, [r0, #0]
     dac:	0740      	lsls	r0, r0, #29
     dae:	2800      	cmp	r0, #0
     db0:	d401      	bmi.n	db6 <CLOCK_SetFLASHAccessCyclesForFreq+0x1b4>
     db2:	e7ff      	b.n	db4 <CLOCK_SetFLASHAccessCyclesForFreq+0x1b2>
     db4:	e7f5      	b.n	da2 <CLOCK_SetFLASHAccessCyclesForFreq+0x1a0>
     db6:	9a0e      	ldr	r2, [sp, #56]	; 0x38
     db8:	9b00      	ldr	r3, [sp, #0]
     dba:	f240 4100 	movw	r1, #1024	; 0x400
     dbe:	f2c4 0100 	movt	r1, #16384	; 0x4000
     dc2:	6808      	ldr	r0, [r1, #0]
     dc4:	f363 300f 	bfi	r0, r3, #12, #4
     dc8:	6008      	str	r0, [r1, #0]
     dca:	6808      	ldr	r0, [r1, #0]
     dcc:	4310      	orrs	r0, r2
     dce:	6008      	str	r0, [r1, #0]
     dd0:	b00f      	add	sp, #60	; 0x3c
     dd2:	4770      	bx	lr

00000dd4 <CLOCK_SetupExtClocking>:
     dd4:	b580      	push	{r7, lr}
     dd6:	466f      	mov	r7, sp
     dd8:	b082      	sub	sp, #8
     dda:	9001      	str	r0, [sp, #4]
     ddc:	f644 0101 	movw	r1, #18433	; 0x4801
     de0:	f2c0 11e8 	movt	r1, #488	; 0x1e8
     de4:	4288      	cmp	r0, r1
     de6:	d303      	bcc.n	df0 <CLOCK_SetupExtClocking+0x1c>
     de8:	e7ff      	b.n	dea <CLOCK_SetupExtClocking+0x16>
     dea:	2001      	movs	r0, #1
     dec:	9000      	str	r0, [sp, #0]
     dee:	e022      	b.n	e36 <CLOCK_SetupExtClocking+0x62>
     df0:	f44f 7080 	mov.w	r0, #256	; 0x100
     df4:	f7ff ff00 	bl	bf8 <POWER_DisablePD>
     df8:	f44f 1080 	mov.w	r0, #1048576	; 0x100000
     dfc:	f7ff fefc 	bl	bf8 <POWER_DisablePD>
     e00:	f640 2118 	movw	r1, #2584	; 0xa18
     e04:	f2c4 0100 	movt	r1, #16384	; 0x4000
     e08:	6808      	ldr	r0, [r1, #0]
     e0a:	f040 0020 	orr.w	r0, r0, #32
     e0e:	6008      	str	r0, [r1, #0]
     e10:	e7ff      	b.n	e12 <CLOCK_SetupExtClocking+0x3e>
     e12:	f243 0024 	movw	r0, #12324	; 0x3024
     e16:	f2c4 0001 	movt	r0, #16385	; 0x4001
     e1a:	6800      	ldr	r0, [r0, #0]
     e1c:	07c0      	lsls	r0, r0, #31
     e1e:	b908      	cbnz	r0, e24 <CLOCK_SetupExtClocking+0x50>
     e20:	e7ff      	b.n	e22 <CLOCK_SetupExtClocking+0x4e>
     e22:	e7f6      	b.n	e12 <CLOCK_SetupExtClocking+0x3e>
     e24:	9801      	ldr	r0, [sp, #4]
     e26:	f240 0104 	movw	r1, #4
     e2a:	f2c2 0100 	movt	r1, #8192	; 0x2000
     e2e:	6008      	str	r0, [r1, #0]
     e30:	2000      	movs	r0, #0
     e32:	9000      	str	r0, [sp, #0]
     e34:	e7ff      	b.n	e36 <CLOCK_SetupExtClocking+0x62>
     e36:	9800      	ldr	r0, [sp, #0]
     e38:	b002      	add	sp, #8
     e3a:	bd80      	pop	{r7, pc}

00000e3c <CLOCK_GetExtClkFreq>:
     e3c:	b081      	sub	sp, #4
     e3e:	f243 0020 	movw	r0, #12320	; 0x3020
     e42:	f2c4 0001 	movt	r0, #16385	; 0x4001
     e46:	6800      	ldr	r0, [r0, #0]
     e48:	01c0      	lsls	r0, r0, #7
     e4a:	2800      	cmp	r0, #0
     e4c:	d507      	bpl.n	e5e <CLOCK_GetExtClkFreq+0x22>
     e4e:	e7ff      	b.n	e50 <CLOCK_GetExtClkFreq+0x14>
     e50:	f240 0004 	movw	r0, #4
     e54:	f2c2 0000 	movt	r0, #8192	; 0x2000
     e58:	6800      	ldr	r0, [r0, #0]
     e5a:	9000      	str	r0, [sp, #0]
     e5c:	e002      	b.n	e64 <CLOCK_GetExtClkFreq+0x28>
     e5e:	2000      	movs	r0, #0
     e60:	9000      	str	r0, [sp, #0]
     e62:	e7ff      	b.n	e64 <CLOCK_GetExtClkFreq+0x28>
     e64:	9800      	ldr	r0, [sp, #0]
     e66:	b001      	add	sp, #4
     e68:	4770      	bx	lr

00000e6a <CLOCK_GetFro1MFreq>:
     e6a:	f640 2018 	movw	r0, #2584	; 0xa18
     e6e:	f2c4 0000 	movt	r0, #16384	; 0x4000
     e72:	6800      	ldr	r0, [r0, #0]
     e74:	f000 0040 	and.w	r0, r0, #64	; 0x40
     e78:	2800      	cmp	r0, #0
     e7a:	bf1c      	itt	ne
     e7c:	f244 2040 	movwne	r0, #16960	; 0x4240
     e80:	f2c0 000f 	movtne	r0, #15
     e84:	4770      	bx	lr

00000e86 <CLOCK_GetOsc32KFreq>:
     e86:	b082      	sub	sp, #8
     e88:	20b8      	movs	r0, #184	; 0xb8
     e8a:	f2c4 0002 	movt	r0, #16386	; 0x4002
     e8e:	6800      	ldr	r0, [r0, #0]
     e90:	0640      	lsls	r0, r0, #25
     e92:	2800      	cmp	r0, #0
     e94:	d40b      	bmi.n	eae <CLOCK_GetOsc32KFreq+0x28>
     e96:	e7ff      	b.n	e98 <CLOCK_GetOsc32KFreq+0x12>
     e98:	2098      	movs	r0, #152	; 0x98
     e9a:	f2c4 0002 	movt	r0, #16386	; 0x4002
     e9e:	6800      	ldr	r0, [r0, #0]
     ea0:	07c0      	lsls	r0, r0, #31
     ea2:	b920      	cbnz	r0, eae <CLOCK_GetOsc32KFreq+0x28>
     ea4:	e7ff      	b.n	ea6 <CLOCK_GetOsc32KFreq+0x20>
     ea6:	f44f 4000 	mov.w	r0, #32768	; 0x8000
     eaa:	9001      	str	r0, [sp, #4]
     eac:	e01a      	b.n	ee4 <CLOCK_GetOsc32KFreq+0x5e>
     eae:	20b8      	movs	r0, #184	; 0xb8
     eb0:	f2c4 0002 	movt	r0, #16386	; 0x4002
     eb4:	6801      	ldr	r1, [r0, #0]
     eb6:	2000      	movs	r0, #0
     eb8:	0609      	lsls	r1, r1, #24
     eba:	2900      	cmp	r1, #0
     ebc:	9000      	str	r0, [sp, #0]
     ebe:	d408      	bmi.n	ed2 <CLOCK_GetOsc32KFreq+0x4c>
     ec0:	e7ff      	b.n	ec2 <CLOCK_GetOsc32KFreq+0x3c>
     ec2:	2098      	movs	r0, #152	; 0x98
     ec4:	f2c4 0002 	movt	r0, #16386	; 0x4002
     ec8:	6800      	ldr	r0, [r0, #0]
     eca:	f000 0001 	and.w	r0, r0, #1
     ece:	9000      	str	r0, [sp, #0]
     ed0:	e7ff      	b.n	ed2 <CLOCK_GetOsc32KFreq+0x4c>
     ed2:	9800      	ldr	r0, [sp, #0]
     ed4:	f000 0001 	and.w	r0, r0, #1
     ed8:	2800      	cmp	r0, #0
     eda:	bf18      	it	ne
     edc:	f44f 4000 	movne.w	r0, #32768	; 0x8000
     ee0:	9001      	str	r0, [sp, #4]
     ee2:	e7ff      	b.n	ee4 <CLOCK_GetOsc32KFreq+0x5e>
     ee4:	9801      	ldr	r0, [sp, #4]
     ee6:	b002      	add	sp, #8
     ee8:	4770      	bx	lr
	...

00000eec <CLOCK_GetPLL0InClockRate>:
     eec:	b580      	push	{r7, lr}
     eee:	466f      	mov	r7, sp
     ef0:	b082      	sub	sp, #8
     ef2:	f240 2090 	movw	r0, #656	; 0x290
     ef6:	f2c4 0000 	movt	r0, #16384	; 0x4000
     efa:	6800      	ldr	r0, [r0, #0]
     efc:	f000 0007 	and.w	r0, r0, #7
     f00:	4601      	mov	r1, r0
     f02:	9101      	str	r1, [sp, #4]
     f04:	2803      	cmp	r0, #3
     f06:	d816      	bhi.n	f36 <CLOCK_GetPLL0InClockRate+0x4a>
     f08:	9901      	ldr	r1, [sp, #4]
     f0a:	e8df f001 	tbb	[pc, r1]
     f0e:	0802      	.short	0x0802
     f10:	100c      	.short	0x100c
     f12:	f641 3000 	movw	r0, #6912	; 0x1b00
     f16:	f2c0 00b7 	movt	r0, #183	; 0xb7
     f1a:	9000      	str	r0, [sp, #0]
     f1c:	e00e      	b.n	f3c <CLOCK_GetPLL0InClockRate+0x50>
     f1e:	f7ff ff8d 	bl	e3c <CLOCK_GetExtClkFreq>
     f22:	9000      	str	r0, [sp, #0]
     f24:	e00a      	b.n	f3c <CLOCK_GetPLL0InClockRate+0x50>
     f26:	f7ff ffa0 	bl	e6a <CLOCK_GetFro1MFreq>
     f2a:	9000      	str	r0, [sp, #0]
     f2c:	e006      	b.n	f3c <CLOCK_GetPLL0InClockRate+0x50>
     f2e:	f7ff ffaa 	bl	e86 <CLOCK_GetOsc32KFreq>
     f32:	9000      	str	r0, [sp, #0]
     f34:	e002      	b.n	f3c <CLOCK_GetPLL0InClockRate+0x50>
     f36:	2000      	movs	r0, #0
     f38:	9000      	str	r0, [sp, #0]
     f3a:	e7ff      	b.n	f3c <CLOCK_GetPLL0InClockRate+0x50>
     f3c:	9800      	ldr	r0, [sp, #0]
     f3e:	b002      	add	sp, #8
     f40:	bd80      	pop	{r7, pc}

00000f42 <findPll0PreDiv>:
     f42:	b082      	sub	sp, #8
     f44:	f240 5080 	movw	r0, #1408	; 0x580
     f48:	f2c4 0000 	movt	r0, #16384	; 0x4000
     f4c:	6801      	ldr	r1, [r0, #0]
     f4e:	2001      	movs	r0, #1
     f50:	0309      	lsls	r1, r1, #12
     f52:	2900      	cmp	r1, #0
     f54:	9001      	str	r0, [sp, #4]
     f56:	d410      	bmi.n	f7a <findPll0PreDiv+0x38>
     f58:	e7ff      	b.n	f5a <findPll0PreDiv+0x18>
     f5a:	f240 5088 	movw	r0, #1416	; 0x588
     f5e:	f2c4 0000 	movt	r0, #16384	; 0x4000
     f62:	6800      	ldr	r0, [r0, #0]
     f64:	b2c1      	uxtb	r1, r0
     f66:	4608      	mov	r0, r1
     f68:	9000      	str	r0, [sp, #0]
     f6a:	b919      	cbnz	r1, f74 <findPll0PreDiv+0x32>
     f6c:	e7ff      	b.n	f6e <findPll0PreDiv+0x2c>
     f6e:	2001      	movs	r0, #1
     f70:	9000      	str	r0, [sp, #0]
     f72:	e7ff      	b.n	f74 <findPll0PreDiv+0x32>
     f74:	9800      	ldr	r0, [sp, #0]
     f76:	9001      	str	r0, [sp, #4]
     f78:	e7ff      	b.n	f7a <findPll0PreDiv+0x38>
     f7a:	9801      	ldr	r0, [sp, #4]
     f7c:	b002      	add	sp, #8
     f7e:	4770      	bx	lr

00000f80 <POWER_EnablePD>:
     f80:	21c0      	movs	r1, #192	; 0xc0
     f82:	f2c4 0102 	movt	r1, #16386	; 0x4002
     f86:	6008      	str	r0, [r1, #0]
     f88:	4770      	bx	lr

00000f8a <CLOCK_IsPLL0Locked>:
     f8a:	f240 5084 	movw	r0, #1412	; 0x584
     f8e:	f2c4 0000 	movt	r0, #16384	; 0x4000
     f92:	6800      	ldr	r0, [r0, #0]
     f94:	f000 0001 	and.w	r0, r0, #1
     f98:	4770      	bx	lr

00000f9a <CLOCK_SetPLL0Freq>:
     f9a:	b580      	push	{r7, lr}
     f9c:	466f      	mov	r7, sp
     f9e:	b08a      	sub	sp, #40	; 0x28
     fa0:	9009      	str	r0, [sp, #36]	; 0x24
     fa2:	f44f 7000 	mov.w	r0, #512	; 0x200
     fa6:	9007      	str	r0, [sp, #28]
     fa8:	f7ff ffea 	bl	f80 <POWER_EnablePD>
     fac:	f44f 0000 	mov.w	r0, #8388608	; 0x800000
     fb0:	9008      	str	r0, [sp, #32]
     fb2:	f7ff ffe5 	bl	f80 <POWER_EnablePD>
     fb6:	9807      	ldr	r0, [sp, #28]
     fb8:	9909      	ldr	r1, [sp, #36]	; 0x24
     fba:	680a      	ldr	r2, [r1, #0]
     fbc:	f240 5380 	movw	r3, #1408	; 0x580
     fc0:	f2c4 0300 	movt	r3, #16384	; 0x4000
     fc4:	601a      	str	r2, [r3, #0]
     fc6:	684a      	ldr	r2, [r1, #4]
     fc8:	f240 5388 	movw	r3, #1416	; 0x588
     fcc:	f2c4 0300 	movt	r3, #16384	; 0x4000
     fd0:	601a      	str	r2, [r3, #0]
     fd2:	684a      	ldr	r2, [r1, #4]
     fd4:	f442 7280 	orr.w	r2, r2, #256	; 0x100
     fd8:	601a      	str	r2, [r3, #0]
     fda:	688a      	ldr	r2, [r1, #8]
     fdc:	f240 538c 	movw	r3, #1420	; 0x58c
     fe0:	f2c4 0300 	movt	r3, #16384	; 0x4000
     fe4:	601a      	str	r2, [r3, #0]
     fe6:	688a      	ldr	r2, [r1, #8]
     fe8:	f042 0220 	orr.w	r2, r2, #32
     fec:	601a      	str	r2, [r3, #0]
     fee:	690a      	ldr	r2, [r1, #16]
     ff0:	f240 5390 	movw	r3, #1424	; 0x590
     ff4:	f2c4 0300 	movt	r3, #16384	; 0x4000
     ff8:	601a      	str	r2, [r3, #0]
     ffa:	694b      	ldr	r3, [r1, #20]
     ffc:	f240 5294 	movw	r2, #1428	; 0x594
    1000:	f2c4 0200 	movt	r2, #16384	; 0x4000
    1004:	6013      	str	r3, [r2, #0]
    1006:	6949      	ldr	r1, [r1, #20]
    1008:	2302      	movs	r3, #2
    100a:	f2c0 4300 	movt	r3, #1024	; 0x400
    100e:	4319      	orrs	r1, r3
    1010:	6011      	str	r1, [r2, #0]
    1012:	f7ff fdf1 	bl	bf8 <POWER_DisablePD>
    1016:	9808      	ldr	r0, [sp, #32]
    1018:	f7ff fdee 	bl	bf8 <POWER_DisablePD>
    101c:	9809      	ldr	r0, [sp, #36]	; 0x24
    101e:	7f00      	ldrb	r0, [r0, #28]
    1020:	0780      	lsls	r0, r0, #30
    1022:	2800      	cmp	r0, #0
    1024:	d55b      	bpl.n	10de <CLOCK_SetPLL0Freq+0x144>
    1026:	e7ff      	b.n	1028 <CLOCK_SetPLL0Freq+0x8e>
    1028:	f240 5094 	movw	r0, #1428	; 0x594
    102c:	f2c4 0000 	movt	r0, #16384	; 0x4000
    1030:	6800      	ldr	r0, [r0, #0]
    1032:	00c0      	lsls	r0, r0, #3
    1034:	2800      	cmp	r0, #0
    1036:	d548      	bpl.n	10ca <CLOCK_SetPLL0Freq+0x130>
    1038:	e7ff      	b.n	103a <CLOCK_SetPLL0Freq+0xa0>
    103a:	f7ff ff57 	bl	eec <CLOCK_GetPLL0InClockRate>
    103e:	9005      	str	r0, [sp, #20]
    1040:	f7ff ff7f 	bl	f42 <findPll0PreDiv>
    1044:	4601      	mov	r1, r0
    1046:	9805      	ldr	r0, [sp, #20]
    1048:	fbb0 f0f1 	udiv	r0, r0, r1
    104c:	f248 4100 	movw	r1, #33792	; 0x8400
    1050:	f2c1 71d7 	movt	r1, #6103	; 0x17d7
    1054:	fbb1 f1f0 	udiv	r1, r1, r0
    1058:	f501 71fa 	add.w	r1, r1, #500	; 0x1f4
    105c:	9106      	str	r1, [sp, #24]
    105e:	f642 41ff 	movw	r1, #11519	; 0x2cff
    1062:	f2c0 1131 	movt	r1, #305	; 0x131
    1066:	4288      	cmp	r0, r1
    1068:	d826      	bhi.n	10b8 <CLOCK_SetPLL0Freq+0x11e>
    106a:	e7ff      	b.n	106c <CLOCK_SetPLL0Freq+0xd2>
    106c:	2000      	movs	r0, #0
    106e:	9004      	str	r0, [sp, #16]
    1070:	e7ff      	b.n	1072 <CLOCK_SetPLL0Freq+0xd8>
    1072:	9804      	ldr	r0, [sp, #16]
    1074:	9002      	str	r0, [sp, #8]
    1076:	f7ff ff88 	bl	f8a <CLOCK_IsPLL0Locked>
    107a:	4601      	mov	r1, r0
    107c:	2000      	movs	r0, #0
    107e:	9003      	str	r0, [sp, #12]
    1080:	b941      	cbnz	r1, 1094 <CLOCK_SetPLL0Freq+0xfa>
    1082:	e7ff      	b.n	1084 <CLOCK_SetPLL0Freq+0xea>
    1084:	9902      	ldr	r1, [sp, #8]
    1086:	9a06      	ldr	r2, [sp, #24]
    1088:	2000      	movs	r0, #0
    108a:	4291      	cmp	r1, r2
    108c:	bf38      	it	cc
    108e:	2001      	movcc	r0, #1
    1090:	9003      	str	r0, [sp, #12]
    1092:	e7ff      	b.n	1094 <CLOCK_SetPLL0Freq+0xfa>
    1094:	9803      	ldr	r0, [sp, #12]
    1096:	07c0      	lsls	r0, r0, #31
    1098:	b168      	cbz	r0, 10b6 <CLOCK_SetPLL0Freq+0x11c>
    109a:	e7ff      	b.n	109c <CLOCK_SetPLL0Freq+0x102>
    109c:	9802      	ldr	r0, [sp, #8]
    109e:	3064      	adds	r0, #100	; 0x64
    10a0:	9001      	str	r0, [sp, #4]
    10a2:	2064      	movs	r0, #100	; 0x64
    10a4:	f24d 1180 	movw	r1, #53632	; 0xd180
    10a8:	f6c0 01f0 	movt	r1, #2288	; 0x8f0
    10ac:	f7ff fc8e 	bl	9cc <SDK_DelayAtLeastUs>
    10b0:	9801      	ldr	r0, [sp, #4]
    10b2:	9004      	str	r0, [sp, #16]
    10b4:	e7dd      	b.n	1072 <CLOCK_SetPLL0Freq+0xd8>
    10b6:	e007      	b.n	10c8 <CLOCK_SetPLL0Freq+0x12e>
    10b8:	9806      	ldr	r0, [sp, #24]
    10ba:	f24d 1180 	movw	r1, #53632	; 0xd180
    10be:	f6c0 01f0 	movt	r1, #2288	; 0x8f0
    10c2:	f7ff fc83 	bl	9cc <SDK_DelayAtLeastUs>
    10c6:	e7ff      	b.n	10c8 <CLOCK_SetPLL0Freq+0x12e>
    10c8:	e008      	b.n	10dc <CLOCK_SetPLL0Freq+0x142>
    10ca:	f241 7070 	movw	r0, #6000	; 0x1770
    10ce:	f24d 1180 	movw	r1, #53632	; 0xd180
    10d2:	f6c0 01f0 	movt	r1, #2288	; 0x8f0
    10d6:	f7ff fc79 	bl	9cc <SDK_DelayAtLeastUs>
    10da:	e7ff      	b.n	10dc <CLOCK_SetPLL0Freq+0x142>
    10dc:	e7ff      	b.n	10de <CLOCK_SetPLL0Freq+0x144>
    10de:	9809      	ldr	r0, [sp, #36]	; 0x24
    10e0:	6980      	ldr	r0, [r0, #24]
    10e2:	f640 11d4 	movw	r1, #2516	; 0x9d4
    10e6:	f2c2 0100 	movt	r1, #8192	; 0x2000
    10ea:	6008      	str	r0, [r1, #0]
    10ec:	2000      	movs	r0, #0
    10ee:	b00a      	add	sp, #40	; 0x28
    10f0:	bd80      	pop	{r7, pc}

000010f2 <POWER_SetVoltageForFreq>:
    10f2:	b580      	push	{r7, lr}
    10f4:	466f      	mov	r7, sp
    10f6:	b084      	sub	sp, #16
    10f8:	9003      	str	r0, [sp, #12]
    10fa:	f24e 1100 	movw	r1, #57600	; 0xe100
    10fe:	f2c0 51f5 	movt	r1, #1525	; 0x5f5
    1102:	4288      	cmp	r0, r1
    1104:	d808      	bhi.n	1118 <POWER_SetVoltageForFreq+0x26>
    1106:	e7ff      	b.n	1108 <POWER_SetVoltageForFreq+0x16>
    1108:	2000      	movs	r0, #0
    110a:	9002      	str	r0, [sp, #8]
    110c:	f000 f81f 	bl	114e <lowpower_set_dcdc_power_profile>
    1110:	9802      	ldr	r0, [sp, #8]
    1112:	f000 f890 	bl	1236 <lowpower_set_voltage_for_process>
    1116:	e018      	b.n	114a <POWER_SetVoltageForFreq+0x58>
    1118:	9803      	ldr	r0, [sp, #12]
    111a:	f24a 4180 	movw	r1, #42112	; 0xa480
    111e:	f2c0 71bf 	movt	r1, #1983	; 0x7bf
    1122:	4288      	cmp	r0, r1
    1124:	d808      	bhi.n	1138 <POWER_SetVoltageForFreq+0x46>
    1126:	e7ff      	b.n	1128 <POWER_SetVoltageForFreq+0x36>
    1128:	2001      	movs	r0, #1
    112a:	9001      	str	r0, [sp, #4]
    112c:	f000 f80f 	bl	114e <lowpower_set_dcdc_power_profile>
    1130:	9801      	ldr	r0, [sp, #4]
    1132:	f000 f880 	bl	1236 <lowpower_set_voltage_for_process>
    1136:	e007      	b.n	1148 <POWER_SetVoltageForFreq+0x56>
    1138:	2002      	movs	r0, #2
    113a:	9000      	str	r0, [sp, #0]
    113c:	f000 f807 	bl	114e <lowpower_set_dcdc_power_profile>
    1140:	9800      	ldr	r0, [sp, #0]
    1142:	f000 f878 	bl	1236 <lowpower_set_voltage_for_process>
    1146:	e7ff      	b.n	1148 <POWER_SetVoltageForFreq+0x56>
    1148:	e7ff      	b.n	114a <POWER_SetVoltageForFreq+0x58>
    114a:	b004      	add	sp, #16
    114c:	bd80      	pop	{r7, pc}

0000114e <lowpower_set_dcdc_power_profile>:
    114e:	b087      	sub	sp, #28
    1150:	4601      	mov	r1, r0
    1152:	9106      	str	r1, [sp, #24]
    1154:	b140      	cbz	r0, 1168 <lowpower_set_dcdc_power_profile+0x1a>
    1156:	e7ff      	b.n	1158 <lowpower_set_dcdc_power_profile+0xa>
    1158:	9806      	ldr	r0, [sp, #24]
    115a:	2801      	cmp	r0, #1
    115c:	d020      	beq.n	11a0 <lowpower_set_dcdc_power_profile+0x52>
    115e:	e7ff      	b.n	1160 <lowpower_set_dcdc_power_profile+0x12>
    1160:	9806      	ldr	r0, [sp, #24]
    1162:	2802      	cmp	r0, #2
    1164:	d038      	beq.n	11d8 <lowpower_set_dcdc_power_profile+0x8a>
    1166:	e053      	b.n	1210 <lowpower_set_dcdc_power_profile+0xc2>
    1168:	f64f 40e0 	movw	r0, #64736	; 0xfce0
    116c:	f2c0 0009 	movt	r0, #9
    1170:	6800      	ldr	r0, [r0, #0]
    1172:	9004      	str	r0, [sp, #16]
    1174:	f64f 41e4 	movw	r1, #64740	; 0xfce4
    1178:	f2c0 0109 	movt	r1, #9
    117c:	6809      	ldr	r1, [r1, #0]
    117e:	9105      	str	r1, [sp, #20]
    1180:	07c0      	lsls	r0, r0, #31
    1182:	b160      	cbz	r0, 119e <lowpower_set_dcdc_power_profile+0x50>
    1184:	e7ff      	b.n	1186 <lowpower_set_dcdc_power_profile+0x38>
    1186:	9805      	ldr	r0, [sp, #20]
    1188:	9904      	ldr	r1, [sp, #16]
    118a:	0849      	lsrs	r1, r1, #1
    118c:	2210      	movs	r2, #16
    118e:	f2c4 0202 	movt	r2, #16386	; 0x4002
    1192:	6011      	str	r1, [r2, #0]
    1194:	2114      	movs	r1, #20
    1196:	f2c4 0102 	movt	r1, #16386	; 0x4002
    119a:	6008      	str	r0, [r1, #0]
    119c:	e7ff      	b.n	119e <lowpower_set_dcdc_power_profile+0x50>
    119e:	e048      	b.n	1232 <lowpower_set_dcdc_power_profile+0xe4>
    11a0:	f64f 40e8 	movw	r0, #64744	; 0xfce8
    11a4:	f2c0 0009 	movt	r0, #9
    11a8:	6800      	ldr	r0, [r0, #0]
    11aa:	9002      	str	r0, [sp, #8]
    11ac:	f64f 41ec 	movw	r1, #64748	; 0xfcec
    11b0:	f2c0 0109 	movt	r1, #9
    11b4:	6809      	ldr	r1, [r1, #0]
    11b6:	9103      	str	r1, [sp, #12]
    11b8:	07c0      	lsls	r0, r0, #31
    11ba:	b160      	cbz	r0, 11d6 <lowpower_set_dcdc_power_profile+0x88>
    11bc:	e7ff      	b.n	11be <lowpower_set_dcdc_power_profile+0x70>
    11be:	9803      	ldr	r0, [sp, #12]
    11c0:	9902      	ldr	r1, [sp, #8]
    11c2:	0849      	lsrs	r1, r1, #1
    11c4:	2210      	movs	r2, #16
    11c6:	f2c4 0202 	movt	r2, #16386	; 0x4002
    11ca:	6011      	str	r1, [r2, #0]
    11cc:	2114      	movs	r1, #20
    11ce:	f2c4 0102 	movt	r1, #16386	; 0x4002
    11d2:	6008      	str	r0, [r1, #0]
    11d4:	e7ff      	b.n	11d6 <lowpower_set_dcdc_power_profile+0x88>
    11d6:	e02c      	b.n	1232 <lowpower_set_dcdc_power_profile+0xe4>
    11d8:	f64f 40d8 	movw	r0, #64728	; 0xfcd8
    11dc:	f2c0 0009 	movt	r0, #9
    11e0:	6800      	ldr	r0, [r0, #0]
    11e2:	9000      	str	r0, [sp, #0]
    11e4:	f64f 41dc 	movw	r1, #64732	; 0xfcdc
    11e8:	f2c0 0109 	movt	r1, #9
    11ec:	6809      	ldr	r1, [r1, #0]
    11ee:	9101      	str	r1, [sp, #4]
    11f0:	07c0      	lsls	r0, r0, #31
    11f2:	b160      	cbz	r0, 120e <lowpower_set_dcdc_power_profile+0xc0>
    11f4:	e7ff      	b.n	11f6 <lowpower_set_dcdc_power_profile+0xa8>
    11f6:	9801      	ldr	r0, [sp, #4]
    11f8:	9900      	ldr	r1, [sp, #0]
    11fa:	0849      	lsrs	r1, r1, #1
    11fc:	2210      	movs	r2, #16
    11fe:	f2c4 0202 	movt	r2, #16386	; 0x4002
    1202:	6011      	str	r1, [r2, #0]
    1204:	2114      	movs	r1, #20
    1206:	f2c4 0102 	movt	r1, #16386	; 0x4002
    120a:	6008      	str	r0, [r1, #0]
    120c:	e7ff      	b.n	120e <lowpower_set_dcdc_power_profile+0xc0>
    120e:	e010      	b.n	1232 <lowpower_set_dcdc_power_profile+0xe4>
    1210:	2110      	movs	r1, #16
    1212:	f2c4 0102 	movt	r1, #16386	; 0x4002
    1216:	f644 6068 	movw	r0, #20072	; 0x4e68
    121a:	f2c0 100c 	movt	r0, #268	; 0x10c
    121e:	6008      	str	r0, [r1, #0]
    1220:	2114      	movs	r1, #20
    1222:	f2c4 0102 	movt	r1, #16386	; 0x4002
    1226:	f643 2098 	movw	r0, #15000	; 0x3a98
    122a:	f2c0 1080 	movt	r0, #384	; 0x180
    122e:	6008      	str	r0, [r1, #0]
    1230:	e7ff      	b.n	1232 <lowpower_set_dcdc_power_profile+0xe4>
    1232:	b007      	add	sp, #28
    1234:	4770      	bx	lr

00001236 <lowpower_set_voltage_for_process>:
    1236:	b580      	push	{r7, lr}
    1238:	466f      	mov	r7, sp
    123a:	b086      	sub	sp, #24
    123c:	9004      	str	r0, [sp, #16]
    123e:	f000 f85b 	bl	12f8 <lowpower_get_part_process_corner>
    1242:	4601      	mov	r1, r0
    1244:	9105      	str	r1, [sp, #20]
    1246:	b120      	cbz	r0, 1252 <lowpower_set_voltage_for_process+0x1c>
    1248:	e7ff      	b.n	124a <lowpower_set_voltage_for_process+0x14>
    124a:	9805      	ldr	r0, [sp, #20]
    124c:	2802      	cmp	r0, #2
    124e:	d01b      	beq.n	1288 <lowpower_set_voltage_for_process+0x52>
    1250:	e035      	b.n	12be <lowpower_set_voltage_for_process+0x88>
    1252:	9804      	ldr	r0, [sp, #16]
    1254:	b2c0      	uxtb	r0, r0
    1256:	4601      	mov	r1, r0
    1258:	9103      	str	r1, [sp, #12]
    125a:	2801      	cmp	r0, #1
    125c:	d004      	beq.n	1268 <lowpower_set_voltage_for_process+0x32>
    125e:	e7ff      	b.n	1260 <lowpower_set_voltage_for_process+0x2a>
    1260:	9803      	ldr	r0, [sp, #12]
    1262:	2802      	cmp	r0, #2
    1264:	d005      	beq.n	1272 <lowpower_set_voltage_for_process+0x3c>
    1266:	e009      	b.n	127c <lowpower_set_voltage_for_process+0x46>
    1268:	f240 407e 	movw	r0, #1150	; 0x47e
    126c:	f000 f89b 	bl	13a6 <lowpower_set_system_voltage>
    1270:	e009      	b.n	1286 <lowpower_set_voltage_for_process+0x50>
    1272:	f44f 6096 	mov.w	r0, #1200	; 0x4b0
    1276:	f000 f896 	bl	13a6 <lowpower_set_system_voltage>
    127a:	e004      	b.n	1286 <lowpower_set_voltage_for_process+0x50>
    127c:	f240 4033 	movw	r0, #1075	; 0x433
    1280:	f000 f891 	bl	13a6 <lowpower_set_system_voltage>
    1284:	e7ff      	b.n	1286 <lowpower_set_voltage_for_process+0x50>
    1286:	e035      	b.n	12f4 <lowpower_set_voltage_for_process+0xbe>
    1288:	9804      	ldr	r0, [sp, #16]
    128a:	b2c0      	uxtb	r0, r0
    128c:	4601      	mov	r1, r0
    128e:	9102      	str	r1, [sp, #8]
    1290:	2801      	cmp	r0, #1
    1292:	d004      	beq.n	129e <lowpower_set_voltage_for_process+0x68>
    1294:	e7ff      	b.n	1296 <lowpower_set_voltage_for_process+0x60>
    1296:	9802      	ldr	r0, [sp, #8]
    1298:	2802      	cmp	r0, #2
    129a:	d005      	beq.n	12a8 <lowpower_set_voltage_for_process+0x72>
    129c:	e009      	b.n	12b2 <lowpower_set_voltage_for_process+0x7c>
    129e:	f240 4001 	movw	r0, #1025	; 0x401
    12a2:	f000 f880 	bl	13a6 <lowpower_set_system_voltage>
    12a6:	e009      	b.n	12bc <lowpower_set_voltage_for_process+0x86>
    12a8:	f240 401a 	movw	r0, #1050	; 0x41a
    12ac:	f000 f87b 	bl	13a6 <lowpower_set_system_voltage>
    12b0:	e004      	b.n	12bc <lowpower_set_voltage_for_process+0x86>
    12b2:	f44f 707a 	mov.w	r0, #1000	; 0x3e8
    12b6:	f000 f876 	bl	13a6 <lowpower_set_system_voltage>
    12ba:	e7ff      	b.n	12bc <lowpower_set_voltage_for_process+0x86>
    12bc:	e01a      	b.n	12f4 <lowpower_set_voltage_for_process+0xbe>
    12be:	9804      	ldr	r0, [sp, #16]
    12c0:	b2c0      	uxtb	r0, r0
    12c2:	4601      	mov	r1, r0
    12c4:	9101      	str	r1, [sp, #4]
    12c6:	2801      	cmp	r0, #1
    12c8:	d004      	beq.n	12d4 <lowpower_set_voltage_for_process+0x9e>
    12ca:	e7ff      	b.n	12cc <lowpower_set_voltage_for_process+0x96>
    12cc:	9801      	ldr	r0, [sp, #4]
    12ce:	2802      	cmp	r0, #2
    12d0:	d005      	beq.n	12de <lowpower_set_voltage_for_process+0xa8>
    12d2:	e009      	b.n	12e8 <lowpower_set_voltage_for_process+0xb2>
    12d4:	f240 404c 	movw	r0, #1100	; 0x44c
    12d8:	f000 f865 	bl	13a6 <lowpower_set_system_voltage>
    12dc:	e009      	b.n	12f2 <lowpower_set_voltage_for_process+0xbc>
    12de:	f240 407e 	movw	r0, #1150	; 0x47e
    12e2:	f000 f860 	bl	13a6 <lowpower_set_system_voltage>
    12e6:	e004      	b.n	12f2 <lowpower_set_voltage_for_process+0xbc>
    12e8:	f44f 707a 	mov.w	r0, #1000	; 0x3e8
    12ec:	f000 f85b 	bl	13a6 <lowpower_set_system_voltage>
    12f0:	e7ff      	b.n	12f2 <lowpower_set_voltage_for_process+0xbc>
    12f2:	e7ff      	b.n	12f4 <lowpower_set_voltage_for_process+0xbe>
    12f4:	b006      	add	sp, #24
    12f6:	bd80      	pop	{r7, pc}

000012f8 <lowpower_get_part_process_corner>:
    12f8:	b08a      	sub	sp, #40	; 0x28
    12fa:	f64f 5030 	movw	r0, #64816	; 0xfd30
    12fe:	f2c0 0009 	movt	r0, #9
    1302:	6800      	ldr	r0, [r0, #0]
    1304:	9008      	str	r0, [sp, #32]
    1306:	f64f 5140 	movw	r1, #64832	; 0xfd40
    130a:	f2c0 0109 	movt	r1, #9
    130e:	6809      	ldr	r1, [r1, #0]
    1310:	9109      	str	r1, [sp, #36]	; 0x24
    1312:	07c0      	lsls	r0, r0, #31
    1314:	b120      	cbz	r0, 1320 <lowpower_get_part_process_corner+0x28>
    1316:	e7ff      	b.n	1318 <lowpower_get_part_process_corner+0x20>
    1318:	9808      	ldr	r0, [sp, #32]
    131a:	0840      	lsrs	r0, r0, #1
    131c:	9007      	str	r0, [sp, #28]
    131e:	e005      	b.n	132c <lowpower_get_part_process_corner+0x34>
    1320:	f647 60a0 	movw	r0, #32416	; 0x7ea0
    1324:	f2c0 1026 	movt	r0, #294	; 0x126
    1328:	9007      	str	r0, [sp, #28]
    132a:	e7ff      	b.n	132c <lowpower_get_part_process_corner+0x34>
    132c:	9809      	ldr	r0, [sp, #36]	; 0x24
    132e:	9907      	ldr	r1, [sp, #28]
    1330:	9106      	str	r1, [sp, #24]
    1332:	07c0      	lsls	r0, r0, #31
    1334:	b120      	cbz	r0, 1340 <lowpower_get_part_process_corner+0x48>
    1336:	e7ff      	b.n	1338 <lowpower_get_part_process_corner+0x40>
    1338:	9809      	ldr	r0, [sp, #36]	; 0x24
    133a:	0840      	lsrs	r0, r0, #1
    133c:	9005      	str	r0, [sp, #20]
    133e:	e005      	b.n	134c <lowpower_get_part_process_corner+0x54>
    1340:	f647 60a0 	movw	r0, #32416	; 0x7ea0
    1344:	f2c0 1026 	movt	r0, #294	; 0x126
    1348:	9005      	str	r0, [sp, #20]
    134a:	e7ff      	b.n	134c <lowpower_get_part_process_corner+0x54>
    134c:	9906      	ldr	r1, [sp, #24]
    134e:	9805      	ldr	r0, [sp, #20]
    1350:	9004      	str	r0, [sp, #16]
    1352:	4288      	cmp	r0, r1
    1354:	d803      	bhi.n	135e <lowpower_get_part_process_corner+0x66>
    1356:	e7ff      	b.n	1358 <lowpower_get_part_process_corner+0x60>
    1358:	9804      	ldr	r0, [sp, #16]
    135a:	9003      	str	r0, [sp, #12]
    135c:	e002      	b.n	1364 <lowpower_get_part_process_corner+0x6c>
    135e:	9806      	ldr	r0, [sp, #24]
    1360:	9003      	str	r0, [sp, #12]
    1362:	e7ff      	b.n	1364 <lowpower_get_part_process_corner+0x6c>
    1364:	9803      	ldr	r0, [sp, #12]
    1366:	9002      	str	r0, [sp, #8]
    1368:	f64d 71a0 	movw	r1, #57248	; 0xdfa0
    136c:	f2c0 1101 	movt	r1, #257	; 0x101
    1370:	4288      	cmp	r0, r1
    1372:	d803      	bhi.n	137c <lowpower_get_part_process_corner+0x84>
    1374:	e7ff      	b.n	1376 <lowpower_get_part_process_corner+0x7e>
    1376:	2000      	movs	r0, #0
    1378:	9001      	str	r0, [sp, #4]
    137a:	e010      	b.n	139e <lowpower_get_part_process_corner+0xa6>
    137c:	9802      	ldr	r0, [sp, #8]
    137e:	f641 51a0 	movw	r1, #7584	; 0x1da0
    1382:	f2c0 114b 	movt	r1, #331	; 0x14b
    1386:	4288      	cmp	r0, r1
    1388:	d803      	bhi.n	1392 <lowpower_get_part_process_corner+0x9a>
    138a:	e7ff      	b.n	138c <lowpower_get_part_process_corner+0x94>
    138c:	2001      	movs	r0, #1
    138e:	9000      	str	r0, [sp, #0]
    1390:	e002      	b.n	1398 <lowpower_get_part_process_corner+0xa0>
    1392:	2002      	movs	r0, #2
    1394:	9000      	str	r0, [sp, #0]
    1396:	e7ff      	b.n	1398 <lowpower_get_part_process_corner+0xa0>
    1398:	9800      	ldr	r0, [sp, #0]
    139a:	9001      	str	r0, [sp, #4]
    139c:	e7ff      	b.n	139e <lowpower_get_part_process_corner+0xa6>
    139e:	9801      	ldr	r0, [sp, #4]
    13a0:	b2c0      	uxtb	r0, r0
    13a2:	b00a      	add	sp, #40	; 0x28
    13a4:	4770      	bx	lr

000013a6 <lowpower_set_system_voltage>:
    13a6:	b580      	push	{r7, lr}
    13a8:	466f      	mov	r7, sp
    13aa:	b09b      	sub	sp, #108	; 0x6c
    13ac:	901a      	str	r0, [sp, #104]	; 0x68
    13ae:	f240 31b6 	movw	r1, #950	; 0x3b6
    13b2:	4288      	cmp	r0, r1
    13b4:	d807      	bhi.n	13c6 <lowpower_set_system_voltage+0x20>
    13b6:	e7ff      	b.n	13b8 <lowpower_set_system_voltage+0x12>
    13b8:	2000      	movs	r0, #0
    13ba:	210a      	movs	r1, #10
    13bc:	220f      	movs	r2, #15
    13be:	9217      	str	r2, [sp, #92]	; 0x5c
    13c0:	9118      	str	r1, [sp, #96]	; 0x60
    13c2:	9019      	str	r0, [sp, #100]	; 0x64
    13c4:	e0a7      	b.n	1516 <lowpower_set_system_voltage+0x170>
    13c6:	981a      	ldr	r0, [sp, #104]	; 0x68
    13c8:	0900      	lsrs	r0, r0, #4
    13ca:	283c      	cmp	r0, #60	; 0x3c
    13cc:	d807      	bhi.n	13de <lowpower_set_system_voltage+0x38>
    13ce:	e7ff      	b.n	13d0 <lowpower_set_system_voltage+0x2a>
    13d0:	2001      	movs	r0, #1
    13d2:	210c      	movs	r1, #12
    13d4:	2211      	movs	r2, #17
    13d6:	9214      	str	r2, [sp, #80]	; 0x50
    13d8:	9115      	str	r1, [sp, #84]	; 0x54
    13da:	9016      	str	r0, [sp, #88]	; 0x58
    13dc:	e094      	b.n	1508 <lowpower_set_system_voltage+0x162>
    13de:	981a      	ldr	r0, [sp, #104]	; 0x68
    13e0:	f5b0 7f7a 	cmp.w	r0, #1000	; 0x3e8
    13e4:	d807      	bhi.n	13f6 <lowpower_set_system_voltage+0x50>
    13e6:	e7ff      	b.n	13e8 <lowpower_set_system_voltage+0x42>
    13e8:	2002      	movs	r0, #2
    13ea:	210e      	movs	r1, #14
    13ec:	2213      	movs	r2, #19
    13ee:	9211      	str	r2, [sp, #68]	; 0x44
    13f0:	9112      	str	r1, [sp, #72]	; 0x48
    13f2:	9013      	str	r0, [sp, #76]	; 0x4c
    13f4:	e081      	b.n	14fa <lowpower_set_system_voltage+0x154>
    13f6:	981a      	ldr	r0, [sp, #104]	; 0x68
    13f8:	f240 4101 	movw	r1, #1025	; 0x401
    13fc:	4288      	cmp	r0, r1
    13fe:	d807      	bhi.n	1410 <lowpower_set_system_voltage+0x6a>
    1400:	e7ff      	b.n	1402 <lowpower_set_system_voltage+0x5c>
    1402:	2003      	movs	r0, #3
    1404:	2111      	movs	r1, #17
    1406:	2216      	movs	r2, #22
    1408:	920e      	str	r2, [sp, #56]	; 0x38
    140a:	910f      	str	r1, [sp, #60]	; 0x3c
    140c:	9010      	str	r0, [sp, #64]	; 0x40
    140e:	e06d      	b.n	14ec <lowpower_set_system_voltage+0x146>
    1410:	981a      	ldr	r0, [sp, #104]	; 0x68
    1412:	f240 411a 	movw	r1, #1050	; 0x41a
    1416:	4288      	cmp	r0, r1
    1418:	d807      	bhi.n	142a <lowpower_set_system_voltage+0x84>
    141a:	e7ff      	b.n	141c <lowpower_set_system_voltage+0x76>
    141c:	2004      	movs	r0, #4
    141e:	2114      	movs	r1, #20
    1420:	2219      	movs	r2, #25
    1422:	920b      	str	r2, [sp, #44]	; 0x2c
    1424:	910c      	str	r1, [sp, #48]	; 0x30
    1426:	900d      	str	r0, [sp, #52]	; 0x34
    1428:	e059      	b.n	14de <lowpower_set_system_voltage+0x138>
    142a:	981a      	ldr	r0, [sp, #104]	; 0x68
    142c:	f240 4133 	movw	r1, #1075	; 0x433
    1430:	4288      	cmp	r0, r1
    1432:	d807      	bhi.n	1444 <lowpower_set_system_voltage+0x9e>
    1434:	e7ff      	b.n	1436 <lowpower_set_system_voltage+0x90>
    1436:	2005      	movs	r0, #5
    1438:	2116      	movs	r1, #22
    143a:	221b      	movs	r2, #27
    143c:	9208      	str	r2, [sp, #32]
    143e:	9109      	str	r1, [sp, #36]	; 0x24
    1440:	900a      	str	r0, [sp, #40]	; 0x28
    1442:	e045      	b.n	14d0 <lowpower_set_system_voltage+0x12a>
    1444:	981a      	ldr	r0, [sp, #104]	; 0x68
    1446:	f240 414c 	movw	r1, #1100	; 0x44c
    144a:	4288      	cmp	r0, r1
    144c:	d807      	bhi.n	145e <lowpower_set_system_voltage+0xb8>
    144e:	e7ff      	b.n	1450 <lowpower_set_system_voltage+0xaa>
    1450:	2006      	movs	r0, #6
    1452:	2118      	movs	r1, #24
    1454:	221d      	movs	r2, #29
    1456:	9205      	str	r2, [sp, #20]
    1458:	9106      	str	r1, [sp, #24]
    145a:	9007      	str	r0, [sp, #28]
    145c:	e031      	b.n	14c2 <lowpower_set_system_voltage+0x11c>
    145e:	981a      	ldr	r0, [sp, #104]	; 0x68
    1460:	f240 4165 	movw	r1, #1125	; 0x465
    1464:	4288      	cmp	r0, r1
    1466:	d807      	bhi.n	1478 <lowpower_set_system_voltage+0xd2>
    1468:	e7ff      	b.n	146a <lowpower_set_system_voltage+0xc4>
    146a:	2007      	movs	r0, #7
    146c:	211b      	movs	r1, #27
    146e:	221e      	movs	r2, #30
    1470:	9202      	str	r2, [sp, #8]
    1472:	9103      	str	r1, [sp, #12]
    1474:	9004      	str	r0, [sp, #16]
    1476:	e01d      	b.n	14b4 <lowpower_set_system_voltage+0x10e>
    1478:	981a      	ldr	r0, [sp, #104]	; 0x68
    147a:	f240 417e 	movw	r1, #1150	; 0x47e
    147e:	4288      	cmp	r0, r1
    1480:	d803      	bhi.n	148a <lowpower_set_system_voltage+0xe4>
    1482:	e7ff      	b.n	1484 <lowpower_set_system_voltage+0xde>
    1484:	2008      	movs	r0, #8
    1486:	9001      	str	r0, [sp, #4]
    1488:	e00d      	b.n	14a6 <lowpower_set_system_voltage+0x100>
    148a:	981a      	ldr	r0, [sp, #104]	; 0x68
    148c:	08c0      	lsrs	r0, r0, #3
    148e:	2892      	cmp	r0, #146	; 0x92
    1490:	d803      	bhi.n	149a <lowpower_set_system_voltage+0xf4>
    1492:	e7ff      	b.n	1494 <lowpower_set_system_voltage+0xee>
    1494:	2009      	movs	r0, #9
    1496:	9000      	str	r0, [sp, #0]
    1498:	e002      	b.n	14a0 <lowpower_set_system_voltage+0xfa>
    149a:	200a      	movs	r0, #10
    149c:	9000      	str	r0, [sp, #0]
    149e:	e7ff      	b.n	14a0 <lowpower_set_system_voltage+0xfa>
    14a0:	9800      	ldr	r0, [sp, #0]
    14a2:	9001      	str	r0, [sp, #4]
    14a4:	e7ff      	b.n	14a6 <lowpower_set_system_voltage+0x100>
    14a6:	9801      	ldr	r0, [sp, #4]
    14a8:	211e      	movs	r1, #30
    14aa:	221f      	movs	r2, #31
    14ac:	9202      	str	r2, [sp, #8]
    14ae:	9103      	str	r1, [sp, #12]
    14b0:	9004      	str	r0, [sp, #16]
    14b2:	e7ff      	b.n	14b4 <lowpower_set_system_voltage+0x10e>
    14b4:	9a02      	ldr	r2, [sp, #8]
    14b6:	9903      	ldr	r1, [sp, #12]
    14b8:	9804      	ldr	r0, [sp, #16]
    14ba:	9205      	str	r2, [sp, #20]
    14bc:	9106      	str	r1, [sp, #24]
    14be:	9007      	str	r0, [sp, #28]
    14c0:	e7ff      	b.n	14c2 <lowpower_set_system_voltage+0x11c>
    14c2:	9a05      	ldr	r2, [sp, #20]
    14c4:	9906      	ldr	r1, [sp, #24]
    14c6:	9807      	ldr	r0, [sp, #28]
    14c8:	9208      	str	r2, [sp, #32]
    14ca:	9109      	str	r1, [sp, #36]	; 0x24
    14cc:	900a      	str	r0, [sp, #40]	; 0x28
    14ce:	e7ff      	b.n	14d0 <lowpower_set_system_voltage+0x12a>
    14d0:	9a08      	ldr	r2, [sp, #32]
    14d2:	9909      	ldr	r1, [sp, #36]	; 0x24
    14d4:	980a      	ldr	r0, [sp, #40]	; 0x28
    14d6:	920b      	str	r2, [sp, #44]	; 0x2c
    14d8:	910c      	str	r1, [sp, #48]	; 0x30
    14da:	900d      	str	r0, [sp, #52]	; 0x34
    14dc:	e7ff      	b.n	14de <lowpower_set_system_voltage+0x138>
    14de:	9a0b      	ldr	r2, [sp, #44]	; 0x2c
    14e0:	990c      	ldr	r1, [sp, #48]	; 0x30
    14e2:	980d      	ldr	r0, [sp, #52]	; 0x34
    14e4:	920e      	str	r2, [sp, #56]	; 0x38
    14e6:	910f      	str	r1, [sp, #60]	; 0x3c
    14e8:	9010      	str	r0, [sp, #64]	; 0x40
    14ea:	e7ff      	b.n	14ec <lowpower_set_system_voltage+0x146>
    14ec:	9a0e      	ldr	r2, [sp, #56]	; 0x38
    14ee:	990f      	ldr	r1, [sp, #60]	; 0x3c
    14f0:	9810      	ldr	r0, [sp, #64]	; 0x40
    14f2:	9211      	str	r2, [sp, #68]	; 0x44
    14f4:	9112      	str	r1, [sp, #72]	; 0x48
    14f6:	9013      	str	r0, [sp, #76]	; 0x4c
    14f8:	e7ff      	b.n	14fa <lowpower_set_system_voltage+0x154>
    14fa:	9a11      	ldr	r2, [sp, #68]	; 0x44
    14fc:	9912      	ldr	r1, [sp, #72]	; 0x48
    14fe:	9813      	ldr	r0, [sp, #76]	; 0x4c
    1500:	9214      	str	r2, [sp, #80]	; 0x50
    1502:	9115      	str	r1, [sp, #84]	; 0x54
    1504:	9016      	str	r0, [sp, #88]	; 0x58
    1506:	e7ff      	b.n	1508 <lowpower_set_system_voltage+0x162>
    1508:	9a14      	ldr	r2, [sp, #80]	; 0x50
    150a:	9915      	ldr	r1, [sp, #84]	; 0x54
    150c:	9816      	ldr	r0, [sp, #88]	; 0x58
    150e:	9217      	str	r2, [sp, #92]	; 0x5c
    1510:	9118      	str	r1, [sp, #96]	; 0x60
    1512:	9019      	str	r0, [sp, #100]	; 0x64
    1514:	e7ff      	b.n	1516 <lowpower_set_system_voltage+0x170>
    1516:	9b17      	ldr	r3, [sp, #92]	; 0x5c
    1518:	f8dd c060 	ldr.w	ip, [sp, #96]	; 0x60
    151c:	9a19      	ldr	r2, [sp, #100]	; 0x64
    151e:	211c      	movs	r1, #28
    1520:	f2c4 0102 	movt	r1, #16386	; 0x4002
    1524:	6808      	ldr	r0, [r1, #0]
    1526:	f647 4e1f 	movw	lr, #31775	; 0x7c1f
    152a:	ea20 000e 	bic.w	r0, r0, lr
    152e:	f00c 0c1f 	and.w	ip, ip, #31
    1532:	4460      	add	r0, ip
    1534:	f003 031f 	and.w	r3, r3, #31
    1538:	ea40 2083 	orr.w	r0, r0, r3, lsl #10
    153c:	6008      	str	r0, [r1, #0]
    153e:	2110      	movs	r1, #16
    1540:	f2c4 0102 	movt	r1, #16386	; 0x4002
    1544:	6808      	ldr	r0, [r1, #0]
    1546:	f362 4054 	bfi	r0, r2, #17, #4
    154a:	6008      	str	r0, [r1, #0]
    154c:	b01b      	add	sp, #108	; 0x6c
    154e:	bd80      	pop	{r7, pc}

00001550 <RESET_SetPeripheralReset>:
    1550:	b580      	push	{r7, lr}
    1552:	466f      	mov	r7, sp
    1554:	b082      	sub	sp, #8
    1556:	0c01      	lsrs	r1, r0, #16
    1558:	9100      	str	r1, [sp, #0]
    155a:	b280      	uxth	r0, r0
    155c:	2101      	movs	r1, #1
    155e:	4081      	lsls	r1, r0
    1560:	9101      	str	r1, [sp, #4]
    1562:	281f      	cmp	r0, #31
    1564:	d801      	bhi.n	156a <RESET_SetPeripheralReset+0x1a>
    1566:	e7ff      	b.n	1568 <RESET_SetPeripheralReset+0x18>
    1568:	e00e      	b.n	1588 <RESET_SetPeripheralReset+0x38>
    156a:	f647 70c4 	movw	r0, #32708	; 0x7fc4
    156e:	f2c0 0000 	movt	r0, #0
    1572:	f647 72d8 	movw	r2, #32728	; 0x7fd8
    1576:	f2c0 0200 	movt	r2, #0
    157a:	f647 73f1 	movw	r3, #32753	; 0x7ff1
    157e:	f2c0 0300 	movt	r3, #0
    1582:	2130      	movs	r1, #48	; 0x30
    1584:	f003 fc66 	bl	4e54 <__assert_func>
    1588:	9801      	ldr	r0, [sp, #4]
    158a:	9a00      	ldr	r2, [sp, #0]
    158c:	f240 1120 	movw	r1, #288	; 0x120
    1590:	f2c4 0100 	movt	r1, #16384	; 0x4000
    1594:	f841 0022 	str.w	r0, [r1, r2, lsl #2]
    1598:	e7ff      	b.n	159a <RESET_SetPeripheralReset+0x4a>
    159a:	9901      	ldr	r1, [sp, #4]
    159c:	9a00      	ldr	r2, [sp, #0]
    159e:	f240 1000 	movw	r0, #256	; 0x100
    15a2:	f2c4 0000 	movt	r0, #16384	; 0x4000
    15a6:	f850 0022 	ldr.w	r0, [r0, r2, lsl #2]
    15aa:	4208      	tst	r0, r1
    15ac:	d101      	bne.n	15b2 <RESET_SetPeripheralReset+0x62>
    15ae:	e7ff      	b.n	15b0 <RESET_SetPeripheralReset+0x60>
    15b0:	e7f3      	b.n	159a <RESET_SetPeripheralReset+0x4a>
    15b2:	b002      	add	sp, #8
    15b4:	bd80      	pop	{r7, pc}

000015b6 <RESET_ClearPeripheralReset>:
    15b6:	b580      	push	{r7, lr}
    15b8:	466f      	mov	r7, sp
    15ba:	b082      	sub	sp, #8
    15bc:	0c01      	lsrs	r1, r0, #16
    15be:	9100      	str	r1, [sp, #0]
    15c0:	b280      	uxth	r0, r0
    15c2:	2101      	movs	r1, #1
    15c4:	4081      	lsls	r1, r0
    15c6:	9101      	str	r1, [sp, #4]
    15c8:	281f      	cmp	r0, #31
    15ca:	d801      	bhi.n	15d0 <RESET_ClearPeripheralReset+0x1a>
    15cc:	e7ff      	b.n	15ce <RESET_ClearPeripheralReset+0x18>
    15ce:	e00e      	b.n	15ee <RESET_ClearPeripheralReset+0x38>
    15d0:	f647 70c4 	movw	r0, #32708	; 0x7fc4
    15d4:	f2c0 0000 	movt	r0, #0
    15d8:	f647 72fe 	movw	r2, #32766	; 0x7ffe
    15dc:	f2c0 0200 	movt	r2, #0
    15e0:	f647 73f1 	movw	r3, #32753	; 0x7ff1
    15e4:	f2c0 0300 	movt	r3, #0
    15e8:	2149      	movs	r1, #73	; 0x49
    15ea:	f003 fc33 	bl	4e54 <__assert_func>
    15ee:	9801      	ldr	r0, [sp, #4]
    15f0:	9a00      	ldr	r2, [sp, #0]
    15f2:	f240 1140 	movw	r1, #320	; 0x140
    15f6:	f2c4 0100 	movt	r1, #16384	; 0x4000
    15fa:	f841 0022 	str.w	r0, [r1, r2, lsl #2]
    15fe:	e7ff      	b.n	1600 <RESET_ClearPeripheralReset+0x4a>
    1600:	9801      	ldr	r0, [sp, #4]
    1602:	9a00      	ldr	r2, [sp, #0]
    1604:	f240 1100 	movw	r1, #256	; 0x100
    1608:	f2c4 0100 	movt	r1, #16384	; 0x4000
    160c:	f851 1022 	ldr.w	r1, [r1, r2, lsl #2]
    1610:	4001      	ands	r1, r0
    1612:	4288      	cmp	r0, r1
    1614:	d101      	bne.n	161a <RESET_ClearPeripheralReset+0x64>
    1616:	e7ff      	b.n	1618 <RESET_ClearPeripheralReset+0x62>
    1618:	e7f2      	b.n	1600 <RESET_ClearPeripheralReset+0x4a>
    161a:	b002      	add	sp, #8
    161c:	bd80      	pop	{r7, pc}

0000161e <RESET_PeripheralReset>:
    161e:	b580      	push	{r7, lr}
    1620:	466f      	mov	r7, sp
    1622:	b082      	sub	sp, #8
    1624:	9001      	str	r0, [sp, #4]
    1626:	f7ff ff93 	bl	1550 <RESET_SetPeripheralReset>
    162a:	9801      	ldr	r0, [sp, #4]
    162c:	f7ff ffc3 	bl	15b6 <RESET_ClearPeripheralReset>
    1630:	b002      	add	sp, #8
    1632:	bd80      	pop	{r7, pc}

00001634 <GPIO_EnablePortClock>:
    1634:	b580      	push	{r7, lr}
    1636:	466f      	mov	r7, sp
    1638:	b082      	sub	sp, #8
    163a:	9101      	str	r1, [sp, #4]
    163c:	2903      	cmp	r1, #3
    163e:	d801      	bhi.n	1644 <GPIO_EnablePortClock+0x10>
    1640:	e7ff      	b.n	1642 <GPIO_EnablePortClock+0xe>
    1642:	e00e      	b.n	1662 <GPIO_EnablePortClock+0x2e>
    1644:	f248 0019 	movw	r0, #32793	; 0x8019
    1648:	f2c0 0000 	movt	r0, #0
    164c:	f248 022c 	movw	r2, #32812	; 0x802c
    1650:	f2c0 0200 	movt	r2, #0
    1654:	f248 0341 	movw	r3, #32833	; 0x8041
    1658:	f2c0 0300 	movt	r3, #0
    165c:	212d      	movs	r1, #45	; 0x2d
    165e:	f003 fbf9 	bl	4e54 <__assert_func>
    1662:	9901      	ldr	r1, [sp, #4]
    1664:	f248 0064 	movw	r0, #32868	; 0x8064
    1668:	f2c0 0000 	movt	r0, #0
    166c:	f830 0011 	ldrh.w	r0, [r0, r1, lsl #1]
    1670:	f000 f847 	bl	1702 <CLOCK_EnableClock>
    1674:	b002      	add	sp, #8
    1676:	bd80      	pop	{r7, pc}

00001678 <GPIO_PinInit>:
    1678:	b580      	push	{r7, lr}
    167a:	466f      	mov	r7, sp
    167c:	b084      	sub	sp, #16
    167e:	9303      	str	r3, [sp, #12]
    1680:	9200      	str	r2, [sp, #0]
    1682:	9101      	str	r1, [sp, #4]
    1684:	9002      	str	r0, [sp, #8]
    1686:	f7ff ffd5 	bl	1634 <GPIO_EnablePortClock>
    168a:	9b03      	ldr	r3, [sp, #12]
    168c:	7818      	ldrb	r0, [r3, #0]
    168e:	b970      	cbnz	r0, 16ae <GPIO_PinInit+0x36>
    1690:	e7ff      	b.n	1692 <GPIO_PinInit+0x1a>
    1692:	9802      	ldr	r0, [sp, #8]
    1694:	9901      	ldr	r1, [sp, #4]
    1696:	9b00      	ldr	r3, [sp, #0]
    1698:	2201      	movs	r2, #1
    169a:	fa02 f303 	lsl.w	r3, r2, r3
    169e:	eb00 0181 	add.w	r1, r0, r1, lsl #2
    16a2:	f44f 5200 	mov.w	r2, #8192	; 0x2000
    16a6:	5888      	ldr	r0, [r1, r2]
    16a8:	4398      	bics	r0, r3
    16aa:	5088      	str	r0, [r1, r2]
    16ac:	e027      	b.n	16fe <GPIO_PinInit+0x86>
    16ae:	9803      	ldr	r0, [sp, #12]
    16b0:	7840      	ldrb	r0, [r0, #1]
    16b2:	b958      	cbnz	r0, 16cc <GPIO_PinInit+0x54>
    16b4:	e7ff      	b.n	16b6 <GPIO_PinInit+0x3e>
    16b6:	9902      	ldr	r1, [sp, #8]
    16b8:	9a01      	ldr	r2, [sp, #4]
    16ba:	9b00      	ldr	r3, [sp, #0]
    16bc:	2001      	movs	r0, #1
    16be:	4098      	lsls	r0, r3
    16c0:	eb01 0182 	add.w	r1, r1, r2, lsl #2
    16c4:	f44f 520a 	mov.w	r2, #8832	; 0x2280
    16c8:	5088      	str	r0, [r1, r2]
    16ca:	e00a      	b.n	16e2 <GPIO_PinInit+0x6a>
    16cc:	9902      	ldr	r1, [sp, #8]
    16ce:	9a01      	ldr	r2, [sp, #4]
    16d0:	9b00      	ldr	r3, [sp, #0]
    16d2:	2001      	movs	r0, #1
    16d4:	4098      	lsls	r0, r3
    16d6:	eb01 0182 	add.w	r1, r1, r2, lsl #2
    16da:	f44f 5208 	mov.w	r2, #8704	; 0x2200
    16de:	5088      	str	r0, [r1, r2]
    16e0:	e7ff      	b.n	16e2 <GPIO_PinInit+0x6a>
    16e2:	9802      	ldr	r0, [sp, #8]
    16e4:	9901      	ldr	r1, [sp, #4]
    16e6:	9b00      	ldr	r3, [sp, #0]
    16e8:	2201      	movs	r2, #1
    16ea:	fa02 f303 	lsl.w	r3, r2, r3
    16ee:	eb00 0181 	add.w	r1, r0, r1, lsl #2
    16f2:	f44f 5200 	mov.w	r2, #8192	; 0x2000
    16f6:	5888      	ldr	r0, [r1, r2]
    16f8:	4318      	orrs	r0, r3
    16fa:	5088      	str	r0, [r1, r2]
    16fc:	e7ff      	b.n	16fe <GPIO_PinInit+0x86>
    16fe:	b004      	add	sp, #16
    1700:	bd80      	pop	{r7, pc}

00001702 <CLOCK_EnableClock>:
    1702:	0a02      	lsrs	r2, r0, #8
    1704:	b2c1      	uxtb	r1, r0
    1706:	2001      	movs	r0, #1
    1708:	4088      	lsls	r0, r1
    170a:	f240 2120 	movw	r1, #544	; 0x220
    170e:	f2c4 0100 	movt	r1, #16384	; 0x4000
    1712:	f841 0022 	str.w	r0, [r1, r2, lsl #2]
    1716:	4770      	bx	lr

00001718 <FLEXCOMM_GetInstance>:
    1718:	b580      	push	{r7, lr}
    171a:	466f      	mov	r7, sp
    171c:	b084      	sub	sp, #16
    171e:	9002      	str	r0, [sp, #8]
    1720:	2000      	movs	r0, #0
    1722:	9003      	str	r0, [sp, #12]
    1724:	e7ff      	b.n	1726 <FLEXCOMM_GetInstance+0xe>
    1726:	9803      	ldr	r0, [sp, #12]
    1728:	9001      	str	r0, [sp, #4]
    172a:	2808      	cmp	r0, #8
    172c:	d811      	bhi.n	1752 <FLEXCOMM_GetInstance+0x3a>
    172e:	e7ff      	b.n	1730 <FLEXCOMM_GetInstance+0x18>
    1730:	9802      	ldr	r0, [sp, #8]
    1732:	9a01      	ldr	r2, [sp, #4]
    1734:	f248 016c 	movw	r1, #32876	; 0x806c
    1738:	f2c0 0100 	movt	r1, #0
    173c:	f851 1022 	ldr.w	r1, [r1, r2, lsl #2]
    1740:	4288      	cmp	r0, r1
    1742:	d101      	bne.n	1748 <FLEXCOMM_GetInstance+0x30>
    1744:	e7ff      	b.n	1746 <FLEXCOMM_GetInstance+0x2e>
    1746:	e004      	b.n	1752 <FLEXCOMM_GetInstance+0x3a>
    1748:	e7ff      	b.n	174a <FLEXCOMM_GetInstance+0x32>
    174a:	9801      	ldr	r0, [sp, #4]
    174c:	3001      	adds	r0, #1
    174e:	9003      	str	r0, [sp, #12]
    1750:	e7e9      	b.n	1726 <FLEXCOMM_GetInstance+0xe>
    1752:	9801      	ldr	r0, [sp, #4]
    1754:	2808      	cmp	r0, #8
    1756:	d801      	bhi.n	175c <FLEXCOMM_GetInstance+0x44>
    1758:	e7ff      	b.n	175a <FLEXCOMM_GetInstance+0x42>
    175a:	e00e      	b.n	177a <FLEXCOMM_GetInstance+0x62>
    175c:	f248 0090 	movw	r0, #32912	; 0x8090
    1760:	f2c0 0000 	movt	r0, #0
    1764:	f248 02a7 	movw	r2, #32935	; 0x80a7
    1768:	f2c0 0200 	movt	r2, #0
    176c:	f248 03bc 	movw	r3, #32956	; 0x80bc
    1770:	f2c0 0300 	movt	r3, #0
    1774:	215f      	movs	r1, #95	; 0x5f
    1776:	f003 fb6d 	bl	4e54 <__assert_func>
    177a:	9801      	ldr	r0, [sp, #4]
    177c:	b004      	add	sp, #16
    177e:	bd80      	pop	{r7, pc}

00001780 <FLEXCOMM_Init>:
    1780:	b580      	push	{r7, lr}
    1782:	466f      	mov	r7, sp
    1784:	b084      	sub	sp, #16
    1786:	9103      	str	r1, [sp, #12]
    1788:	9002      	str	r0, [sp, #8]
    178a:	f7ff ffc5 	bl	1718 <FLEXCOMM_GetInstance>
    178e:	4601      	mov	r1, r0
    1790:	9101      	str	r1, [sp, #4]
    1792:	f248 2004 	movw	r0, #33284	; 0x8204
    1796:	f2c0 0000 	movt	r0, #0
    179a:	f830 0011 	ldrh.w	r0, [r0, r1, lsl #1]
    179e:	f000 f810 	bl	17c2 <CLOCK_EnableClock>
    17a2:	9901      	ldr	r1, [sp, #4]
    17a4:	f248 2018 	movw	r0, #33304	; 0x8218
    17a8:	f2c0 0000 	movt	r0, #0
    17ac:	f850 0021 	ldr.w	r0, [r0, r1, lsl #2]
    17b0:	f7ff ff35 	bl	161e <RESET_PeripheralReset>
    17b4:	9802      	ldr	r0, [sp, #8]
    17b6:	9903      	ldr	r1, [sp, #12]
    17b8:	2200      	movs	r2, #0
    17ba:	f000 f80d 	bl	17d8 <FLEXCOMM_SetPeriph>
    17be:	b004      	add	sp, #16
    17c0:	bd80      	pop	{r7, pc}

000017c2 <CLOCK_EnableClock>:
    17c2:	0a02      	lsrs	r2, r0, #8
    17c4:	b2c1      	uxtb	r1, r0
    17c6:	2001      	movs	r0, #1
    17c8:	4088      	lsls	r0, r1
    17ca:	f240 2120 	movw	r1, #544	; 0x220
    17ce:	f2c4 0100 	movt	r1, #16384	; 0x4000
    17d2:	f841 0022 	str.w	r0, [r1, r2, lsl #2]
    17d6:	4770      	bx	lr

000017d8 <FLEXCOMM_SetPeriph>:
    17d8:	b580      	push	{r7, lr}
    17da:	466f      	mov	r7, sp
    17dc:	b084      	sub	sp, #16
    17de:	9201      	str	r2, [sp, #4]
    17e0:	9002      	str	r0, [sp, #8]
    17e2:	460a      	mov	r2, r1
    17e4:	9203      	str	r2, [sp, #12]
    17e6:	f000 fa3d 	bl	1c64 <FLEXCOMM_PeripheralIsPresent>
    17ea:	b918      	cbnz	r0, 17f4 <FLEXCOMM_SetPeriph+0x1c>
    17ec:	e7ff      	b.n	17ee <FLEXCOMM_SetPeriph+0x16>
    17ee:	2003      	movs	r0, #3
    17f0:	9000      	str	r0, [sp, #0]
    17f2:	e027      	b.n	1844 <FLEXCOMM_SetPeriph+0x6c>
    17f4:	9802      	ldr	r0, [sp, #8]
    17f6:	f8d0 0ff8 	ldr.w	r0, [r0, #4088]	; 0xff8
    17fa:	0700      	lsls	r0, r0, #28
    17fc:	2800      	cmp	r0, #0
    17fe:	d50d      	bpl.n	181c <FLEXCOMM_SetPeriph+0x44>
    1800:	e7ff      	b.n	1802 <FLEXCOMM_SetPeriph+0x2a>
    1802:	9903      	ldr	r1, [sp, #12]
    1804:	9802      	ldr	r0, [sp, #8]
    1806:	f8d0 0ff8 	ldr.w	r0, [r0, #4088]	; 0xff8
    180a:	f000 0007 	and.w	r0, r0, #7
    180e:	b2c9      	uxtb	r1, r1
    1810:	4288      	cmp	r0, r1
    1812:	d003      	beq.n	181c <FLEXCOMM_SetPeriph+0x44>
    1814:	e7ff      	b.n	1816 <FLEXCOMM_SetPeriph+0x3e>
    1816:	2001      	movs	r0, #1
    1818:	9000      	str	r0, [sp, #0]
    181a:	e013      	b.n	1844 <FLEXCOMM_SetPeriph+0x6c>
    181c:	9801      	ldr	r0, [sp, #4]
    181e:	b140      	cbz	r0, 1832 <FLEXCOMM_SetPeriph+0x5a>
    1820:	e7ff      	b.n	1822 <FLEXCOMM_SetPeriph+0x4a>
    1822:	9902      	ldr	r1, [sp, #8]
    1824:	9803      	ldr	r0, [sp, #12]
    1826:	f040 0008 	orr.w	r0, r0, #8
    182a:	b2c0      	uxtb	r0, r0
    182c:	f8c1 0ff8 	str.w	r0, [r1, #4088]	; 0xff8
    1830:	e005      	b.n	183e <FLEXCOMM_SetPeriph+0x66>
    1832:	9902      	ldr	r1, [sp, #8]
    1834:	9803      	ldr	r0, [sp, #12]
    1836:	b2c0      	uxtb	r0, r0
    1838:	f8c1 0ff8 	str.w	r0, [r1, #4088]	; 0xff8
    183c:	e7ff      	b.n	183e <FLEXCOMM_SetPeriph+0x66>
    183e:	2000      	movs	r0, #0
    1840:	9000      	str	r0, [sp, #0]
    1842:	e7ff      	b.n	1844 <FLEXCOMM_SetPeriph+0x6c>
    1844:	9800      	ldr	r0, [sp, #0]
    1846:	b004      	add	sp, #16
    1848:	bd80      	pop	{r7, pc}

0000184a <FLEXCOMM0_DriverIRQHandler>:
    184a:	b580      	push	{r7, lr}
    184c:	466f      	mov	r7, sp
    184e:	b082      	sub	sp, #8
    1850:	f246 0000 	movw	r0, #24576	; 0x6000
    1854:	f2c4 0008 	movt	r0, #16392	; 0x4008
    1858:	f7ff ff5e 	bl	1718 <FLEXCOMM_GetInstance>
    185c:	4601      	mov	r1, r0
    185e:	4608      	mov	r0, r1
    1860:	9001      	str	r0, [sp, #4]
    1862:	f640 10d8 	movw	r0, #2520	; 0x9d8
    1866:	f2c2 0000 	movt	r0, #8192	; 0x2000
    186a:	f850 0021 	ldr.w	r0, [r0, r1, lsl #2]
    186e:	b108      	cbz	r0, 1874 <FLEXCOMM0_DriverIRQHandler+0x2a>
    1870:	e7ff      	b.n	1872 <FLEXCOMM0_DriverIRQHandler+0x28>
    1872:	e00e      	b.n	1892 <FLEXCOMM0_DriverIRQHandler+0x48>
    1874:	f248 0090 	movw	r0, #32912	; 0x8090
    1878:	f2c0 0000 	movt	r0, #0
    187c:	f248 02e9 	movw	r2, #33001	; 0x80e9
    1880:	f2c0 0200 	movt	r2, #0
    1884:	f248 1304 	movw	r3, #33028	; 0x8104
    1888:	f2c0 0300 	movt	r3, #0
    188c:	21ac      	movs	r1, #172	; 0xac
    188e:	f003 fae1 	bl	4e54 <__assert_func>
    1892:	9b01      	ldr	r3, [sp, #4]
    1894:	f640 10d8 	movw	r0, #2520	; 0x9d8
    1898:	f2c2 0000 	movt	r0, #8192	; 0x2000
    189c:	f850 2023 	ldr.w	r2, [r0, r3, lsl #2]
    18a0:	f248 006c 	movw	r0, #32876	; 0x806c
    18a4:	f2c0 0000 	movt	r0, #0
    18a8:	f850 0023 	ldr.w	r0, [r0, r3, lsl #2]
    18ac:	f640 11fc 	movw	r1, #2556	; 0x9fc
    18b0:	f2c2 0100 	movt	r1, #8192	; 0x2000
    18b4:	f851 1023 	ldr.w	r1, [r1, r3, lsl #2]
    18b8:	4790      	blx	r2
    18ba:	b002      	add	sp, #8
    18bc:	bd80      	pop	{r7, pc}

000018be <FLEXCOMM1_DriverIRQHandler>:
    18be:	b580      	push	{r7, lr}
    18c0:	466f      	mov	r7, sp
    18c2:	b082      	sub	sp, #8
    18c4:	f247 0000 	movw	r0, #28672	; 0x7000
    18c8:	f2c4 0008 	movt	r0, #16392	; 0x4008
    18cc:	f7ff ff24 	bl	1718 <FLEXCOMM_GetInstance>
    18d0:	4601      	mov	r1, r0
    18d2:	4608      	mov	r0, r1
    18d4:	9001      	str	r0, [sp, #4]
    18d6:	f640 10d8 	movw	r0, #2520	; 0x9d8
    18da:	f2c2 0000 	movt	r0, #8192	; 0x2000
    18de:	f850 0021 	ldr.w	r0, [r0, r1, lsl #2]
    18e2:	b108      	cbz	r0, 18e8 <FLEXCOMM1_DriverIRQHandler+0x2a>
    18e4:	e7ff      	b.n	18e6 <FLEXCOMM1_DriverIRQHandler+0x28>
    18e6:	e00e      	b.n	1906 <FLEXCOMM1_DriverIRQHandler+0x48>
    18e8:	f248 0090 	movw	r0, #32912	; 0x8090
    18ec:	f2c0 0000 	movt	r0, #0
    18f0:	f248 122b 	movw	r2, #33067	; 0x812b
    18f4:	f2c0 0200 	movt	r2, #0
    18f8:	f248 1304 	movw	r3, #33028	; 0x8104
    18fc:	f2c0 0300 	movt	r3, #0
    1900:	21ba      	movs	r1, #186	; 0xba
    1902:	f003 faa7 	bl	4e54 <__assert_func>
    1906:	9b01      	ldr	r3, [sp, #4]
    1908:	f640 10d8 	movw	r0, #2520	; 0x9d8
    190c:	f2c2 0000 	movt	r0, #8192	; 0x2000
    1910:	f850 2023 	ldr.w	r2, [r0, r3, lsl #2]
    1914:	f248 006c 	movw	r0, #32876	; 0x806c
    1918:	f2c0 0000 	movt	r0, #0
    191c:	f850 0023 	ldr.w	r0, [r0, r3, lsl #2]
    1920:	f640 11fc 	movw	r1, #2556	; 0x9fc
    1924:	f2c2 0100 	movt	r1, #8192	; 0x2000
    1928:	f851 1023 	ldr.w	r1, [r1, r3, lsl #2]
    192c:	4790      	blx	r2
    192e:	b002      	add	sp, #8
    1930:	bd80      	pop	{r7, pc}

00001932 <FLEXCOMM2_DriverIRQHandler>:
    1932:	b580      	push	{r7, lr}
    1934:	466f      	mov	r7, sp
    1936:	b082      	sub	sp, #8
    1938:	f248 0000 	movw	r0, #32768	; 0x8000
    193c:	f2c4 0008 	movt	r0, #16392	; 0x4008
    1940:	f7ff feea 	bl	1718 <FLEXCOMM_GetInstance>
    1944:	4601      	mov	r1, r0
    1946:	4608      	mov	r0, r1
    1948:	9001      	str	r0, [sp, #4]
    194a:	f640 10d8 	movw	r0, #2520	; 0x9d8
    194e:	f2c2 0000 	movt	r0, #8192	; 0x2000
    1952:	f850 0021 	ldr.w	r0, [r0, r1, lsl #2]
    1956:	b108      	cbz	r0, 195c <FLEXCOMM2_DriverIRQHandler+0x2a>
    1958:	e7ff      	b.n	195a <FLEXCOMM2_DriverIRQHandler+0x28>
    195a:	e00e      	b.n	197a <FLEXCOMM2_DriverIRQHandler+0x48>
    195c:	f248 0090 	movw	r0, #32912	; 0x8090
    1960:	f2c0 0000 	movt	r0, #0
    1964:	f248 1246 	movw	r2, #33094	; 0x8146
    1968:	f2c0 0200 	movt	r2, #0
    196c:	f248 1304 	movw	r3, #33028	; 0x8104
    1970:	f2c0 0300 	movt	r3, #0
    1974:	21c8      	movs	r1, #200	; 0xc8
    1976:	f003 fa6d 	bl	4e54 <__assert_func>
    197a:	9b01      	ldr	r3, [sp, #4]
    197c:	f640 10d8 	movw	r0, #2520	; 0x9d8
    1980:	f2c2 0000 	movt	r0, #8192	; 0x2000
    1984:	f850 2023 	ldr.w	r2, [r0, r3, lsl #2]
    1988:	f248 006c 	movw	r0, #32876	; 0x806c
    198c:	f2c0 0000 	movt	r0, #0
    1990:	f850 0023 	ldr.w	r0, [r0, r3, lsl #2]
    1994:	f640 11fc 	movw	r1, #2556	; 0x9fc
    1998:	f2c2 0100 	movt	r1, #8192	; 0x2000
    199c:	f851 1023 	ldr.w	r1, [r1, r3, lsl #2]
    19a0:	4790      	blx	r2
    19a2:	b002      	add	sp, #8
    19a4:	bd80      	pop	{r7, pc}

000019a6 <FLEXCOMM3_DriverIRQHandler>:
    19a6:	b580      	push	{r7, lr}
    19a8:	466f      	mov	r7, sp
    19aa:	b082      	sub	sp, #8
    19ac:	f249 0000 	movw	r0, #36864	; 0x9000
    19b0:	f2c4 0008 	movt	r0, #16392	; 0x4008
    19b4:	f7ff feb0 	bl	1718 <FLEXCOMM_GetInstance>
    19b8:	4601      	mov	r1, r0
    19ba:	4608      	mov	r0, r1
    19bc:	9001      	str	r0, [sp, #4]
    19be:	f640 10d8 	movw	r0, #2520	; 0x9d8
    19c2:	f2c2 0000 	movt	r0, #8192	; 0x2000
    19c6:	f850 0021 	ldr.w	r0, [r0, r1, lsl #2]
    19ca:	b108      	cbz	r0, 19d0 <FLEXCOMM3_DriverIRQHandler+0x2a>
    19cc:	e7ff      	b.n	19ce <FLEXCOMM3_DriverIRQHandler+0x28>
    19ce:	e00e      	b.n	19ee <FLEXCOMM3_DriverIRQHandler+0x48>
    19d0:	f248 0090 	movw	r0, #32912	; 0x8090
    19d4:	f2c0 0000 	movt	r0, #0
    19d8:	f248 1261 	movw	r2, #33121	; 0x8161
    19dc:	f2c0 0200 	movt	r2, #0
    19e0:	f248 1304 	movw	r3, #33028	; 0x8104
    19e4:	f2c0 0300 	movt	r3, #0
    19e8:	21d6      	movs	r1, #214	; 0xd6
    19ea:	f003 fa33 	bl	4e54 <__assert_func>
    19ee:	9b01      	ldr	r3, [sp, #4]
    19f0:	f640 10d8 	movw	r0, #2520	; 0x9d8
    19f4:	f2c2 0000 	movt	r0, #8192	; 0x2000
    19f8:	f850 2023 	ldr.w	r2, [r0, r3, lsl #2]
    19fc:	f248 006c 	movw	r0, #32876	; 0x806c
    1a00:	f2c0 0000 	movt	r0, #0
    1a04:	f850 0023 	ldr.w	r0, [r0, r3, lsl #2]
    1a08:	f640 11fc 	movw	r1, #2556	; 0x9fc
    1a0c:	f2c2 0100 	movt	r1, #8192	; 0x2000
    1a10:	f851 1023 	ldr.w	r1, [r1, r3, lsl #2]
    1a14:	4790      	blx	r2
    1a16:	b002      	add	sp, #8
    1a18:	bd80      	pop	{r7, pc}

00001a1a <FLEXCOMM4_DriverIRQHandler>:
    1a1a:	b580      	push	{r7, lr}
    1a1c:	466f      	mov	r7, sp
    1a1e:	b082      	sub	sp, #8
    1a20:	f24a 0000 	movw	r0, #40960	; 0xa000
    1a24:	f2c4 0008 	movt	r0, #16392	; 0x4008
    1a28:	f7ff fe76 	bl	1718 <FLEXCOMM_GetInstance>
    1a2c:	4601      	mov	r1, r0
    1a2e:	4608      	mov	r0, r1
    1a30:	9001      	str	r0, [sp, #4]
    1a32:	f640 10d8 	movw	r0, #2520	; 0x9d8
    1a36:	f2c2 0000 	movt	r0, #8192	; 0x2000
    1a3a:	f850 0021 	ldr.w	r0, [r0, r1, lsl #2]
    1a3e:	b108      	cbz	r0, 1a44 <FLEXCOMM4_DriverIRQHandler+0x2a>
    1a40:	e7ff      	b.n	1a42 <FLEXCOMM4_DriverIRQHandler+0x28>
    1a42:	e00e      	b.n	1a62 <FLEXCOMM4_DriverIRQHandler+0x48>
    1a44:	f248 0090 	movw	r0, #32912	; 0x8090
    1a48:	f2c0 0000 	movt	r0, #0
    1a4c:	f248 127c 	movw	r2, #33148	; 0x817c
    1a50:	f2c0 0200 	movt	r2, #0
    1a54:	f248 1304 	movw	r3, #33028	; 0x8104
    1a58:	f2c0 0300 	movt	r3, #0
    1a5c:	21e4      	movs	r1, #228	; 0xe4
    1a5e:	f003 f9f9 	bl	4e54 <__assert_func>
    1a62:	9b01      	ldr	r3, [sp, #4]
    1a64:	f640 10d8 	movw	r0, #2520	; 0x9d8
    1a68:	f2c2 0000 	movt	r0, #8192	; 0x2000
    1a6c:	f850 2023 	ldr.w	r2, [r0, r3, lsl #2]
    1a70:	f248 006c 	movw	r0, #32876	; 0x806c
    1a74:	f2c0 0000 	movt	r0, #0
    1a78:	f850 0023 	ldr.w	r0, [r0, r3, lsl #2]
    1a7c:	f640 11fc 	movw	r1, #2556	; 0x9fc
    1a80:	f2c2 0100 	movt	r1, #8192	; 0x2000
    1a84:	f851 1023 	ldr.w	r1, [r1, r3, lsl #2]
    1a88:	4790      	blx	r2
    1a8a:	b002      	add	sp, #8
    1a8c:	bd80      	pop	{r7, pc}

00001a8e <FLEXCOMM5_DriverIRQHandler>:
    1a8e:	b580      	push	{r7, lr}
    1a90:	466f      	mov	r7, sp
    1a92:	b082      	sub	sp, #8
    1a94:	f246 0000 	movw	r0, #24576	; 0x6000
    1a98:	f2c4 0009 	movt	r0, #16393	; 0x4009
    1a9c:	f7ff fe3c 	bl	1718 <FLEXCOMM_GetInstance>
    1aa0:	4601      	mov	r1, r0
    1aa2:	4608      	mov	r0, r1
    1aa4:	9001      	str	r0, [sp, #4]
    1aa6:	f640 10d8 	movw	r0, #2520	; 0x9d8
    1aaa:	f2c2 0000 	movt	r0, #8192	; 0x2000
    1aae:	f850 0021 	ldr.w	r0, [r0, r1, lsl #2]
    1ab2:	b108      	cbz	r0, 1ab8 <FLEXCOMM5_DriverIRQHandler+0x2a>
    1ab4:	e7ff      	b.n	1ab6 <FLEXCOMM5_DriverIRQHandler+0x28>
    1ab6:	e00e      	b.n	1ad6 <FLEXCOMM5_DriverIRQHandler+0x48>
    1ab8:	f248 0090 	movw	r0, #32912	; 0x8090
    1abc:	f2c0 0000 	movt	r0, #0
    1ac0:	f248 1297 	movw	r2, #33175	; 0x8197
    1ac4:	f2c0 0200 	movt	r2, #0
    1ac8:	f248 1304 	movw	r3, #33028	; 0x8104
    1acc:	f2c0 0300 	movt	r3, #0
    1ad0:	21f3      	movs	r1, #243	; 0xf3
    1ad2:	f003 f9bf 	bl	4e54 <__assert_func>
    1ad6:	9b01      	ldr	r3, [sp, #4]
    1ad8:	f640 10d8 	movw	r0, #2520	; 0x9d8
    1adc:	f2c2 0000 	movt	r0, #8192	; 0x2000
    1ae0:	f850 2023 	ldr.w	r2, [r0, r3, lsl #2]
    1ae4:	f248 006c 	movw	r0, #32876	; 0x806c
    1ae8:	f2c0 0000 	movt	r0, #0
    1aec:	f850 0023 	ldr.w	r0, [r0, r3, lsl #2]
    1af0:	f640 11fc 	movw	r1, #2556	; 0x9fc
    1af4:	f2c2 0100 	movt	r1, #8192	; 0x2000
    1af8:	f851 1023 	ldr.w	r1, [r1, r3, lsl #2]
    1afc:	4790      	blx	r2
    1afe:	b002      	add	sp, #8
    1b00:	bd80      	pop	{r7, pc}

00001b02 <FLEXCOMM6_DriverIRQHandler>:
    1b02:	b580      	push	{r7, lr}
    1b04:	466f      	mov	r7, sp
    1b06:	b082      	sub	sp, #8
    1b08:	f247 0000 	movw	r0, #28672	; 0x7000
    1b0c:	f2c4 0009 	movt	r0, #16393	; 0x4009
    1b10:	f7ff fe02 	bl	1718 <FLEXCOMM_GetInstance>
    1b14:	4601      	mov	r1, r0
    1b16:	4608      	mov	r0, r1
    1b18:	9001      	str	r0, [sp, #4]
    1b1a:	f640 10d8 	movw	r0, #2520	; 0x9d8
    1b1e:	f2c2 0000 	movt	r0, #8192	; 0x2000
    1b22:	f850 0021 	ldr.w	r0, [r0, r1, lsl #2]
    1b26:	b108      	cbz	r0, 1b2c <FLEXCOMM6_DriverIRQHandler+0x2a>
    1b28:	e7ff      	b.n	1b2a <FLEXCOMM6_DriverIRQHandler+0x28>
    1b2a:	e00f      	b.n	1b4c <FLEXCOMM6_DriverIRQHandler+0x4a>
    1b2c:	f248 0090 	movw	r0, #32912	; 0x8090
    1b30:	f2c0 0000 	movt	r0, #0
    1b34:	f248 12b2 	movw	r2, #33202	; 0x81b2
    1b38:	f2c0 0200 	movt	r2, #0
    1b3c:	f248 1304 	movw	r3, #33028	; 0x8104
    1b40:	f2c0 0300 	movt	r3, #0
    1b44:	f240 1101 	movw	r1, #257	; 0x101
    1b48:	f003 f984 	bl	4e54 <__assert_func>
    1b4c:	9b01      	ldr	r3, [sp, #4]
    1b4e:	f640 10d8 	movw	r0, #2520	; 0x9d8
    1b52:	f2c2 0000 	movt	r0, #8192	; 0x2000
    1b56:	f850 2023 	ldr.w	r2, [r0, r3, lsl #2]
    1b5a:	f248 006c 	movw	r0, #32876	; 0x806c
    1b5e:	f2c0 0000 	movt	r0, #0
    1b62:	f850 0023 	ldr.w	r0, [r0, r3, lsl #2]
    1b66:	f640 11fc 	movw	r1, #2556	; 0x9fc
    1b6a:	f2c2 0100 	movt	r1, #8192	; 0x2000
    1b6e:	f851 1023 	ldr.w	r1, [r1, r3, lsl #2]
    1b72:	4790      	blx	r2
    1b74:	b002      	add	sp, #8
    1b76:	bd80      	pop	{r7, pc}

00001b78 <FLEXCOMM7_DriverIRQHandler>:
    1b78:	b580      	push	{r7, lr}
    1b7a:	466f      	mov	r7, sp
    1b7c:	b082      	sub	sp, #8
    1b7e:	f248 0000 	movw	r0, #32768	; 0x8000
    1b82:	f2c4 0009 	movt	r0, #16393	; 0x4009
    1b86:	f7ff fdc7 	bl	1718 <FLEXCOMM_GetInstance>
    1b8a:	4601      	mov	r1, r0
    1b8c:	4608      	mov	r0, r1
    1b8e:	9001      	str	r0, [sp, #4]
    1b90:	f640 10d8 	movw	r0, #2520	; 0x9d8
    1b94:	f2c2 0000 	movt	r0, #8192	; 0x2000
    1b98:	f850 0021 	ldr.w	r0, [r0, r1, lsl #2]
    1b9c:	b108      	cbz	r0, 1ba2 <FLEXCOMM7_DriverIRQHandler+0x2a>
    1b9e:	e7ff      	b.n	1ba0 <FLEXCOMM7_DriverIRQHandler+0x28>
    1ba0:	e00f      	b.n	1bc2 <FLEXCOMM7_DriverIRQHandler+0x4a>
    1ba2:	f248 0090 	movw	r0, #32912	; 0x8090
    1ba6:	f2c0 0000 	movt	r0, #0
    1baa:	f248 12cd 	movw	r2, #33229	; 0x81cd
    1bae:	f2c0 0200 	movt	r2, #0
    1bb2:	f248 1304 	movw	r3, #33028	; 0x8104
    1bb6:	f2c0 0300 	movt	r3, #0
    1bba:	f240 110f 	movw	r1, #271	; 0x10f
    1bbe:	f003 f949 	bl	4e54 <__assert_func>
    1bc2:	9b01      	ldr	r3, [sp, #4]
    1bc4:	f640 10d8 	movw	r0, #2520	; 0x9d8
    1bc8:	f2c2 0000 	movt	r0, #8192	; 0x2000
    1bcc:	f850 2023 	ldr.w	r2, [r0, r3, lsl #2]
    1bd0:	f248 006c 	movw	r0, #32876	; 0x806c
    1bd4:	f2c0 0000 	movt	r0, #0
    1bd8:	f850 0023 	ldr.w	r0, [r0, r3, lsl #2]
    1bdc:	f640 11fc 	movw	r1, #2556	; 0x9fc
    1be0:	f2c2 0100 	movt	r1, #8192	; 0x2000
    1be4:	f851 1023 	ldr.w	r1, [r1, r3, lsl #2]
    1be8:	4790      	blx	r2
    1bea:	b002      	add	sp, #8
    1bec:	bd80      	pop	{r7, pc}

00001bee <FLEXCOMM8_DriverIRQHandler>:
    1bee:	b580      	push	{r7, lr}
    1bf0:	466f      	mov	r7, sp
    1bf2:	b082      	sub	sp, #8
    1bf4:	f24f 0000 	movw	r0, #61440	; 0xf000
    1bf8:	f2c4 0009 	movt	r0, #16393	; 0x4009
    1bfc:	f7ff fd8c 	bl	1718 <FLEXCOMM_GetInstance>
    1c00:	4601      	mov	r1, r0
    1c02:	4608      	mov	r0, r1
    1c04:	9001      	str	r0, [sp, #4]
    1c06:	f640 10d8 	movw	r0, #2520	; 0x9d8
    1c0a:	f2c2 0000 	movt	r0, #8192	; 0x2000
    1c0e:	f850 0021 	ldr.w	r0, [r0, r1, lsl #2]
    1c12:	b108      	cbz	r0, 1c18 <FLEXCOMM8_DriverIRQHandler+0x2a>
    1c14:	e7ff      	b.n	1c16 <FLEXCOMM8_DriverIRQHandler+0x28>
    1c16:	e00f      	b.n	1c38 <FLEXCOMM8_DriverIRQHandler+0x4a>
    1c18:	f248 0090 	movw	r0, #32912	; 0x8090
    1c1c:	f2c0 0000 	movt	r0, #0
    1c20:	f248 12e8 	movw	r2, #33256	; 0x81e8
    1c24:	f2c0 0200 	movt	r2, #0
    1c28:	f248 1304 	movw	r3, #33028	; 0x8104
    1c2c:	f2c0 0300 	movt	r3, #0
    1c30:	f240 111d 	movw	r1, #285	; 0x11d
    1c34:	f003 f90e 	bl	4e54 <__assert_func>
    1c38:	9b01      	ldr	r3, [sp, #4]
    1c3a:	f640 10d8 	movw	r0, #2520	; 0x9d8
    1c3e:	f2c2 0000 	movt	r0, #8192	; 0x2000
    1c42:	f850 2023 	ldr.w	r2, [r0, r3, lsl #2]
    1c46:	f248 006c 	movw	r0, #32876	; 0x806c
    1c4a:	f2c0 0000 	movt	r0, #0
    1c4e:	f850 0023 	ldr.w	r0, [r0, r3, lsl #2]
    1c52:	f640 11fc 	movw	r1, #2556	; 0x9fc
    1c56:	f2c2 0100 	movt	r1, #8192	; 0x2000
    1c5a:	f851 1023 	ldr.w	r1, [r1, r3, lsl #2]
    1c5e:	4790      	blx	r2
    1c60:	b002      	add	sp, #8
    1c62:	bd80      	pop	{r7, pc}

00001c64 <FLEXCOMM_PeripheralIsPresent>:
    1c64:	b083      	sub	sp, #12
    1c66:	9001      	str	r0, [sp, #4]
    1c68:	4608      	mov	r0, r1
    1c6a:	9002      	str	r0, [sp, #8]
    1c6c:	b919      	cbnz	r1, 1c76 <FLEXCOMM_PeripheralIsPresent+0x12>
    1c6e:	e7ff      	b.n	1c70 <FLEXCOMM_PeripheralIsPresent+0xc>
    1c70:	2001      	movs	r0, #1
    1c72:	9000      	str	r0, [sp, #0]
    1c74:	e01f      	b.n	1cb6 <FLEXCOMM_PeripheralIsPresent+0x52>
    1c76:	9802      	ldr	r0, [sp, #8]
    1c78:	b2c0      	uxtb	r0, r0
    1c7a:	2804      	cmp	r0, #4
    1c7c:	dc0c      	bgt.n	1c98 <FLEXCOMM_PeripheralIsPresent+0x34>
    1c7e:	e7ff      	b.n	1c80 <FLEXCOMM_PeripheralIsPresent+0x1c>
    1c80:	9a02      	ldr	r2, [sp, #8]
    1c82:	9801      	ldr	r0, [sp, #4]
    1c84:	f8d0 0ff8 	ldr.w	r0, [r0, #4088]	; 0xff8
    1c88:	2103      	movs	r1, #3
    1c8a:	fa51 f182 	uxtab	r1, r1, r2
    1c8e:	40c8      	lsrs	r0, r1
    1c90:	f000 0001 	and.w	r0, r0, #1
    1c94:	9000      	str	r0, [sp, #0]
    1c96:	e00e      	b.n	1cb6 <FLEXCOMM_PeripheralIsPresent+0x52>
    1c98:	9802      	ldr	r0, [sp, #8]
    1c9a:	b2c0      	uxtb	r0, r0
    1c9c:	2805      	cmp	r0, #5
    1c9e:	d107      	bne.n	1cb0 <FLEXCOMM_PeripheralIsPresent+0x4c>
    1ca0:	e7ff      	b.n	1ca2 <FLEXCOMM_PeripheralIsPresent+0x3e>
    1ca2:	9801      	ldr	r0, [sp, #4]
    1ca4:	f8d0 0ff8 	ldr.w	r0, [r0, #4088]	; 0xff8
    1ca8:	b2c0      	uxtb	r0, r0
    1caa:	09c0      	lsrs	r0, r0, #7
    1cac:	9000      	str	r0, [sp, #0]
    1cae:	e002      	b.n	1cb6 <FLEXCOMM_PeripheralIsPresent+0x52>
    1cb0:	2000      	movs	r0, #0
    1cb2:	9000      	str	r0, [sp, #0]
    1cb4:	e7ff      	b.n	1cb6 <FLEXCOMM_PeripheralIsPresent+0x52>
    1cb6:	9800      	ldr	r0, [sp, #0]
    1cb8:	f000 0001 	and.w	r0, r0, #1
    1cbc:	b003      	add	sp, #12
    1cbe:	4770      	bx	lr

00001cc0 <USART_Init>:
    1cc0:	b5d0      	push	{r4, r6, r7, lr}
    1cc2:	af02      	add	r7, sp, #8
    1cc4:	b086      	sub	sp, #24
    1cc6:	9203      	str	r2, [sp, #12]
    1cc8:	9104      	str	r1, [sp, #16]
    1cca:	9005      	str	r0, [sp, #20]
    1ccc:	b138      	cbz	r0, 1cde <USART_Init+0x1e>
    1cce:	e7ff      	b.n	1cd0 <USART_Init+0x10>
    1cd0:	9804      	ldr	r0, [sp, #16]
    1cd2:	b120      	cbz	r0, 1cde <USART_Init+0x1e>
    1cd4:	e7ff      	b.n	1cd6 <USART_Init+0x16>
    1cd6:	9803      	ldr	r0, [sp, #12]
    1cd8:	b108      	cbz	r0, 1cde <USART_Init+0x1e>
    1cda:	e7ff      	b.n	1cdc <USART_Init+0x1c>
    1cdc:	e00e      	b.n	1cfc <USART_Init+0x3c>
    1cde:	f248 203c 	movw	r0, #33340	; 0x823c
    1ce2:	f2c0 0000 	movt	r0, #0
    1ce6:	f248 321a 	movw	r2, #33562	; 0x831a
    1cea:	f2c0 0200 	movt	r2, #0
    1cee:	f248 3325 	movw	r3, #33573	; 0x8325
    1cf2:	f2c0 0300 	movt	r3, #0
    1cf6:	21c6      	movs	r1, #198	; 0xc6
    1cf8:	f003 f8ac 	bl	4e54 <__assert_func>
    1cfc:	9805      	ldr	r0, [sp, #20]
    1cfe:	b130      	cbz	r0, 1d0e <USART_Init+0x4e>
    1d00:	e7ff      	b.n	1d02 <USART_Init+0x42>
    1d02:	9804      	ldr	r0, [sp, #16]
    1d04:	b118      	cbz	r0, 1d0e <USART_Init+0x4e>
    1d06:	e7ff      	b.n	1d08 <USART_Init+0x48>
    1d08:	9803      	ldr	r0, [sp, #12]
    1d0a:	b918      	cbnz	r0, 1d14 <USART_Init+0x54>
    1d0c:	e7ff      	b.n	1d0e <USART_Init+0x4e>
    1d0e:	2004      	movs	r0, #4
    1d10:	9002      	str	r0, [sp, #8]
    1d12:	e0b6      	b.n	1e82 <USART_Init+0x1c2>
    1d14:	9805      	ldr	r0, [sp, #20]
    1d16:	2101      	movs	r1, #1
    1d18:	f7ff fd32 	bl	1780 <FLEXCOMM_Init>
    1d1c:	4601      	mov	r1, r0
    1d1e:	9101      	str	r1, [sp, #4]
    1d20:	b118      	cbz	r0, 1d2a <USART_Init+0x6a>
    1d22:	e7ff      	b.n	1d24 <USART_Init+0x64>
    1d24:	9801      	ldr	r0, [sp, #4]
    1d26:	9002      	str	r0, [sp, #8]
    1d28:	e0ab      	b.n	1e82 <USART_Init+0x1c2>
    1d2a:	9804      	ldr	r0, [sp, #16]
    1d2c:	7a40      	ldrb	r0, [r0, #9]
    1d2e:	07c0      	lsls	r0, r0, #31
    1d30:	b1f0      	cbz	r0, 1d70 <USART_Init+0xb0>
    1d32:	e7ff      	b.n	1d34 <USART_Init+0x74>
    1d34:	9905      	ldr	r1, [sp, #20]
    1d36:	9804      	ldr	r0, [sp, #16]
    1d38:	f8d1 2e00 	ldr.w	r2, [r1, #3584]	; 0xe00
    1d3c:	f042 1201 	orr.w	r2, r2, #65537	; 0x10001
    1d40:	f8c1 2e00 	str.w	r2, [r1, #3584]	; 0xe00
    1d44:	f8d1 2e08 	ldr.w	r2, [r1, #3592]	; 0xe08
    1d48:	f422 6270 	bic.w	r2, r2, #3840	; 0xf00
    1d4c:	f8c1 2e08 	str.w	r2, [r1, #3592]	; 0xe08
    1d50:	7b40      	ldrb	r0, [r0, #13]
    1d52:	f000 020f 	and.w	r2, r0, #15
    1d56:	f8d1 0e08 	ldr.w	r0, [r1, #3592]	; 0xe08
    1d5a:	ea40 2002 	orr.w	r0, r0, r2, lsl #8
    1d5e:	f8c1 0e08 	str.w	r0, [r1, #3592]	; 0xe08
    1d62:	f8d1 0e08 	ldr.w	r0, [r1, #3592]	; 0xe08
    1d66:	f040 0001 	orr.w	r0, r0, #1
    1d6a:	f8c1 0e08 	str.w	r0, [r1, #3592]	; 0xe08
    1d6e:	e7ff      	b.n	1d70 <USART_Init+0xb0>
    1d70:	9804      	ldr	r0, [sp, #16]
    1d72:	7a00      	ldrb	r0, [r0, #8]
    1d74:	07c0      	lsls	r0, r0, #31
    1d76:	b1f0      	cbz	r0, 1db6 <USART_Init+0xf6>
    1d78:	e7ff      	b.n	1d7a <USART_Init+0xba>
    1d7a:	9905      	ldr	r1, [sp, #20]
    1d7c:	9804      	ldr	r0, [sp, #16]
    1d7e:	f8d1 2e00 	ldr.w	r2, [r1, #3584]	; 0xe00
    1d82:	f042 1202 	orr.w	r2, r2, #131074	; 0x20002
    1d86:	f8c1 2e00 	str.w	r2, [r1, #3584]	; 0xe00
    1d8a:	f8d1 2e08 	ldr.w	r2, [r1, #3592]	; 0xe08
    1d8e:	f422 2270 	bic.w	r2, r2, #983040	; 0xf0000
    1d92:	f8c1 2e08 	str.w	r2, [r1, #3592]	; 0xe08
    1d96:	7b80      	ldrb	r0, [r0, #14]
    1d98:	f000 020f 	and.w	r2, r0, #15
    1d9c:	f8d1 0e08 	ldr.w	r0, [r1, #3592]	; 0xe08
    1da0:	ea40 4002 	orr.w	r0, r0, r2, lsl #16
    1da4:	f8c1 0e08 	str.w	r0, [r1, #3592]	; 0xe08
    1da8:	f8d1 0e08 	ldr.w	r0, [r1, #3592]	; 0xe08
    1dac:	f040 0002 	orr.w	r0, r0, #2
    1db0:	f8c1 0e08 	str.w	r0, [r1, #3592]	; 0xe08
    1db4:	e7ff      	b.n	1db6 <USART_Init+0xf6>
    1db6:	9804      	ldr	r0, [sp, #16]
    1db8:	9a05      	ldr	r2, [sp, #20]
    1dba:	f890 e004 	ldrb.w	lr, [r0, #4]
    1dbe:	7944      	ldrb	r4, [r0, #5]
    1dc0:	f890 c006 	ldrb.w	ip, [r0, #6]
    1dc4:	79c3      	ldrb	r3, [r0, #7]
    1dc6:	2140      	movs	r1, #64	; 0x40
    1dc8:	ea01 1184 	and.w	r1, r1, r4, lsl #6
    1dcc:	f36e 1105 	bfi	r1, lr, #4, #2
    1dd0:	f00c 0c03 	and.w	ip, ip, #3
    1dd4:	ea41 018c 	orr.w	r1, r1, ip, lsl #2
    1dd8:	f003 0301 	and.w	r3, r3, #1
    1ddc:	ea41 31c3 	orr.w	r1, r1, r3, lsl #15
    1de0:	7bc3      	ldrb	r3, [r0, #15]
    1de2:	f003 0c02 	and.w	ip, r3, #2
    1de6:	ea41 218c 	orr.w	r1, r1, ip, lsl #10
    1dea:	f003 0301 	and.w	r3, r3, #1
    1dee:	ea41 3183 	orr.w	r1, r1, r3, lsl #14
    1df2:	7c03      	ldrb	r3, [r0, #16]
    1df4:	f003 0301 	and.w	r3, r3, #1
    1df8:	ea41 3103 	orr.w	r1, r1, r3, lsl #12
    1dfc:	7ac3      	ldrb	r3, [r0, #11]
    1dfe:	f003 0301 	and.w	r3, r3, #1
    1e02:	ea41 11c3 	orr.w	r1, r1, r3, lsl #7
    1e06:	7b03      	ldrb	r3, [r0, #12]
    1e08:	f003 0301 	and.w	r3, r3, #1
    1e0c:	ea41 2143 	orr.w	r1, r1, r3, lsl #9
    1e10:	f041 0101 	orr.w	r1, r1, #1
    1e14:	6011      	str	r1, [r2, #0]
    1e16:	7ac0      	ldrb	r0, [r0, #11]
    1e18:	07c0      	lsls	r0, r0, #31
    1e1a:	b1d0      	cbz	r0, 1e52 <USART_Init+0x192>
    1e1c:	e7ff      	b.n	1e1e <USART_Init+0x15e>
    1e1e:	9804      	ldr	r0, [sp, #16]
    1e20:	6801      	ldr	r1, [r0, #0]
    1e22:	f44f 5016 	mov.w	r0, #9600	; 0x2580
    1e26:	fbb0 f0f1 	udiv	r0, r0, r1
    1e2a:	4348      	muls	r0, r1
    1e2c:	f5c0 5016 	rsb	r0, r0, #9600	; 0x2580
    1e30:	b950      	cbnz	r0, 1e48 <USART_Init+0x188>
    1e32:	e7ff      	b.n	1e34 <USART_Init+0x174>
    1e34:	9905      	ldr	r1, [sp, #20]
    1e36:	9804      	ldr	r0, [sp, #16]
    1e38:	6802      	ldr	r2, [r0, #0]
    1e3a:	f44f 5016 	mov.w	r0, #9600	; 0x2580
    1e3e:	fbb0 f0f2 	udiv	r0, r0, r2
    1e42:	3801      	subs	r0, #1
    1e44:	6208      	str	r0, [r1, #32]
    1e46:	e003      	b.n	1e50 <USART_Init+0x190>
    1e48:	f241 6051 	movw	r0, #5713	; 0x1651
    1e4c:	9002      	str	r0, [sp, #8]
    1e4e:	e018      	b.n	1e82 <USART_Init+0x1c2>
    1e50:	e00d      	b.n	1e6e <USART_Init+0x1ae>
    1e52:	9a03      	ldr	r2, [sp, #12]
    1e54:	9805      	ldr	r0, [sp, #20]
    1e56:	9904      	ldr	r1, [sp, #16]
    1e58:	6809      	ldr	r1, [r1, #0]
    1e5a:	f000 f815 	bl	1e88 <USART_SetBaudRate>
    1e5e:	4601      	mov	r1, r0
    1e60:	9100      	str	r1, [sp, #0]
    1e62:	b118      	cbz	r0, 1e6c <USART_Init+0x1ac>
    1e64:	e7ff      	b.n	1e66 <USART_Init+0x1a6>
    1e66:	9800      	ldr	r0, [sp, #0]
    1e68:	9002      	str	r0, [sp, #8]
    1e6a:	e00a      	b.n	1e82 <USART_Init+0x1c2>
    1e6c:	e7ff      	b.n	1e6e <USART_Init+0x1ae>
    1e6e:	9805      	ldr	r0, [sp, #20]
    1e70:	9904      	ldr	r1, [sp, #16]
    1e72:	7a89      	ldrb	r1, [r1, #10]
    1e74:	f001 0101 	and.w	r1, r1, #1
    1e78:	f000 f900 	bl	207c <USART_EnableContinuousSCLK>
    1e7c:	2000      	movs	r0, #0
    1e7e:	9002      	str	r0, [sp, #8]
    1e80:	e7ff      	b.n	1e82 <USART_Init+0x1c2>
    1e82:	9802      	ldr	r0, [sp, #8]
    1e84:	b006      	add	sp, #24
    1e86:	bdd0      	pop	{r4, r6, r7, pc}

00001e88 <USART_SetBaudRate>:
    1e88:	b580      	push	{r7, lr}
    1e8a:	466f      	mov	r7, sp
    1e8c:	b09a      	sub	sp, #104	; 0x68
    1e8e:	9217      	str	r2, [sp, #92]	; 0x5c
    1e90:	9118      	str	r1, [sp, #96]	; 0x60
    1e92:	9019      	str	r0, [sp, #100]	; 0x64
    1e94:	b138      	cbz	r0, 1ea6 <USART_SetBaudRate+0x1e>
    1e96:	e7ff      	b.n	1e98 <USART_SetBaudRate+0x10>
    1e98:	9818      	ldr	r0, [sp, #96]	; 0x60
    1e9a:	b120      	cbz	r0, 1ea6 <USART_SetBaudRate+0x1e>
    1e9c:	e7ff      	b.n	1e9e <USART_SetBaudRate+0x16>
    1e9e:	9817      	ldr	r0, [sp, #92]	; 0x5c
    1ea0:	b108      	cbz	r0, 1ea6 <USART_SetBaudRate+0x1e>
    1ea2:	e7ff      	b.n	1ea4 <USART_SetBaudRate+0x1c>
    1ea4:	e00f      	b.n	1ec6 <USART_SetBaudRate+0x3e>
    1ea6:	f248 203c 	movw	r0, #33340	; 0x823c
    1eaa:	f2c0 0000 	movt	r0, #0
    1eae:	f248 3295 	movw	r2, #33685	; 0x8395
    1eb2:	f2c0 0200 	movt	r2, #0
    1eb6:	f248 33a7 	movw	r3, #33703	; 0x83a7
    1eba:	f2c0 0300 	movt	r3, #0
    1ebe:	f240 11af 	movw	r1, #431	; 0x1af
    1ec2:	f002 ffc7 	bl	4e54 <__assert_func>
    1ec6:	9819      	ldr	r0, [sp, #100]	; 0x64
    1ec8:	b130      	cbz	r0, 1ed8 <USART_SetBaudRate+0x50>
    1eca:	e7ff      	b.n	1ecc <USART_SetBaudRate+0x44>
    1ecc:	9818      	ldr	r0, [sp, #96]	; 0x60
    1ece:	b118      	cbz	r0, 1ed8 <USART_SetBaudRate+0x50>
    1ed0:	e7ff      	b.n	1ed2 <USART_SetBaudRate+0x4a>
    1ed2:	9817      	ldr	r0, [sp, #92]	; 0x5c
    1ed4:	b918      	cbnz	r0, 1ede <USART_SetBaudRate+0x56>
    1ed6:	e7ff      	b.n	1ed8 <USART_SetBaudRate+0x50>
    1ed8:	2004      	movs	r0, #4
    1eda:	9016      	str	r0, [sp, #88]	; 0x58
    1edc:	e0cb      	b.n	2076 <USART_SetBaudRate+0x1ee>
    1ede:	9819      	ldr	r0, [sp, #100]	; 0x64
    1ee0:	6800      	ldr	r0, [r0, #0]
    1ee2:	0500      	lsls	r0, r0, #20
    1ee4:	2800      	cmp	r0, #0
    1ee6:	d50f      	bpl.n	1f08 <USART_SetBaudRate+0x80>
    1ee8:	e7ff      	b.n	1eea <USART_SetBaudRate+0x62>
    1eea:	9819      	ldr	r0, [sp, #100]	; 0x64
    1eec:	6800      	ldr	r0, [r0, #0]
    1eee:	0440      	lsls	r0, r0, #17
    1ef0:	2800      	cmp	r0, #0
    1ef2:	d508      	bpl.n	1f06 <USART_SetBaudRate+0x7e>
    1ef4:	e7ff      	b.n	1ef6 <USART_SetBaudRate+0x6e>
    1ef6:	9919      	ldr	r1, [sp, #100]	; 0x64
    1ef8:	9817      	ldr	r0, [sp, #92]	; 0x5c
    1efa:	9a18      	ldr	r2, [sp, #96]	; 0x60
    1efc:	fbb0 f0f2 	udiv	r0, r0, r2
    1f00:	3801      	subs	r0, #1
    1f02:	6208      	str	r0, [r1, #32]
    1f04:	e7ff      	b.n	1f06 <USART_SetBaudRate+0x7e>
    1f06:	e0b3      	b.n	2070 <USART_SetBaudRate+0x1e8>
    1f08:	9818      	ldr	r0, [sp, #96]	; 0x60
    1f0a:	f248 511f 	movw	r1, #34079	; 0x851f
    1f0e:	f2c5 11eb 	movt	r1, #20971	; 0x51eb
    1f12:	fba0 1001 	umull	r1, r0, r0, r1
    1f16:	0940      	lsrs	r0, r0, #5
    1f18:	eb00 0240 	add.w	r2, r0, r0, lsl #1
    1f1c:	f04f 30ff 	mov.w	r0, #4294967295	; 0xffffffff
    1f20:	210f      	movs	r1, #15
    1f22:	9211      	str	r2, [sp, #68]	; 0x44
    1f24:	460a      	mov	r2, r1
    1f26:	9212      	str	r2, [sp, #72]	; 0x48
    1f28:	4602      	mov	r2, r0
    1f2a:	9213      	str	r2, [sp, #76]	; 0x4c
    1f2c:	9114      	str	r1, [sp, #80]	; 0x50
    1f2e:	9015      	str	r0, [sp, #84]	; 0x54
    1f30:	e7ff      	b.n	1f32 <USART_SetBaudRate+0xaa>
    1f32:	9812      	ldr	r0, [sp, #72]	; 0x48
    1f34:	9913      	ldr	r1, [sp, #76]	; 0x4c
    1f36:	9a14      	ldr	r2, [sp, #80]	; 0x50
    1f38:	9b15      	ldr	r3, [sp, #84]	; 0x54
    1f3a:	930d      	str	r3, [sp, #52]	; 0x34
    1f3c:	920e      	str	r2, [sp, #56]	; 0x38
    1f3e:	910f      	str	r1, [sp, #60]	; 0x3c
    1f40:	9010      	str	r0, [sp, #64]	; 0x40
    1f42:	2804      	cmp	r0, #4
    1f44:	d364      	bcc.n	2010 <USART_SetBaudRate+0x188>
    1f46:	e7ff      	b.n	1f48 <USART_SetBaudRate+0xc0>
    1f48:	9810      	ldr	r0, [sp, #64]	; 0x40
    1f4a:	2808      	cmp	r0, #8
    1f4c:	d806      	bhi.n	1f5c <USART_SetBaudRate+0xd4>
    1f4e:	e7ff      	b.n	1f50 <USART_SetBaudRate+0xc8>
    1f50:	980d      	ldr	r0, [sp, #52]	; 0x34
    1f52:	9911      	ldr	r1, [sp, #68]	; 0x44
    1f54:	4288      	cmp	r0, r1
    1f56:	d801      	bhi.n	1f5c <USART_SetBaudRate+0xd4>
    1f58:	e7ff      	b.n	1f5a <USART_SetBaudRate+0xd2>
    1f5a:	e059      	b.n	2010 <USART_SetBaudRate+0x188>
    1f5c:	9a18      	ldr	r2, [sp, #96]	; 0x60
    1f5e:	9910      	ldr	r1, [sp, #64]	; 0x40
    1f60:	9817      	ldr	r0, [sp, #92]	; 0x5c
    1f62:	eb00 0080 	add.w	r0, r0, r0, lsl #2
    1f66:	0040      	lsls	r0, r0, #1
    1f68:	3101      	adds	r1, #1
    1f6a:	4351      	muls	r1, r2
    1f6c:	fbb0 f0f1 	udiv	r0, r0, r1
    1f70:	3805      	subs	r0, #5
    1f72:	f64c 41cd 	movw	r1, #52429	; 0xcccd
    1f76:	f6cc 41cc 	movt	r1, #52428	; 0xcccc
    1f7a:	fba0 1001 	umull	r1, r0, r0, r1
    1f7e:	08c0      	lsrs	r0, r0, #3
    1f80:	4601      	mov	r1, r0
    1f82:	910c      	str	r1, [sp, #48]	; 0x30
    1f84:	f5b0 3f80 	cmp.w	r0, #65536	; 0x10000
    1f88:	d307      	bcc.n	1f9a <USART_SetBaudRate+0x112>
    1f8a:	e7ff      	b.n	1f8c <USART_SetBaudRate+0x104>
    1f8c:	980d      	ldr	r0, [sp, #52]	; 0x34
    1f8e:	990e      	ldr	r1, [sp, #56]	; 0x38
    1f90:	9a0f      	ldr	r2, [sp, #60]	; 0x3c
    1f92:	9209      	str	r2, [sp, #36]	; 0x24
    1f94:	910a      	str	r1, [sp, #40]	; 0x28
    1f96:	900b      	str	r0, [sp, #44]	; 0x2c
    1f98:	e030      	b.n	1ffc <USART_SetBaudRate+0x174>
    1f9a:	9818      	ldr	r0, [sp, #96]	; 0x60
    1f9c:	9917      	ldr	r1, [sp, #92]	; 0x5c
    1f9e:	9b0c      	ldr	r3, [sp, #48]	; 0x30
    1fa0:	9a10      	ldr	r2, [sp, #64]	; 0x40
    1fa2:	3201      	adds	r2, #1
    1fa4:	3301      	adds	r3, #1
    1fa6:	435a      	muls	r2, r3
    1fa8:	fbb1 f1f2 	udiv	r1, r1, r2
    1fac:	460a      	mov	r2, r1
    1fae:	9208      	str	r2, [sp, #32]
    1fb0:	4288      	cmp	r0, r1
    1fb2:	d205      	bcs.n	1fc0 <USART_SetBaudRate+0x138>
    1fb4:	e7ff      	b.n	1fb6 <USART_SetBaudRate+0x12e>
    1fb6:	9808      	ldr	r0, [sp, #32]
    1fb8:	9918      	ldr	r1, [sp, #96]	; 0x60
    1fba:	1a40      	subs	r0, r0, r1
    1fbc:	9007      	str	r0, [sp, #28]
    1fbe:	e004      	b.n	1fca <USART_SetBaudRate+0x142>
    1fc0:	9818      	ldr	r0, [sp, #96]	; 0x60
    1fc2:	9908      	ldr	r1, [sp, #32]
    1fc4:	1a40      	subs	r0, r0, r1
    1fc6:	9007      	str	r0, [sp, #28]
    1fc8:	e7ff      	b.n	1fca <USART_SetBaudRate+0x142>
    1fca:	980d      	ldr	r0, [sp, #52]	; 0x34
    1fcc:	990e      	ldr	r1, [sp, #56]	; 0x38
    1fce:	9a0f      	ldr	r2, [sp, #60]	; 0x3c
    1fd0:	9b07      	ldr	r3, [sp, #28]
    1fd2:	9303      	str	r3, [sp, #12]
    1fd4:	4283      	cmp	r3, r0
    1fd6:	9204      	str	r2, [sp, #16]
    1fd8:	9105      	str	r1, [sp, #20]
    1fda:	9006      	str	r0, [sp, #24]
    1fdc:	d207      	bcs.n	1fee <USART_SetBaudRate+0x166>
    1fde:	e7ff      	b.n	1fe0 <USART_SetBaudRate+0x158>
    1fe0:	9803      	ldr	r0, [sp, #12]
    1fe2:	9910      	ldr	r1, [sp, #64]	; 0x40
    1fe4:	9a0c      	ldr	r2, [sp, #48]	; 0x30
    1fe6:	9204      	str	r2, [sp, #16]
    1fe8:	9105      	str	r1, [sp, #20]
    1fea:	9006      	str	r0, [sp, #24]
    1fec:	e7ff      	b.n	1fee <USART_SetBaudRate+0x166>
    1fee:	9a04      	ldr	r2, [sp, #16]
    1ff0:	9905      	ldr	r1, [sp, #20]
    1ff2:	9806      	ldr	r0, [sp, #24]
    1ff4:	9209      	str	r2, [sp, #36]	; 0x24
    1ff6:	910a      	str	r1, [sp, #40]	; 0x28
    1ff8:	900b      	str	r0, [sp, #44]	; 0x2c
    1ffa:	e7ff      	b.n	1ffc <USART_SetBaudRate+0x174>
    1ffc:	9b10      	ldr	r3, [sp, #64]	; 0x40
    1ffe:	9a09      	ldr	r2, [sp, #36]	; 0x24
    2000:	990a      	ldr	r1, [sp, #40]	; 0x28
    2002:	980b      	ldr	r0, [sp, #44]	; 0x2c
    2004:	3b01      	subs	r3, #1
    2006:	9312      	str	r3, [sp, #72]	; 0x48
    2008:	9213      	str	r2, [sp, #76]	; 0x4c
    200a:	9114      	str	r1, [sp, #80]	; 0x50
    200c:	9015      	str	r0, [sp, #84]	; 0x54
    200e:	e790      	b.n	1f32 <USART_SetBaudRate+0xaa>
    2010:	9818      	ldr	r0, [sp, #96]	; 0x60
    2012:	9917      	ldr	r1, [sp, #92]	; 0x5c
    2014:	9b0f      	ldr	r3, [sp, #60]	; 0x3c
    2016:	9a0e      	ldr	r2, [sp, #56]	; 0x38
    2018:	3201      	adds	r2, #1
    201a:	3301      	adds	r3, #1
    201c:	435a      	muls	r2, r3
    201e:	fbb1 f1f2 	udiv	r1, r1, r2
    2022:	460a      	mov	r2, r1
    2024:	9202      	str	r2, [sp, #8]
    2026:	4288      	cmp	r0, r1
    2028:	d205      	bcs.n	2036 <USART_SetBaudRate+0x1ae>
    202a:	e7ff      	b.n	202c <USART_SetBaudRate+0x1a4>
    202c:	9802      	ldr	r0, [sp, #8]
    202e:	9918      	ldr	r1, [sp, #96]	; 0x60
    2030:	1a40      	subs	r0, r0, r1
    2032:	9001      	str	r0, [sp, #4]
    2034:	e004      	b.n	2040 <USART_SetBaudRate+0x1b8>
    2036:	9818      	ldr	r0, [sp, #96]	; 0x60
    2038:	9902      	ldr	r1, [sp, #8]
    203a:	1a40      	subs	r0, r0, r1
    203c:	9001      	str	r0, [sp, #4]
    203e:	e7ff      	b.n	2040 <USART_SetBaudRate+0x1b8>
    2040:	9911      	ldr	r1, [sp, #68]	; 0x44
    2042:	9801      	ldr	r0, [sp, #4]
    2044:	4288      	cmp	r0, r1
    2046:	d904      	bls.n	2052 <USART_SetBaudRate+0x1ca>
    2048:	e7ff      	b.n	204a <USART_SetBaudRate+0x1c2>
    204a:	f241 6051 	movw	r0, #5713	; 0x1651
    204e:	9016      	str	r0, [sp, #88]	; 0x58
    2050:	e011      	b.n	2076 <USART_SetBaudRate+0x1ee>
    2052:	980f      	ldr	r0, [sp, #60]	; 0x3c
    2054:	f5b0 3f80 	cmp.w	r0, #65536	; 0x10000
    2058:	d304      	bcc.n	2064 <USART_SetBaudRate+0x1dc>
    205a:	e7ff      	b.n	205c <USART_SetBaudRate+0x1d4>
    205c:	f241 6051 	movw	r0, #5713	; 0x1651
    2060:	9016      	str	r0, [sp, #88]	; 0x58
    2062:	e008      	b.n	2076 <USART_SetBaudRate+0x1ee>
    2064:	980f      	ldr	r0, [sp, #60]	; 0x3c
    2066:	9919      	ldr	r1, [sp, #100]	; 0x64
    2068:	9a0e      	ldr	r2, [sp, #56]	; 0x38
    206a:	628a      	str	r2, [r1, #40]	; 0x28
    206c:	6208      	str	r0, [r1, #32]
    206e:	e7ff      	b.n	2070 <USART_SetBaudRate+0x1e8>
    2070:	2000      	movs	r0, #0
    2072:	9016      	str	r0, [sp, #88]	; 0x58
    2074:	e7ff      	b.n	2076 <USART_SetBaudRate+0x1ee>
    2076:	9816      	ldr	r0, [sp, #88]	; 0x58
    2078:	b01a      	add	sp, #104	; 0x68
    207a:	bd80      	pop	{r7, pc}

0000207c <USART_EnableContinuousSCLK>:
    207c:	b081      	sub	sp, #4
    207e:	9000      	str	r0, [sp, #0]
    2080:	b131      	cbz	r1, 2090 <USART_EnableContinuousSCLK+0x14>
    2082:	e7ff      	b.n	2084 <USART_EnableContinuousSCLK+0x8>
    2084:	9900      	ldr	r1, [sp, #0]
    2086:	6848      	ldr	r0, [r1, #4]
    2088:	f440 7080 	orr.w	r0, r0, #256	; 0x100
    208c:	6048      	str	r0, [r1, #4]
    208e:	e005      	b.n	209c <USART_EnableContinuousSCLK+0x20>
    2090:	9900      	ldr	r1, [sp, #0]
    2092:	6848      	ldr	r0, [r1, #4]
    2094:	f420 7080 	bic.w	r0, r0, #256	; 0x100
    2098:	6048      	str	r0, [r1, #4]
    209a:	e7ff      	b.n	209c <USART_EnableContinuousSCLK+0x20>
    209c:	b001      	add	sp, #4
    209e:	4770      	bx	lr

000020a0 <HASHCRYPT_SHA>:
    20a0:	b580      	push	{r7, lr}
    20a2:	466f      	mov	r7, sp
    20a4:	b09e      	sub	sp, #120	; 0x78
    20a6:	9302      	str	r3, [sp, #8]
    20a8:	9203      	str	r2, [sp, #12]
    20aa:	460a      	mov	r2, r1
    20ac:	9004      	str	r0, [sp, #16]
    20ae:	68f9      	ldr	r1, [r7, #12]
    20b0:	9105      	str	r1, [sp, #20]
    20b2:	68b9      	ldr	r1, [r7, #8]
    20b4:	9106      	str	r1, [sp, #24]
    20b6:	a908      	add	r1, sp, #32
    20b8:	f000 f81f 	bl	20fa <HASHCRYPT_SHA_Init>
    20bc:	4601      	mov	r1, r0
    20be:	9107      	str	r1, [sp, #28]
    20c0:	b118      	cbz	r0, 20ca <HASHCRYPT_SHA+0x2a>
    20c2:	e7ff      	b.n	20c4 <HASHCRYPT_SHA+0x24>
    20c4:	9807      	ldr	r0, [sp, #28]
    20c6:	9001      	str	r0, [sp, #4]
    20c8:	e014      	b.n	20f4 <HASHCRYPT_SHA+0x54>
    20ca:	9b02      	ldr	r3, [sp, #8]
    20cc:	9a03      	ldr	r2, [sp, #12]
    20ce:	9804      	ldr	r0, [sp, #16]
    20d0:	a908      	add	r1, sp, #32
    20d2:	f000 f830 	bl	2136 <HASHCRYPT_SHA_Update>
    20d6:	4601      	mov	r1, r0
    20d8:	9100      	str	r1, [sp, #0]
    20da:	b118      	cbz	r0, 20e4 <HASHCRYPT_SHA+0x44>
    20dc:	e7ff      	b.n	20de <HASHCRYPT_SHA+0x3e>
    20de:	9800      	ldr	r0, [sp, #0]
    20e0:	9001      	str	r0, [sp, #4]
    20e2:	e007      	b.n	20f4 <HASHCRYPT_SHA+0x54>
    20e4:	9b05      	ldr	r3, [sp, #20]
    20e6:	9a06      	ldr	r2, [sp, #24]
    20e8:	9804      	ldr	r0, [sp, #16]
    20ea:	a908      	add	r1, sp, #32
    20ec:	f000 f87b 	bl	21e6 <HASHCRYPT_SHA_Finish>
    20f0:	9001      	str	r0, [sp, #4]
    20f2:	e7ff      	b.n	20f4 <HASHCRYPT_SHA+0x54>
    20f4:	9801      	ldr	r0, [sp, #4]
    20f6:	b01e      	add	sp, #120	; 0x78
    20f8:	bd80      	pop	{r7, pc}

000020fa <HASHCRYPT_SHA_Init>:
    20fa:	b580      	push	{r7, lr}
    20fc:	466f      	mov	r7, sp
    20fe:	b084      	sub	sp, #16
    2100:	9101      	str	r1, [sp, #4]
    2102:	4613      	mov	r3, r2
    2104:	9302      	str	r3, [sp, #8]
    2106:	f000 f8d9 	bl	22bc <hashcrypt_sha_check_input_args>
    210a:	4601      	mov	r1, r0
    210c:	9103      	str	r1, [sp, #12]
    210e:	b118      	cbz	r0, 2118 <HASHCRYPT_SHA_Init+0x1e>
    2110:	e7ff      	b.n	2112 <HASHCRYPT_SHA_Init+0x18>
    2112:	9803      	ldr	r0, [sp, #12]
    2114:	9000      	str	r0, [sp, #0]
    2116:	e00b      	b.n	2130 <HASHCRYPT_SHA_Init+0x36>
    2118:	9901      	ldr	r1, [sp, #4]
    211a:	9802      	ldr	r0, [sp, #8]
    211c:	f881 0044 	strb.w	r0, [r1, #68]	; 0x44
    2120:	2000      	movs	r0, #0
    2122:	6408      	str	r0, [r1, #64]	; 0x40
    2124:	2201      	movs	r2, #1
    2126:	f881 2045 	strb.w	r2, [r1, #69]	; 0x45
    212a:	6488      	str	r0, [r1, #72]	; 0x48
    212c:	9000      	str	r0, [sp, #0]
    212e:	e7ff      	b.n	2130 <HASHCRYPT_SHA_Init+0x36>
    2130:	9800      	ldr	r0, [sp, #0]
    2132:	b004      	add	sp, #16
    2134:	bd80      	pop	{r7, pc}

00002136 <HASHCRYPT_SHA_Update>:
    2136:	b580      	push	{r7, lr}
    2138:	466f      	mov	r7, sp
    213a:	b088      	sub	sp, #32
    213c:	9304      	str	r3, [sp, #16]
    213e:	9205      	str	r2, [sp, #20]
    2140:	9106      	str	r1, [sp, #24]
    2142:	9007      	str	r0, [sp, #28]
    2144:	b91b      	cbnz	r3, 214e <HASHCRYPT_SHA_Update+0x18>
    2146:	e7ff      	b.n	2148 <HASHCRYPT_SHA_Update+0x12>
    2148:	2000      	movs	r0, #0
    214a:	9003      	str	r0, [sp, #12]
    214c:	e048      	b.n	21e0 <HASHCRYPT_SHA_Update+0xaa>
    214e:	9904      	ldr	r1, [sp, #16]
    2150:	9806      	ldr	r0, [sp, #24]
    2152:	4602      	mov	r2, r0
    2154:	9202      	str	r2, [sp, #8]
    2156:	6c82      	ldr	r2, [r0, #72]	; 0x48
    2158:	440a      	add	r2, r1
    215a:	6482      	str	r2, [r0, #72]	; 0x48
    215c:	6c00      	ldr	r0, [r0, #64]	; 0x40
    215e:	4408      	add	r0, r1
    2160:	2840      	cmp	r0, #64	; 0x40
    2162:	d80f      	bhi.n	2184 <HASHCRYPT_SHA_Update+0x4e>
    2164:	e7ff      	b.n	2166 <HASHCRYPT_SHA_Update+0x30>
    2166:	9802      	ldr	r0, [sp, #8]
    2168:	9a04      	ldr	r2, [sp, #16]
    216a:	9905      	ldr	r1, [sp, #20]
    216c:	6c03      	ldr	r3, [r0, #64]	; 0x40
    216e:	4418      	add	r0, r3
    2170:	f7fe fb86 	bl	880 <memcpy>
    2174:	9a04      	ldr	r2, [sp, #16]
    2176:	9902      	ldr	r1, [sp, #8]
    2178:	6c08      	ldr	r0, [r1, #64]	; 0x40
    217a:	4410      	add	r0, r2
    217c:	6408      	str	r0, [r1, #64]	; 0x40
    217e:	2000      	movs	r0, #0
    2180:	9003      	str	r0, [sp, #12]
    2182:	e02d      	b.n	21e0 <HASHCRYPT_SHA_Update+0xaa>
    2184:	9802      	ldr	r0, [sp, #8]
    2186:	f890 0045 	ldrb.w	r0, [r0, #69]	; 0x45
    218a:	2802      	cmp	r0, #2
    218c:	d00b      	beq.n	21a6 <HASHCRYPT_SHA_Update+0x70>
    218e:	e7ff      	b.n	2190 <HASHCRYPT_SHA_Update+0x5a>
    2190:	9902      	ldr	r1, [sp, #8]
    2192:	9807      	ldr	r0, [sp, #28]
    2194:	f891 1044 	ldrb.w	r1, [r1, #68]	; 0x44
    2198:	f000 f8ae 	bl	22f8 <hashcrypt_engine_init>
    219c:	9902      	ldr	r1, [sp, #8]
    219e:	2002      	movs	r0, #2
    21a0:	f881 0045 	strb.w	r0, [r1, #69]	; 0x45
    21a4:	e004      	b.n	21b0 <HASHCRYPT_SHA_Update+0x7a>
    21a6:	9902      	ldr	r1, [sp, #8]
    21a8:	9807      	ldr	r0, [sp, #28]
    21aa:	f000 f8ac 	bl	2306 <hashcrypt_restore_running_hash>
    21ae:	e7ff      	b.n	21b0 <HASHCRYPT_SHA_Update+0x7a>
    21b0:	e7ff      	b.n	21b2 <HASHCRYPT_SHA_Update+0x7c>
    21b2:	9b04      	ldr	r3, [sp, #16]
    21b4:	9a05      	ldr	r2, [sp, #20]
    21b6:	9902      	ldr	r1, [sp, #8]
    21b8:	9807      	ldr	r0, [sp, #28]
    21ba:	f3bf 8f4f 	dsb	sy
    21be:	f000 f8a3 	bl	2308 <hashcrypt_sha_process_message_data>
    21c2:	4601      	mov	r1, r0
    21c4:	9101      	str	r1, [sp, #4]
    21c6:	b118      	cbz	r0, 21d0 <HASHCRYPT_SHA_Update+0x9a>
    21c8:	e7ff      	b.n	21ca <HASHCRYPT_SHA_Update+0x94>
    21ca:	9801      	ldr	r0, [sp, #4]
    21cc:	9003      	str	r0, [sp, #12]
    21ce:	e007      	b.n	21e0 <HASHCRYPT_SHA_Update+0xaa>
    21d0:	9902      	ldr	r1, [sp, #8]
    21d2:	9807      	ldr	r0, [sp, #28]
    21d4:	f3bf 8f4f 	dsb	sy
    21d8:	f000 f9a6 	bl	2528 <hashcrypt_save_running_hash>
    21dc:	9003      	str	r0, [sp, #12]
    21de:	e7ff      	b.n	21e0 <HASHCRYPT_SHA_Update+0xaa>
    21e0:	9803      	ldr	r0, [sp, #12]
    21e2:	b008      	add	sp, #32
    21e4:	bd80      	pop	{r7, pc}

000021e6 <HASHCRYPT_SHA_Finish>:
    21e6:	b580      	push	{r7, lr}
    21e8:	466f      	mov	r7, sp
    21ea:	b08e      	sub	sp, #56	; 0x38
    21ec:	930a      	str	r3, [sp, #40]	; 0x28
    21ee:	920b      	str	r2, [sp, #44]	; 0x2c
    21f0:	910c      	str	r1, [sp, #48]	; 0x30
    21f2:	900d      	str	r0, [sp, #52]	; 0x34
    21f4:	b91a      	cbnz	r2, 21fe <HASHCRYPT_SHA_Finish+0x18>
    21f6:	e7ff      	b.n	21f8 <HASHCRYPT_SHA_Finish+0x12>
    21f8:	2004      	movs	r0, #4
    21fa:	9009      	str	r0, [sp, #36]	; 0x24
    21fc:	e05b      	b.n	22b6 <HASHCRYPT_SHA_Finish+0xd0>
    21fe:	980c      	ldr	r0, [sp, #48]	; 0x30
    2200:	4601      	mov	r1, r0
    2202:	9108      	str	r1, [sp, #32]
    2204:	f890 0045 	ldrb.w	r0, [r0, #69]	; 0x45
    2208:	2801      	cmp	r0, #1
    220a:	d107      	bne.n	221c <HASHCRYPT_SHA_Finish+0x36>
    220c:	e7ff      	b.n	220e <HASHCRYPT_SHA_Finish+0x28>
    220e:	980d      	ldr	r0, [sp, #52]	; 0x34
    2210:	9908      	ldr	r1, [sp, #32]
    2212:	f891 1044 	ldrb.w	r1, [r1, #68]	; 0x44
    2216:	f000 f86f 	bl	22f8 <hashcrypt_engine_init>
    221a:	e004      	b.n	2226 <HASHCRYPT_SHA_Finish+0x40>
    221c:	9908      	ldr	r1, [sp, #32]
    221e:	980d      	ldr	r0, [sp, #52]	; 0x34
    2220:	f000 f871 	bl	2306 <hashcrypt_restore_running_hash>
    2224:	e7ff      	b.n	2226 <HASHCRYPT_SHA_Finish+0x40>
    2226:	9808      	ldr	r0, [sp, #32]
    2228:	f890 0044 	ldrb.w	r0, [r0, #68]	; 0x44
    222c:	4601      	mov	r1, r0
    222e:	9107      	str	r1, [sp, #28]
    2230:	2801      	cmp	r0, #1
    2232:	d004      	beq.n	223e <HASHCRYPT_SHA_Finish+0x58>
    2234:	e7ff      	b.n	2236 <HASHCRYPT_SHA_Finish+0x50>
    2236:	9807      	ldr	r0, [sp, #28]
    2238:	2802      	cmp	r0, #2
    223a:	d003      	beq.n	2244 <HASHCRYPT_SHA_Finish+0x5e>
    223c:	e005      	b.n	224a <HASHCRYPT_SHA_Finish+0x64>
    223e:	2014      	movs	r0, #20
    2240:	9006      	str	r0, [sp, #24]
    2242:	e005      	b.n	2250 <HASHCRYPT_SHA_Finish+0x6a>
    2244:	2020      	movs	r0, #32
    2246:	9006      	str	r0, [sp, #24]
    2248:	e002      	b.n	2250 <HASHCRYPT_SHA_Finish+0x6a>
    224a:	2000      	movs	r0, #0
    224c:	9006      	str	r0, [sp, #24]
    224e:	e7ff      	b.n	2250 <HASHCRYPT_SHA_Finish+0x6a>
    2250:	9908      	ldr	r1, [sp, #32]
    2252:	980d      	ldr	r0, [sp, #52]	; 0x34
    2254:	9a06      	ldr	r2, [sp, #24]
    2256:	9204      	str	r2, [sp, #16]
    2258:	f000 f968 	bl	252c <hashcrypt_sha_finalize>
    225c:	4601      	mov	r1, r0
    225e:	9105      	str	r1, [sp, #20]
    2260:	b118      	cbz	r0, 226a <HASHCRYPT_SHA_Finish+0x84>
    2262:	e7ff      	b.n	2264 <HASHCRYPT_SHA_Finish+0x7e>
    2264:	9805      	ldr	r0, [sp, #20]
    2266:	9009      	str	r0, [sp, #36]	; 0x24
    2268:	e025      	b.n	22b6 <HASHCRYPT_SHA_Finish+0xd0>
    226a:	9804      	ldr	r0, [sp, #16]
    226c:	990a      	ldr	r1, [sp, #40]	; 0x28
    226e:	9003      	str	r0, [sp, #12]
    2270:	b191      	cbz	r1, 2298 <HASHCRYPT_SHA_Finish+0xb2>
    2272:	e7ff      	b.n	2274 <HASHCRYPT_SHA_Finish+0x8e>
    2274:	9804      	ldr	r0, [sp, #16]
    2276:	990a      	ldr	r1, [sp, #40]	; 0x28
    2278:	6809      	ldr	r1, [r1, #0]
    227a:	4288      	cmp	r0, r1
    227c:	d205      	bcs.n	228a <HASHCRYPT_SHA_Finish+0xa4>
    227e:	e7ff      	b.n	2280 <HASHCRYPT_SHA_Finish+0x9a>
    2280:	9804      	ldr	r0, [sp, #16]
    2282:	990a      	ldr	r1, [sp, #40]	; 0x28
    2284:	6008      	str	r0, [r1, #0]
    2286:	9002      	str	r0, [sp, #8]
    2288:	e003      	b.n	2292 <HASHCRYPT_SHA_Finish+0xac>
    228a:	980a      	ldr	r0, [sp, #40]	; 0x28
    228c:	6800      	ldr	r0, [r0, #0]
    228e:	9002      	str	r0, [sp, #8]
    2290:	e7ff      	b.n	2292 <HASHCRYPT_SHA_Finish+0xac>
    2292:	9802      	ldr	r0, [sp, #8]
    2294:	9003      	str	r0, [sp, #12]
    2296:	e7ff      	b.n	2298 <HASHCRYPT_SHA_Finish+0xb2>
    2298:	990b      	ldr	r1, [sp, #44]	; 0x2c
    229a:	980d      	ldr	r0, [sp, #52]	; 0x34
    229c:	9a03      	ldr	r2, [sp, #12]
    229e:	f000 f9bc 	bl	261a <hashcrypt_get_data>
    22a2:	4601      	mov	r1, r0
    22a4:	9101      	str	r1, [sp, #4]
    22a6:	b118      	cbz	r0, 22b0 <HASHCRYPT_SHA_Finish+0xca>
    22a8:	e7ff      	b.n	22aa <HASHCRYPT_SHA_Finish+0xc4>
    22aa:	9801      	ldr	r0, [sp, #4]
    22ac:	9009      	str	r0, [sp, #36]	; 0x24
    22ae:	e002      	b.n	22b6 <HASHCRYPT_SHA_Finish+0xd0>
    22b0:	9801      	ldr	r0, [sp, #4]
    22b2:	9009      	str	r0, [sp, #36]	; 0x24
    22b4:	e7ff      	b.n	22b6 <HASHCRYPT_SHA_Finish+0xd0>
    22b6:	9809      	ldr	r0, [sp, #36]	; 0x24
    22b8:	b00e      	add	sp, #56	; 0x38
    22ba:	bd80      	pop	{r7, pc}

000022bc <hashcrypt_sha_check_input_args>:
    22bc:	b580      	push	{r7, lr}
    22be:	466f      	mov	r7, sp
    22c0:	b084      	sub	sp, #16
    22c2:	9201      	str	r2, [sp, #4]
    22c4:	460a      	mov	r2, r1
    22c6:	9901      	ldr	r1, [sp, #4]
    22c8:	9202      	str	r2, [sp, #8]
    22ca:	9003      	str	r0, [sp, #12]
    22cc:	f000 fa59 	bl	2782 <hashcrypt_sha_check_input_alg>
    22d0:	b118      	cbz	r0, 22da <hashcrypt_sha_check_input_args+0x1e>
    22d2:	e7ff      	b.n	22d4 <hashcrypt_sha_check_input_args+0x18>
    22d4:	2004      	movs	r0, #4
    22d6:	9000      	str	r0, [sp, #0]
    22d8:	e00b      	b.n	22f2 <hashcrypt_sha_check_input_args+0x36>
    22da:	9802      	ldr	r0, [sp, #8]
    22dc:	b118      	cbz	r0, 22e6 <hashcrypt_sha_check_input_args+0x2a>
    22de:	e7ff      	b.n	22e0 <hashcrypt_sha_check_input_args+0x24>
    22e0:	9803      	ldr	r0, [sp, #12]
    22e2:	b918      	cbnz	r0, 22ec <hashcrypt_sha_check_input_args+0x30>
    22e4:	e7ff      	b.n	22e6 <hashcrypt_sha_check_input_args+0x2a>
    22e6:	2004      	movs	r0, #4
    22e8:	9000      	str	r0, [sp, #0]
    22ea:	e002      	b.n	22f2 <hashcrypt_sha_check_input_args+0x36>
    22ec:	2000      	movs	r0, #0
    22ee:	9000      	str	r0, [sp, #0]
    22f0:	e7ff      	b.n	22f2 <hashcrypt_sha_check_input_args+0x36>
    22f2:	9800      	ldr	r0, [sp, #0]
    22f4:	b004      	add	sp, #16
    22f6:	bd80      	pop	{r7, pc}

000022f8 <hashcrypt_engine_init>:
    22f8:	2210      	movs	r2, #16
    22fa:	6002      	str	r2, [r0, #0]
    22fc:	2202      	movs	r2, #2
    22fe:	f362 01df 	bfi	r1, r2, #3, #29
    2302:	6001      	str	r1, [r0, #0]
    2304:	4770      	bx	lr

00002306 <hashcrypt_restore_running_hash>:
    2306:	4770      	bx	lr

00002308 <hashcrypt_sha_process_message_data>:
    2308:	b580      	push	{r7, lr}
    230a:	466f      	mov	r7, sp
    230c:	b0a4      	sub	sp, #144	; 0x90
    230e:	931e      	str	r3, [sp, #120]	; 0x78
    2310:	921f      	str	r2, [sp, #124]	; 0x7c
    2312:	9120      	str	r1, [sp, #128]	; 0x80
    2314:	9021      	str	r0, [sp, #132]	; 0x84
    2316:	6c08      	ldr	r0, [r1, #64]	; 0x40
    2318:	9322      	str	r3, [sp, #136]	; 0x88
    231a:	9223      	str	r2, [sp, #140]	; 0x8c
    231c:	b1d8      	cbz	r0, 2356 <hashcrypt_sha_process_message_data+0x4e>
    231e:	e7ff      	b.n	2320 <hashcrypt_sha_process_message_data+0x18>
    2320:	9820      	ldr	r0, [sp, #128]	; 0x80
    2322:	991f      	ldr	r1, [sp, #124]	; 0x7c
    2324:	6c03      	ldr	r3, [r0, #64]	; 0x40
    2326:	f1c3 0240 	rsb	r2, r3, #64	; 0x40
    232a:	921b      	str	r2, [sp, #108]	; 0x6c
    232c:	4418      	add	r0, r3
    232e:	f7fe faa7 	bl	880 <memcpy>
    2332:	f8dd c07c 	ldr.w	ip, [sp, #124]	; 0x7c
    2336:	9b1b      	ldr	r3, [sp, #108]	; 0x6c
    2338:	9a1e      	ldr	r2, [sp, #120]	; 0x78
    233a:	9920      	ldr	r1, [sp, #128]	; 0x80
    233c:	9821      	ldr	r0, [sp, #132]	; 0x84
    233e:	449c      	add	ip, r3
    2340:	f8cd c074 	str.w	ip, [sp, #116]	; 0x74
    2344:	1ad2      	subs	r2, r2, r3
    2346:	921c      	str	r2, [sp, #112]	; 0x70
    2348:	f000 fa2f 	bl	27aa <hashcrypt_sha_one_block>
    234c:	991c      	ldr	r1, [sp, #112]	; 0x70
    234e:	981d      	ldr	r0, [sp, #116]	; 0x74
    2350:	9122      	str	r1, [sp, #136]	; 0x88
    2352:	9023      	str	r0, [sp, #140]	; 0x8c
    2354:	e7ff      	b.n	2356 <hashcrypt_sha_process_message_data+0x4e>
    2356:	9922      	ldr	r1, [sp, #136]	; 0x88
    2358:	9823      	ldr	r0, [sp, #140]	; 0x8c
    235a:	9017      	str	r0, [sp, #92]	; 0x5c
    235c:	9118      	str	r1, [sp, #96]	; 0x60
    235e:	2940      	cmp	r1, #64	; 0x40
    2360:	9119      	str	r1, [sp, #100]	; 0x64
    2362:	901a      	str	r0, [sp, #104]	; 0x68
    2364:	f0c0 80c4 	bcc.w	24f0 <hashcrypt_sha_process_message_data+0x1e8>
    2368:	e7ff      	b.n	236a <hashcrypt_sha_process_message_data+0x62>
    236a:	9817      	ldr	r0, [sp, #92]	; 0x5c
    236c:	0780      	lsls	r0, r0, #30
    236e:	b1e0      	cbz	r0, 23aa <hashcrypt_sha_process_message_data+0xa2>
    2370:	e7ff      	b.n	2372 <hashcrypt_sha_process_message_data+0x6a>
    2372:	9817      	ldr	r0, [sp, #92]	; 0x5c
    2374:	9918      	ldr	r1, [sp, #96]	; 0x60
    2376:	9115      	str	r1, [sp, #84]	; 0x54
    2378:	9016      	str	r0, [sp, #88]	; 0x58
    237a:	e7ff      	b.n	237c <hashcrypt_sha_process_message_data+0x74>
    237c:	9815      	ldr	r0, [sp, #84]	; 0x54
    237e:	9916      	ldr	r1, [sp, #88]	; 0x58
    2380:	9113      	str	r1, [sp, #76]	; 0x4c
    2382:	9014      	str	r0, [sp, #80]	; 0x50
    2384:	2840      	cmp	r0, #64	; 0x40
    2386:	d30b      	bcc.n	23a0 <hashcrypt_sha_process_message_data+0x98>
    2388:	e7ff      	b.n	238a <hashcrypt_sha_process_message_data+0x82>
    238a:	9913      	ldr	r1, [sp, #76]	; 0x4c
    238c:	9821      	ldr	r0, [sp, #132]	; 0x84
    238e:	f000 fa0c 	bl	27aa <hashcrypt_sha_one_block>
    2392:	9813      	ldr	r0, [sp, #76]	; 0x4c
    2394:	9914      	ldr	r1, [sp, #80]	; 0x50
    2396:	3040      	adds	r0, #64	; 0x40
    2398:	3940      	subs	r1, #64	; 0x40
    239a:	9115      	str	r1, [sp, #84]	; 0x54
    239c:	9016      	str	r0, [sp, #88]	; 0x58
    239e:	e7ed      	b.n	237c <hashcrypt_sha_process_message_data+0x74>
    23a0:	9813      	ldr	r0, [sp, #76]	; 0x4c
    23a2:	9914      	ldr	r1, [sp, #80]	; 0x50
    23a4:	9111      	str	r1, [sp, #68]	; 0x44
    23a6:	9012      	str	r0, [sp, #72]	; 0x48
    23a8:	e09d      	b.n	24e6 <hashcrypt_sha_process_message_data+0x1de>
    23aa:	9a17      	ldr	r2, [sp, #92]	; 0x5c
    23ac:	9b18      	ldr	r3, [sp, #96]	; 0x60
    23ae:	0998      	lsrs	r0, r3, #6
    23b0:	4601      	mov	r1, r0
    23b2:	f240 4c01 	movw	ip, #1025	; 0x401
    23b6:	f2c0 0c20 	movt	ip, #32
    23ba:	fba0 c00c 	umull	ip, r0, r0, ip
    23be:	ebc0 1c93 	rsb	ip, r0, r3, lsr #6
    23c2:	eb00 005c 	add.w	r0, r0, ip, lsr #1
    23c6:	0a80      	lsrs	r0, r0, #10
    23c8:	930d      	str	r3, [sp, #52]	; 0x34
    23ca:	920e      	str	r2, [sp, #56]	; 0x38
    23cc:	910f      	str	r1, [sp, #60]	; 0x3c
    23ce:	9010      	str	r0, [sp, #64]	; 0x40
    23d0:	e7ff      	b.n	23d2 <hashcrypt_sha_process_message_data+0xca>
    23d2:	990d      	ldr	r1, [sp, #52]	; 0x34
    23d4:	9a0e      	ldr	r2, [sp, #56]	; 0x38
    23d6:	9b0f      	ldr	r3, [sp, #60]	; 0x3c
    23d8:	9810      	ldr	r0, [sp, #64]	; 0x40
    23da:	9009      	str	r0, [sp, #36]	; 0x24
    23dc:	930a      	str	r3, [sp, #40]	; 0x28
    23de:	920b      	str	r2, [sp, #44]	; 0x2c
    23e0:	910c      	str	r1, [sp, #48]	; 0x30
    23e2:	2800      	cmp	r0, #0
    23e4:	d03f      	beq.n	2466 <hashcrypt_sha_process_message_data+0x15e>
    23e6:	e7ff      	b.n	23e8 <hashcrypt_sha_process_message_data+0xe0>
    23e8:	e7ff      	b.n	23ea <hashcrypt_sha_process_message_data+0xe2>
    23ea:	9821      	ldr	r0, [sp, #132]	; 0x84
    23ec:	6840      	ldr	r0, [r0, #4]
    23ee:	07c0      	lsls	r0, r0, #31
    23f0:	b908      	cbnz	r0, 23f6 <hashcrypt_sha_process_message_data+0xee>
    23f2:	e7ff      	b.n	23f4 <hashcrypt_sha_process_message_data+0xec>
    23f4:	e7f9      	b.n	23ea <hashcrypt_sha_process_message_data+0xe2>
    23f6:	9921      	ldr	r1, [sp, #132]	; 0x84
    23f8:	980b      	ldr	r0, [sp, #44]	; 0x2c
    23fa:	f3bf 8f4f 	dsb	sy
    23fe:	6148      	str	r0, [r1, #20]
    2400:	2001      	movs	r0, #1
    2402:	f2c0 70ff 	movt	r0, #2047	; 0x7ff
    2406:	6108      	str	r0, [r1, #16]
    2408:	f3bf 8f4f 	dsb	sy
    240c:	e7ff      	b.n	240e <hashcrypt_sha_process_message_data+0x106>
    240e:	9821      	ldr	r0, [sp, #132]	; 0x84
    2410:	6841      	ldr	r1, [r0, #4]
    2412:	2000      	movs	r0, #0
    2414:	0789      	lsls	r1, r1, #30
    2416:	2900      	cmp	r1, #0
    2418:	9008      	str	r0, [sp, #32]
    241a:	d409      	bmi.n	2430 <hashcrypt_sha_process_message_data+0x128>
    241c:	e7ff      	b.n	241e <hashcrypt_sha_process_message_data+0x116>
    241e:	9821      	ldr	r0, [sp, #132]	; 0x84
    2420:	6840      	ldr	r0, [r0, #4]
    2422:	f000 0104 	and.w	r1, r0, #4
    2426:	2001      	movs	r0, #1
    2428:	ea80 0091 	eor.w	r0, r0, r1, lsr #2
    242c:	9008      	str	r0, [sp, #32]
    242e:	e7ff      	b.n	2430 <hashcrypt_sha_process_message_data+0x128>
    2430:	9808      	ldr	r0, [sp, #32]
    2432:	07c0      	lsls	r0, r0, #31
    2434:	b108      	cbz	r0, 243a <hashcrypt_sha_process_message_data+0x132>
    2436:	e7ff      	b.n	2438 <hashcrypt_sha_process_message_data+0x130>
    2438:	e7e9      	b.n	240e <hashcrypt_sha_process_message_data+0x106>
    243a:	990a      	ldr	r1, [sp, #40]	; 0x28
    243c:	9809      	ldr	r0, [sp, #36]	; 0x24
    243e:	9b0c      	ldr	r3, [sp, #48]	; 0x30
    2440:	9a0b      	ldr	r2, [sp, #44]	; 0x2c
    2442:	f64f 7cc0 	movw	ip, #65472	; 0xffc0
    2446:	f2c0 0c01 	movt	ip, #1
    244a:	4462      	add	r2, ip
    244c:	f240 0c40 	movw	ip, #64	; 0x40
    2450:	f6cf 7cfe 	movt	ip, #65534	; 0xfffe
    2454:	4463      	add	r3, ip
    2456:	3801      	subs	r0, #1
    2458:	f2a1 71ff 	subw	r1, r1, #2047	; 0x7ff
    245c:	930d      	str	r3, [sp, #52]	; 0x34
    245e:	920e      	str	r2, [sp, #56]	; 0x38
    2460:	910f      	str	r1, [sp, #60]	; 0x3c
    2462:	9010      	str	r0, [sp, #64]	; 0x40
    2464:	e7b5      	b.n	23d2 <hashcrypt_sha_process_message_data+0xca>
    2466:	980b      	ldr	r0, [sp, #44]	; 0x2c
    2468:	990c      	ldr	r1, [sp, #48]	; 0x30
    246a:	9a0a      	ldr	r2, [sp, #40]	; 0x28
    246c:	9106      	str	r1, [sp, #24]
    246e:	9007      	str	r0, [sp, #28]
    2470:	b3a2      	cbz	r2, 24dc <hashcrypt_sha_process_message_data+0x1d4>
    2472:	e7ff      	b.n	2474 <hashcrypt_sha_process_message_data+0x16c>
    2474:	e7ff      	b.n	2476 <hashcrypt_sha_process_message_data+0x16e>
    2476:	9821      	ldr	r0, [sp, #132]	; 0x84
    2478:	6840      	ldr	r0, [r0, #4]
    247a:	07c0      	lsls	r0, r0, #31
    247c:	b908      	cbnz	r0, 2482 <hashcrypt_sha_process_message_data+0x17a>
    247e:	e7ff      	b.n	2480 <hashcrypt_sha_process_message_data+0x178>
    2480:	e7f9      	b.n	2476 <hashcrypt_sha_process_message_data+0x16e>
    2482:	9921      	ldr	r1, [sp, #132]	; 0x84
    2484:	9a0a      	ldr	r2, [sp, #40]	; 0x28
    2486:	980b      	ldr	r0, [sp, #44]	; 0x2c
    2488:	0193      	lsls	r3, r2, #6
    248a:	9305      	str	r3, [sp, #20]
    248c:	f3bf 8f4f 	dsb	sy
    2490:	6148      	str	r0, [r1, #20]
    2492:	2001      	movs	r0, #1
    2494:	f362 401a 	bfi	r0, r2, #16, #11
    2498:	6108      	str	r0, [r1, #16]
    249a:	f3bf 8f4f 	dsb	sy
    249e:	e7ff      	b.n	24a0 <hashcrypt_sha_process_message_data+0x198>
    24a0:	9821      	ldr	r0, [sp, #132]	; 0x84
    24a2:	6841      	ldr	r1, [r0, #4]
    24a4:	2000      	movs	r0, #0
    24a6:	0789      	lsls	r1, r1, #30
    24a8:	2900      	cmp	r1, #0
    24aa:	9004      	str	r0, [sp, #16]
    24ac:	d409      	bmi.n	24c2 <hashcrypt_sha_process_message_data+0x1ba>
    24ae:	e7ff      	b.n	24b0 <hashcrypt_sha_process_message_data+0x1a8>
    24b0:	9821      	ldr	r0, [sp, #132]	; 0x84
    24b2:	6840      	ldr	r0, [r0, #4]
    24b4:	f000 0104 	and.w	r1, r0, #4
    24b8:	2001      	movs	r0, #1
    24ba:	ea80 0091 	eor.w	r0, r0, r1, lsr #2
    24be:	9004      	str	r0, [sp, #16]
    24c0:	e7ff      	b.n	24c2 <hashcrypt_sha_process_message_data+0x1ba>
    24c2:	9804      	ldr	r0, [sp, #16]
    24c4:	07c0      	lsls	r0, r0, #31
    24c6:	b108      	cbz	r0, 24cc <hashcrypt_sha_process_message_data+0x1c4>
    24c8:	e7ff      	b.n	24ca <hashcrypt_sha_process_message_data+0x1c2>
    24ca:	e7e9      	b.n	24a0 <hashcrypt_sha_process_message_data+0x198>
    24cc:	990c      	ldr	r1, [sp, #48]	; 0x30
    24ce:	9a05      	ldr	r2, [sp, #20]
    24d0:	980b      	ldr	r0, [sp, #44]	; 0x2c
    24d2:	4410      	add	r0, r2
    24d4:	1a89      	subs	r1, r1, r2
    24d6:	9106      	str	r1, [sp, #24]
    24d8:	9007      	str	r0, [sp, #28]
    24da:	e7ff      	b.n	24dc <hashcrypt_sha_process_message_data+0x1d4>
    24dc:	9906      	ldr	r1, [sp, #24]
    24de:	9807      	ldr	r0, [sp, #28]
    24e0:	9111      	str	r1, [sp, #68]	; 0x44
    24e2:	9012      	str	r0, [sp, #72]	; 0x48
    24e4:	e7ff      	b.n	24e6 <hashcrypt_sha_process_message_data+0x1de>
    24e6:	9911      	ldr	r1, [sp, #68]	; 0x44
    24e8:	9812      	ldr	r0, [sp, #72]	; 0x48
    24ea:	9119      	str	r1, [sp, #100]	; 0x64
    24ec:	901a      	str	r0, [sp, #104]	; 0x68
    24ee:	e7ff      	b.n	24f0 <hashcrypt_sha_process_message_data+0x1e8>
    24f0:	9821      	ldr	r0, [sp, #132]	; 0x84
    24f2:	9919      	ldr	r1, [sp, #100]	; 0x64
    24f4:	9a1a      	ldr	r2, [sp, #104]	; 0x68
    24f6:	9201      	str	r2, [sp, #4]
    24f8:	9102      	str	r1, [sp, #8]
    24fa:	6841      	ldr	r1, [r0, #4]
    24fc:	2001      	movs	r0, #1
    24fe:	0749      	lsls	r1, r1, #29
    2500:	2900      	cmp	r1, #0
    2502:	9003      	str	r0, [sp, #12]
    2504:	d403      	bmi.n	250e <hashcrypt_sha_process_message_data+0x206>
    2506:	e7ff      	b.n	2508 <hashcrypt_sha_process_message_data+0x200>
    2508:	2000      	movs	r0, #0
    250a:	9003      	str	r0, [sp, #12]
    250c:	e7ff      	b.n	250e <hashcrypt_sha_process_message_data+0x206>
    250e:	9a02      	ldr	r2, [sp, #8]
    2510:	9820      	ldr	r0, [sp, #128]	; 0x80
    2512:	9901      	ldr	r1, [sp, #4]
    2514:	9b03      	ldr	r3, [sp, #12]
    2516:	9300      	str	r3, [sp, #0]
    2518:	f7fe f9b2 	bl	880 <memcpy>
    251c:	9a20      	ldr	r2, [sp, #128]	; 0x80
    251e:	9902      	ldr	r1, [sp, #8]
    2520:	9800      	ldr	r0, [sp, #0]
    2522:	6411      	str	r1, [r2, #64]	; 0x40
    2524:	b024      	add	sp, #144	; 0x90
    2526:	bd80      	pop	{r7, pc}

00002528 <hashcrypt_save_running_hash>:
    2528:	2000      	movs	r0, #0
    252a:	4770      	bx	lr

0000252c <hashcrypt_sha_finalize>:
    252c:	b580      	push	{r7, lr}
    252e:	466f      	mov	r7, sp
    2530:	b098      	sub	sp, #96	; 0x60
    2532:	9107      	str	r1, [sp, #28]
    2534:	9006      	str	r0, [sp, #24]
    2536:	a808      	add	r0, sp, #32
    2538:	2100      	movs	r1, #0
    253a:	2240      	movs	r2, #64	; 0x40
    253c:	f002 ffde 	bl	54fc <memset>
    2540:	9907      	ldr	r1, [sp, #28]
    2542:	6c08      	ldr	r0, [r1, #64]	; 0x40
    2544:	2837      	cmp	r0, #55	; 0x37
    2546:	d815      	bhi.n	2574 <hashcrypt_sha_finalize+0x48>
    2548:	e7ff      	b.n	254a <hashcrypt_sha_finalize+0x1e>
    254a:	9907      	ldr	r1, [sp, #28]
    254c:	6c0a      	ldr	r2, [r1, #64]	; 0x40
    254e:	a808      	add	r0, sp, #32
    2550:	9005      	str	r0, [sp, #20]
    2552:	f7fe f995 	bl	880 <memcpy>
    2556:	9a07      	ldr	r2, [sp, #28]
    2558:	9905      	ldr	r1, [sp, #20]
    255a:	9806      	ldr	r0, [sp, #24]
    255c:	f8d2 c040 	ldr.w	ip, [r2, #64]	; 0x40
    2560:	2380      	movs	r3, #128	; 0x80
    2562:	f801 300c 	strb.w	r3, [r1, ip]
    2566:	6c92      	ldr	r2, [r2, #72]	; 0x48
    2568:	00d2      	lsls	r2, r2, #3
    256a:	ba12      	rev	r2, r2
    256c:	9217      	str	r2, [sp, #92]	; 0x5c
    256e:	f000 f91c 	bl	27aa <hashcrypt_sha_one_block>
    2572:	e02d      	b.n	25d0 <hashcrypt_sha_finalize+0xa4>
    2574:	9807      	ldr	r0, [sp, #28]
    2576:	6c00      	ldr	r0, [r0, #64]	; 0x40
    2578:	283f      	cmp	r0, #63	; 0x3f
    257a:	d817      	bhi.n	25ac <hashcrypt_sha_finalize+0x80>
    257c:	e7ff      	b.n	257e <hashcrypt_sha_finalize+0x52>
    257e:	9807      	ldr	r0, [sp, #28]
    2580:	6c02      	ldr	r2, [r0, #64]	; 0x40
    2582:	2180      	movs	r1, #128	; 0x80
    2584:	5481      	strb	r1, [r0, r2]
    2586:	6c00      	ldr	r0, [r0, #64]	; 0x40
    2588:	3001      	adds	r0, #1
    258a:	9004      	str	r0, [sp, #16]
    258c:	e7ff      	b.n	258e <hashcrypt_sha_finalize+0x62>
    258e:	9804      	ldr	r0, [sp, #16]
    2590:	9003      	str	r0, [sp, #12]
    2592:	283f      	cmp	r0, #63	; 0x3f
    2594:	d809      	bhi.n	25aa <hashcrypt_sha_finalize+0x7e>
    2596:	e7ff      	b.n	2598 <hashcrypt_sha_finalize+0x6c>
    2598:	9907      	ldr	r1, [sp, #28]
    259a:	9a03      	ldr	r2, [sp, #12]
    259c:	2000      	movs	r0, #0
    259e:	5488      	strb	r0, [r1, r2]
    25a0:	e7ff      	b.n	25a2 <hashcrypt_sha_finalize+0x76>
    25a2:	9803      	ldr	r0, [sp, #12]
    25a4:	3001      	adds	r0, #1
    25a6:	9004      	str	r0, [sp, #16]
    25a8:	e7f1      	b.n	258e <hashcrypt_sha_finalize+0x62>
    25aa:	e003      	b.n	25b4 <hashcrypt_sha_finalize+0x88>
    25ac:	2080      	movs	r0, #128	; 0x80
    25ae:	f88d 0020 	strb.w	r0, [sp, #32]
    25b2:	e7ff      	b.n	25b4 <hashcrypt_sha_finalize+0x88>
    25b4:	9806      	ldr	r0, [sp, #24]
    25b6:	9907      	ldr	r1, [sp, #28]
    25b8:	f000 f8f7 	bl	27aa <hashcrypt_sha_one_block>
    25bc:	9907      	ldr	r1, [sp, #28]
    25be:	9806      	ldr	r0, [sp, #24]
    25c0:	6c89      	ldr	r1, [r1, #72]	; 0x48
    25c2:	00c9      	lsls	r1, r1, #3
    25c4:	ba09      	rev	r1, r1
    25c6:	9117      	str	r1, [sp, #92]	; 0x5c
    25c8:	a908      	add	r1, sp, #32
    25ca:	f000 f8ee 	bl	27aa <hashcrypt_sha_one_block>
    25ce:	e7ff      	b.n	25d0 <hashcrypt_sha_finalize+0xa4>
    25d0:	e7ff      	b.n	25d2 <hashcrypt_sha_finalize+0xa6>
    25d2:	9806      	ldr	r0, [sp, #24]
    25d4:	6841      	ldr	r1, [r0, #4]
    25d6:	2000      	movs	r0, #0
    25d8:	0789      	lsls	r1, r1, #30
    25da:	2900      	cmp	r1, #0
    25dc:	9002      	str	r0, [sp, #8]
    25de:	d409      	bmi.n	25f4 <hashcrypt_sha_finalize+0xc8>
    25e0:	e7ff      	b.n	25e2 <hashcrypt_sha_finalize+0xb6>
    25e2:	9806      	ldr	r0, [sp, #24]
    25e4:	6840      	ldr	r0, [r0, #4]
    25e6:	f000 0104 	and.w	r1, r0, #4
    25ea:	2001      	movs	r0, #1
    25ec:	ea80 0091 	eor.w	r0, r0, r1, lsr #2
    25f0:	9002      	str	r0, [sp, #8]
    25f2:	e7ff      	b.n	25f4 <hashcrypt_sha_finalize+0xc8>
    25f4:	9802      	ldr	r0, [sp, #8]
    25f6:	07c0      	lsls	r0, r0, #31
    25f8:	b108      	cbz	r0, 25fe <hashcrypt_sha_finalize+0xd2>
    25fa:	e7ff      	b.n	25fc <hashcrypt_sha_finalize+0xd0>
    25fc:	e7e9      	b.n	25d2 <hashcrypt_sha_finalize+0xa6>
    25fe:	9806      	ldr	r0, [sp, #24]
    2600:	6841      	ldr	r1, [r0, #4]
    2602:	2001      	movs	r0, #1
    2604:	0749      	lsls	r1, r1, #29
    2606:	2900      	cmp	r1, #0
    2608:	9001      	str	r0, [sp, #4]
    260a:	d403      	bmi.n	2614 <hashcrypt_sha_finalize+0xe8>
    260c:	e7ff      	b.n	260e <hashcrypt_sha_finalize+0xe2>
    260e:	2000      	movs	r0, #0
    2610:	9001      	str	r0, [sp, #4]
    2612:	e7ff      	b.n	2614 <hashcrypt_sha_finalize+0xe8>
    2614:	9801      	ldr	r0, [sp, #4]
    2616:	b018      	add	sp, #96	; 0x60
    2618:	bd80      	pop	{r7, pc}

0000261a <hashcrypt_get_data>:
    261a:	b580      	push	{r7, lr}
    261c:	466f      	mov	r7, sp
    261e:	b092      	sub	sp, #72	; 0x48
    2620:	9207      	str	r2, [sp, #28]
    2622:	9108      	str	r1, [sp, #32]
    2624:	9009      	str	r0, [sp, #36]	; 0x24
    2626:	e7ff      	b.n	2628 <hashcrypt_get_data+0xe>
    2628:	9809      	ldr	r0, [sp, #36]	; 0x24
    262a:	6841      	ldr	r1, [r0, #4]
    262c:	2000      	movs	r0, #0
    262e:	0789      	lsls	r1, r1, #30
    2630:	2900      	cmp	r1, #0
    2632:	9006      	str	r0, [sp, #24]
    2634:	d409      	bmi.n	264a <hashcrypt_get_data+0x30>
    2636:	e7ff      	b.n	2638 <hashcrypt_get_data+0x1e>
    2638:	9809      	ldr	r0, [sp, #36]	; 0x24
    263a:	6840      	ldr	r0, [r0, #4]
    263c:	f000 0104 	and.w	r1, r0, #4
    2640:	2001      	movs	r0, #1
    2642:	ea80 0091 	eor.w	r0, r0, r1, lsr #2
    2646:	9006      	str	r0, [sp, #24]
    2648:	e7ff      	b.n	264a <hashcrypt_get_data+0x30>
    264a:	9806      	ldr	r0, [sp, #24]
    264c:	07c0      	lsls	r0, r0, #31
    264e:	b108      	cbz	r0, 2654 <hashcrypt_get_data+0x3a>
    2650:	e7ff      	b.n	2652 <hashcrypt_get_data+0x38>
    2652:	e7e9      	b.n	2628 <hashcrypt_get_data+0xe>
    2654:	9809      	ldr	r0, [sp, #36]	; 0x24
    2656:	6841      	ldr	r1, [r0, #4]
    2658:	2001      	movs	r0, #1
    265a:	0749      	lsls	r1, r1, #29
    265c:	2900      	cmp	r1, #0
    265e:	9005      	str	r0, [sp, #20]
    2660:	d403      	bmi.n	266a <hashcrypt_get_data+0x50>
    2662:	e7ff      	b.n	2664 <hashcrypt_get_data+0x4a>
    2664:	2000      	movs	r0, #0
    2666:	9005      	str	r0, [sp, #20]
    2668:	e7ff      	b.n	266a <hashcrypt_get_data+0x50>
    266a:	9805      	ldr	r0, [sp, #20]
    266c:	9003      	str	r0, [sp, #12]
    266e:	f3bf 8f4f 	dsb	sy
    2672:	2000      	movs	r0, #0
    2674:	9004      	str	r0, [sp, #16]
    2676:	e7ff      	b.n	2678 <hashcrypt_get_data+0x5e>
    2678:	9804      	ldr	r0, [sp, #16]
    267a:	9002      	str	r0, [sp, #8]
    267c:	2807      	cmp	r0, #7
    267e:	dc0e      	bgt.n	269e <hashcrypt_get_data+0x84>
    2680:	e7ff      	b.n	2682 <hashcrypt_get_data+0x68>
    2682:	9a02      	ldr	r2, [sp, #8]
    2684:	9809      	ldr	r0, [sp, #36]	; 0x24
    2686:	eb00 0082 	add.w	r0, r0, r2, lsl #2
    268a:	6c00      	ldr	r0, [r0, #64]	; 0x40
    268c:	ba00      	rev	r0, r0
    268e:	a90a      	add	r1, sp, #40	; 0x28
    2690:	f841 0022 	str.w	r0, [r1, r2, lsl #2]
    2694:	e7ff      	b.n	2696 <hashcrypt_get_data+0x7c>
    2696:	9802      	ldr	r0, [sp, #8]
    2698:	3001      	adds	r0, #1
    269a:	9004      	str	r0, [sp, #16]
    269c:	e7ec      	b.n	2678 <hashcrypt_get_data+0x5e>
    269e:	9807      	ldr	r0, [sp, #28]
    26a0:	2821      	cmp	r0, #33	; 0x21
    26a2:	9001      	str	r0, [sp, #4]
    26a4:	d303      	bcc.n	26ae <hashcrypt_get_data+0x94>
    26a6:	e7ff      	b.n	26a8 <hashcrypt_get_data+0x8e>
    26a8:	2020      	movs	r0, #32
    26aa:	9001      	str	r0, [sp, #4]
    26ac:	e7ff      	b.n	26ae <hashcrypt_get_data+0x94>
    26ae:	9808      	ldr	r0, [sp, #32]
    26b0:	9a01      	ldr	r2, [sp, #4]
    26b2:	a90a      	add	r1, sp, #40	; 0x28
    26b4:	f7fe f8e4 	bl	880 <memcpy>
    26b8:	9803      	ldr	r0, [sp, #12]
    26ba:	b012      	add	sp, #72	; 0x48
    26bc:	bd80      	pop	{r7, pc}

000026be <HASHCRYPT_DriverIRQHandler>:
    26be:	b580      	push	{r7, lr}
    26c0:	466f      	mov	r7, sp
    26c2:	b084      	sub	sp, #16
    26c4:	f640 2020 	movw	r0, #2592	; 0xa20
    26c8:	f2c2 0000 	movt	r0, #8192	; 0x2000
    26cc:	6800      	ldr	r0, [r0, #0]
    26ce:	9003      	str	r0, [sp, #12]
    26d0:	f244 0004 	movw	r0, #16388	; 0x4004
    26d4:	f2c4 000a 	movt	r0, #16394	; 0x400a
    26d8:	6800      	ldr	r0, [r0, #0]
    26da:	0740      	lsls	r0, r0, #29
    26dc:	2800      	cmp	r0, #0
    26de:	d435      	bmi.n	274c <HASHCRYPT_DriverIRQHandler+0x8e>
    26e0:	e7ff      	b.n	26e2 <HASHCRYPT_DriverIRQHandler+0x24>
    26e2:	9803      	ldr	r0, [sp, #12]
    26e4:	6cc0      	ldr	r0, [r0, #76]	; 0x4c
    26e6:	b1e0      	cbz	r0, 2722 <HASHCRYPT_DriverIRQHandler+0x64>
    26e8:	e7ff      	b.n	26ea <HASHCRYPT_DriverIRQHandler+0x2c>
    26ea:	9803      	ldr	r0, [sp, #12]
    26ec:	6cc0      	ldr	r0, [r0, #76]	; 0x4c
    26ee:	f5b0 6f00 	cmp.w	r0, #2048	; 0x800
    26f2:	d304      	bcc.n	26fe <HASHCRYPT_DriverIRQHandler+0x40>
    26f4:	e7ff      	b.n	26f6 <HASHCRYPT_DriverIRQHandler+0x38>
    26f6:	f240 70ff 	movw	r0, #2047	; 0x7ff
    26fa:	9002      	str	r0, [sp, #8]
    26fc:	e003      	b.n	2706 <HASHCRYPT_DriverIRQHandler+0x48>
    26fe:	9803      	ldr	r0, [sp, #12]
    2700:	6cc0      	ldr	r0, [r0, #76]	; 0x4c
    2702:	9002      	str	r0, [sp, #8]
    2704:	e7ff      	b.n	2706 <HASHCRYPT_DriverIRQHandler+0x48>
    2706:	9a03      	ldr	r2, [sp, #12]
    2708:	9902      	ldr	r1, [sp, #8]
    270a:	6cd0      	ldr	r0, [r2, #76]	; 0x4c
    270c:	1a40      	subs	r0, r0, r1
    270e:	64d0      	str	r0, [r2, #76]	; 0x4c
    2710:	2001      	movs	r0, #1
    2712:	f361 401a 	bfi	r0, r1, #16, #11
    2716:	f244 0110 	movw	r1, #16400	; 0x4010
    271a:	f2c4 010a 	movt	r1, #16394	; 0x400a
    271e:	6008      	str	r0, [r1, #0]
    2720:	e02d      	b.n	277e <HASHCRYPT_DriverIRQHandler+0xc0>
    2722:	9903      	ldr	r1, [sp, #12]
    2724:	f244 020c 	movw	r2, #16396	; 0x400c
    2728:	f2c4 020a 	movt	r2, #16394	; 0x400a
    272c:	2006      	movs	r0, #6
    272e:	6010      	str	r0, [r2, #0]
    2730:	f244 0210 	movw	r2, #16400	; 0x4010
    2734:	f2c4 020a 	movt	r2, #16394	; 0x400a
    2738:	2000      	movs	r0, #0
    273a:	6010      	str	r0, [r2, #0]
    273c:	f244 0000 	movw	r0, #16384	; 0x4000
    2740:	f2c4 000a 	movt	r0, #16394	; 0x400a
    2744:	f7ff fef0 	bl	2528 <hashcrypt_save_running_hash>
    2748:	9001      	str	r0, [sp, #4]
    274a:	e002      	b.n	2752 <HASHCRYPT_DriverIRQHandler+0x94>
    274c:	2001      	movs	r0, #1
    274e:	9001      	str	r0, [sp, #4]
    2750:	e7ff      	b.n	2752 <HASHCRYPT_DriverIRQHandler+0x94>
    2752:	9803      	ldr	r0, [sp, #12]
    2754:	9901      	ldr	r1, [sp, #4]
    2756:	9100      	str	r1, [sp, #0]
    2758:	6d00      	ldr	r0, [r0, #80]	; 0x50
    275a:	b180      	cbz	r0, 277e <HASHCRYPT_DriverIRQHandler+0xc0>
    275c:	e7ff      	b.n	275e <HASHCRYPT_DriverIRQHandler+0xa0>
    275e:	9a00      	ldr	r2, [sp, #0]
    2760:	9803      	ldr	r0, [sp, #12]
    2762:	f640 2120 	movw	r1, #2592	; 0xa20
    2766:	f2c2 0100 	movt	r1, #8192	; 0x2000
    276a:	6809      	ldr	r1, [r1, #0]
    276c:	f8d0 c050 	ldr.w	ip, [r0, #80]	; 0x50
    2770:	6d43      	ldr	r3, [r0, #84]	; 0x54
    2772:	f244 0000 	movw	r0, #16384	; 0x4000
    2776:	f2c4 000a 	movt	r0, #16394	; 0x400a
    277a:	47e0      	blx	ip
    277c:	e7ff      	b.n	277e <HASHCRYPT_DriverIRQHandler+0xc0>
    277e:	b004      	add	sp, #16
    2780:	bd80      	pop	{r7, pc}

00002782 <hashcrypt_sha_check_input_alg>:
    2782:	b082      	sub	sp, #8
    2784:	4608      	mov	r0, r1
    2786:	9001      	str	r0, [sp, #4]
    2788:	2901      	cmp	r1, #1
    278a:	d005      	beq.n	2798 <hashcrypt_sha_check_input_alg+0x16>
    278c:	e7ff      	b.n	278e <hashcrypt_sha_check_input_alg+0xc>
    278e:	9801      	ldr	r0, [sp, #4]
    2790:	b2c0      	uxtb	r0, r0
    2792:	2802      	cmp	r0, #2
    2794:	d103      	bne.n	279e <hashcrypt_sha_check_input_alg+0x1c>
    2796:	e7ff      	b.n	2798 <hashcrypt_sha_check_input_alg+0x16>
    2798:	2000      	movs	r0, #0
    279a:	9000      	str	r0, [sp, #0]
    279c:	e002      	b.n	27a4 <hashcrypt_sha_check_input_alg+0x22>
    279e:	2004      	movs	r0, #4
    27a0:	9000      	str	r0, [sp, #0]
    27a2:	e7ff      	b.n	27a4 <hashcrypt_sha_check_input_alg+0x22>
    27a4:	9800      	ldr	r0, [sp, #0]
    27a6:	b002      	add	sp, #8
    27a8:	4770      	bx	lr

000027aa <hashcrypt_sha_one_block>:
    27aa:	b580      	push	{r7, lr}
    27ac:	466f      	mov	r7, sp
    27ae:	b096      	sub	sp, #88	; 0x58
    27b0:	9104      	str	r1, [sp, #16]
    27b2:	9005      	str	r0, [sp, #20]
    27b4:	0788      	lsls	r0, r1, #30
    27b6:	b148      	cbz	r0, 27cc <hashcrypt_sha_one_block+0x22>
    27b8:	e7ff      	b.n	27ba <hashcrypt_sha_one_block+0x10>
    27ba:	9904      	ldr	r1, [sp, #16]
    27bc:	a806      	add	r0, sp, #24
    27be:	9002      	str	r0, [sp, #8]
    27c0:	2240      	movs	r2, #64	; 0x40
    27c2:	f7fe f85d 	bl	880 <memcpy>
    27c6:	9802      	ldr	r0, [sp, #8]
    27c8:	9003      	str	r0, [sp, #12]
    27ca:	e002      	b.n	27d2 <hashcrypt_sha_one_block+0x28>
    27cc:	9804      	ldr	r0, [sp, #16]
    27ce:	9003      	str	r0, [sp, #12]
    27d0:	e7ff      	b.n	27d2 <hashcrypt_sha_one_block+0x28>
    27d2:	9803      	ldr	r0, [sp, #12]
    27d4:	9001      	str	r0, [sp, #4]
    27d6:	e7ff      	b.n	27d8 <hashcrypt_sha_one_block+0x2e>
    27d8:	9805      	ldr	r0, [sp, #20]
    27da:	6840      	ldr	r0, [r0, #4]
    27dc:	07c0      	lsls	r0, r0, #31
    27de:	b908      	cbnz	r0, 27e4 <hashcrypt_sha_one_block+0x3a>
    27e0:	e7ff      	b.n	27e2 <hashcrypt_sha_one_block+0x38>
    27e2:	e7f9      	b.n	27d8 <hashcrypt_sha_one_block+0x2e>
    27e4:	9905      	ldr	r1, [sp, #20]
    27e6:	9801      	ldr	r0, [sp, #4]
    27e8:	f3bf 8f4f 	dsb	sy
    27ec:	f3bf 8f4f 	dsb	sy
    27f0:	6148      	str	r0, [r1, #20]
    27f2:	f04f 1001 	mov.w	r0, #65537	; 0x10001
    27f6:	6108      	str	r0, [r1, #16]
    27f8:	f3bf 8f4f 	dsb	sy
    27fc:	b016      	add	sp, #88	; 0x58
    27fe:	bd80      	pop	{r7, pc}

00002800 <vPortSetupTimerInterrupt>:
    2800:	f24e 0110 	movw	r1, #57360	; 0xe010
    2804:	f2ce 0100 	movt	r1, #57344	; 0xe000
    2808:	2000      	movs	r0, #0
    280a:	6008      	str	r0, [r1, #0]
    280c:	f24e 0218 	movw	r2, #57368	; 0xe018
    2810:	f2ce 0200 	movt	r2, #57344	; 0xe000
    2814:	6010      	str	r0, [r2, #0]
    2816:	f240 0000 	movw	r0, #0
    281a:	f2c2 0000 	movt	r0, #8192	; 0x2000
    281e:	6800      	ldr	r0, [r0, #0]
    2820:	f644 52d3 	movw	r2, #19923	; 0x4dd3
    2824:	f2c1 0262 	movt	r2, #4194	; 0x1062
    2828:	fba0 0202 	umull	r0, r2, r0, r2
    282c:	f04f 30ff 	mov.w	r0, #4294967295	; 0xffffffff
    2830:	eb00 1092 	add.w	r0, r0, r2, lsr #6
    2834:	f24e 0214 	movw	r2, #57364	; 0xe014
    2838:	f2ce 0200 	movt	r2, #57344	; 0xe000
    283c:	6010      	str	r0, [r2, #0]
    283e:	2007      	movs	r0, #7
    2840:	6008      	str	r0, [r1, #0]
    2842:	4770      	bx	lr

00002844 <vPortYield>:
    2844:	f64e 5104 	movw	r1, #60676	; 0xed04
    2848:	f2ce 0100 	movt	r1, #57344	; 0xe000
    284c:	f04f 5080 	mov.w	r0, #268435456	; 0x10000000
    2850:	6008      	str	r0, [r1, #0]
    2852:	f3bf 8f4f 	dsb	sy
    2856:	f3bf 8f6f 	isb	sy
    285a:	4770      	bx	lr

0000285c <vPortEnterCritical>:
    285c:	b580      	push	{r7, lr}
    285e:	466f      	mov	r7, sp
    2860:	f000 f918 	bl	2a94 <ulSetInterruptMask>
    2864:	f240 0108 	movw	r1, #8
    2868:	f2c2 0100 	movt	r1, #8192	; 0x2000
    286c:	6808      	ldr	r0, [r1, #0]
    286e:	3001      	adds	r0, #1
    2870:	6008      	str	r0, [r1, #0]
    2872:	f3bf 8f4f 	dsb	sy
    2876:	f3bf 8f6f 	isb	sy
    287a:	bd80      	pop	{r7, pc}

0000287c <vPortExitCritical>:
    287c:	b580      	push	{r7, lr}
    287e:	466f      	mov	r7, sp
    2880:	f240 0008 	movw	r0, #8
    2884:	f2c2 0000 	movt	r0, #8192	; 0x2000
    2888:	6800      	ldr	r0, [r0, #0]
    288a:	b920      	cbnz	r0, 2896 <vPortExitCritical+0x1a>
    288c:	e7ff      	b.n	288e <vPortExitCritical+0x12>
    288e:	f000 f901 	bl	2a94 <ulSetInterruptMask>
    2892:	e7ff      	b.n	2894 <vPortExitCritical+0x18>
    2894:	e7fe      	b.n	2894 <vPortExitCritical+0x18>
    2896:	f240 0008 	movw	r0, #8
    289a:	f2c2 0000 	movt	r0, #8192	; 0x2000
    289e:	6801      	ldr	r1, [r0, #0]
    28a0:	3901      	subs	r1, #1
    28a2:	6001      	str	r1, [r0, #0]
    28a4:	6800      	ldr	r0, [r0, #0]
    28a6:	b920      	cbnz	r0, 28b2 <vPortExitCritical+0x36>
    28a8:	e7ff      	b.n	28aa <vPortExitCritical+0x2e>
    28aa:	2000      	movs	r0, #0
    28ac:	f000 f8fd 	bl	2aaa <vClearInterruptMask>
    28b0:	e7ff      	b.n	28b2 <vPortExitCritical+0x36>
    28b2:	bd80      	pop	{r7, pc}

000028b4 <SysTick_Handler>:
    28b4:	b580      	push	{r7, lr}
    28b6:	466f      	mov	r7, sp
    28b8:	b082      	sub	sp, #8
    28ba:	f000 f8eb 	bl	2a94 <ulSetInterruptMask>
    28be:	9001      	str	r0, [sp, #4]
    28c0:	f001 f849 	bl	3956 <xTaskIncrementTick>
    28c4:	b140      	cbz	r0, 28d8 <SysTick_Handler+0x24>
    28c6:	e7ff      	b.n	28c8 <SysTick_Handler+0x14>
    28c8:	f64e 5104 	movw	r1, #60676	; 0xed04
    28cc:	f2ce 0100 	movt	r1, #57344	; 0xe000
    28d0:	f04f 5080 	mov.w	r0, #268435456	; 0x10000000
    28d4:	6008      	str	r0, [r1, #0]
    28d6:	e7ff      	b.n	28d8 <SysTick_Handler+0x24>
    28d8:	9801      	ldr	r0, [sp, #4]
    28da:	f000 f8e6 	bl	2aaa <vClearInterruptMask>
    28de:	b002      	add	sp, #8
    28e0:	bd80      	pop	{r7, pc}

000028e2 <vPortSVCHandler_C>:
    28e2:	b580      	push	{r7, lr}
    28e4:	466f      	mov	r7, sp
    28e6:	6980      	ldr	r0, [r0, #24]
    28e8:	f810 0c02 	ldrb.w	r0, [r0, #-2]
    28ec:	2802      	cmp	r0, #2
    28ee:	d105      	bne.n	28fc <vPortSVCHandler_C+0x1a>
    28f0:	e7ff      	b.n	28f2 <vPortSVCHandler_C+0x10>
    28f2:	f000 f808 	bl	2906 <prvSetupFPU>
    28f6:	f000 f89b 	bl	2a30 <vRestoreContextOfFirstTask>
    28fa:	e003      	b.n	2904 <vPortSVCHandler_C+0x22>
    28fc:	f000 f8ca 	bl	2a94 <ulSetInterruptMask>
    2900:	e7ff      	b.n	2902 <vPortSVCHandler_C+0x20>
    2902:	e7fe      	b.n	2902 <vPortSVCHandler_C+0x20>
    2904:	bd80      	pop	{r7, pc}

00002906 <prvSetupFPU>:
    2906:	f64e 5188 	movw	r1, #60808	; 0xed88
    290a:	f2ce 0100 	movt	r1, #57344	; 0xe000
    290e:	6808      	ldr	r0, [r1, #0]
    2910:	f440 0070 	orr.w	r0, r0, #15728640	; 0xf00000
    2914:	6008      	str	r0, [r1, #0]
    2916:	f64e 7134 	movw	r1, #61236	; 0xef34
    291a:	f2ce 0100 	movt	r1, #57344	; 0xe000
    291e:	6808      	ldr	r0, [r1, #0]
    2920:	f040 4040 	orr.w	r0, r0, #3221225472	; 0xc0000000
    2924:	6008      	str	r0, [r1, #0]
    2926:	4770      	bx	lr

00002928 <pxPortInitialiseStack>:
    2928:	f04f 7c80 	mov.w	ip, #16777216	; 0x1000000
    292c:	f840 cc04 	str.w	ip, [r0, #-4]
    2930:	f840 2c08 	str.w	r2, [r0, #-8]
    2934:	f642 12b3 	movw	r2, #10675	; 0x29b3
    2938:	f2c0 0200 	movt	r2, #0
    293c:	f840 2c0c 	str.w	r2, [r0, #-12]
    2940:	f04f 3212 	mov.w	r2, #303174162	; 0x12121212
    2944:	f840 2c10 	str.w	r2, [r0, #-16]
    2948:	f04f 3203 	mov.w	r2, #50529027	; 0x3030303
    294c:	f840 2c14 	str.w	r2, [r0, #-20]
    2950:	f04f 3202 	mov.w	r2, #33686018	; 0x2020202
    2954:	f840 2c18 	str.w	r2, [r0, #-24]
    2958:	f04f 3201 	mov.w	r2, #16843009	; 0x1010101
    295c:	f840 2c1c 	str.w	r2, [r0, #-28]
    2960:	f840 3c20 	str.w	r3, [r0, #-32]
    2964:	f04f 3211 	mov.w	r2, #286331153	; 0x11111111
    2968:	f840 2c24 	str.w	r2, [r0, #-36]
    296c:	f04f 3210 	mov.w	r2, #269488144	; 0x10101010
    2970:	f840 2c28 	str.w	r2, [r0, #-40]
    2974:	f04f 3209 	mov.w	r2, #151587081	; 0x9090909
    2978:	f840 2c2c 	str.w	r2, [r0, #-44]
    297c:	f04f 3208 	mov.w	r2, #134744072	; 0x8080808
    2980:	f840 2c30 	str.w	r2, [r0, #-48]
    2984:	f04f 3207 	mov.w	r2, #117901063	; 0x7070707
    2988:	f840 2c34 	str.w	r2, [r0, #-52]
    298c:	f04f 3206 	mov.w	r2, #101058054	; 0x6060606
    2990:	f840 2c38 	str.w	r2, [r0, #-56]
    2994:	f04f 3205 	mov.w	r2, #84215045	; 0x5050505
    2998:	f840 2c3c 	str.w	r2, [r0, #-60]
    299c:	f04f 3204 	mov.w	r2, #67372036	; 0x4040404
    29a0:	f840 2c40 	str.w	r2, [r0, #-64]
    29a4:	f06f 0202 	mvn.w	r2, #2
    29a8:	f840 2c44 	str.w	r2, [r0, #-68]
    29ac:	f840 1d48 	str.w	r1, [r0, #-72]!
    29b0:	4770      	bx	lr

000029b2 <prvTaskExitError>:
    29b2:	b580      	push	{r7, lr}
    29b4:	466f      	mov	r7, sp
    29b6:	b082      	sub	sp, #8
    29b8:	2000      	movs	r0, #0
    29ba:	9001      	str	r0, [sp, #4]
    29bc:	f240 0008 	movw	r0, #8
    29c0:	f2c2 0000 	movt	r0, #8192	; 0x2000
    29c4:	6800      	ldr	r0, [r0, #0]
    29c6:	3001      	adds	r0, #1
    29c8:	b120      	cbz	r0, 29d4 <prvTaskExitError+0x22>
    29ca:	e7ff      	b.n	29cc <prvTaskExitError+0x1a>
    29cc:	f000 f862 	bl	2a94 <ulSetInterruptMask>
    29d0:	e7ff      	b.n	29d2 <prvTaskExitError+0x20>
    29d2:	e7fe      	b.n	29d2 <prvTaskExitError+0x20>
    29d4:	f000 f85e 	bl	2a94 <ulSetInterruptMask>
    29d8:	e7ff      	b.n	29da <prvTaskExitError+0x28>
    29da:	9801      	ldr	r0, [sp, #4]
    29dc:	b908      	cbnz	r0, 29e2 <prvTaskExitError+0x30>
    29de:	e7ff      	b.n	29e0 <prvTaskExitError+0x2e>
    29e0:	e7fb      	b.n	29da <prvTaskExitError+0x28>
    29e2:	b002      	add	sp, #8
    29e4:	bd80      	pop	{r7, pc}

000029e6 <xPortStartScheduler>:
    29e6:	b580      	push	{r7, lr}
    29e8:	466f      	mov	r7, sp
    29ea:	b082      	sub	sp, #8
    29ec:	f64e 5120 	movw	r1, #60704	; 0xed20
    29f0:	f2ce 0100 	movt	r1, #57344	; 0xe000
    29f4:	6808      	ldr	r0, [r1, #0]
    29f6:	f440 007f 	orr.w	r0, r0, #16711680	; 0xff0000
    29fa:	6008      	str	r0, [r1, #0]
    29fc:	6808      	ldr	r0, [r1, #0]
    29fe:	f040 407f 	orr.w	r0, r0, #4278190080	; 0xff000000
    2a02:	6008      	str	r0, [r1, #0]
    2a04:	f7ff fefc 	bl	2800 <vPortSetupTimerInterrupt>
    2a08:	f240 0108 	movw	r1, #8
    2a0c:	f2c2 0100 	movt	r1, #8192	; 0x2000
    2a10:	2000      	movs	r0, #0
    2a12:	9001      	str	r0, [sp, #4]
    2a14:	6008      	str	r0, [r1, #0]
    2a16:	f000 f82b 	bl	2a70 <vStartFirstTask>
    2a1a:	f000 fedd 	bl	37d8 <vTaskSwitchContext>
    2a1e:	f7ff ffc8 	bl	29b2 <prvTaskExitError>
    2a22:	9801      	ldr	r0, [sp, #4]
    2a24:	b002      	add	sp, #8
    2a26:	bd80      	pop	{r7, pc}
	...

00002a30 <vRestoreContextOfFirstTask>:
    2a30:	4a0b      	ldr	r2, [pc, #44]	; (2a60 <pxCurrentTCBConst2>)
    2a32:	6811      	ldr	r1, [r2, #0]
    2a34:	6808      	ldr	r0, [r1, #0]
    2a36:	c806      	ldmia	r0!, {r1, r2}
    2a38:	f381 880b 	msr	PSPLIM, r1
    2a3c:	2102      	movs	r1, #2
    2a3e:	f381 8814 	msr	CONTROL, r1
    2a42:	3020      	adds	r0, #32
    2a44:	f380 8809 	msr	PSP, r0
    2a48:	f3bf 8f6f 	isb	sy
    2a4c:	f04f 0000 	mov.w	r0, #0
    2a50:	f380 8811 	msr	BASEPRI, r0
    2a54:	4710      	bx	r2
    2a56:	bf00      	nop
    2a58:	bf00      	nop
    2a5a:	bf00      	nop
    2a5c:	bf00      	nop
    2a5e:	bf00      	nop

00002a60 <pxCurrentTCBConst2>:
    2a60:	20000a64 	.word	0x20000a64
	...

00002a70 <vStartFirstTask>:
    2a70:	4807      	ldr	r0, [pc, #28]	; (2a90 <xVTORConst>)
    2a72:	6800      	ldr	r0, [r0, #0]
    2a74:	6800      	ldr	r0, [r0, #0]
    2a76:	f380 8808 	msr	MSP, r0
    2a7a:	b662      	cpsie	i
    2a7c:	b661      	cpsie	f
    2a7e:	f3bf 8f4f 	dsb	sy
    2a82:	f3bf 8f6f 	isb	sy
    2a86:	df02      	svc	2
    2a88:	bf00      	nop
    2a8a:	bf00      	nop
    2a8c:	bf00      	nop
    2a8e:	bf00      	nop

00002a90 <xVTORConst>:
    2a90:	e000ed08 	.word	0xe000ed08

00002a94 <ulSetInterruptMask>:
    2a94:	f3ef 8011 	mrs	r0, BASEPRI
    2a98:	f04f 0140 	mov.w	r1, #64	; 0x40
    2a9c:	f381 8811 	msr	BASEPRI, r1
    2aa0:	f3bf 8f4f 	dsb	sy
    2aa4:	f3bf 8f6f 	isb	sy
    2aa8:	4770      	bx	lr

00002aaa <vClearInterruptMask>:
    2aaa:	f380 8811 	msr	BASEPRI, r0
    2aae:	f3bf 8f4f 	dsb	sy
    2ab2:	f3bf 8f6f 	isb	sy
    2ab6:	4770      	bx	lr
	...

00002ac0 <PendSV_Handler>:
    2ac0:	f3ef 8009 	mrs	r0, PSP
    2ac4:	f01e 0f10 	tst.w	lr, #16
    2ac8:	bf08      	it	eq
    2aca:	ed20 8a10 	vstmdbeq	r0!, {s16-s31}
    2ace:	f3ef 820b 	mrs	r2, PSPLIM
    2ad2:	4673      	mov	r3, lr
    2ad4:	e920 0ffc 	stmdb	r0!, {r2, r3, r4, r5, r6, r7, r8, r9, sl, fp}
    2ad8:	4a11      	ldr	r2, [pc, #68]	; (2b20 <pxCurrentTCBConst>)
    2ada:	6811      	ldr	r1, [r2, #0]
    2adc:	6008      	str	r0, [r1, #0]
    2ade:	f04f 0040 	mov.w	r0, #64	; 0x40
    2ae2:	f380 8811 	msr	BASEPRI, r0
    2ae6:	f3bf 8f4f 	dsb	sy
    2aea:	f3bf 8f6f 	isb	sy
    2aee:	f000 fe73 	bl	37d8 <vTaskSwitchContext>
    2af2:	f04f 0000 	mov.w	r0, #0
    2af6:	f380 8811 	msr	BASEPRI, r0
    2afa:	4a09      	ldr	r2, [pc, #36]	; (2b20 <pxCurrentTCBConst>)
    2afc:	6811      	ldr	r1, [r2, #0]
    2afe:	6808      	ldr	r0, [r1, #0]
    2b00:	e8b0 0ffc 	ldmia.w	r0!, {r2, r3, r4, r5, r6, r7, r8, r9, sl, fp}
    2b04:	f013 0f10 	tst.w	r3, #16
    2b08:	bf08      	it	eq
    2b0a:	ecb0 8a10 	vldmiaeq	r0!, {s16-s31}
    2b0e:	f382 880b 	msr	PSPLIM, r2
    2b12:	f380 8809 	msr	PSP, r0
    2b16:	4718      	bx	r3
    2b18:	bf00      	nop
    2b1a:	bf00      	nop
    2b1c:	bf00      	nop
    2b1e:	bf00      	nop

00002b20 <pxCurrentTCBConst>:
    2b20:	20000a64 	.word	0x20000a64
	...

00002b30 <SVC_Handler>:
    2b30:	f01e 0f04 	tst.w	lr, #4
    2b34:	bf0c      	ite	eq
    2b36:	f3ef 8008 	mrseq	r0, MSP
    2b3a:	f3ef 8009 	mrsne	r0, PSP
    2b3e:	4904      	ldr	r1, [pc, #16]	; (2b50 <svchandler_address_const>)
    2b40:	4708      	bx	r1
    2b42:	bf00      	nop
    2b44:	bf00      	nop
    2b46:	bf00      	nop
    2b48:	bf00      	nop
    2b4a:	bf00      	nop
    2b4c:	bf00      	nop
    2b4e:	bf00      	nop

00002b50 <svchandler_address_const>:
    2b50:	000028e3 	.word	0x000028e3

00002b54 <vListInitialise>:
    2b54:	4601      	mov	r1, r0
    2b56:	f101 0008 	add.w	r0, r1, #8
    2b5a:	6048      	str	r0, [r1, #4]
    2b5c:	f04f 32ff 	mov.w	r2, #4294967295	; 0xffffffff
    2b60:	608a      	str	r2, [r1, #8]
    2b62:	60c8      	str	r0, [r1, #12]
    2b64:	6108      	str	r0, [r1, #16]
    2b66:	2000      	movs	r0, #0
    2b68:	6008      	str	r0, [r1, #0]
    2b6a:	4770      	bx	lr

00002b6c <vListInitialiseItem>:
    2b6c:	4601      	mov	r1, r0
    2b6e:	2000      	movs	r0, #0
    2b70:	6108      	str	r0, [r1, #16]
    2b72:	4770      	bx	lr

00002b74 <vListInsert>:
    2b74:	b086      	sub	sp, #24
    2b76:	9103      	str	r1, [sp, #12]
    2b78:	9004      	str	r0, [sp, #16]
    2b7a:	6808      	ldr	r0, [r1, #0]
    2b7c:	9005      	str	r0, [sp, #20]
    2b7e:	3001      	adds	r0, #1
    2b80:	b920      	cbnz	r0, 2b8c <vListInsert+0x18>
    2b82:	e7ff      	b.n	2b84 <vListInsert+0x10>
    2b84:	9804      	ldr	r0, [sp, #16]
    2b86:	6900      	ldr	r0, [r0, #16]
    2b88:	9002      	str	r0, [sp, #8]
    2b8a:	e013      	b.n	2bb4 <vListInsert+0x40>
    2b8c:	9804      	ldr	r0, [sp, #16]
    2b8e:	3008      	adds	r0, #8
    2b90:	9001      	str	r0, [sp, #4]
    2b92:	e7ff      	b.n	2b94 <vListInsert+0x20>
    2b94:	9905      	ldr	r1, [sp, #20]
    2b96:	9801      	ldr	r0, [sp, #4]
    2b98:	9000      	str	r0, [sp, #0]
    2b9a:	6840      	ldr	r0, [r0, #4]
    2b9c:	6800      	ldr	r0, [r0, #0]
    2b9e:	4288      	cmp	r0, r1
    2ba0:	d805      	bhi.n	2bae <vListInsert+0x3a>
    2ba2:	e7ff      	b.n	2ba4 <vListInsert+0x30>
    2ba4:	e7ff      	b.n	2ba6 <vListInsert+0x32>
    2ba6:	9800      	ldr	r0, [sp, #0]
    2ba8:	6840      	ldr	r0, [r0, #4]
    2baa:	9001      	str	r0, [sp, #4]
    2bac:	e7f2      	b.n	2b94 <vListInsert+0x20>
    2bae:	9800      	ldr	r0, [sp, #0]
    2bb0:	9002      	str	r0, [sp, #8]
    2bb2:	e7ff      	b.n	2bb4 <vListInsert+0x40>
    2bb4:	9904      	ldr	r1, [sp, #16]
    2bb6:	9803      	ldr	r0, [sp, #12]
    2bb8:	9a02      	ldr	r2, [sp, #8]
    2bba:	6853      	ldr	r3, [r2, #4]
    2bbc:	6043      	str	r3, [r0, #4]
    2bbe:	6843      	ldr	r3, [r0, #4]
    2bc0:	6098      	str	r0, [r3, #8]
    2bc2:	6082      	str	r2, [r0, #8]
    2bc4:	6050      	str	r0, [r2, #4]
    2bc6:	6101      	str	r1, [r0, #16]
    2bc8:	6808      	ldr	r0, [r1, #0]
    2bca:	3001      	adds	r0, #1
    2bcc:	6008      	str	r0, [r1, #0]
    2bce:	b006      	add	sp, #24
    2bd0:	4770      	bx	lr

00002bd2 <uxListRemove>:
    2bd2:	b082      	sub	sp, #8
    2bd4:	4601      	mov	r1, r0
    2bd6:	9100      	str	r1, [sp, #0]
    2bd8:	684b      	ldr	r3, [r1, #4]
    2bda:	688a      	ldr	r2, [r1, #8]
    2bdc:	6908      	ldr	r0, [r1, #16]
    2bde:	9001      	str	r0, [sp, #4]
    2be0:	609a      	str	r2, [r3, #8]
    2be2:	684a      	ldr	r2, [r1, #4]
    2be4:	688b      	ldr	r3, [r1, #8]
    2be6:	605a      	str	r2, [r3, #4]
    2be8:	6840      	ldr	r0, [r0, #4]
    2bea:	4288      	cmp	r0, r1
    2bec:	d105      	bne.n	2bfa <uxListRemove+0x28>
    2bee:	e7ff      	b.n	2bf0 <uxListRemove+0x1e>
    2bf0:	9901      	ldr	r1, [sp, #4]
    2bf2:	9800      	ldr	r0, [sp, #0]
    2bf4:	6880      	ldr	r0, [r0, #8]
    2bf6:	6048      	str	r0, [r1, #4]
    2bf8:	e000      	b.n	2bfc <uxListRemove+0x2a>
    2bfa:	e7ff      	b.n	2bfc <uxListRemove+0x2a>
    2bfc:	9801      	ldr	r0, [sp, #4]
    2bfe:	9a00      	ldr	r2, [sp, #0]
    2c00:	2100      	movs	r1, #0
    2c02:	6111      	str	r1, [r2, #16]
    2c04:	6801      	ldr	r1, [r0, #0]
    2c06:	3901      	subs	r1, #1
    2c08:	6001      	str	r1, [r0, #0]
    2c0a:	6800      	ldr	r0, [r0, #0]
    2c0c:	b002      	add	sp, #8
    2c0e:	4770      	bx	lr

00002c10 <xQueueGenericReset>:
    2c10:	b580      	push	{r7, lr}
    2c12:	466f      	mov	r7, sp
    2c14:	b084      	sub	sp, #16
    2c16:	9102      	str	r1, [sp, #8]
    2c18:	9003      	str	r0, [sp, #12]
    2c1a:	b920      	cbnz	r0, 2c26 <xQueueGenericReset+0x16>
    2c1c:	e7ff      	b.n	2c1e <xQueueGenericReset+0xe>
    2c1e:	f7ff ff39 	bl	2a94 <ulSetInterruptMask>
    2c22:	e7ff      	b.n	2c24 <xQueueGenericReset+0x14>
    2c24:	e7fe      	b.n	2c24 <xQueueGenericReset+0x14>
    2c26:	9803      	ldr	r0, [sp, #12]
    2c28:	2800      	cmp	r0, #0
    2c2a:	d04c      	beq.n	2cc6 <xQueueGenericReset+0xb6>
    2c2c:	e7ff      	b.n	2c2e <xQueueGenericReset+0x1e>
    2c2e:	9803      	ldr	r0, [sp, #12]
    2c30:	6bc0      	ldr	r0, [r0, #60]	; 0x3c
    2c32:	2800      	cmp	r0, #0
    2c34:	d047      	beq.n	2cc6 <xQueueGenericReset+0xb6>
    2c36:	e7ff      	b.n	2c38 <xQueueGenericReset+0x28>
    2c38:	9803      	ldr	r0, [sp, #12]
    2c3a:	6bc2      	ldr	r2, [r0, #60]	; 0x3c
    2c3c:	6c01      	ldr	r1, [r0, #64]	; 0x40
    2c3e:	f04f 30ff 	mov.w	r0, #4294967295	; 0xffffffff
    2c42:	fbb0 f0f2 	udiv	r0, r0, r2
    2c46:	4288      	cmp	r0, r1
    2c48:	d33d      	bcc.n	2cc6 <xQueueGenericReset+0xb6>
    2c4a:	e7ff      	b.n	2c4c <xQueueGenericReset+0x3c>
    2c4c:	f7ff fe06 	bl	285c <vPortEnterCritical>
    2c50:	9a03      	ldr	r2, [sp, #12]
    2c52:	9802      	ldr	r0, [sp, #8]
    2c54:	f8d2 c000 	ldr.w	ip, [r2]
    2c58:	6bd1      	ldr	r1, [r2, #60]	; 0x3c
    2c5a:	6c13      	ldr	r3, [r2, #64]	; 0x40
    2c5c:	fb01 c103 	mla	r1, r1, r3, ip
    2c60:	6091      	str	r1, [r2, #8]
    2c62:	2100      	movs	r1, #0
    2c64:	6391      	str	r1, [r2, #56]	; 0x38
    2c66:	6811      	ldr	r1, [r2, #0]
    2c68:	6051      	str	r1, [r2, #4]
    2c6a:	f8d2 c000 	ldr.w	ip, [r2]
    2c6e:	6bd1      	ldr	r1, [r2, #60]	; 0x3c
    2c70:	6c13      	ldr	r3, [r2, #64]	; 0x40
    2c72:	3901      	subs	r1, #1
    2c74:	fb01 c103 	mla	r1, r1, r3, ip
    2c78:	60d1      	str	r1, [r2, #12]
    2c7a:	21ff      	movs	r1, #255	; 0xff
    2c7c:	f882 1044 	strb.w	r1, [r2, #68]	; 0x44
    2c80:	f882 1045 	strb.w	r1, [r2, #69]	; 0x45
    2c84:	b988      	cbnz	r0, 2caa <xQueueGenericReset+0x9a>
    2c86:	e7ff      	b.n	2c88 <xQueueGenericReset+0x78>
    2c88:	9803      	ldr	r0, [sp, #12]
    2c8a:	6900      	ldr	r0, [r0, #16]
    2c8c:	b158      	cbz	r0, 2ca6 <xQueueGenericReset+0x96>
    2c8e:	e7ff      	b.n	2c90 <xQueueGenericReset+0x80>
    2c90:	9803      	ldr	r0, [sp, #12]
    2c92:	3010      	adds	r0, #16
    2c94:	f000 ffda 	bl	3c4c <xTaskRemoveFromEventList>
    2c98:	b118      	cbz	r0, 2ca2 <xQueueGenericReset+0x92>
    2c9a:	e7ff      	b.n	2c9c <xQueueGenericReset+0x8c>
    2c9c:	f7ff fdd2 	bl	2844 <vPortYield>
    2ca0:	e000      	b.n	2ca4 <xQueueGenericReset+0x94>
    2ca2:	e7ff      	b.n	2ca4 <xQueueGenericReset+0x94>
    2ca4:	e000      	b.n	2ca8 <xQueueGenericReset+0x98>
    2ca6:	e7ff      	b.n	2ca8 <xQueueGenericReset+0x98>
    2ca8:	e008      	b.n	2cbc <xQueueGenericReset+0xac>
    2caa:	9803      	ldr	r0, [sp, #12]
    2cac:	3010      	adds	r0, #16
    2cae:	f7ff ff51 	bl	2b54 <vListInitialise>
    2cb2:	9803      	ldr	r0, [sp, #12]
    2cb4:	3024      	adds	r0, #36	; 0x24
    2cb6:	f7ff ff4d 	bl	2b54 <vListInitialise>
    2cba:	e7ff      	b.n	2cbc <xQueueGenericReset+0xac>
    2cbc:	f7ff fdde 	bl	287c <vPortExitCritical>
    2cc0:	2001      	movs	r0, #1
    2cc2:	9001      	str	r0, [sp, #4]
    2cc4:	e002      	b.n	2ccc <xQueueGenericReset+0xbc>
    2cc6:	2000      	movs	r0, #0
    2cc8:	9001      	str	r0, [sp, #4]
    2cca:	e7ff      	b.n	2ccc <xQueueGenericReset+0xbc>
    2ccc:	9801      	ldr	r0, [sp, #4]
    2cce:	9000      	str	r0, [sp, #0]
    2cd0:	b920      	cbnz	r0, 2cdc <xQueueGenericReset+0xcc>
    2cd2:	e7ff      	b.n	2cd4 <xQueueGenericReset+0xc4>
    2cd4:	f7ff fede 	bl	2a94 <ulSetInterruptMask>
    2cd8:	e7ff      	b.n	2cda <xQueueGenericReset+0xca>
    2cda:	e7fe      	b.n	2cda <xQueueGenericReset+0xca>
    2cdc:	9800      	ldr	r0, [sp, #0]
    2cde:	b004      	add	sp, #16
    2ce0:	bd80      	pop	{r7, pc}

00002ce2 <xQueueGenericCreate>:
    2ce2:	b580      	push	{r7, lr}
    2ce4:	466f      	mov	r7, sp
    2ce6:	b086      	sub	sp, #24
    2ce8:	9103      	str	r1, [sp, #12]
    2cea:	9004      	str	r0, [sp, #16]
    2cec:	9205      	str	r2, [sp, #20]
    2cee:	b360      	cbz	r0, 2d4a <xQueueGenericCreate+0x68>
    2cf0:	e7ff      	b.n	2cf2 <xQueueGenericCreate+0x10>
    2cf2:	9903      	ldr	r1, [sp, #12]
    2cf4:	9a04      	ldr	r2, [sp, #16]
    2cf6:	f04f 30ff 	mov.w	r0, #4294967295	; 0xffffffff
    2cfa:	fbb0 f0f2 	udiv	r0, r0, r2
    2cfe:	4288      	cmp	r0, r1
    2d00:	d323      	bcc.n	2d4a <xQueueGenericCreate+0x68>
    2d02:	e7ff      	b.n	2d04 <xQueueGenericCreate+0x22>
    2d04:	9804      	ldr	r0, [sp, #16]
    2d06:	9903      	ldr	r1, [sp, #12]
    2d08:	4348      	muls	r0, r1
    2d0a:	f110 0f51 	cmn.w	r0, #81	; 0x51
    2d0e:	d81c      	bhi.n	2d4a <xQueueGenericCreate+0x68>
    2d10:	e7ff      	b.n	2d12 <xQueueGenericCreate+0x30>
    2d12:	9804      	ldr	r0, [sp, #16]
    2d14:	9903      	ldr	r1, [sp, #12]
    2d16:	4348      	muls	r0, r1
    2d18:	3050      	adds	r0, #80	; 0x50
    2d1a:	f001 fbbb 	bl	4494 <pvPortMalloc>
    2d1e:	4601      	mov	r1, r0
    2d20:	9102      	str	r1, [sp, #8]
    2d22:	b170      	cbz	r0, 2d42 <xQueueGenericCreate+0x60>
    2d24:	e7ff      	b.n	2d26 <xQueueGenericCreate+0x44>
    2d26:	9903      	ldr	r1, [sp, #12]
    2d28:	9804      	ldr	r0, [sp, #16]
    2d2a:	9b05      	ldr	r3, [sp, #20]
    2d2c:	f8dd c008 	ldr.w	ip, [sp, #8]
    2d30:	f10c 0250 	add.w	r2, ip, #80	; 0x50
    2d34:	46ee      	mov	lr, sp
    2d36:	f8ce c000 	str.w	ip, [lr]
    2d3a:	b2db      	uxtb	r3, r3
    2d3c:	f000 f812 	bl	2d64 <prvInitialiseNewQueue>
    2d40:	e000      	b.n	2d44 <xQueueGenericCreate+0x62>
    2d42:	e7ff      	b.n	2d44 <xQueueGenericCreate+0x62>
    2d44:	9802      	ldr	r0, [sp, #8]
    2d46:	9001      	str	r0, [sp, #4]
    2d48:	e009      	b.n	2d5e <xQueueGenericCreate+0x7c>
    2d4a:	2000      	movs	r0, #0
    2d4c:	b920      	cbnz	r0, 2d58 <xQueueGenericCreate+0x76>
    2d4e:	e7ff      	b.n	2d50 <xQueueGenericCreate+0x6e>
    2d50:	f7ff fea0 	bl	2a94 <ulSetInterruptMask>
    2d54:	e7ff      	b.n	2d56 <xQueueGenericCreate+0x74>
    2d56:	e7fe      	b.n	2d56 <xQueueGenericCreate+0x74>
    2d58:	2000      	movs	r0, #0
    2d5a:	9001      	str	r0, [sp, #4]
    2d5c:	e7ff      	b.n	2d5e <xQueueGenericCreate+0x7c>
    2d5e:	9801      	ldr	r0, [sp, #4]
    2d60:	b006      	add	sp, #24
    2d62:	bd80      	pop	{r7, pc}

00002d64 <prvInitialiseNewQueue>:
    2d64:	b580      	push	{r7, lr}
    2d66:	466f      	mov	r7, sp
    2d68:	b086      	sub	sp, #24
    2d6a:	9201      	str	r2, [sp, #4]
    2d6c:	9102      	str	r1, [sp, #8]
    2d6e:	9003      	str	r0, [sp, #12]
    2d70:	68b8      	ldr	r0, [r7, #8]
    2d72:	9004      	str	r0, [sp, #16]
    2d74:	9305      	str	r3, [sp, #20]
    2d76:	b919      	cbnz	r1, 2d80 <prvInitialiseNewQueue+0x1c>
    2d78:	e7ff      	b.n	2d7a <prvInitialiseNewQueue+0x16>
    2d7a:	9804      	ldr	r0, [sp, #16]
    2d7c:	6000      	str	r0, [r0, #0]
    2d7e:	e003      	b.n	2d88 <prvInitialiseNewQueue+0x24>
    2d80:	9801      	ldr	r0, [sp, #4]
    2d82:	9904      	ldr	r1, [sp, #16]
    2d84:	6008      	str	r0, [r1, #0]
    2d86:	e7ff      	b.n	2d88 <prvInitialiseNewQueue+0x24>
    2d88:	9804      	ldr	r0, [sp, #16]
    2d8a:	9902      	ldr	r1, [sp, #8]
    2d8c:	9a03      	ldr	r2, [sp, #12]
    2d8e:	63c2      	str	r2, [r0, #60]	; 0x3c
    2d90:	6401      	str	r1, [r0, #64]	; 0x40
    2d92:	2101      	movs	r1, #1
    2d94:	f7ff ff3c 	bl	2c10 <xQueueGenericReset>
    2d98:	9904      	ldr	r1, [sp, #16]
    2d9a:	9805      	ldr	r0, [sp, #20]
    2d9c:	f881 004c 	strb.w	r0, [r1, #76]	; 0x4c
    2da0:	b006      	add	sp, #24
    2da2:	bd80      	pop	{r7, pc}

00002da4 <prvUnlockQueue>:
    2da4:	b580      	push	{r7, lr}
    2da6:	466f      	mov	r7, sp
    2da8:	b086      	sub	sp, #24
    2daa:	9004      	str	r0, [sp, #16]
    2dac:	f7ff fd56 	bl	285c <vPortEnterCritical>
    2db0:	9804      	ldr	r0, [sp, #16]
    2db2:	f890 0045 	ldrb.w	r0, [r0, #69]	; 0x45
    2db6:	9005      	str	r0, [sp, #20]
    2db8:	e7ff      	b.n	2dba <prvUnlockQueue+0x16>
    2dba:	9805      	ldr	r0, [sp, #20]
    2dbc:	9003      	str	r0, [sp, #12]
    2dbe:	b240      	sxtb	r0, r0
    2dc0:	2801      	cmp	r0, #1
    2dc2:	db14      	blt.n	2dee <prvUnlockQueue+0x4a>
    2dc4:	e7ff      	b.n	2dc6 <prvUnlockQueue+0x22>
    2dc6:	9804      	ldr	r0, [sp, #16]
    2dc8:	6a40      	ldr	r0, [r0, #36]	; 0x24
    2dca:	b158      	cbz	r0, 2de4 <prvUnlockQueue+0x40>
    2dcc:	e7ff      	b.n	2dce <prvUnlockQueue+0x2a>
    2dce:	9804      	ldr	r0, [sp, #16]
    2dd0:	3024      	adds	r0, #36	; 0x24
    2dd2:	f000 ff3b 	bl	3c4c <xTaskRemoveFromEventList>
    2dd6:	b118      	cbz	r0, 2de0 <prvUnlockQueue+0x3c>
    2dd8:	e7ff      	b.n	2dda <prvUnlockQueue+0x36>
    2dda:	f001 f858 	bl	3e8e <vTaskMissedYield>
    2dde:	e000      	b.n	2de2 <prvUnlockQueue+0x3e>
    2de0:	e7ff      	b.n	2de2 <prvUnlockQueue+0x3e>
    2de2:	e000      	b.n	2de6 <prvUnlockQueue+0x42>
    2de4:	e003      	b.n	2dee <prvUnlockQueue+0x4a>
    2de6:	9803      	ldr	r0, [sp, #12]
    2de8:	3801      	subs	r0, #1
    2dea:	9005      	str	r0, [sp, #20]
    2dec:	e7e5      	b.n	2dba <prvUnlockQueue+0x16>
    2dee:	9904      	ldr	r1, [sp, #16]
    2df0:	20ff      	movs	r0, #255	; 0xff
    2df2:	f881 0045 	strb.w	r0, [r1, #69]	; 0x45
    2df6:	f7ff fd41 	bl	287c <vPortExitCritical>
    2dfa:	f7ff fd2f 	bl	285c <vPortEnterCritical>
    2dfe:	9804      	ldr	r0, [sp, #16]
    2e00:	f890 0044 	ldrb.w	r0, [r0, #68]	; 0x44
    2e04:	9002      	str	r0, [sp, #8]
    2e06:	e7ff      	b.n	2e08 <prvUnlockQueue+0x64>
    2e08:	9802      	ldr	r0, [sp, #8]
    2e0a:	9001      	str	r0, [sp, #4]
    2e0c:	b240      	sxtb	r0, r0
    2e0e:	2801      	cmp	r0, #1
    2e10:	db16      	blt.n	2e40 <prvUnlockQueue+0x9c>
    2e12:	e7ff      	b.n	2e14 <prvUnlockQueue+0x70>
    2e14:	9804      	ldr	r0, [sp, #16]
    2e16:	6900      	ldr	r0, [r0, #16]
    2e18:	b170      	cbz	r0, 2e38 <prvUnlockQueue+0x94>
    2e1a:	e7ff      	b.n	2e1c <prvUnlockQueue+0x78>
    2e1c:	9804      	ldr	r0, [sp, #16]
    2e1e:	3010      	adds	r0, #16
    2e20:	f000 ff14 	bl	3c4c <xTaskRemoveFromEventList>
    2e24:	b118      	cbz	r0, 2e2e <prvUnlockQueue+0x8a>
    2e26:	e7ff      	b.n	2e28 <prvUnlockQueue+0x84>
    2e28:	f001 f831 	bl	3e8e <vTaskMissedYield>
    2e2c:	e000      	b.n	2e30 <prvUnlockQueue+0x8c>
    2e2e:	e7ff      	b.n	2e30 <prvUnlockQueue+0x8c>
    2e30:	9801      	ldr	r0, [sp, #4]
    2e32:	3801      	subs	r0, #1
    2e34:	9000      	str	r0, [sp, #0]
    2e36:	e000      	b.n	2e3a <prvUnlockQueue+0x96>
    2e38:	e002      	b.n	2e40 <prvUnlockQueue+0x9c>
    2e3a:	9800      	ldr	r0, [sp, #0]
    2e3c:	9002      	str	r0, [sp, #8]
    2e3e:	e7e3      	b.n	2e08 <prvUnlockQueue+0x64>
    2e40:	9904      	ldr	r1, [sp, #16]
    2e42:	20ff      	movs	r0, #255	; 0xff
    2e44:	f881 0044 	strb.w	r0, [r1, #68]	; 0x44
    2e48:	f7ff fd18 	bl	287c <vPortExitCritical>
    2e4c:	b006      	add	sp, #24
    2e4e:	bd80      	pop	{r7, pc}

00002e50 <xQueueReceive>:
    2e50:	b580      	push	{r7, lr}
    2e52:	466f      	mov	r7, sp
    2e54:	b08e      	sub	sp, #56	; 0x38
    2e56:	9109      	str	r1, [sp, #36]	; 0x24
    2e58:	900a      	str	r0, [sp, #40]	; 0x28
    2e5a:	920d      	str	r2, [sp, #52]	; 0x34
    2e5c:	b920      	cbnz	r0, 2e68 <xQueueReceive+0x18>
    2e5e:	e7ff      	b.n	2e60 <xQueueReceive+0x10>
    2e60:	f7ff fe18 	bl	2a94 <ulSetInterruptMask>
    2e64:	e7ff      	b.n	2e66 <xQueueReceive+0x16>
    2e66:	e7fe      	b.n	2e66 <xQueueReceive+0x16>
    2e68:	9909      	ldr	r1, [sp, #36]	; 0x24
    2e6a:	2000      	movs	r0, #0
    2e6c:	9008      	str	r0, [sp, #32]
    2e6e:	b939      	cbnz	r1, 2e80 <xQueueReceive+0x30>
    2e70:	e7ff      	b.n	2e72 <xQueueReceive+0x22>
    2e72:	980a      	ldr	r0, [sp, #40]	; 0x28
    2e74:	6c00      	ldr	r0, [r0, #64]	; 0x40
    2e76:	2800      	cmp	r0, #0
    2e78:	bf18      	it	ne
    2e7a:	2001      	movne	r0, #1
    2e7c:	9008      	str	r0, [sp, #32]
    2e7e:	e7ff      	b.n	2e80 <xQueueReceive+0x30>
    2e80:	9808      	ldr	r0, [sp, #32]
    2e82:	07c0      	lsls	r0, r0, #31
    2e84:	b120      	cbz	r0, 2e90 <xQueueReceive+0x40>
    2e86:	e7ff      	b.n	2e88 <xQueueReceive+0x38>
    2e88:	f7ff fe04 	bl	2a94 <ulSetInterruptMask>
    2e8c:	e7ff      	b.n	2e8e <xQueueReceive+0x3e>
    2e8e:	e7fe      	b.n	2e8e <xQueueReceive+0x3e>
    2e90:	f001 f804 	bl	3e9c <xTaskGetSchedulerState>
    2e94:	4601      	mov	r1, r0
    2e96:	2000      	movs	r0, #0
    2e98:	9007      	str	r0, [sp, #28]
    2e9a:	b931      	cbnz	r1, 2eaa <xQueueReceive+0x5a>
    2e9c:	e7ff      	b.n	2e9e <xQueueReceive+0x4e>
    2e9e:	980d      	ldr	r0, [sp, #52]	; 0x34
    2ea0:	2800      	cmp	r0, #0
    2ea2:	bf18      	it	ne
    2ea4:	2001      	movne	r0, #1
    2ea6:	9007      	str	r0, [sp, #28]
    2ea8:	e7ff      	b.n	2eaa <xQueueReceive+0x5a>
    2eaa:	9807      	ldr	r0, [sp, #28]
    2eac:	07c0      	lsls	r0, r0, #31
    2eae:	b120      	cbz	r0, 2eba <xQueueReceive+0x6a>
    2eb0:	e7ff      	b.n	2eb2 <xQueueReceive+0x62>
    2eb2:	f7ff fdef 	bl	2a94 <ulSetInterruptMask>
    2eb6:	e7ff      	b.n	2eb8 <xQueueReceive+0x68>
    2eb8:	e7fe      	b.n	2eb8 <xQueueReceive+0x68>
    2eba:	2000      	movs	r0, #0
    2ebc:	9006      	str	r0, [sp, #24]
    2ebe:	e7ff      	b.n	2ec0 <xQueueReceive+0x70>
    2ec0:	9806      	ldr	r0, [sp, #24]
    2ec2:	9004      	str	r0, [sp, #16]
    2ec4:	f7ff fcca 	bl	285c <vPortEnterCritical>
    2ec8:	980a      	ldr	r0, [sp, #40]	; 0x28
    2eca:	6b80      	ldr	r0, [r0, #56]	; 0x38
    2ecc:	9005      	str	r0, [sp, #20]
    2ece:	b1e0      	cbz	r0, 2f0a <xQueueReceive+0xba>
    2ed0:	e7ff      	b.n	2ed2 <xQueueReceive+0x82>
    2ed2:	980a      	ldr	r0, [sp, #40]	; 0x28
    2ed4:	9909      	ldr	r1, [sp, #36]	; 0x24
    2ed6:	f000 f886 	bl	2fe6 <prvCopyDataFromQueue>
    2eda:	9905      	ldr	r1, [sp, #20]
    2edc:	980a      	ldr	r0, [sp, #40]	; 0x28
    2ede:	3901      	subs	r1, #1
    2ee0:	6381      	str	r1, [r0, #56]	; 0x38
    2ee2:	6900      	ldr	r0, [r0, #16]
    2ee4:	b158      	cbz	r0, 2efe <xQueueReceive+0xae>
    2ee6:	e7ff      	b.n	2ee8 <xQueueReceive+0x98>
    2ee8:	980a      	ldr	r0, [sp, #40]	; 0x28
    2eea:	3010      	adds	r0, #16
    2eec:	f000 feae 	bl	3c4c <xTaskRemoveFromEventList>
    2ef0:	b118      	cbz	r0, 2efa <xQueueReceive+0xaa>
    2ef2:	e7ff      	b.n	2ef4 <xQueueReceive+0xa4>
    2ef4:	f7ff fca6 	bl	2844 <vPortYield>
    2ef8:	e000      	b.n	2efc <xQueueReceive+0xac>
    2efa:	e7ff      	b.n	2efc <xQueueReceive+0xac>
    2efc:	e000      	b.n	2f00 <xQueueReceive+0xb0>
    2efe:	e7ff      	b.n	2f00 <xQueueReceive+0xb0>
    2f00:	f7ff fcbc 	bl	287c <vPortExitCritical>
    2f04:	2001      	movs	r0, #1
    2f06:	9003      	str	r0, [sp, #12]
    2f08:	e06a      	b.n	2fe0 <xQueueReceive+0x190>
    2f0a:	980d      	ldr	r0, [sp, #52]	; 0x34
    2f0c:	b928      	cbnz	r0, 2f1a <xQueueReceive+0xca>
    2f0e:	e7ff      	b.n	2f10 <xQueueReceive+0xc0>
    2f10:	f7ff fcb4 	bl	287c <vPortExitCritical>
    2f14:	2000      	movs	r0, #0
    2f16:	9003      	str	r0, [sp, #12]
    2f18:	e062      	b.n	2fe0 <xQueueReceive+0x190>
    2f1a:	9804      	ldr	r0, [sp, #16]
    2f1c:	b930      	cbnz	r0, 2f2c <xQueueReceive+0xdc>
    2f1e:	e7ff      	b.n	2f20 <xQueueReceive+0xd0>
    2f20:	a80b      	add	r0, sp, #44	; 0x2c
    2f22:	f000 ff46 	bl	3db2 <vTaskInternalSetTimeOutState>
    2f26:	2001      	movs	r0, #1
    2f28:	9002      	str	r0, [sp, #8]
    2f2a:	e002      	b.n	2f32 <xQueueReceive+0xe2>
    2f2c:	9804      	ldr	r0, [sp, #16]
    2f2e:	9002      	str	r0, [sp, #8]
    2f30:	e7ff      	b.n	2f32 <xQueueReceive+0xe2>
    2f32:	9802      	ldr	r0, [sp, #8]
    2f34:	9001      	str	r0, [sp, #4]
    2f36:	e7ff      	b.n	2f38 <xQueueReceive+0xe8>
    2f38:	e7ff      	b.n	2f3a <xQueueReceive+0xea>
    2f3a:	f7ff fc9f 	bl	287c <vPortExitCritical>
    2f3e:	f000 fabc 	bl	34ba <vTaskSuspendAll>
    2f42:	f7ff fc8b 	bl	285c <vPortEnterCritical>
    2f46:	980a      	ldr	r0, [sp, #40]	; 0x28
    2f48:	f990 0044 	ldrsb.w	r0, [r0, #68]	; 0x44
    2f4c:	3001      	adds	r0, #1
    2f4e:	b928      	cbnz	r0, 2f5c <xQueueReceive+0x10c>
    2f50:	e7ff      	b.n	2f52 <xQueueReceive+0x102>
    2f52:	990a      	ldr	r1, [sp, #40]	; 0x28
    2f54:	2000      	movs	r0, #0
    2f56:	f881 0044 	strb.w	r0, [r1, #68]	; 0x44
    2f5a:	e7ff      	b.n	2f5c <xQueueReceive+0x10c>
    2f5c:	980a      	ldr	r0, [sp, #40]	; 0x28
    2f5e:	f990 0045 	ldrsb.w	r0, [r0, #69]	; 0x45
    2f62:	3001      	adds	r0, #1
    2f64:	b928      	cbnz	r0, 2f72 <xQueueReceive+0x122>
    2f66:	e7ff      	b.n	2f68 <xQueueReceive+0x118>
    2f68:	990a      	ldr	r1, [sp, #40]	; 0x28
    2f6a:	2000      	movs	r0, #0
    2f6c:	f881 0045 	strb.w	r0, [r1, #69]	; 0x45
    2f70:	e7ff      	b.n	2f72 <xQueueReceive+0x122>
    2f72:	f7ff fc83 	bl	287c <vPortExitCritical>
    2f76:	a80b      	add	r0, sp, #44	; 0x2c
    2f78:	a90d      	add	r1, sp, #52	; 0x34
    2f7a:	f000 ff28 	bl	3dce <xTaskCheckForTimeOut>
    2f7e:	b9e8      	cbnz	r0, 2fbc <xQueueReceive+0x16c>
    2f80:	e7ff      	b.n	2f82 <xQueueReceive+0x132>
    2f82:	980a      	ldr	r0, [sp, #40]	; 0x28
    2f84:	f000 f84f 	bl	3026 <prvIsQueueEmpty>
    2f88:	b188      	cbz	r0, 2fae <xQueueReceive+0x15e>
    2f8a:	e7ff      	b.n	2f8c <xQueueReceive+0x13c>
    2f8c:	980a      	ldr	r0, [sp, #40]	; 0x28
    2f8e:	3024      	adds	r0, #36	; 0x24
    2f90:	990d      	ldr	r1, [sp, #52]	; 0x34
    2f92:	f000 fe03 	bl	3b9c <vTaskPlaceOnEventList>
    2f96:	980a      	ldr	r0, [sp, #40]	; 0x28
    2f98:	f7ff ff04 	bl	2da4 <prvUnlockQueue>
    2f9c:	f000 fb10 	bl	35c0 <xTaskResumeAll>
    2fa0:	b918      	cbnz	r0, 2faa <xQueueReceive+0x15a>
    2fa2:	e7ff      	b.n	2fa4 <xQueueReceive+0x154>
    2fa4:	f7ff fc4e 	bl	2844 <vPortYield>
    2fa8:	e000      	b.n	2fac <xQueueReceive+0x15c>
    2faa:	e7ff      	b.n	2fac <xQueueReceive+0x15c>
    2fac:	e005      	b.n	2fba <xQueueReceive+0x16a>
    2fae:	980a      	ldr	r0, [sp, #40]	; 0x28
    2fb0:	f7ff fef8 	bl	2da4 <prvUnlockQueue>
    2fb4:	f000 fb04 	bl	35c0 <xTaskResumeAll>
    2fb8:	e7ff      	b.n	2fba <xQueueReceive+0x16a>
    2fba:	e00e      	b.n	2fda <xQueueReceive+0x18a>
    2fbc:	980a      	ldr	r0, [sp, #40]	; 0x28
    2fbe:	f7ff fef1 	bl	2da4 <prvUnlockQueue>
    2fc2:	f000 fafd 	bl	35c0 <xTaskResumeAll>
    2fc6:	980a      	ldr	r0, [sp, #40]	; 0x28
    2fc8:	f000 f82d 	bl	3026 <prvIsQueueEmpty>
    2fcc:	b118      	cbz	r0, 2fd6 <xQueueReceive+0x186>
    2fce:	e7ff      	b.n	2fd0 <xQueueReceive+0x180>
    2fd0:	2000      	movs	r0, #0
    2fd2:	9003      	str	r0, [sp, #12]
    2fd4:	e004      	b.n	2fe0 <xQueueReceive+0x190>
    2fd6:	e7ff      	b.n	2fd8 <xQueueReceive+0x188>
    2fd8:	e7ff      	b.n	2fda <xQueueReceive+0x18a>
    2fda:	9801      	ldr	r0, [sp, #4]
    2fdc:	9006      	str	r0, [sp, #24]
    2fde:	e76f      	b.n	2ec0 <xQueueReceive+0x70>
    2fe0:	9803      	ldr	r0, [sp, #12]
    2fe2:	b00e      	add	sp, #56	; 0x38
    2fe4:	bd80      	pop	{r7, pc}

00002fe6 <prvCopyDataFromQueue>:
    2fe6:	b580      	push	{r7, lr}
    2fe8:	466f      	mov	r7, sp
    2fea:	b082      	sub	sp, #8
    2fec:	9100      	str	r1, [sp, #0]
    2fee:	9001      	str	r0, [sp, #4]
    2ff0:	6c00      	ldr	r0, [r0, #64]	; 0x40
    2ff2:	b1b0      	cbz	r0, 3022 <prvCopyDataFromQueue+0x3c>
    2ff4:	e7ff      	b.n	2ff6 <prvCopyDataFromQueue+0x10>
    2ff6:	9801      	ldr	r0, [sp, #4]
    2ff8:	68c1      	ldr	r1, [r0, #12]
    2ffa:	6c02      	ldr	r2, [r0, #64]	; 0x40
    2ffc:	4411      	add	r1, r2
    2ffe:	60c1      	str	r1, [r0, #12]
    3000:	6881      	ldr	r1, [r0, #8]
    3002:	68c0      	ldr	r0, [r0, #12]
    3004:	4288      	cmp	r0, r1
    3006:	d304      	bcc.n	3012 <prvCopyDataFromQueue+0x2c>
    3008:	e7ff      	b.n	300a <prvCopyDataFromQueue+0x24>
    300a:	9901      	ldr	r1, [sp, #4]
    300c:	6808      	ldr	r0, [r1, #0]
    300e:	60c8      	str	r0, [r1, #12]
    3010:	e000      	b.n	3014 <prvCopyDataFromQueue+0x2e>
    3012:	e7ff      	b.n	3014 <prvCopyDataFromQueue+0x2e>
    3014:	9800      	ldr	r0, [sp, #0]
    3016:	9a01      	ldr	r2, [sp, #4]
    3018:	68d1      	ldr	r1, [r2, #12]
    301a:	6c12      	ldr	r2, [r2, #64]	; 0x40
    301c:	f7fd fc30 	bl	880 <memcpy>
    3020:	e7ff      	b.n	3022 <prvCopyDataFromQueue+0x3c>
    3022:	b002      	add	sp, #8
    3024:	bd80      	pop	{r7, pc}

00003026 <prvIsQueueEmpty>:
    3026:	b580      	push	{r7, lr}
    3028:	466f      	mov	r7, sp
    302a:	b084      	sub	sp, #16
    302c:	9003      	str	r0, [sp, #12]
    302e:	f7ff fc15 	bl	285c <vPortEnterCritical>
    3032:	9803      	ldr	r0, [sp, #12]
    3034:	6b80      	ldr	r0, [r0, #56]	; 0x38
    3036:	b918      	cbnz	r0, 3040 <prvIsQueueEmpty+0x1a>
    3038:	e7ff      	b.n	303a <prvIsQueueEmpty+0x14>
    303a:	2001      	movs	r0, #1
    303c:	9002      	str	r0, [sp, #8]
    303e:	e002      	b.n	3046 <prvIsQueueEmpty+0x20>
    3040:	2000      	movs	r0, #0
    3042:	9002      	str	r0, [sp, #8]
    3044:	e7ff      	b.n	3046 <prvIsQueueEmpty+0x20>
    3046:	9802      	ldr	r0, [sp, #8]
    3048:	9001      	str	r0, [sp, #4]
    304a:	f7ff fc17 	bl	287c <vPortExitCritical>
    304e:	9801      	ldr	r0, [sp, #4]
    3050:	b004      	add	sp, #16
    3052:	bd80      	pop	{r7, pc}

00003054 <vQueueAddToRegistry>:
    3054:	b580      	push	{r7, lr}
    3056:	466f      	mov	r7, sp
    3058:	b08c      	sub	sp, #48	; 0x30
    305a:	910a      	str	r1, [sp, #40]	; 0x28
    305c:	900b      	str	r0, [sp, #44]	; 0x2c
    305e:	b920      	cbnz	r0, 306a <vQueueAddToRegistry+0x16>
    3060:	e7ff      	b.n	3062 <vQueueAddToRegistry+0xe>
    3062:	f7ff fd17 	bl	2a94 <ulSetInterruptMask>
    3066:	e7ff      	b.n	3068 <vQueueAddToRegistry+0x14>
    3068:	e7fe      	b.n	3068 <vQueueAddToRegistry+0x14>
    306a:	990a      	ldr	r1, [sp, #40]	; 0x28
    306c:	2000      	movs	r0, #0
    306e:	2900      	cmp	r1, #0
    3070:	9009      	str	r0, [sp, #36]	; 0x24
    3072:	d047      	beq.n	3104 <vQueueAddToRegistry+0xb0>
    3074:	e7ff      	b.n	3076 <vQueueAddToRegistry+0x22>
    3076:	2100      	movs	r1, #0
    3078:	4608      	mov	r0, r1
    307a:	9107      	str	r1, [sp, #28]
    307c:	9008      	str	r0, [sp, #32]
    307e:	e7ff      	b.n	3080 <vQueueAddToRegistry+0x2c>
    3080:	9907      	ldr	r1, [sp, #28]
    3082:	9808      	ldr	r0, [sp, #32]
    3084:	9004      	str	r0, [sp, #16]
    3086:	9105      	str	r1, [sp, #20]
    3088:	2907      	cmp	r1, #7
    308a:	9006      	str	r0, [sp, #24]
    308c:	d837      	bhi.n	30fe <vQueueAddToRegistry+0xaa>
    308e:	e7ff      	b.n	3090 <vQueueAddToRegistry+0x3c>
    3090:	980b      	ldr	r0, [sp, #44]	; 0x2c
    3092:	9a05      	ldr	r2, [sp, #20]
    3094:	f640 2124 	movw	r1, #2596	; 0xa24
    3098:	f2c2 0100 	movt	r1, #8192	; 0x2000
    309c:	eb01 01c2 	add.w	r1, r1, r2, lsl #3
    30a0:	6849      	ldr	r1, [r1, #4]
    30a2:	4288      	cmp	r0, r1
    30a4:	d109      	bne.n	30ba <vQueueAddToRegistry+0x66>
    30a6:	e7ff      	b.n	30a8 <vQueueAddToRegistry+0x54>
    30a8:	9905      	ldr	r1, [sp, #20]
    30aa:	f640 2024 	movw	r0, #2596	; 0xa24
    30ae:	f2c2 0000 	movt	r0, #8192	; 0x2000
    30b2:	eb00 00c1 	add.w	r0, r0, r1, lsl #3
    30b6:	9006      	str	r0, [sp, #24]
    30b8:	e021      	b.n	30fe <vQueueAddToRegistry+0xaa>
    30ba:	9804      	ldr	r0, [sp, #16]
    30bc:	b990      	cbnz	r0, 30e4 <vQueueAddToRegistry+0x90>
    30be:	e7ff      	b.n	30c0 <vQueueAddToRegistry+0x6c>
    30c0:	9905      	ldr	r1, [sp, #20]
    30c2:	f640 2024 	movw	r0, #2596	; 0xa24
    30c6:	f2c2 0000 	movt	r0, #8192	; 0x2000
    30ca:	f850 0031 	ldr.w	r0, [r0, r1, lsl #3]
    30ce:	b948      	cbnz	r0, 30e4 <vQueueAddToRegistry+0x90>
    30d0:	e7ff      	b.n	30d2 <vQueueAddToRegistry+0x7e>
    30d2:	9905      	ldr	r1, [sp, #20]
    30d4:	f640 2024 	movw	r0, #2596	; 0xa24
    30d8:	f2c2 0000 	movt	r0, #8192	; 0x2000
    30dc:	eb00 00c1 	add.w	r0, r0, r1, lsl #3
    30e0:	9003      	str	r0, [sp, #12]
    30e2:	e002      	b.n	30ea <vQueueAddToRegistry+0x96>
    30e4:	9804      	ldr	r0, [sp, #16]
    30e6:	9003      	str	r0, [sp, #12]
    30e8:	e7ff      	b.n	30ea <vQueueAddToRegistry+0x96>
    30ea:	9803      	ldr	r0, [sp, #12]
    30ec:	9002      	str	r0, [sp, #8]
    30ee:	e7ff      	b.n	30f0 <vQueueAddToRegistry+0x9c>
    30f0:	e7ff      	b.n	30f2 <vQueueAddToRegistry+0x9e>
    30f2:	9802      	ldr	r0, [sp, #8]
    30f4:	9905      	ldr	r1, [sp, #20]
    30f6:	3101      	adds	r1, #1
    30f8:	9107      	str	r1, [sp, #28]
    30fa:	9008      	str	r0, [sp, #32]
    30fc:	e7c0      	b.n	3080 <vQueueAddToRegistry+0x2c>
    30fe:	9806      	ldr	r0, [sp, #24]
    3100:	9009      	str	r0, [sp, #36]	; 0x24
    3102:	e7ff      	b.n	3104 <vQueueAddToRegistry+0xb0>
    3104:	9809      	ldr	r0, [sp, #36]	; 0x24
    3106:	9001      	str	r0, [sp, #4]
    3108:	b130      	cbz	r0, 3118 <vQueueAddToRegistry+0xc4>
    310a:	e7ff      	b.n	310c <vQueueAddToRegistry+0xb8>
    310c:	980b      	ldr	r0, [sp, #44]	; 0x2c
    310e:	9901      	ldr	r1, [sp, #4]
    3110:	9a0a      	ldr	r2, [sp, #40]	; 0x28
    3112:	600a      	str	r2, [r1, #0]
    3114:	6048      	str	r0, [r1, #4]
    3116:	e7ff      	b.n	3118 <vQueueAddToRegistry+0xc4>
    3118:	b00c      	add	sp, #48	; 0x30
    311a:	bd80      	pop	{r7, pc}

0000311c <vQueueWaitForMessageRestricted>:
    311c:	b580      	push	{r7, lr}
    311e:	466f      	mov	r7, sp
    3120:	b084      	sub	sp, #16
    3122:	9201      	str	r2, [sp, #4]
    3124:	9102      	str	r1, [sp, #8]
    3126:	9003      	str	r0, [sp, #12]
    3128:	f7ff fb98 	bl	285c <vPortEnterCritical>
    312c:	9803      	ldr	r0, [sp, #12]
    312e:	f990 0044 	ldrsb.w	r0, [r0, #68]	; 0x44
    3132:	3001      	adds	r0, #1
    3134:	b928      	cbnz	r0, 3142 <vQueueWaitForMessageRestricted+0x26>
    3136:	e7ff      	b.n	3138 <vQueueWaitForMessageRestricted+0x1c>
    3138:	9903      	ldr	r1, [sp, #12]
    313a:	2000      	movs	r0, #0
    313c:	f881 0044 	strb.w	r0, [r1, #68]	; 0x44
    3140:	e7ff      	b.n	3142 <vQueueWaitForMessageRestricted+0x26>
    3142:	9803      	ldr	r0, [sp, #12]
    3144:	f990 0045 	ldrsb.w	r0, [r0, #69]	; 0x45
    3148:	3001      	adds	r0, #1
    314a:	b928      	cbnz	r0, 3158 <vQueueWaitForMessageRestricted+0x3c>
    314c:	e7ff      	b.n	314e <vQueueWaitForMessageRestricted+0x32>
    314e:	9903      	ldr	r1, [sp, #12]
    3150:	2000      	movs	r0, #0
    3152:	f881 0045 	strb.w	r0, [r1, #69]	; 0x45
    3156:	e7ff      	b.n	3158 <vQueueWaitForMessageRestricted+0x3c>
    3158:	f7ff fb90 	bl	287c <vPortExitCritical>
    315c:	9803      	ldr	r0, [sp, #12]
    315e:	6b80      	ldr	r0, [r0, #56]	; 0x38
    3160:	b938      	cbnz	r0, 3172 <vQueueWaitForMessageRestricted+0x56>
    3162:	e7ff      	b.n	3164 <vQueueWaitForMessageRestricted+0x48>
    3164:	9a01      	ldr	r2, [sp, #4]
    3166:	9902      	ldr	r1, [sp, #8]
    3168:	9803      	ldr	r0, [sp, #12]
    316a:	3024      	adds	r0, #36	; 0x24
    316c:	f000 fd30 	bl	3bd0 <vTaskPlaceOnEventListRestricted>
    3170:	e000      	b.n	3174 <vQueueWaitForMessageRestricted+0x58>
    3172:	e7ff      	b.n	3174 <vQueueWaitForMessageRestricted+0x58>
    3174:	9803      	ldr	r0, [sp, #12]
    3176:	f7ff fe15 	bl	2da4 <prvUnlockQueue>
    317a:	b004      	add	sp, #16
    317c:	bd80      	pop	{r7, pc}

0000317e <xTaskCreate>:
    317e:	b5f0      	push	{r4, r5, r6, r7, lr}
    3180:	af03      	add	r7, sp, #12
    3182:	f84d bd04 	str.w	fp, [sp, #-4]!
    3186:	b090      	sub	sp, #64	; 0x40
    3188:	9309      	str	r3, [sp, #36]	; 0x24
    318a:	910a      	str	r1, [sp, #40]	; 0x28
    318c:	900b      	str	r0, [sp, #44]	; 0x2c
    318e:	68f8      	ldr	r0, [r7, #12]
    3190:	900c      	str	r0, [sp, #48]	; 0x30
    3192:	68b8      	ldr	r0, [r7, #8]
    3194:	900d      	str	r0, [sp, #52]	; 0x34
    3196:	4610      	mov	r0, r2
    3198:	900e      	str	r0, [sp, #56]	; 0x38
    319a:	0090      	lsls	r0, r2, #2
    319c:	f001 f97a 	bl	4494 <pvPortMalloc>
    31a0:	4601      	mov	r1, r0
    31a2:	910f      	str	r1, [sp, #60]	; 0x3c
    31a4:	b1b8      	cbz	r0, 31d6 <xTaskCreate+0x58>
    31a6:	e7ff      	b.n	31a8 <xTaskCreate+0x2a>
    31a8:	2074      	movs	r0, #116	; 0x74
    31aa:	f001 f973 	bl	4494 <pvPortMalloc>
    31ae:	4601      	mov	r1, r0
    31b0:	9108      	str	r1, [sp, #32]
    31b2:	b148      	cbz	r0, 31c8 <xTaskCreate+0x4a>
    31b4:	e7ff      	b.n	31b6 <xTaskCreate+0x38>
    31b6:	9808      	ldr	r0, [sp, #32]
    31b8:	2100      	movs	r1, #0
    31ba:	2274      	movs	r2, #116	; 0x74
    31bc:	f002 f99e 	bl	54fc <memset>
    31c0:	9908      	ldr	r1, [sp, #32]
    31c2:	980f      	ldr	r0, [sp, #60]	; 0x3c
    31c4:	6308      	str	r0, [r1, #48]	; 0x30
    31c6:	e003      	b.n	31d0 <xTaskCreate+0x52>
    31c8:	980f      	ldr	r0, [sp, #60]	; 0x3c
    31ca:	f001 fae8 	bl	479e <vPortFree>
    31ce:	e7ff      	b.n	31d0 <xTaskCreate+0x52>
    31d0:	9808      	ldr	r0, [sp, #32]
    31d2:	9007      	str	r0, [sp, #28]
    31d4:	e002      	b.n	31dc <xTaskCreate+0x5e>
    31d6:	2000      	movs	r0, #0
    31d8:	9007      	str	r0, [sp, #28]
    31da:	e7ff      	b.n	31dc <xTaskCreate+0x5e>
    31dc:	9807      	ldr	r0, [sp, #28]
    31de:	9006      	str	r0, [sp, #24]
    31e0:	b1d8      	cbz	r0, 321a <xTaskCreate+0x9c>
    31e2:	e7ff      	b.n	31e4 <xTaskCreate+0x66>
    31e4:	9d06      	ldr	r5, [sp, #24]
    31e6:	9b09      	ldr	r3, [sp, #36]	; 0x24
    31e8:	990a      	ldr	r1, [sp, #40]	; 0x28
    31ea:	980b      	ldr	r0, [sp, #44]	; 0x2c
    31ec:	f8dd c034 	ldr.w	ip, [sp, #52]	; 0x34
    31f0:	9c0c      	ldr	r4, [sp, #48]	; 0x30
    31f2:	9a0e      	ldr	r2, [sp, #56]	; 0x38
    31f4:	b292      	uxth	r2, r2
    31f6:	46ee      	mov	lr, sp
    31f8:	2600      	movs	r6, #0
    31fa:	f8ce 600c 	str.w	r6, [lr, #12]
    31fe:	f8ce 5008 	str.w	r5, [lr, #8]
    3202:	f8ce 4004 	str.w	r4, [lr, #4]
    3206:	f8ce c000 	str.w	ip, [lr]
    320a:	f000 f80f 	bl	322c <prvInitialiseNewTask>
    320e:	9806      	ldr	r0, [sp, #24]
    3210:	f000 f88a 	bl	3328 <prvAddNewTaskToReadyList>
    3214:	2001      	movs	r0, #1
    3216:	9005      	str	r0, [sp, #20]
    3218:	e003      	b.n	3222 <xTaskCreate+0xa4>
    321a:	f04f 30ff 	mov.w	r0, #4294967295	; 0xffffffff
    321e:	9005      	str	r0, [sp, #20]
    3220:	e7ff      	b.n	3222 <xTaskCreate+0xa4>
    3222:	9805      	ldr	r0, [sp, #20]
    3224:	b010      	add	sp, #64	; 0x40
    3226:	f85d bb04 	ldr.w	fp, [sp], #4
    322a:	bdf0      	pop	{r4, r5, r6, r7, pc}

0000322c <prvInitialiseNewTask>:
    322c:	b580      	push	{r7, lr}
    322e:	466f      	mov	r7, sp
    3230:	b08c      	sub	sp, #48	; 0x30
    3232:	9304      	str	r3, [sp, #16]
    3234:	9209      	str	r2, [sp, #36]	; 0x24
    3236:	9105      	str	r1, [sp, #20]
    3238:	9006      	str	r0, [sp, #24]
    323a:	6938      	ldr	r0, [r7, #16]
    323c:	900a      	str	r0, [sp, #40]	; 0x28
    323e:	68f9      	ldr	r1, [r7, #12]
    3240:	9107      	str	r1, [sp, #28]
    3242:	68b9      	ldr	r1, [r7, #8]
    3244:	9108      	str	r1, [sp, #32]
    3246:	6b00      	ldr	r0, [r0, #48]	; 0x30
    3248:	0092      	lsls	r2, r2, #2
    324a:	21a5      	movs	r1, #165	; 0xa5
    324c:	f002 f956 	bl	54fc <memset>
    3250:	9a09      	ldr	r2, [sp, #36]	; 0x24
    3252:	980a      	ldr	r0, [sp, #40]	; 0x28
    3254:	6b00      	ldr	r0, [r0, #48]	; 0x30
    3256:	eb00 0082 	add.w	r0, r0, r2, lsl #2
    325a:	3804      	subs	r0, #4
    325c:	f020 0007 	bic.w	r0, r0, #7
    3260:	900b      	str	r0, [sp, #44]	; 0x2c
    3262:	2001      	movs	r0, #1
    3264:	b920      	cbnz	r0, 3270 <prvInitialiseNewTask+0x44>
    3266:	e7ff      	b.n	3268 <prvInitialiseNewTask+0x3c>
    3268:	f7ff fc14 	bl	2a94 <ulSetInterruptMask>
    326c:	e7ff      	b.n	326e <prvInitialiseNewTask+0x42>
    326e:	e7fe      	b.n	326e <prvInitialiseNewTask+0x42>
    3270:	9805      	ldr	r0, [sp, #20]
    3272:	b1f0      	cbz	r0, 32b2 <prvInitialiseNewTask+0x86>
    3274:	e7ff      	b.n	3276 <prvInitialiseNewTask+0x4a>
    3276:	2000      	movs	r0, #0
    3278:	9003      	str	r0, [sp, #12]
    327a:	e7ff      	b.n	327c <prvInitialiseNewTask+0x50>
    327c:	9803      	ldr	r0, [sp, #12]
    327e:	9002      	str	r0, [sp, #8]
    3280:	2813      	cmp	r0, #19
    3282:	d811      	bhi.n	32a8 <prvInitialiseNewTask+0x7c>
    3284:	e7ff      	b.n	3286 <prvInitialiseNewTask+0x5a>
    3286:	9805      	ldr	r0, [sp, #20]
    3288:	9902      	ldr	r1, [sp, #8]
    328a:	9b0a      	ldr	r3, [sp, #40]	; 0x28
    328c:	5c42      	ldrb	r2, [r0, r1]
    328e:	440b      	add	r3, r1
    3290:	f883 2034 	strb.w	r2, [r3, #52]	; 0x34
    3294:	5c40      	ldrb	r0, [r0, r1]
    3296:	b908      	cbnz	r0, 329c <prvInitialiseNewTask+0x70>
    3298:	e7ff      	b.n	329a <prvInitialiseNewTask+0x6e>
    329a:	e005      	b.n	32a8 <prvInitialiseNewTask+0x7c>
    329c:	e7ff      	b.n	329e <prvInitialiseNewTask+0x72>
    329e:	e7ff      	b.n	32a0 <prvInitialiseNewTask+0x74>
    32a0:	9802      	ldr	r0, [sp, #8]
    32a2:	3001      	adds	r0, #1
    32a4:	9003      	str	r0, [sp, #12]
    32a6:	e7e9      	b.n	327c <prvInitialiseNewTask+0x50>
    32a8:	990a      	ldr	r1, [sp, #40]	; 0x28
    32aa:	2000      	movs	r0, #0
    32ac:	f881 0047 	strb.w	r0, [r1, #71]	; 0x47
    32b0:	e000      	b.n	32b4 <prvInitialiseNewTask+0x88>
    32b2:	e7ff      	b.n	32b4 <prvInitialiseNewTask+0x88>
    32b4:	9808      	ldr	r0, [sp, #32]
    32b6:	2805      	cmp	r0, #5
    32b8:	d304      	bcc.n	32c4 <prvInitialiseNewTask+0x98>
    32ba:	e7ff      	b.n	32bc <prvInitialiseNewTask+0x90>
    32bc:	f7ff fbea 	bl	2a94 <ulSetInterruptMask>
    32c0:	e7ff      	b.n	32c2 <prvInitialiseNewTask+0x96>
    32c2:	e7fe      	b.n	32c2 <prvInitialiseNewTask+0x96>
    32c4:	9808      	ldr	r0, [sp, #32]
    32c6:	2805      	cmp	r0, #5
    32c8:	d303      	bcc.n	32d2 <prvInitialiseNewTask+0xa6>
    32ca:	e7ff      	b.n	32cc <prvInitialiseNewTask+0xa0>
    32cc:	2004      	movs	r0, #4
    32ce:	9001      	str	r0, [sp, #4]
    32d0:	e002      	b.n	32d8 <prvInitialiseNewTask+0xac>
    32d2:	9808      	ldr	r0, [sp, #32]
    32d4:	9001      	str	r0, [sp, #4]
    32d6:	e7ff      	b.n	32d8 <prvInitialiseNewTask+0xac>
    32d8:	980a      	ldr	r0, [sp, #40]	; 0x28
    32da:	9901      	ldr	r1, [sp, #4]
    32dc:	9100      	str	r1, [sp, #0]
    32de:	62c1      	str	r1, [r0, #44]	; 0x2c
    32e0:	6501      	str	r1, [r0, #80]	; 0x50
    32e2:	3004      	adds	r0, #4
    32e4:	f7ff fc42 	bl	2b6c <vListInitialiseItem>
    32e8:	980a      	ldr	r0, [sp, #40]	; 0x28
    32ea:	3018      	adds	r0, #24
    32ec:	f7ff fc3e 	bl	2b6c <vListInitialiseItem>
    32f0:	f8dd c000 	ldr.w	ip, [sp]
    32f4:	980b      	ldr	r0, [sp, #44]	; 0x2c
    32f6:	9a06      	ldr	r2, [sp, #24]
    32f8:	9b04      	ldr	r3, [sp, #16]
    32fa:	990a      	ldr	r1, [sp, #40]	; 0x28
    32fc:	6109      	str	r1, [r1, #16]
    32fe:	f1cc 0c05 	rsb	ip, ip, #5
    3302:	f8c1 c018 	str.w	ip, [r1, #24]
    3306:	6249      	str	r1, [r1, #36]	; 0x24
    3308:	6b09      	ldr	r1, [r1, #48]	; 0x30
    330a:	f7ff fb0d 	bl	2928 <pxPortInitialiseStack>
    330e:	9a0a      	ldr	r2, [sp, #40]	; 0x28
    3310:	4601      	mov	r1, r0
    3312:	9807      	ldr	r0, [sp, #28]
    3314:	6011      	str	r1, [r2, #0]
    3316:	b120      	cbz	r0, 3322 <prvInitialiseNewTask+0xf6>
    3318:	e7ff      	b.n	331a <prvInitialiseNewTask+0xee>
    331a:	980a      	ldr	r0, [sp, #40]	; 0x28
    331c:	9907      	ldr	r1, [sp, #28]
    331e:	6008      	str	r0, [r1, #0]
    3320:	e000      	b.n	3324 <prvInitialiseNewTask+0xf8>
    3322:	e7ff      	b.n	3324 <prvInitialiseNewTask+0xf8>
    3324:	b00c      	add	sp, #48	; 0x30
    3326:	bd80      	pop	{r7, pc}

00003328 <prvAddNewTaskToReadyList>:
    3328:	b580      	push	{r7, lr}
    332a:	466f      	mov	r7, sp
    332c:	b082      	sub	sp, #8
    332e:	9001      	str	r0, [sp, #4]
    3330:	f7ff fa94 	bl	285c <vPortEnterCritical>
    3334:	f640 2184 	movw	r1, #2692	; 0xa84
    3338:	f2c2 0100 	movt	r1, #8192	; 0x2000
    333c:	6808      	ldr	r0, [r1, #0]
    333e:	3001      	adds	r0, #1
    3340:	6008      	str	r0, [r1, #0]
    3342:	f640 2064 	movw	r0, #2660	; 0xa64
    3346:	f2c2 0000 	movt	r0, #8192	; 0x2000
    334a:	6800      	ldr	r0, [r0, #0]
    334c:	b998      	cbnz	r0, 3376 <prvAddNewTaskToReadyList+0x4e>
    334e:	e7ff      	b.n	3350 <prvAddNewTaskToReadyList+0x28>
    3350:	9801      	ldr	r0, [sp, #4]
    3352:	f640 2164 	movw	r1, #2660	; 0xa64
    3356:	f2c2 0100 	movt	r1, #8192	; 0x2000
    335a:	6008      	str	r0, [r1, #0]
    335c:	f640 2084 	movw	r0, #2692	; 0xa84
    3360:	f2c2 0000 	movt	r0, #8192	; 0x2000
    3364:	6800      	ldr	r0, [r0, #0]
    3366:	2801      	cmp	r0, #1
    3368:	d103      	bne.n	3372 <prvAddNewTaskToReadyList+0x4a>
    336a:	e7ff      	b.n	336c <prvAddNewTaskToReadyList+0x44>
    336c:	f000 fdb4 	bl	3ed8 <prvInitialiseTaskLists>
    3370:	e000      	b.n	3374 <prvAddNewTaskToReadyList+0x4c>
    3372:	e7ff      	b.n	3374 <prvAddNewTaskToReadyList+0x4c>
    3374:	e01c      	b.n	33b0 <prvAddNewTaskToReadyList+0x88>
    3376:	f640 2088 	movw	r0, #2696	; 0xa88
    337a:	f2c2 0000 	movt	r0, #8192	; 0x2000
    337e:	6800      	ldr	r0, [r0, #0]
    3380:	b9a0      	cbnz	r0, 33ac <prvAddNewTaskToReadyList+0x84>
    3382:	e7ff      	b.n	3384 <prvAddNewTaskToReadyList+0x5c>
    3384:	9901      	ldr	r1, [sp, #4]
    3386:	f640 2064 	movw	r0, #2660	; 0xa64
    338a:	f2c2 0000 	movt	r0, #8192	; 0x2000
    338e:	6800      	ldr	r0, [r0, #0]
    3390:	6ac0      	ldr	r0, [r0, #44]	; 0x2c
    3392:	6ac9      	ldr	r1, [r1, #44]	; 0x2c
    3394:	4288      	cmp	r0, r1
    3396:	d807      	bhi.n	33a8 <prvAddNewTaskToReadyList+0x80>
    3398:	e7ff      	b.n	339a <prvAddNewTaskToReadyList+0x72>
    339a:	9801      	ldr	r0, [sp, #4]
    339c:	f640 2164 	movw	r1, #2660	; 0xa64
    33a0:	f2c2 0100 	movt	r1, #8192	; 0x2000
    33a4:	6008      	str	r0, [r1, #0]
    33a6:	e000      	b.n	33aa <prvAddNewTaskToReadyList+0x82>
    33a8:	e7ff      	b.n	33aa <prvAddNewTaskToReadyList+0x82>
    33aa:	e000      	b.n	33ae <prvAddNewTaskToReadyList+0x86>
    33ac:	e7ff      	b.n	33ae <prvAddNewTaskToReadyList+0x86>
    33ae:	e7ff      	b.n	33b0 <prvAddNewTaskToReadyList+0x88>
    33b0:	9801      	ldr	r0, [sp, #4]
    33b2:	f640 2168 	movw	r1, #2664	; 0xa68
    33b6:	f2c2 0100 	movt	r1, #8192	; 0x2000
    33ba:	680a      	ldr	r2, [r1, #0]
    33bc:	3201      	adds	r2, #1
    33be:	600a      	str	r2, [r1, #0]
    33c0:	6809      	ldr	r1, [r1, #0]
    33c2:	6481      	str	r1, [r0, #72]	; 0x48
    33c4:	6ac0      	ldr	r0, [r0, #44]	; 0x2c
    33c6:	f640 3114 	movw	r1, #2836	; 0xb14
    33ca:	f2c2 0100 	movt	r1, #8192	; 0x2000
    33ce:	6809      	ldr	r1, [r1, #0]
    33d0:	4288      	cmp	r0, r1
    33d2:	d908      	bls.n	33e6 <prvAddNewTaskToReadyList+0xbe>
    33d4:	e7ff      	b.n	33d6 <prvAddNewTaskToReadyList+0xae>
    33d6:	9801      	ldr	r0, [sp, #4]
    33d8:	6ac0      	ldr	r0, [r0, #44]	; 0x2c
    33da:	f640 3114 	movw	r1, #2836	; 0xb14
    33de:	f2c2 0100 	movt	r1, #8192	; 0x2000
    33e2:	6008      	str	r0, [r1, #0]
    33e4:	e7ff      	b.n	33e6 <prvAddNewTaskToReadyList+0xbe>
    33e6:	9801      	ldr	r0, [sp, #4]
    33e8:	6ac1      	ldr	r1, [r0, #44]	; 0x2c
    33ea:	eb01 0281 	add.w	r2, r1, r1, lsl #2
    33ee:	f640 21b0 	movw	r1, #2736	; 0xab0
    33f2:	f2c2 0100 	movt	r1, #8192	; 0x2000
    33f6:	eb01 0282 	add.w	r2, r1, r2, lsl #2
    33fa:	6853      	ldr	r3, [r2, #4]
    33fc:	1d02      	adds	r2, r0, #4
    33fe:	6083      	str	r3, [r0, #8]
    3400:	f8d3 c008 	ldr.w	ip, [r3, #8]
    3404:	f8c0 c00c 	str.w	ip, [r0, #12]
    3408:	f8d3 c008 	ldr.w	ip, [r3, #8]
    340c:	f8cc 2004 	str.w	r2, [ip, #4]
    3410:	609a      	str	r2, [r3, #8]
    3412:	6ac2      	ldr	r2, [r0, #44]	; 0x2c
    3414:	eb02 0282 	add.w	r2, r2, r2, lsl #2
    3418:	eb01 0282 	add.w	r2, r1, r2, lsl #2
    341c:	6142      	str	r2, [r0, #20]
    341e:	6ac0      	ldr	r0, [r0, #44]	; 0x2c
    3420:	eb00 0280 	add.w	r2, r0, r0, lsl #2
    3424:	f851 0022 	ldr.w	r0, [r1, r2, lsl #2]
    3428:	3001      	adds	r0, #1
    342a:	f841 0022 	str.w	r0, [r1, r2, lsl #2]
    342e:	f7ff fa25 	bl	287c <vPortExitCritical>
    3432:	f640 2088 	movw	r0, #2696	; 0xa88
    3436:	f2c2 0000 	movt	r0, #8192	; 0x2000
    343a:	6800      	ldr	r0, [r0, #0]
    343c:	b180      	cbz	r0, 3460 <prvAddNewTaskToReadyList+0x138>
    343e:	e7ff      	b.n	3440 <prvAddNewTaskToReadyList+0x118>
    3440:	9901      	ldr	r1, [sp, #4]
    3442:	f640 2064 	movw	r0, #2660	; 0xa64
    3446:	f2c2 0000 	movt	r0, #8192	; 0x2000
    344a:	6800      	ldr	r0, [r0, #0]
    344c:	6ac0      	ldr	r0, [r0, #44]	; 0x2c
    344e:	6ac9      	ldr	r1, [r1, #44]	; 0x2c
    3450:	4288      	cmp	r0, r1
    3452:	d203      	bcs.n	345c <prvAddNewTaskToReadyList+0x134>
    3454:	e7ff      	b.n	3456 <prvAddNewTaskToReadyList+0x12e>
    3456:	f7ff f9f5 	bl	2844 <vPortYield>
    345a:	e000      	b.n	345e <prvAddNewTaskToReadyList+0x136>
    345c:	e7ff      	b.n	345e <prvAddNewTaskToReadyList+0x136>
    345e:	e000      	b.n	3462 <prvAddNewTaskToReadyList+0x13a>
    3460:	e7ff      	b.n	3462 <prvAddNewTaskToReadyList+0x13a>
    3462:	b002      	add	sp, #8
    3464:	bd80      	pop	{r7, pc}

00003466 <prvResetNextTaskUnblockTime>:
    3466:	f640 2094 	movw	r0, #2708	; 0xa94
    346a:	f2c2 0000 	movt	r0, #8192	; 0x2000
    346e:	6800      	ldr	r0, [r0, #0]
    3470:	6800      	ldr	r0, [r0, #0]
    3472:	b940      	cbnz	r0, 3486 <prvResetNextTaskUnblockTime+0x20>
    3474:	e7ff      	b.n	3476 <prvResetNextTaskUnblockTime+0x10>
    3476:	f640 3134 	movw	r1, #2868	; 0xb34
    347a:	f2c2 0100 	movt	r1, #8192	; 0x2000
    347e:	f04f 30ff 	mov.w	r0, #4294967295	; 0xffffffff
    3482:	6008      	str	r0, [r1, #0]
    3484:	e00c      	b.n	34a0 <prvResetNextTaskUnblockTime+0x3a>
    3486:	f640 2094 	movw	r0, #2708	; 0xa94
    348a:	f2c2 0000 	movt	r0, #8192	; 0x2000
    348e:	6800      	ldr	r0, [r0, #0]
    3490:	68c0      	ldr	r0, [r0, #12]
    3492:	6800      	ldr	r0, [r0, #0]
    3494:	f640 3134 	movw	r1, #2868	; 0xb34
    3498:	f2c2 0100 	movt	r1, #8192	; 0x2000
    349c:	6008      	str	r0, [r1, #0]
    349e:	e7ff      	b.n	34a0 <prvResetNextTaskUnblockTime+0x3a>
    34a0:	4770      	bx	lr

000034a2 <prvDeleteTCB>:
    34a2:	b580      	push	{r7, lr}
    34a4:	466f      	mov	r7, sp
    34a6:	b082      	sub	sp, #8
    34a8:	9001      	str	r0, [sp, #4]
    34aa:	6b00      	ldr	r0, [r0, #48]	; 0x30
    34ac:	f001 f977 	bl	479e <vPortFree>
    34b0:	9801      	ldr	r0, [sp, #4]
    34b2:	f001 f974 	bl	479e <vPortFree>
    34b6:	b002      	add	sp, #8
    34b8:	bd80      	pop	{r7, pc}

000034ba <vTaskSuspendAll>:
    34ba:	f640 218c 	movw	r1, #2700	; 0xa8c
    34be:	f2c2 0100 	movt	r1, #8192	; 0x2000
    34c2:	6808      	ldr	r0, [r1, #0]
    34c4:	3001      	adds	r0, #1
    34c6:	6008      	str	r0, [r1, #0]
    34c8:	4770      	bx	lr

000034ca <prvAddCurrentTaskToDelayedList>:
    34ca:	b580      	push	{r7, lr}
    34cc:	466f      	mov	r7, sp
    34ce:	b084      	sub	sp, #16
    34d0:	9101      	str	r1, [sp, #4]
    34d2:	9002      	str	r0, [sp, #8]
    34d4:	f640 2090 	movw	r0, #2704	; 0xa90
    34d8:	f2c2 0000 	movt	r0, #8192	; 0x2000
    34dc:	6800      	ldr	r0, [r0, #0]
    34de:	9003      	str	r0, [sp, #12]
    34e0:	f640 2064 	movw	r0, #2660	; 0xa64
    34e4:	f2c2 0000 	movt	r0, #8192	; 0x2000
    34e8:	6800      	ldr	r0, [r0, #0]
    34ea:	3004      	adds	r0, #4
    34ec:	f7ff fb71 	bl	2bd2 <uxListRemove>
    34f0:	b908      	cbnz	r0, 34f6 <prvAddCurrentTaskToDelayedList+0x2c>
    34f2:	e7ff      	b.n	34f4 <prvAddCurrentTaskToDelayedList+0x2a>
    34f4:	e000      	b.n	34f8 <prvAddCurrentTaskToDelayedList+0x2e>
    34f6:	e7ff      	b.n	34f8 <prvAddCurrentTaskToDelayedList+0x2e>
    34f8:	9802      	ldr	r0, [sp, #8]
    34fa:	3001      	adds	r0, #1
    34fc:	bb10      	cbnz	r0, 3544 <prvAddCurrentTaskToDelayedList+0x7a>
    34fe:	e7ff      	b.n	3500 <prvAddCurrentTaskToDelayedList+0x36>
    3500:	9801      	ldr	r0, [sp, #4]
    3502:	b1f8      	cbz	r0, 3544 <prvAddCurrentTaskToDelayedList+0x7a>
    3504:	e7ff      	b.n	3506 <prvAddCurrentTaskToDelayedList+0x3c>
    3506:	f640 219c 	movw	r1, #2716	; 0xa9c
    350a:	f2c2 0100 	movt	r1, #8192	; 0x2000
    350e:	684b      	ldr	r3, [r1, #4]
    3510:	f640 2064 	movw	r0, #2660	; 0xa64
    3514:	f2c2 0000 	movt	r0, #8192	; 0x2000
    3518:	6802      	ldr	r2, [r0, #0]
    351a:	6093      	str	r3, [r2, #8]
    351c:	689a      	ldr	r2, [r3, #8]
    351e:	f8d0 c000 	ldr.w	ip, [r0]
    3522:	f8cc 200c 	str.w	r2, [ip, #12]
    3526:	6802      	ldr	r2, [r0, #0]
    3528:	3204      	adds	r2, #4
    352a:	f8d3 c008 	ldr.w	ip, [r3, #8]
    352e:	f8cc 2004 	str.w	r2, [ip, #4]
    3532:	6802      	ldr	r2, [r0, #0]
    3534:	3204      	adds	r2, #4
    3536:	609a      	str	r2, [r3, #8]
    3538:	6800      	ldr	r0, [r0, #0]
    353a:	6141      	str	r1, [r0, #20]
    353c:	6808      	ldr	r0, [r1, #0]
    353e:	3001      	adds	r0, #1
    3540:	6008      	str	r0, [r1, #0]
    3542:	e03b      	b.n	35bc <prvAddCurrentTaskToDelayedList+0xf2>
    3544:	9903      	ldr	r1, [sp, #12]
    3546:	9802      	ldr	r0, [sp, #8]
    3548:	4408      	add	r0, r1
    354a:	4602      	mov	r2, r0
    354c:	9200      	str	r2, [sp, #0]
    354e:	f640 2264 	movw	r2, #2660	; 0xa64
    3552:	f2c2 0200 	movt	r2, #8192	; 0x2000
    3556:	6812      	ldr	r2, [r2, #0]
    3558:	6050      	str	r0, [r2, #4]
    355a:	4288      	cmp	r0, r1
    355c:	d20e      	bcs.n	357c <prvAddCurrentTaskToDelayedList+0xb2>
    355e:	e7ff      	b.n	3560 <prvAddCurrentTaskToDelayedList+0x96>
    3560:	f640 2098 	movw	r0, #2712	; 0xa98
    3564:	f2c2 0000 	movt	r0, #8192	; 0x2000
    3568:	6800      	ldr	r0, [r0, #0]
    356a:	f640 2164 	movw	r1, #2660	; 0xa64
    356e:	f2c2 0100 	movt	r1, #8192	; 0x2000
    3572:	6809      	ldr	r1, [r1, #0]
    3574:	3104      	adds	r1, #4
    3576:	f7ff fafd 	bl	2b74 <vListInsert>
    357a:	e01e      	b.n	35ba <prvAddCurrentTaskToDelayedList+0xf0>
    357c:	f640 2094 	movw	r0, #2708	; 0xa94
    3580:	f2c2 0000 	movt	r0, #8192	; 0x2000
    3584:	6800      	ldr	r0, [r0, #0]
    3586:	f640 2164 	movw	r1, #2660	; 0xa64
    358a:	f2c2 0100 	movt	r1, #8192	; 0x2000
    358e:	6809      	ldr	r1, [r1, #0]
    3590:	3104      	adds	r1, #4
    3592:	f7ff faef 	bl	2b74 <vListInsert>
    3596:	9800      	ldr	r0, [sp, #0]
    3598:	f640 3134 	movw	r1, #2868	; 0xb34
    359c:	f2c2 0100 	movt	r1, #8192	; 0x2000
    35a0:	6809      	ldr	r1, [r1, #0]
    35a2:	4288      	cmp	r0, r1
    35a4:	d207      	bcs.n	35b6 <prvAddCurrentTaskToDelayedList+0xec>
    35a6:	e7ff      	b.n	35a8 <prvAddCurrentTaskToDelayedList+0xde>
    35a8:	9800      	ldr	r0, [sp, #0]
    35aa:	f640 3134 	movw	r1, #2868	; 0xb34
    35ae:	f2c2 0100 	movt	r1, #8192	; 0x2000
    35b2:	6008      	str	r0, [r1, #0]
    35b4:	e000      	b.n	35b8 <prvAddCurrentTaskToDelayedList+0xee>
    35b6:	e7ff      	b.n	35b8 <prvAddCurrentTaskToDelayedList+0xee>
    35b8:	e7ff      	b.n	35ba <prvAddCurrentTaskToDelayedList+0xf0>
    35ba:	e7ff      	b.n	35bc <prvAddCurrentTaskToDelayedList+0xf2>
    35bc:	b004      	add	sp, #16
    35be:	bd80      	pop	{r7, pc}

000035c0 <xTaskResumeAll>:
    35c0:	b580      	push	{r7, lr}
    35c2:	466f      	mov	r7, sp
    35c4:	b08e      	sub	sp, #56	; 0x38
    35c6:	f640 208c 	movw	r0, #2700	; 0xa8c
    35ca:	f2c2 0000 	movt	r0, #8192	; 0x2000
    35ce:	6800      	ldr	r0, [r0, #0]
    35d0:	b920      	cbnz	r0, 35dc <xTaskResumeAll+0x1c>
    35d2:	e7ff      	b.n	35d4 <xTaskResumeAll+0x14>
    35d4:	f7ff fa5e 	bl	2a94 <ulSetInterruptMask>
    35d8:	e7ff      	b.n	35da <xTaskResumeAll+0x1a>
    35da:	e7fe      	b.n	35da <xTaskResumeAll+0x1a>
    35dc:	f7ff f93e 	bl	285c <vPortEnterCritical>
    35e0:	f640 208c 	movw	r0, #2700	; 0xa8c
    35e4:	f2c2 0000 	movt	r0, #8192	; 0x2000
    35e8:	6801      	ldr	r1, [r0, #0]
    35ea:	3901      	subs	r1, #1
    35ec:	6001      	str	r1, [r0, #0]
    35ee:	6800      	ldr	r0, [r0, #0]
    35f0:	2800      	cmp	r0, #0
    35f2:	f040 80e7 	bne.w	37c4 <xTaskResumeAll+0x204>
    35f6:	e7ff      	b.n	35f8 <xTaskResumeAll+0x38>
    35f8:	f640 2084 	movw	r0, #2692	; 0xa84
    35fc:	f2c2 0000 	movt	r0, #8192	; 0x2000
    3600:	6801      	ldr	r1, [r0, #0]
    3602:	2000      	movs	r0, #0
    3604:	2900      	cmp	r1, #0
    3606:	900d      	str	r0, [sp, #52]	; 0x34
    3608:	f000 80d9 	beq.w	37be <xTaskResumeAll+0x1fe>
    360c:	e7ff      	b.n	360e <xTaskResumeAll+0x4e>
    360e:	2000      	movs	r0, #0
    3610:	900c      	str	r0, [sp, #48]	; 0x30
    3612:	e7ff      	b.n	3614 <xTaskResumeAll+0x54>
    3614:	980c      	ldr	r0, [sp, #48]	; 0x30
    3616:	900b      	str	r0, [sp, #44]	; 0x2c
    3618:	f640 301c 	movw	r0, #2844	; 0xb1c
    361c:	f2c2 0000 	movt	r0, #8192	; 0x2000
    3620:	6800      	ldr	r0, [r0, #0]
    3622:	2800      	cmp	r0, #0
    3624:	f000 8089 	beq.w	373a <xTaskResumeAll+0x17a>
    3628:	e7ff      	b.n	362a <xTaskResumeAll+0x6a>
    362a:	f640 301c 	movw	r0, #2844	; 0xb1c
    362e:	f2c2 0000 	movt	r0, #8192	; 0x2000
    3632:	68c0      	ldr	r0, [r0, #12]
    3634:	68c3      	ldr	r3, [r0, #12]
    3636:	9309      	str	r3, [sp, #36]	; 0x24
    3638:	f103 0118 	add.w	r1, r3, #24
    363c:	f8d3 c01c 	ldr.w	ip, [r3, #28]
    3640:	6a1a      	ldr	r2, [r3, #32]
    3642:	6a98      	ldr	r0, [r3, #40]	; 0x28
    3644:	900a      	str	r0, [sp, #40]	; 0x28
    3646:	f8cc 2008 	str.w	r2, [ip, #8]
    364a:	69da      	ldr	r2, [r3, #28]
    364c:	6a1b      	ldr	r3, [r3, #32]
    364e:	605a      	str	r2, [r3, #4]
    3650:	6840      	ldr	r0, [r0, #4]
    3652:	4288      	cmp	r0, r1
    3654:	d105      	bne.n	3662 <xTaskResumeAll+0xa2>
    3656:	e7ff      	b.n	3658 <xTaskResumeAll+0x98>
    3658:	990a      	ldr	r1, [sp, #40]	; 0x28
    365a:	9809      	ldr	r0, [sp, #36]	; 0x24
    365c:	6a00      	ldr	r0, [r0, #32]
    365e:	6048      	str	r0, [r1, #4]
    3660:	e7ff      	b.n	3662 <xTaskResumeAll+0xa2>
    3662:	9b09      	ldr	r3, [sp, #36]	; 0x24
    3664:	990a      	ldr	r1, [sp, #40]	; 0x28
    3666:	2000      	movs	r0, #0
    3668:	6298      	str	r0, [r3, #40]	; 0x28
    366a:	6808      	ldr	r0, [r1, #0]
    366c:	3801      	subs	r0, #1
    366e:	6008      	str	r0, [r1, #0]
    3670:	1d19      	adds	r1, r3, #4
    3672:	f8d3 c008 	ldr.w	ip, [r3, #8]
    3676:	68da      	ldr	r2, [r3, #12]
    3678:	6958      	ldr	r0, [r3, #20]
    367a:	9008      	str	r0, [sp, #32]
    367c:	f8cc 2008 	str.w	r2, [ip, #8]
    3680:	689a      	ldr	r2, [r3, #8]
    3682:	68db      	ldr	r3, [r3, #12]
    3684:	605a      	str	r2, [r3, #4]
    3686:	6840      	ldr	r0, [r0, #4]
    3688:	4288      	cmp	r0, r1
    368a:	d105      	bne.n	3698 <xTaskResumeAll+0xd8>
    368c:	e7ff      	b.n	368e <xTaskResumeAll+0xce>
    368e:	9908      	ldr	r1, [sp, #32]
    3690:	9809      	ldr	r0, [sp, #36]	; 0x24
    3692:	68c0      	ldr	r0, [r0, #12]
    3694:	6048      	str	r0, [r1, #4]
    3696:	e7ff      	b.n	3698 <xTaskResumeAll+0xd8>
    3698:	9809      	ldr	r0, [sp, #36]	; 0x24
    369a:	9a08      	ldr	r2, [sp, #32]
    369c:	2100      	movs	r1, #0
    369e:	6141      	str	r1, [r0, #20]
    36a0:	6811      	ldr	r1, [r2, #0]
    36a2:	3901      	subs	r1, #1
    36a4:	6011      	str	r1, [r2, #0]
    36a6:	6ac0      	ldr	r0, [r0, #44]	; 0x2c
    36a8:	f640 3114 	movw	r1, #2836	; 0xb14
    36ac:	f2c2 0100 	movt	r1, #8192	; 0x2000
    36b0:	6809      	ldr	r1, [r1, #0]
    36b2:	4288      	cmp	r0, r1
    36b4:	d908      	bls.n	36c8 <xTaskResumeAll+0x108>
    36b6:	e7ff      	b.n	36b8 <xTaskResumeAll+0xf8>
    36b8:	9809      	ldr	r0, [sp, #36]	; 0x24
    36ba:	6ac0      	ldr	r0, [r0, #44]	; 0x2c
    36bc:	f640 3114 	movw	r1, #2836	; 0xb14
    36c0:	f2c2 0100 	movt	r1, #8192	; 0x2000
    36c4:	6008      	str	r0, [r1, #0]
    36c6:	e7ff      	b.n	36c8 <xTaskResumeAll+0x108>
    36c8:	9809      	ldr	r0, [sp, #36]	; 0x24
    36ca:	6ac1      	ldr	r1, [r0, #44]	; 0x2c
    36cc:	eb01 0181 	add.w	r1, r1, r1, lsl #2
    36d0:	f640 22b0 	movw	r2, #2736	; 0xab0
    36d4:	f2c2 0200 	movt	r2, #8192	; 0x2000
    36d8:	eb02 0181 	add.w	r1, r2, r1, lsl #2
    36dc:	684b      	ldr	r3, [r1, #4]
    36de:	1d01      	adds	r1, r0, #4
    36e0:	6083      	str	r3, [r0, #8]
    36e2:	f8d3 c008 	ldr.w	ip, [r3, #8]
    36e6:	f8c0 c00c 	str.w	ip, [r0, #12]
    36ea:	f8d3 c008 	ldr.w	ip, [r3, #8]
    36ee:	f8cc 1004 	str.w	r1, [ip, #4]
    36f2:	6099      	str	r1, [r3, #8]
    36f4:	6ac1      	ldr	r1, [r0, #44]	; 0x2c
    36f6:	eb01 0181 	add.w	r1, r1, r1, lsl #2
    36fa:	eb02 0181 	add.w	r1, r2, r1, lsl #2
    36fe:	6141      	str	r1, [r0, #20]
    3700:	6ac1      	ldr	r1, [r0, #44]	; 0x2c
    3702:	eb01 0381 	add.w	r3, r1, r1, lsl #2
    3706:	f852 1023 	ldr.w	r1, [r2, r3, lsl #2]
    370a:	3101      	adds	r1, #1
    370c:	f842 1023 	str.w	r1, [r2, r3, lsl #2]
    3710:	6ac0      	ldr	r0, [r0, #44]	; 0x2c
    3712:	f640 2164 	movw	r1, #2660	; 0xa64
    3716:	f2c2 0100 	movt	r1, #8192	; 0x2000
    371a:	6809      	ldr	r1, [r1, #0]
    371c:	6ac9      	ldr	r1, [r1, #44]	; 0x2c
    371e:	4288      	cmp	r0, r1
    3720:	d307      	bcc.n	3732 <xTaskResumeAll+0x172>
    3722:	e7ff      	b.n	3724 <xTaskResumeAll+0x164>
    3724:	f640 3118 	movw	r1, #2840	; 0xb18
    3728:	f2c2 0100 	movt	r1, #8192	; 0x2000
    372c:	2001      	movs	r0, #1
    372e:	6008      	str	r0, [r1, #0]
    3730:	e000      	b.n	3734 <xTaskResumeAll+0x174>
    3732:	e7ff      	b.n	3734 <xTaskResumeAll+0x174>
    3734:	9809      	ldr	r0, [sp, #36]	; 0x24
    3736:	900c      	str	r0, [sp, #48]	; 0x30
    3738:	e76c      	b.n	3614 <xTaskResumeAll+0x54>
    373a:	980b      	ldr	r0, [sp, #44]	; 0x2c
    373c:	b118      	cbz	r0, 3746 <xTaskResumeAll+0x186>
    373e:	e7ff      	b.n	3740 <xTaskResumeAll+0x180>
    3740:	f7ff fe91 	bl	3466 <prvResetNextTaskUnblockTime>
    3744:	e7ff      	b.n	3746 <xTaskResumeAll+0x186>
    3746:	f640 3038 	movw	r0, #2872	; 0xb38
    374a:	f2c2 0000 	movt	r0, #8192	; 0x2000
    374e:	6800      	ldr	r0, [r0, #0]
    3750:	9007      	str	r0, [sp, #28]
    3752:	b308      	cbz	r0, 3798 <xTaskResumeAll+0x1d8>
    3754:	e7ff      	b.n	3756 <xTaskResumeAll+0x196>
    3756:	9807      	ldr	r0, [sp, #28]
    3758:	9006      	str	r0, [sp, #24]
    375a:	e7ff      	b.n	375c <xTaskResumeAll+0x19c>
    375c:	9806      	ldr	r0, [sp, #24]
    375e:	9005      	str	r0, [sp, #20]
    3760:	f000 f8f9 	bl	3956 <xTaskIncrementTick>
    3764:	b138      	cbz	r0, 3776 <xTaskResumeAll+0x1b6>
    3766:	e7ff      	b.n	3768 <xTaskResumeAll+0x1a8>
    3768:	f640 3118 	movw	r1, #2840	; 0xb18
    376c:	f2c2 0100 	movt	r1, #8192	; 0x2000
    3770:	2001      	movs	r0, #1
    3772:	6008      	str	r0, [r1, #0]
    3774:	e000      	b.n	3778 <xTaskResumeAll+0x1b8>
    3776:	e7ff      	b.n	3778 <xTaskResumeAll+0x1b8>
    3778:	9805      	ldr	r0, [sp, #20]
    377a:	3801      	subs	r0, #1
    377c:	9004      	str	r0, [sp, #16]
    377e:	e7ff      	b.n	3780 <xTaskResumeAll+0x1c0>
    3780:	9804      	ldr	r0, [sp, #16]
    3782:	2800      	cmp	r0, #0
    3784:	9006      	str	r0, [sp, #24]
    3786:	d1e9      	bne.n	375c <xTaskResumeAll+0x19c>
    3788:	e7ff      	b.n	378a <xTaskResumeAll+0x1ca>
    378a:	f640 3138 	movw	r1, #2872	; 0xb38
    378e:	f2c2 0100 	movt	r1, #8192	; 0x2000
    3792:	2000      	movs	r0, #0
    3794:	6008      	str	r0, [r1, #0]
    3796:	e000      	b.n	379a <xTaskResumeAll+0x1da>
    3798:	e7ff      	b.n	379a <xTaskResumeAll+0x1da>
    379a:	f640 3018 	movw	r0, #2840	; 0xb18
    379e:	f2c2 0000 	movt	r0, #8192	; 0x2000
    37a2:	6800      	ldr	r0, [r0, #0]
    37a4:	b128      	cbz	r0, 37b2 <xTaskResumeAll+0x1f2>
    37a6:	e7ff      	b.n	37a8 <xTaskResumeAll+0x1e8>
    37a8:	f7ff f84c 	bl	2844 <vPortYield>
    37ac:	2001      	movs	r0, #1
    37ae:	9003      	str	r0, [sp, #12]
    37b0:	e002      	b.n	37b8 <xTaskResumeAll+0x1f8>
    37b2:	2000      	movs	r0, #0
    37b4:	9003      	str	r0, [sp, #12]
    37b6:	e7ff      	b.n	37b8 <xTaskResumeAll+0x1f8>
    37b8:	9803      	ldr	r0, [sp, #12]
    37ba:	900d      	str	r0, [sp, #52]	; 0x34
    37bc:	e7ff      	b.n	37be <xTaskResumeAll+0x1fe>
    37be:	980d      	ldr	r0, [sp, #52]	; 0x34
    37c0:	9002      	str	r0, [sp, #8]
    37c2:	e002      	b.n	37ca <xTaskResumeAll+0x20a>
    37c4:	2000      	movs	r0, #0
    37c6:	9002      	str	r0, [sp, #8]
    37c8:	e7ff      	b.n	37ca <xTaskResumeAll+0x20a>
    37ca:	9802      	ldr	r0, [sp, #8]
    37cc:	9001      	str	r0, [sp, #4]
    37ce:	f7ff f855 	bl	287c <vPortExitCritical>
    37d2:	9801      	ldr	r0, [sp, #4]
    37d4:	b00e      	add	sp, #56	; 0x38
    37d6:	bd80      	pop	{r7, pc}

000037d8 <vTaskSwitchContext>:
    37d8:	b580      	push	{r7, lr}
    37da:	466f      	mov	r7, sp
    37dc:	b084      	sub	sp, #16
    37de:	f640 208c 	movw	r0, #2700	; 0xa8c
    37e2:	f2c2 0000 	movt	r0, #8192	; 0x2000
    37e6:	6800      	ldr	r0, [r0, #0]
    37e8:	b138      	cbz	r0, 37fa <vTaskSwitchContext+0x22>
    37ea:	e7ff      	b.n	37ec <vTaskSwitchContext+0x14>
    37ec:	f640 3118 	movw	r1, #2840	; 0xb18
    37f0:	f2c2 0100 	movt	r1, #8192	; 0x2000
    37f4:	2001      	movs	r0, #1
    37f6:	6008      	str	r0, [r1, #0]
    37f8:	e04a      	b.n	3890 <vTaskSwitchContext+0xb8>
    37fa:	f640 3118 	movw	r1, #2840	; 0xb18
    37fe:	f2c2 0100 	movt	r1, #8192	; 0x2000
    3802:	2000      	movs	r0, #0
    3804:	6008      	str	r0, [r1, #0]
    3806:	f640 3014 	movw	r0, #2836	; 0xb14
    380a:	f2c2 0000 	movt	r0, #8192	; 0x2000
    380e:	6800      	ldr	r0, [r0, #0]
    3810:	9003      	str	r0, [sp, #12]
    3812:	e7ff      	b.n	3814 <vTaskSwitchContext+0x3c>
    3814:	9803      	ldr	r0, [sp, #12]
    3816:	9002      	str	r0, [sp, #8]
    3818:	eb00 0180 	add.w	r1, r0, r0, lsl #2
    381c:	f640 20b0 	movw	r0, #2736	; 0xab0
    3820:	f2c2 0000 	movt	r0, #8192	; 0x2000
    3824:	f850 0021 	ldr.w	r0, [r0, r1, lsl #2]
    3828:	b958      	cbnz	r0, 3842 <vTaskSwitchContext+0x6a>
    382a:	e7ff      	b.n	382c <vTaskSwitchContext+0x54>
    382c:	9802      	ldr	r0, [sp, #8]
    382e:	b920      	cbnz	r0, 383a <vTaskSwitchContext+0x62>
    3830:	e7ff      	b.n	3832 <vTaskSwitchContext+0x5a>
    3832:	f7ff f92f 	bl	2a94 <ulSetInterruptMask>
    3836:	e7ff      	b.n	3838 <vTaskSwitchContext+0x60>
    3838:	e7fe      	b.n	3838 <vTaskSwitchContext+0x60>
    383a:	9802      	ldr	r0, [sp, #8]
    383c:	3801      	subs	r0, #1
    383e:	9003      	str	r0, [sp, #12]
    3840:	e7e8      	b.n	3814 <vTaskSwitchContext+0x3c>
    3842:	9802      	ldr	r0, [sp, #8]
    3844:	eb00 0180 	add.w	r1, r0, r0, lsl #2
    3848:	f640 20b0 	movw	r0, #2736	; 0xab0
    384c:	f2c2 0000 	movt	r0, #8192	; 0x2000
    3850:	eb00 0181 	add.w	r1, r0, r1, lsl #2
    3854:	4608      	mov	r0, r1
    3856:	9001      	str	r0, [sp, #4]
    3858:	6848      	ldr	r0, [r1, #4]
    385a:	6840      	ldr	r0, [r0, #4]
    385c:	6048      	str	r0, [r1, #4]
    385e:	6848      	ldr	r0, [r1, #4]
    3860:	3108      	adds	r1, #8
    3862:	4288      	cmp	r0, r1
    3864:	d105      	bne.n	3872 <vTaskSwitchContext+0x9a>
    3866:	e7ff      	b.n	3868 <vTaskSwitchContext+0x90>
    3868:	9901      	ldr	r1, [sp, #4]
    386a:	6848      	ldr	r0, [r1, #4]
    386c:	6840      	ldr	r0, [r0, #4]
    386e:	6048      	str	r0, [r1, #4]
    3870:	e7ff      	b.n	3872 <vTaskSwitchContext+0x9a>
    3872:	9802      	ldr	r0, [sp, #8]
    3874:	9901      	ldr	r1, [sp, #4]
    3876:	6849      	ldr	r1, [r1, #4]
    3878:	68c9      	ldr	r1, [r1, #12]
    387a:	f640 2264 	movw	r2, #2660	; 0xa64
    387e:	f2c2 0200 	movt	r2, #8192	; 0x2000
    3882:	6011      	str	r1, [r2, #0]
    3884:	f640 3114 	movw	r1, #2836	; 0xb14
    3888:	f2c2 0100 	movt	r1, #8192	; 0x2000
    388c:	6008      	str	r0, [r1, #0]
    388e:	e7ff      	b.n	3890 <vTaskSwitchContext+0xb8>
    3890:	b004      	add	sp, #16
    3892:	bd80      	pop	{r7, pc}

00003894 <vTaskStartScheduler>:
    3894:	b580      	push	{r7, lr}
    3896:	466f      	mov	r7, sp
    3898:	b086      	sub	sp, #24
    389a:	f640 3130 	movw	r1, #2864	; 0xb30
    389e:	f2c2 0100 	movt	r1, #8192	; 0x2000
    38a2:	4668      	mov	r0, sp
    38a4:	6041      	str	r1, [r0, #4]
    38a6:	2300      	movs	r3, #0
    38a8:	6003      	str	r3, [r0, #0]
    38aa:	f643 1033 	movw	r0, #14643	; 0x3933
    38ae:	f2c0 0000 	movt	r0, #0
    38b2:	f248 6164 	movw	r1, #34404	; 0x8664
    38b6:	f2c0 0100 	movt	r1, #0
    38ba:	2240      	movs	r2, #64	; 0x40
    38bc:	f7ff fc5f 	bl	317e <xTaskCreate>
    38c0:	4601      	mov	r1, r0
    38c2:	9105      	str	r1, [sp, #20]
    38c4:	2801      	cmp	r0, #1
    38c6:	d104      	bne.n	38d2 <vTaskStartScheduler+0x3e>
