
../lpc_firmware/freertos_pinlock/output/freertos_pinlock.elf:     file format elf32-littlearm


Disassembly of section .text:

00000200 <__do_global_dtors_aux>:
     200:	b510      	push	{r4, lr}
     202:	4c05      	ldr	r4, [pc, #20]	; (218 <__do_global_dtors_aux+0x18>)
     204:	7823      	ldrb	r3, [r4, #0]
     206:	b933      	cbnz	r3, 216 <__do_global_dtors_aux+0x16>
     208:	4b04      	ldr	r3, [pc, #16]	; (21c <__do_global_dtors_aux+0x1c>)
     20a:	b113      	cbz	r3, 212 <__do_global_dtors_aux+0x12>
     20c:	4804      	ldr	r0, [pc, #16]	; (220 <__do_global_dtors_aux+0x20>)
     20e:	f3af 8000 	nop.w
     212:	2301      	movs	r3, #1
     214:	7023      	strb	r3, [r4, #0]
     216:	bd10      	pop	{r4, pc}
     218:	200009b8 	.word	0x200009b8
     21c:	00000000 	.word	0x00000000
     220:	00008900 	.word	0x00008900

00000224 <frame_dummy>:
     224:	b508      	push	{r3, lr}
     226:	4b03      	ldr	r3, [pc, #12]	; (234 <frame_dummy+0x10>)
     228:	b11b      	cbz	r3, 232 <frame_dummy+0xe>
     22a:	4903      	ldr	r1, [pc, #12]	; (238 <frame_dummy+0x14>)
     22c:	4803      	ldr	r0, [pc, #12]	; (23c <frame_dummy+0x18>)
     22e:	f3af 8000 	nop.w
     232:	bd08      	pop	{r3, pc}
     234:	00000000 	.word	0x00000000
     238:	200009bc 	.word	0x200009bc
     23c:	00008900 	.word	0x00008900

00000240 <_stack_init>:
     240:	f5a3 3a80 	sub.w	sl, r3, #65536	; 0x10000
     244:	4770      	bx	lr
     246:	bf00      	nop

00000248 <_mainCRTStartup>:
     248:	4b17      	ldr	r3, [pc, #92]	; (2a8 <_mainCRTStartup+0x60>)
     24a:	2b00      	cmp	r3, #0
     24c:	bf08      	it	eq
     24e:	4b13      	ldreq	r3, [pc, #76]	; (29c <_mainCRTStartup+0x54>)
     250:	469d      	mov	sp, r3
     252:	f7ff fff5 	bl	240 <_stack_init>
     256:	2100      	movs	r1, #0
     258:	468b      	mov	fp, r1
     25a:	460f      	mov	r7, r1
     25c:	4813      	ldr	r0, [pc, #76]	; (2ac <_mainCRTStartup+0x64>)
     25e:	4a14      	ldr	r2, [pc, #80]	; (2b0 <_mainCRTStartup+0x68>)
     260:	1a12      	subs	r2, r2, r0
     262:	f005 f94b 	bl	54fc <memset>
     266:	4b0e      	ldr	r3, [pc, #56]	; (2a0 <_mainCRTStartup+0x58>)
     268:	2b00      	cmp	r3, #0
     26a:	d000      	beq.n	26e <_mainCRTStartup+0x26>
     26c:	4798      	blx	r3
     26e:	4b0d      	ldr	r3, [pc, #52]	; (2a4 <_mainCRTStartup+0x5c>)
     270:	2b00      	cmp	r3, #0
     272:	d000      	beq.n	276 <_mainCRTStartup+0x2e>
     274:	4798      	blx	r3
     276:	2000      	movs	r0, #0
     278:	2100      	movs	r1, #0
     27a:	0004      	movs	r4, r0
     27c:	000d      	movs	r5, r1
     27e:	480d      	ldr	r0, [pc, #52]	; (2b4 <_mainCRTStartup+0x6c>)
     280:	2800      	cmp	r0, #0
     282:	d002      	beq.n	28a <_mainCRTStartup+0x42>
     284:	480c      	ldr	r0, [pc, #48]	; (2b8 <_mainCRTStartup+0x70>)
     286:	f006 faad 	bl	67e4 <atexit>
     28a:	f004 fe25 	bl	4ed8 <__libc_init_array>
     28e:	0020      	movs	r0, r4
     290:	0029      	movs	r1, r5
     292:	f004 fd3d 	bl	4d10 <main>
     296:	f004 fdfb 	bl	4e90 <exit>
     29a:	bf00      	nop
     29c:	00080000 	.word	0x00080000
	...
     2a8:	20033000 	.word	0x20033000
     2ac:	200009b8 	.word	0x200009b8
     2b0:	20003454 	.word	0x20003454
     2b4:	000067e5 	.word	0x000067e5
     2b8:	00006acd 	.word	0x00006acd

000002bc <Reset_Handler>:
     2bc:	b672      	cpsid	i
     2be:	4817      	ldr	r0, [pc, #92]	; (31c <Reset_Handler+0x60>)
     2c0:	4917      	ldr	r1, [pc, #92]	; (320 <Reset_Handler+0x64>)
     2c2:	6001      	str	r1, [r0, #0]
     2c4:	680a      	ldr	r2, [r1, #0]
     2c6:	f382 8808 	msr	MSP, r2
     2ca:	4816      	ldr	r0, [pc, #88]	; (324 <Reset_Handler+0x68>)
     2cc:	f380 880a 	msr	MSPLIM, r0
     2d0:	4815      	ldr	r0, [pc, #84]	; (328 <Reset_Handler+0x6c>)
     2d2:	4780      	blx	r0
     2d4:	4915      	ldr	r1, [pc, #84]	; (32c <Reset_Handler+0x70>)
     2d6:	4a16      	ldr	r2, [pc, #88]	; (330 <Reset_Handler+0x74>)
     2d8:	4b16      	ldr	r3, [pc, #88]	; (334 <Reset_Handler+0x78>)
     2da:	429a      	cmp	r2, r3
     2dc:	bfbe      	ittt	lt
     2de:	f851 0b04 	ldrlt.w	r0, [r1], #4
     2e2:	f842 0b04 	strlt.w	r0, [r2], #4
     2e6:	e7f8      	blt.n	2da <Reset_Handler+0x1e>
     2e8:	4913      	ldr	r1, [pc, #76]	; (338 <Reset_Handler+0x7c>)
     2ea:	4a14      	ldr	r2, [pc, #80]	; (33c <Reset_Handler+0x80>)
     2ec:	2000      	movs	r0, #0
     2ee:	4291      	cmp	r1, r2
     2f0:	bfbc      	itt	lt
     2f2:	f841 0b04 	strlt.w	r0, [r1], #4
     2f6:	e7fa      	blt.n	2ee <Reset_Handler+0x32>
     2f8:	2000      	movs	r0, #0
     2fa:	4911      	ldr	r1, [pc, #68]	; (340 <Reset_Handler+0x84>)
     2fc:	4a11      	ldr	r2, [pc, #68]	; (344 <Reset_Handler+0x88>)
     2fe:	4291      	cmp	r1, r2
     300:	bfbc      	itt	lt
     302:	f841 0b04 	strlt.w	r0, [r1], #4
     306:	e7fa      	blt.n	2fe <Reset_Handler+0x42>
     308:	490f      	ldr	r1, [pc, #60]	; (348 <Reset_Handler+0x8c>)
     30a:	4a10      	ldr	r2, [pc, #64]	; (34c <Reset_Handler+0x90>)
     30c:	4291      	cmp	r1, r2
     30e:	bfbc      	itt	lt
     310:	f841 0b04 	strlt.w	r0, [r1], #4
     314:	e7fa      	blt.n	30c <Reset_Handler+0x50>
     316:	b662      	cpsie	i
     318:	480d      	ldr	r0, [pc, #52]	; (350 <Reset_Handler+0x94>)
     31a:	4780      	blx	r0
     31c:	e000ed08 	.word	0xe000ed08
     320:	00000000 	.word	0x00000000
     324:	20032800 	.word	0x20032800
     328:	0000096d 	.word	0x0000096d
     32c:	0000892c 	.word	0x0000892c
     330:	20000000 	.word	0x20000000
     334:	200009b8 	.word	0x200009b8
     338:	200009b8 	.word	0x200009b8
     33c:	20003454 	.word	0x20003454
     340:	20003458 	.word	0x20003458
     344:	20003858 	.word	0x20003858
     348:	20032800 	.word	0x20032800
     34c:	20033000 	.word	0x20033000
     350:	00000249 	.word	0x00000249

00000354 <ACMP_DriverIRQHandler>:
     354:	f7ff bffe 	b.w	354 <ACMP_DriverIRQHandler>

00000358 <NMI_Handler>:
     358:	4840      	ldr	r0, [pc, #256]	; (45c <FLEXCOMM8_IRQHandler+0x4>)
     35a:	4700      	bx	r0

0000035c <HardFault_Handler>:
     35c:	4840      	ldr	r0, [pc, #256]	; (460 <FLEXCOMM8_IRQHandler+0x8>)
     35e:	4700      	bx	r0
     360:	4840      	ldr	r0, [pc, #256]	; (464 <FLEXCOMM8_IRQHandler+0xc>)
     362:	4700      	bx	r0
     364:	4840      	ldr	r0, [pc, #256]	; (468 <FLEXCOMM8_IRQHandler+0x10>)
     366:	4700      	bx	r0
     368:	4840      	ldr	r0, [pc, #256]	; (46c <FLEXCOMM8_IRQHandler+0x14>)
     36a:	4700      	bx	r0

0000036c <WDT_BOD_IRQHandler>:
     36c:	4840      	ldr	r0, [pc, #256]	; (470 <FLEXCOMM8_IRQHandler+0x18>)
     36e:	4700      	bx	r0

00000370 <DMA0_IRQHandler>:
     370:	4840      	ldr	r0, [pc, #256]	; (474 <FLEXCOMM8_IRQHandler+0x1c>)
     372:	4700      	bx	r0

00000374 <GINT0_IRQHandler>:
     374:	4840      	ldr	r0, [pc, #256]	; (478 <FLEXCOMM8_IRQHandler+0x20>)
     376:	4700      	bx	r0

00000378 <GINT1_IRQHandler>:
     378:	4840      	ldr	r0, [pc, #256]	; (47c <FLEXCOMM8_IRQHandler+0x24>)
     37a:	4700      	bx	r0

0000037c <PIN_INT0_IRQHandler>:
     37c:	4840      	ldr	r0, [pc, #256]	; (480 <FLEXCOMM8_IRQHandler+0x28>)
     37e:	4700      	bx	r0

00000380 <PIN_INT1_IRQHandler>:
     380:	4840      	ldr	r0, [pc, #256]	; (484 <FLEXCOMM8_IRQHandler+0x2c>)
     382:	4700      	bx	r0

00000384 <PIN_INT2_IRQHandler>:
     384:	4840      	ldr	r0, [pc, #256]	; (488 <FLEXCOMM8_IRQHandler+0x30>)
     386:	4700      	bx	r0

00000388 <PIN_INT3_IRQHandler>:
     388:	4840      	ldr	r0, [pc, #256]	; (48c <FLEXCOMM8_IRQHandler+0x34>)
     38a:	4700      	bx	r0

0000038c <UTICK0_IRQHandler>:
     38c:	4840      	ldr	r0, [pc, #256]	; (490 <FLEXCOMM8_IRQHandler+0x38>)
     38e:	4700      	bx	r0

00000390 <MRT0_IRQHandler>:
     390:	4840      	ldr	r0, [pc, #256]	; (494 <FLEXCOMM8_IRQHandler+0x3c>)
     392:	4700      	bx	r0

00000394 <CTIMER0_IRQHandler>:
     394:	4840      	ldr	r0, [pc, #256]	; (498 <FLEXCOMM8_IRQHandler+0x40>)
     396:	4700      	bx	r0

00000398 <CTIMER1_IRQHandler>:
     398:	4840      	ldr	r0, [pc, #256]	; (49c <FLEXCOMM8_IRQHandler+0x44>)
     39a:	4700      	bx	r0

0000039c <SCT0_IRQHandler>:
     39c:	4840      	ldr	r0, [pc, #256]	; (4a0 <FLEXCOMM8_IRQHandler+0x48>)
     39e:	4700      	bx	r0

000003a0 <CTIMER3_IRQHandler>:
     3a0:	4840      	ldr	r0, [pc, #256]	; (4a4 <FLEXCOMM8_IRQHandler+0x4c>)
     3a2:	4700      	bx	r0
     3a4:	4840      	ldr	r0, [pc, #256]	; (4a8 <FLEXCOMM8_IRQHandler+0x50>)
     3a6:	4700      	bx	r0

000003a8 <FLEXCOMM1_IRQHandler>:
     3a8:	4840      	ldr	r0, [pc, #256]	; (4ac <FLEXCOMM8_IRQHandler+0x54>)
     3aa:	4700      	bx	r0

000003ac <FLEXCOMM2_IRQHandler>:
     3ac:	4840      	ldr	r0, [pc, #256]	; (4b0 <FLEXCOMM8_IRQHandler+0x58>)
     3ae:	4700      	bx	r0

000003b0 <FLEXCOMM3_IRQHandler>:
     3b0:	4840      	ldr	r0, [pc, #256]	; (4b4 <FLEXCOMM8_IRQHandler+0x5c>)
     3b2:	4700      	bx	r0

000003b4 <FLEXCOMM4_IRQHandler>:
     3b4:	4840      	ldr	r0, [pc, #256]	; (4b8 <FLEXCOMM8_IRQHandler+0x60>)
     3b6:	4700      	bx	r0

000003b8 <FLEXCOMM5_IRQHandler>:
     3b8:	4840      	ldr	r0, [pc, #256]	; (4bc <FLEXCOMM8_IRQHandler+0x64>)
     3ba:	4700      	bx	r0

000003bc <FLEXCOMM6_IRQHandler>:
     3bc:	4840      	ldr	r0, [pc, #256]	; (4c0 <FLEXCOMM8_IRQHandler+0x68>)
     3be:	4700      	bx	r0

000003c0 <FLEXCOMM7_IRQHandler>:
     3c0:	4840      	ldr	r0, [pc, #256]	; (4c4 <FLEXCOMM8_IRQHandler+0x6c>)
     3c2:	4700      	bx	r0

000003c4 <ADC0_IRQHandler>:
     3c4:	4840      	ldr	r0, [pc, #256]	; (4c8 <FLEXCOMM8_IRQHandler+0x70>)
     3c6:	4700      	bx	r0

000003c8 <Reserved39_IRQHandler>:
     3c8:	4840      	ldr	r0, [pc, #256]	; (4cc <FLEXCOMM8_IRQHandler+0x74>)
     3ca:	4700      	bx	r0

000003cc <ACMP_IRQHandler>:
     3cc:	4840      	ldr	r0, [pc, #256]	; (4d0 <FLEXCOMM8_IRQHandler+0x78>)
     3ce:	4700      	bx	r0

000003d0 <Reserved41_IRQHandler>:
     3d0:	4840      	ldr	r0, [pc, #256]	; (4d4 <FLEXCOMM8_IRQHandler+0x7c>)
     3d2:	4700      	bx	r0

000003d4 <Reserved42_IRQHandler>:
     3d4:	4840      	ldr	r0, [pc, #256]	; (4d8 <FLEXCOMM8_IRQHandler+0x80>)
     3d6:	4700      	bx	r0

000003d8 <USB0_NEEDCLK_IRQHandler>:
     3d8:	4840      	ldr	r0, [pc, #256]	; (4dc <FLEXCOMM8_IRQHandler+0x84>)
     3da:	4700      	bx	r0

000003dc <USB0_IRQHandler>:
     3dc:	4840      	ldr	r0, [pc, #256]	; (4e0 <FLEXCOMM8_IRQHandler+0x88>)
     3de:	4700      	bx	r0

000003e0 <RTC_IRQHandler>:
     3e0:	4840      	ldr	r0, [pc, #256]	; (4e4 <FLEXCOMM8_IRQHandler+0x8c>)
     3e2:	4700      	bx	r0

000003e4 <Reserved46_IRQHandler>:
     3e4:	4840      	ldr	r0, [pc, #256]	; (4e8 <FLEXCOMM8_IRQHandler+0x90>)
     3e6:	4700      	bx	r0

000003e8 <MAILBOX_IRQHandler>:
     3e8:	4840      	ldr	r0, [pc, #256]	; (4ec <FLEXCOMM8_IRQHandler+0x94>)
     3ea:	4700      	bx	r0

000003ec <PIN_INT4_IRQHandler>:
     3ec:	4840      	ldr	r0, [pc, #256]	; (4f0 <FLEXCOMM8_IRQHandler+0x98>)
     3ee:	4700      	bx	r0

000003f0 <PIN_INT5_IRQHandler>:
     3f0:	4840      	ldr	r0, [pc, #256]	; (4f4 <FLEXCOMM8_IRQHandler+0x9c>)
     3f2:	4700      	bx	r0

000003f4 <PIN_INT6_IRQHandler>:
     3f4:	4840      	ldr	r0, [pc, #256]	; (4f8 <FLEXCOMM8_IRQHandler+0xa0>)
     3f6:	4700      	bx	r0

000003f8 <PIN_INT7_IRQHandler>:
     3f8:	4840      	ldr	r0, [pc, #256]	; (4fc <FLEXCOMM8_IRQHandler+0xa4>)
     3fa:	4700      	bx	r0

000003fc <CTIMER2_IRQHandler>:
     3fc:	4840      	ldr	r0, [pc, #256]	; (500 <FLEXCOMM8_IRQHandler+0xa8>)
     3fe:	4700      	bx	r0

00000400 <CTIMER4_IRQHandler>:
     400:	4840      	ldr	r0, [pc, #256]	; (504 <FLEXCOMM8_IRQHandler+0xac>)
     402:	4700      	bx	r0

00000404 <OS_EVENT_IRQHandler>:
     404:	4840      	ldr	r0, [pc, #256]	; (508 <FLEXCOMM8_IRQHandler+0xb0>)
     406:	4700      	bx	r0

00000408 <Reserved55_IRQHandler>:
     408:	4840      	ldr	r0, [pc, #256]	; (50c <FLEXCOMM8_IRQHandler+0xb4>)
     40a:	4700      	bx	r0

0000040c <Reserved56_IRQHandler>:
     40c:	4840      	ldr	r0, [pc, #256]	; (510 <FLEXCOMM8_IRQHandler+0xb8>)
     40e:	4700      	bx	r0

00000410 <Reserved57_IRQHandler>:
     410:	4840      	ldr	r0, [pc, #256]	; (514 <FLEXCOMM8_IRQHandler+0xbc>)
     412:	4700      	bx	r0

00000414 <SDIO_IRQHandler>:
     414:	4840      	ldr	r0, [pc, #256]	; (518 <FLEXCOMM8_IRQHandler+0xc0>)
     416:	4700      	bx	r0

00000418 <Reserved59_IRQHandler>:
     418:	4840      	ldr	r0, [pc, #256]	; (51c <FLEXCOMM8_IRQHandler+0xc4>)
     41a:	4700      	bx	r0

0000041c <Reserved60_IRQHandler>:
     41c:	4840      	ldr	r0, [pc, #256]	; (520 <FLEXCOMM8_IRQHandler+0xc8>)
     41e:	4700      	bx	r0

00000420 <Reserved61_IRQHandler>:
     420:	4840      	ldr	r0, [pc, #256]	; (524 <FLEXCOMM8_IRQHandler+0xcc>)
     422:	4700      	bx	r0

00000424 <USB1_PHY_IRQHandler>:
     424:	4840      	ldr	r0, [pc, #256]	; (528 <FLEXCOMM8_IRQHandler+0xd0>)
     426:	4700      	bx	r0

00000428 <USB1_IRQHandler>:
     428:	4840      	ldr	r0, [pc, #256]	; (52c <FLEXCOMM8_IRQHandler+0xd4>)
     42a:	4700      	bx	r0

0000042c <USB1_NEEDCLK_IRQHandler>:
     42c:	4840      	ldr	r0, [pc, #256]	; (530 <FLEXCOMM8_IRQHandler+0xd8>)
     42e:	4700      	bx	r0

00000430 <SEC_HYPERVISOR_CALL_IRQHandler>:
     430:	4840      	ldr	r0, [pc, #256]	; (534 <FLEXCOMM8_IRQHandler+0xdc>)
     432:	4700      	bx	r0

00000434 <SEC_GPIO_INT0_IRQ0_IRQHandler>:
     434:	4840      	ldr	r0, [pc, #256]	; (538 <FLEXCOMM8_IRQHandler+0xe0>)
     436:	4700      	bx	r0

00000438 <SEC_GPIO_INT0_IRQ1_IRQHandler>:
     438:	4840      	ldr	r0, [pc, #256]	; (53c <FLEXCOMM8_IRQHandler+0xe4>)
     43a:	4700      	bx	r0

0000043c <PLU_IRQHandler>:
     43c:	4840      	ldr	r0, [pc, #256]	; (540 <FLEXCOMM8_IRQHandler+0xe8>)
     43e:	4700      	bx	r0

00000440 <SEC_VIO_IRQHandler>:
     440:	4840      	ldr	r0, [pc, #256]	; (544 <FLEXCOMM8_IRQHandler+0xec>)
     442:	4700      	bx	r0

00000444 <HASHCRYPT_IRQHandler>:
     444:	4840      	ldr	r0, [pc, #256]	; (548 <FLEXCOMM8_IRQHandler+0xf0>)
     446:	4700      	bx	r0

00000448 <CASER_IRQHandler>:
     448:	4840      	ldr	r0, [pc, #256]	; (54c <FLEXCOMM8_IRQHandler+0xf4>)
     44a:	4700      	bx	r0

0000044c <PUF_IRQHandler>:
     44c:	4840      	ldr	r0, [pc, #256]	; (550 <FLEXCOMM8_IRQHandler+0xf8>)
     44e:	4700      	bx	r0

00000450 <PQ_IRQHandler>:
     450:	4840      	ldr	r0, [pc, #256]	; (554 <FLEXCOMM8_IRQHandler+0xfc>)
     452:	4700      	bx	r0

00000454 <DMA1_IRQHandler>:
     454:	4840      	ldr	r0, [pc, #256]	; (558 <FLEXCOMM8_IRQHandler+0x100>)
     456:	4700      	bx	r0

00000458 <FLEXCOMM8_IRQHandler>:
     458:	4840      	ldr	r0, [pc, #256]	; (55c <FLEXCOMM8_IRQHandler+0x104>)
     45a:	4700      	bx	r0
     45c:	00000359 	.word	0x00000359
     460:	0000035d 	.word	0x0000035d
     464:	00002b31 	.word	0x00002b31
     468:	00002ac1 	.word	0x00002ac1
     46c:	000028b5 	.word	0x000028b5
     470:	00000355 	.word	0x00000355
     474:	00000355 	.word	0x00000355
     478:	00000355 	.word	0x00000355
     47c:	00000355 	.word	0x00000355
     480:	00000355 	.word	0x00000355
     484:	00000355 	.word	0x00000355
     488:	00000355 	.word	0x00000355
     48c:	00000355 	.word	0x00000355
     490:	00000355 	.word	0x00000355
     494:	00000355 	.word	0x00000355
     498:	00000355 	.word	0x00000355
     49c:	00000355 	.word	0x00000355
     4a0:	00000355 	.word	0x00000355
     4a4:	00000355 	.word	0x00000355
     4a8:	0000184b 	.word	0x0000184b
     4ac:	000018bf 	.word	0x000018bf
     4b0:	00001933 	.word	0x00001933
     4b4:	000019a7 	.word	0x000019a7
     4b8:	00001a1b 	.word	0x00001a1b
     4bc:	00001a8f 	.word	0x00001a8f
     4c0:	00001b03 	.word	0x00001b03
     4c4:	00001b79 	.word	0x00001b79
     4c8:	00000355 	.word	0x00000355
     4cc:	00000355 	.word	0x00000355
     4d0:	00000355 	.word	0x00000355
     4d4:	00000355 	.word	0x00000355
     4d8:	00000355 	.word	0x00000355
     4dc:	00000355 	.word	0x00000355
     4e0:	00000355 	.word	0x00000355
     4e4:	00000355 	.word	0x00000355
     4e8:	00000355 	.word	0x00000355
     4ec:	00000355 	.word	0x00000355
     4f0:	00000355 	.word	0x00000355
     4f4:	00000355 	.word	0x00000355
     4f8:	00000355 	.word	0x00000355
     4fc:	00000355 	.word	0x00000355
     500:	00000355 	.word	0x00000355
     504:	00000355 	.word	0x00000355
     508:	00000355 	.word	0x00000355
     50c:	00000355 	.word	0x00000355
     510:	00000355 	.word	0x00000355
     514:	00000355 	.word	0x00000355
     518:	00000355 	.word	0x00000355
     51c:	00000355 	.word	0x00000355
     520:	00000355 	.word	0x00000355
     524:	00000355 	.word	0x00000355
     528:	00000355 	.word	0x00000355
     52c:	00000355 	.word	0x00000355
     530:	00000355 	.word	0x00000355
     534:	00000355 	.word	0x00000355
     538:	00000355 	.word	0x00000355
     53c:	00000355 	.word	0x00000355
     540:	00000355 	.word	0x00000355
     544:	00000355 	.word	0x00000355
     548:	000026bf 	.word	0x000026bf
     54c:	00000355 	.word	0x00000355
     550:	00000355 	.word	0x00000355
     554:	00000355 	.word	0x00000355
     558:	00000355 	.word	0x00000355
     55c:	00001bef 	.word	0x00001bef

00000560 <__aeabi_uldivmod>:
     560:	b953      	cbnz	r3, 578 <__aeabi_uldivmod+0x18>
     562:	b94a      	cbnz	r2, 578 <__aeabi_uldivmod+0x18>
     564:	2900      	cmp	r1, #0
     566:	bf08      	it	eq
     568:	2800      	cmpeq	r0, #0
     56a:	bf1c      	itt	ne
     56c:	f04f 31ff 	movne.w	r1, #4294967295	; 0xffffffff
     570:	f04f 30ff 	movne.w	r0, #4294967295	; 0xffffffff
     574:	f000 b982 	b.w	87c <__aeabi_idiv0>
     578:	f1ad 0c08 	sub.w	ip, sp, #8
     57c:	e96d ce04 	strd	ip, lr, [sp, #-16]!
     580:	f000 f806 	bl	590 <__udivmoddi4>
     584:	f8dd e004 	ldr.w	lr, [sp, #4]
     588:	e9dd 2302 	ldrd	r2, r3, [sp, #8]
     58c:	b004      	add	sp, #16
     58e:	4770      	bx	lr

00000590 <__udivmoddi4>:
     590:	e92d 4ff0 	stmdb	sp!, {r4, r5, r6, r7, r8, r9, sl, fp, lr}
     594:	9d09      	ldr	r5, [sp, #36]	; 0x24
     596:	460e      	mov	r6, r1
     598:	4604      	mov	r4, r0
     59a:	460f      	mov	r7, r1
     59c:	2b00      	cmp	r3, #0
     59e:	d147      	bne.n	630 <__udivmoddi4+0xa0>
     5a0:	428a      	cmp	r2, r1
     5a2:	4694      	mov	ip, r2
     5a4:	d95f      	bls.n	666 <__udivmoddi4+0xd6>
     5a6:	fab2 f382 	clz	r3, r2
     5aa:	b143      	cbz	r3, 5be <__udivmoddi4+0x2e>
     5ac:	fa02 fc03 	lsl.w	ip, r2, r3
     5b0:	f1c3 0220 	rsb	r2, r3, #32
     5b4:	409f      	lsls	r7, r3
     5b6:	409c      	lsls	r4, r3
     5b8:	fa20 f202 	lsr.w	r2, r0, r2
     5bc:	4317      	orrs	r7, r2
     5be:	ea4f 461c 	mov.w	r6, ip, lsr #16
     5c2:	fa1f fe8c 	uxth.w	lr, ip
     5c6:	0c22      	lsrs	r2, r4, #16
     5c8:	fbb7 f1f6 	udiv	r1, r7, r6
     5cc:	fb06 7711 	mls	r7, r6, r1, r7
     5d0:	fb01 f00e 	mul.w	r0, r1, lr
     5d4:	ea42 4207 	orr.w	r2, r2, r7, lsl #16
     5d8:	4290      	cmp	r0, r2
     5da:	d908      	bls.n	5ee <__udivmoddi4+0x5e>
     5dc:	eb1c 0202 	adds.w	r2, ip, r2
     5e0:	f101 37ff 	add.w	r7, r1, #4294967295	; 0xffffffff
     5e4:	d202      	bcs.n	5ec <__udivmoddi4+0x5c>
     5e6:	4290      	cmp	r0, r2
     5e8:	f200 8137 	bhi.w	85a <STACK_SIZE+0x5a>
     5ec:	4639      	mov	r1, r7
     5ee:	1a12      	subs	r2, r2, r0
     5f0:	b2a4      	uxth	r4, r4
     5f2:	fbb2 f0f6 	udiv	r0, r2, r6
     5f6:	fb06 2210 	mls	r2, r6, r0, r2
     5fa:	fb00 fe0e 	mul.w	lr, r0, lr
     5fe:	ea44 4402 	orr.w	r4, r4, r2, lsl #16
     602:	45a6      	cmp	lr, r4
     604:	d908      	bls.n	618 <__udivmoddi4+0x88>
     606:	eb1c 0404 	adds.w	r4, ip, r4
     60a:	f100 32ff 	add.w	r2, r0, #4294967295	; 0xffffffff
     60e:	d202      	bcs.n	616 <__udivmoddi4+0x86>
     610:	45a6      	cmp	lr, r4
     612:	f200 811c 	bhi.w	84e <STACK_SIZE+0x4e>
     616:	4610      	mov	r0, r2
     618:	ea40 4001 	orr.w	r0, r0, r1, lsl #16
     61c:	eba4 040e 	sub.w	r4, r4, lr
     620:	2100      	movs	r1, #0
     622:	b11d      	cbz	r5, 62c <__udivmoddi4+0x9c>
     624:	40dc      	lsrs	r4, r3
     626:	2300      	movs	r3, #0
     628:	e9c5 4300 	strd	r4, r3, [r5]
     62c:	e8bd 8ff0 	ldmia.w	sp!, {r4, r5, r6, r7, r8, r9, sl, fp, pc}
     630:	428b      	cmp	r3, r1
     632:	d908      	bls.n	646 <__udivmoddi4+0xb6>
     634:	2d00      	cmp	r5, #0
     636:	f000 80fe 	beq.w	836 <STACK_SIZE+0x36>
     63a:	2100      	movs	r1, #0
     63c:	e9c5 0600 	strd	r0, r6, [r5]
     640:	4608      	mov	r0, r1
     642:	e8bd 8ff0 	ldmia.w	sp!, {r4, r5, r6, r7, r8, r9, sl, fp, pc}
     646:	fab3 f183 	clz	r1, r3
     64a:	2900      	cmp	r1, #0
     64c:	d14c      	bne.n	6e8 <__udivmoddi4+0x158>
     64e:	42b3      	cmp	r3, r6
     650:	f0c0 80f4 	bcc.w	83c <STACK_SIZE+0x3c>
     654:	4282      	cmp	r2, r0
     656:	f240 80f1 	bls.w	83c <STACK_SIZE+0x3c>
     65a:	4608      	mov	r0, r1
     65c:	2d00      	cmp	r5, #0
     65e:	d0e5      	beq.n	62c <__udivmoddi4+0x9c>
     660:	e9c5 4700 	strd	r4, r7, [r5]
     664:	e7e2      	b.n	62c <__udivmoddi4+0x9c>
     666:	b902      	cbnz	r2, 66a <__udivmoddi4+0xda>
     668:	deff      	udf	#255	; 0xff
     66a:	fab2 f382 	clz	r3, r2
     66e:	2b00      	cmp	r3, #0
     670:	f040 80a1 	bne.w	7b6 <__udivmoddi4+0x226>
     674:	1a8a      	subs	r2, r1, r2
     676:	ea4f 4e1c 	mov.w	lr, ip, lsr #16
     67a:	fa1f f78c 	uxth.w	r7, ip
     67e:	2101      	movs	r1, #1
     680:	fbb2 f6fe 	udiv	r6, r2, lr
     684:	fb0e 2016 	mls	r0, lr, r6, r2
     688:	0c22      	lsrs	r2, r4, #16
     68a:	ea42 4200 	orr.w	r2, r2, r0, lsl #16
     68e:	fb07 f006 	mul.w	r0, r7, r6
     692:	4290      	cmp	r0, r2
     694:	d90f      	bls.n	6b6 <__udivmoddi4+0x126>
     696:	eb1c 0202 	adds.w	r2, ip, r2
     69a:	f106 38ff 	add.w	r8, r6, #4294967295	; 0xffffffff
     69e:	bf2c      	ite	cs
     6a0:	f04f 0901 	movcs.w	r9, #1
     6a4:	f04f 0900 	movcc.w	r9, #0
     6a8:	4290      	cmp	r0, r2
     6aa:	d903      	bls.n	6b4 <__udivmoddi4+0x124>
     6ac:	f1b9 0f00 	cmp.w	r9, #0
     6b0:	f000 80d0 	beq.w	854 <STACK_SIZE+0x54>
     6b4:	4646      	mov	r6, r8
     6b6:	1a12      	subs	r2, r2, r0
     6b8:	b2a4      	uxth	r4, r4
     6ba:	fbb2 f0fe 	udiv	r0, r2, lr
     6be:	fb0e 2210 	mls	r2, lr, r0, r2
     6c2:	fb00 f707 	mul.w	r7, r0, r7
     6c6:	ea44 4402 	orr.w	r4, r4, r2, lsl #16
     6ca:	42a7      	cmp	r7, r4
     6cc:	d908      	bls.n	6e0 <__udivmoddi4+0x150>
     6ce:	eb1c 0404 	adds.w	r4, ip, r4
     6d2:	f100 32ff 	add.w	r2, r0, #4294967295	; 0xffffffff
     6d6:	d202      	bcs.n	6de <__udivmoddi4+0x14e>
     6d8:	42a7      	cmp	r7, r4
     6da:	f200 80b5 	bhi.w	848 <STACK_SIZE+0x48>
     6de:	4610      	mov	r0, r2
     6e0:	1be4      	subs	r4, r4, r7
     6e2:	ea40 4006 	orr.w	r0, r0, r6, lsl #16
     6e6:	e79c      	b.n	622 <__udivmoddi4+0x92>
     6e8:	f1c1 0420 	rsb	r4, r1, #32
     6ec:	408b      	lsls	r3, r1
     6ee:	fa06 fc01 	lsl.w	ip, r6, r1
     6f2:	fa00 fe01 	lsl.w	lr, r0, r1
     6f6:	fa22 f704 	lsr.w	r7, r2, r4
     6fa:	40e6      	lsrs	r6, r4
     6fc:	408a      	lsls	r2, r1
     6fe:	431f      	orrs	r7, r3
     700:	fa20 f304 	lsr.w	r3, r0, r4
     704:	ea4f 4817 	mov.w	r8, r7, lsr #16
     708:	ea43 030c 	orr.w	r3, r3, ip
     70c:	fa1f fc87 	uxth.w	ip, r7
     710:	ea4f 4913 	mov.w	r9, r3, lsr #16
     714:	fbb6 f0f8 	udiv	r0, r6, r8
     718:	fb08 6610 	mls	r6, r8, r0, r6
     71c:	ea49 4606 	orr.w	r6, r9, r6, lsl #16
     720:	fb00 f90c 	mul.w	r9, r0, ip
     724:	45b1      	cmp	r9, r6
     726:	d90e      	bls.n	746 <__udivmoddi4+0x1b6>
     728:	19be      	adds	r6, r7, r6
     72a:	f100 3aff 	add.w	sl, r0, #4294967295	; 0xffffffff
     72e:	bf2c      	ite	cs
     730:	f04f 0b01 	movcs.w	fp, #1
     734:	f04f 0b00 	movcc.w	fp, #0
     738:	45b1      	cmp	r9, r6
     73a:	d903      	bls.n	744 <__udivmoddi4+0x1b4>
     73c:	f1bb 0f00 	cmp.w	fp, #0
     740:	f000 808e 	beq.w	860 <STACK_SIZE+0x60>
     744:	4650      	mov	r0, sl
     746:	eba6 0609 	sub.w	r6, r6, r9
     74a:	fa1f f983 	uxth.w	r9, r3
     74e:	fbb6 f3f8 	udiv	r3, r6, r8
     752:	fb08 6613 	mls	r6, r8, r3, r6
     756:	fb03 fc0c 	mul.w	ip, r3, ip
     75a:	ea49 4606 	orr.w	r6, r9, r6, lsl #16
     75e:	45b4      	cmp	ip, r6
     760:	d906      	bls.n	770 <__udivmoddi4+0x1e0>
     762:	19be      	adds	r6, r7, r6
     764:	f103 38ff 	add.w	r8, r3, #4294967295	; 0xffffffff
     768:	d201      	bcs.n	76e <__udivmoddi4+0x1de>
     76a:	45b4      	cmp	ip, r6
     76c:	d87e      	bhi.n	86c <STACK_SIZE+0x6c>
     76e:	4643      	mov	r3, r8
     770:	ea43 4000 	orr.w	r0, r3, r0, lsl #16
     774:	eba6 060c 	sub.w	r6, r6, ip
     778:	fba0 8c02 	umull	r8, ip, r0, r2
     77c:	4566      	cmp	r6, ip
     77e:	4643      	mov	r3, r8
     780:	46e1      	mov	r9, ip
     782:	d302      	bcc.n	78a <__udivmoddi4+0x1fa>
     784:	d107      	bne.n	796 <__udivmoddi4+0x206>
     786:	45c6      	cmp	lr, r8
     788:	d205      	bcs.n	796 <__udivmoddi4+0x206>
     78a:	ebb8 0302 	subs.w	r3, r8, r2
     78e:	eb6c 0c07 	sbc.w	ip, ip, r7
     792:	3801      	subs	r0, #1
     794:	46e1      	mov	r9, ip
     796:	2d00      	cmp	r5, #0
     798:	d06e      	beq.n	878 <STACK_SIZE+0x78>
     79a:	ebbe 0203 	subs.w	r2, lr, r3
     79e:	eb66 0609 	sbc.w	r6, r6, r9
     7a2:	fa22 f301 	lsr.w	r3, r2, r1
     7a6:	fa06 f404 	lsl.w	r4, r6, r4
     7aa:	40ce      	lsrs	r6, r1
     7ac:	2100      	movs	r1, #0
     7ae:	431c      	orrs	r4, r3
     7b0:	e9c5 4600 	strd	r4, r6, [r5]
     7b4:	e73a      	b.n	62c <__udivmoddi4+0x9c>
     7b6:	fa02 fc03 	lsl.w	ip, r2, r3
     7ba:	f1c3 0220 	rsb	r2, r3, #32
     7be:	4099      	lsls	r1, r3
     7c0:	409c      	lsls	r4, r3
     7c2:	40d6      	lsrs	r6, r2
     7c4:	ea4f 4e1c 	mov.w	lr, ip, lsr #16
     7c8:	fa20 f202 	lsr.w	r2, r0, r2
     7cc:	fa1f f78c 	uxth.w	r7, ip
     7d0:	fbb6 f0fe 	udiv	r0, r6, lr
     7d4:	430a      	orrs	r2, r1
     7d6:	fb0e 6610 	mls	r6, lr, r0, r6
     7da:	0c11      	lsrs	r1, r2, #16
     7dc:	ea41 4106 	orr.w	r1, r1, r6, lsl #16
     7e0:	fb00 f607 	mul.w	r6, r0, r7
     7e4:	428e      	cmp	r6, r1
     7e6:	d90e      	bls.n	806 <STACK_SIZE+0x6>
     7e8:	eb1c 0101 	adds.w	r1, ip, r1
     7ec:	f100 38ff 	add.w	r8, r0, #4294967295	; 0xffffffff
     7f0:	bf2c      	ite	cs
     7f2:	f04f 0901 	movcs.w	r9, #1
     7f6:	f04f 0900 	movcc.w	r9, #0
     7fa:	428e      	cmp	r6, r1
     7fc:	d902      	bls.n	804 <STACK_SIZE+0x4>
     7fe:	f1b9 0f00 	cmp.w	r9, #0
     802:	d030      	beq.n	866 <STACK_SIZE+0x66>
     804:	4640      	mov	r0, r8
     806:	1b89      	subs	r1, r1, r6
     808:	b292      	uxth	r2, r2
     80a:	fbb1 f6fe 	udiv	r6, r1, lr
     80e:	fb0e 1116 	mls	r1, lr, r6, r1
     812:	ea42 4201 	orr.w	r2, r2, r1, lsl #16
     816:	fb06 f107 	mul.w	r1, r6, r7
     81a:	4291      	cmp	r1, r2
     81c:	d907      	bls.n	82e <STACK_SIZE+0x2e>
     81e:	eb1c 0202 	adds.w	r2, ip, r2
     822:	f106 38ff 	add.w	r8, r6, #4294967295	; 0xffffffff
     826:	d201      	bcs.n	82c <STACK_SIZE+0x2c>
     828:	4291      	cmp	r1, r2
     82a:	d822      	bhi.n	872 <STACK_SIZE+0x72>
     82c:	4646      	mov	r6, r8
     82e:	1a52      	subs	r2, r2, r1
     830:	ea46 4100 	orr.w	r1, r6, r0, lsl #16
     834:	e724      	b.n	680 <__udivmoddi4+0xf0>
     836:	4629      	mov	r1, r5
     838:	4628      	mov	r0, r5
     83a:	e6f7      	b.n	62c <__udivmoddi4+0x9c>
     83c:	1a84      	subs	r4, r0, r2
     83e:	eb66 0203 	sbc.w	r2, r6, r3
     842:	2001      	movs	r0, #1
     844:	4617      	mov	r7, r2
     846:	e709      	b.n	65c <__udivmoddi4+0xcc>
     848:	4464      	add	r4, ip
     84a:	3802      	subs	r0, #2
     84c:	e748      	b.n	6e0 <__udivmoddi4+0x150>
     84e:	4464      	add	r4, ip
     850:	3802      	subs	r0, #2
     852:	e6e1      	b.n	618 <__udivmoddi4+0x88>
     854:	3e02      	subs	r6, #2
     856:	4462      	add	r2, ip
     858:	e72d      	b.n	6b6 <__udivmoddi4+0x126>
     85a:	3902      	subs	r1, #2
     85c:	4462      	add	r2, ip
     85e:	e6c6      	b.n	5ee <__udivmoddi4+0x5e>
     860:	3802      	subs	r0, #2
     862:	443e      	add	r6, r7
     864:	e76f      	b.n	746 <__udivmoddi4+0x1b6>
     866:	3802      	subs	r0, #2
     868:	4461      	add	r1, ip
     86a:	e7cc      	b.n	806 <STACK_SIZE+0x6>
     86c:	3b02      	subs	r3, #2
     86e:	443e      	add	r6, r7
     870:	e77e      	b.n	770 <__udivmoddi4+0x1e0>
     872:	3e02      	subs	r6, #2
     874:	4462      	add	r2, ip
     876:	e7da      	b.n	82e <STACK_SIZE+0x2e>
     878:	4629      	mov	r1, r5
     87a:	e6d7      	b.n	62c <__udivmoddi4+0x9c>

0000087c <__aeabi_idiv0>:
     87c:	4770      	bx	lr
     87e:	bf00      	nop

00000880 <memcpy>:
     880:	4684      	mov	ip, r0
     882:	ea41 0300 	orr.w	r3, r1, r0
     886:	f013 0303 	ands.w	r3, r3, #3
     88a:	d149      	bne.n	920 <memcpy+0xa0>
     88c:	3a40      	subs	r2, #64	; 0x40
     88e:	d323      	bcc.n	8d8 <memcpy+0x58>
     890:	680b      	ldr	r3, [r1, #0]
     892:	6003      	str	r3, [r0, #0]
     894:	684b      	ldr	r3, [r1, #4]
     896:	6043      	str	r3, [r0, #4]
     898:	688b      	ldr	r3, [r1, #8]
     89a:	6083      	str	r3, [r0, #8]
     89c:	68cb      	ldr	r3, [r1, #12]
     89e:	60c3      	str	r3, [r0, #12]
     8a0:	690b      	ldr	r3, [r1, #16]
     8a2:	6103      	str	r3, [r0, #16]
     8a4:	694b      	ldr	r3, [r1, #20]
     8a6:	6143      	str	r3, [r0, #20]
     8a8:	698b      	ldr	r3, [r1, #24]
     8aa:	6183      	str	r3, [r0, #24]
     8ac:	69cb      	ldr	r3, [r1, #28]
     8ae:	61c3      	str	r3, [r0, #28]
     8b0:	6a0b      	ldr	r3, [r1, #32]
     8b2:	6203      	str	r3, [r0, #32]
     8b4:	6a4b      	ldr	r3, [r1, #36]	; 0x24
     8b6:	6243      	str	r3, [r0, #36]	; 0x24
     8b8:	6a8b      	ldr	r3, [r1, #40]	; 0x28
     8ba:	6283      	str	r3, [r0, #40]	; 0x28
     8bc:	6acb      	ldr	r3, [r1, #44]	; 0x2c
     8be:	62c3      	str	r3, [r0, #44]	; 0x2c
     8c0:	6b0b      	ldr	r3, [r1, #48]	; 0x30
     8c2:	6303      	str	r3, [r0, #48]	; 0x30
     8c4:	6b4b      	ldr	r3, [r1, #52]	; 0x34
     8c6:	6343      	str	r3, [r0, #52]	; 0x34
     8c8:	6b8b      	ldr	r3, [r1, #56]	; 0x38
     8ca:	6383      	str	r3, [r0, #56]	; 0x38
     8cc:	6bcb      	ldr	r3, [r1, #60]	; 0x3c
     8ce:	63c3      	str	r3, [r0, #60]	; 0x3c
     8d0:	3040      	adds	r0, #64	; 0x40
     8d2:	3140      	adds	r1, #64	; 0x40
     8d4:	3a40      	subs	r2, #64	; 0x40
     8d6:	d2db      	bcs.n	890 <memcpy+0x10>
     8d8:	3230      	adds	r2, #48	; 0x30
     8da:	d30b      	bcc.n	8f4 <memcpy+0x74>
     8dc:	680b      	ldr	r3, [r1, #0]
     8de:	6003      	str	r3, [r0, #0]
     8e0:	684b      	ldr	r3, [r1, #4]
     8e2:	6043      	str	r3, [r0, #4]
     8e4:	688b      	ldr	r3, [r1, #8]
     8e6:	6083      	str	r3, [r0, #8]
     8e8:	68cb      	ldr	r3, [r1, #12]
     8ea:	60c3      	str	r3, [r0, #12]
     8ec:	3010      	adds	r0, #16
     8ee:	3110      	adds	r1, #16
     8f0:	3a10      	subs	r2, #16
     8f2:	d2f3      	bcs.n	8dc <memcpy+0x5c>
     8f4:	320c      	adds	r2, #12
     8f6:	d305      	bcc.n	904 <memcpy+0x84>
     8f8:	f851 3b04 	ldr.w	r3, [r1], #4
     8fc:	f840 3b04 	str.w	r3, [r0], #4
     900:	3a04      	subs	r2, #4
     902:	d2f9      	bcs.n	8f8 <memcpy+0x78>
     904:	3204      	adds	r2, #4
     906:	d008      	beq.n	91a <memcpy+0x9a>
     908:	07d2      	lsls	r2, r2, #31
     90a:	bf1c      	itt	ne
     90c:	f811 3b01 	ldrbne.w	r3, [r1], #1
     910:	f800 3b01 	strbne.w	r3, [r0], #1
     914:	d301      	bcc.n	91a <memcpy+0x9a>
     916:	880b      	ldrh	r3, [r1, #0]
     918:	8003      	strh	r3, [r0, #0]
     91a:	4660      	mov	r0, ip
     91c:	4770      	bx	lr
     91e:	bf00      	nop
     920:	2a08      	cmp	r2, #8
     922:	d313      	bcc.n	94c <memcpy+0xcc>
     924:	078b      	lsls	r3, r1, #30
     926:	d0b1      	beq.n	88c <memcpy+0xc>
     928:	f010 0303 	ands.w	r3, r0, #3
     92c:	d0ae      	beq.n	88c <memcpy+0xc>
     92e:	f1c3 0304 	rsb	r3, r3, #4
     932:	1ad2      	subs	r2, r2, r3
     934:	07db      	lsls	r3, r3, #31
     936:	bf1c      	itt	ne
     938:	f811 3b01 	ldrbne.w	r3, [r1], #1
     93c:	f800 3b01 	strbne.w	r3, [r0], #1
     940:	d3a4      	bcc.n	88c <memcpy+0xc>
     942:	f831 3b02 	ldrh.w	r3, [r1], #2
     946:	f820 3b02 	strh.w	r3, [r0], #2
     94a:	e79f      	b.n	88c <memcpy+0xc>
     94c:	3a04      	subs	r2, #4
     94e:	d3d9      	bcc.n	904 <memcpy+0x84>
     950:	3a01      	subs	r2, #1
     952:	f811 3b01 	ldrb.w	r3, [r1], #1
     956:	f800 3b01 	strb.w	r3, [r0], #1
     95a:	d2f9      	bcs.n	950 <memcpy+0xd0>
     95c:	780b      	ldrb	r3, [r1, #0]
     95e:	7003      	strb	r3, [r0, #0]
     960:	784b      	ldrb	r3, [r1, #1]
     962:	7043      	strb	r3, [r0, #1]
     964:	788b      	ldrb	r3, [r1, #2]
     966:	7083      	strb	r3, [r0, #2]
     968:	4660      	mov	r0, ip
     96a:	4770      	bx	lr

0000096c <SystemInit>:
     96c:	b580      	push	{r7, lr}
     96e:	466f      	mov	r7, sp
     970:	f64e 5188 	movw	r1, #60808	; 0xed88
     974:	f2ce 0100 	movt	r1, #57344	; 0xe000
     978:	6808      	ldr	r0, [r1, #0]
     97a:	f440 0070 	orr.w	r0, r0, #15728640	; 0xf00000
     97e:	6008      	str	r0, [r1, #0]
     980:	6808      	ldr	r0, [r1, #0]
     982:	f040 000f 	orr.w	r0, r0, #15
     986:	6008      	str	r0, [r1, #0]
     988:	f64e 518c 	movw	r1, #60812	; 0xed8c
     98c:	f2ce 0100 	movt	r1, #57344	; 0xe000
     990:	6808      	ldr	r0, [r1, #0]
     992:	f640 4203 	movw	r2, #3075	; 0xc03
     996:	4310      	orrs	r0, r2
     998:	6008      	str	r0, [r1, #0]
     99a:	f240 0000 	movw	r0, #0
     99e:	f2c0 0000 	movt	r0, #0
     9a2:	f64e 5108 	movw	r1, #60680	; 0xed08
     9a6:	f2ce 0100 	movt	r1, #57344	; 0xe000
     9aa:	6008      	str	r0, [r1, #0]
     9ac:	f240 3108 	movw	r1, #776	; 0x308
     9b0:	f2c4 0100 	movt	r1, #16384	; 0x4000
     9b4:	2000      	movs	r0, #0
     9b6:	6008      	str	r0, [r1, #0]
     9b8:	f240 2120 	movw	r1, #544	; 0x220
     9bc:	f2c4 0100 	movt	r1, #16384	; 0x4000
     9c0:	2078      	movs	r0, #120	; 0x78
     9c2:	6008      	str	r0, [r1, #0]
     9c4:	f000 f801 	bl	9ca <SystemInitHook>
     9c8:	bd80      	pop	{r7, pc}

000009ca <SystemInitHook>:
     9ca:	4770      	bx	lr

000009cc <SDK_DelayAtLeastUs>:
     9cc:	b580      	push	{r7, lr}
     9ce:	466f      	mov	r7, sp
     9d0:	b084      	sub	sp, #16
     9d2:	9102      	str	r1, [sp, #8]
     9d4:	9003      	str	r0, [sp, #12]
     9d6:	b340      	cbz	r0, a2a <SDK_DelayAtLeastUs+0x5e>
     9d8:	e7ff      	b.n	9da <SDK_DelayAtLeastUs+0xe>
     9da:	9803      	ldr	r0, [sp, #12]
     9dc:	9902      	ldr	r1, [sp, #8]
     9de:	fba0 0101 	umull	r0, r1, r0, r1
     9e2:	f244 2240 	movw	r2, #16960	; 0x4240
     9e6:	f2c0 020f 	movt	r2, #15
     9ea:	2300      	movs	r3, #0
     9ec:	f7ff fdb8 	bl	560 <__aeabi_uldivmod>
     9f0:	460a      	mov	r2, r1
     9f2:	9200      	str	r2, [sp, #0]
     9f4:	9001      	str	r0, [sp, #4]
     9f6:	b909      	cbnz	r1, 9fc <SDK_DelayAtLeastUs+0x30>
     9f8:	e7ff      	b.n	9fa <SDK_DelayAtLeastUs+0x2e>
     9fa:	e00e      	b.n	a1a <SDK_DelayAtLeastUs+0x4e>
     9fc:	f647 702c 	movw	r0, #32556	; 0x7f2c
     a00:	f2c0 0000 	movt	r0, #0
     a04:	f647 729d 	movw	r2, #32669	; 0x7f9d
     a08:	f2c0 0200 	movt	r2, #0
     a0c:	f647 73b0 	movw	r3, #32688	; 0x7fb0
     a10:	f2c0 0300 	movt	r3, #0
     a14:	21d5      	movs	r1, #213	; 0xd5
     a16:	f004 fa1d 	bl	4e54 <__assert_func>
     a1a:	9900      	ldr	r1, [sp, #0]
     a1c:	9801      	ldr	r0, [sp, #4]
     a1e:	0880      	lsrs	r0, r0, #2
     a20:	ea40 7081 	orr.w	r0, r0, r1, lsl #30
     a24:	f000 f803 	bl	a2e <DelayLoop>
     a28:	e7ff      	b.n	a2a <SDK_DelayAtLeastUs+0x5e>
     a2a:	b004      	add	sp, #16
     a2c:	bd80      	pop	{r7, pc}

00000a2e <DelayLoop>:
     a2e:	4600      	mov	r0, r0

00000a30 <loop>:
     a30:	f1a0 0001 	sub.w	r0, r0, #1
     a34:	2800      	cmp	r0, #0
     a36:	d1fb      	bne.n	a30 <loop>
     a38:	4770      	bx	lr

00000a3a <CLOCK_AttachClk>:
     a3a:	b089      	sub	sp, #36	; 0x24
     a3c:	9008      	str	r0, [sp, #32]
     a3e:	f1b0 4f00 	cmp.w	r0, #2147483648	; 0x80000000
     a42:	d045      	beq.n	ad0 <CLOCK_AttachClk+0x96>
     a44:	e7ff      	b.n	a46 <CLOCK_AttachClk+0xc>
     a46:	9908      	ldr	r1, [sp, #32]
     a48:	2000      	movs	r0, #0
     a4a:	9106      	str	r1, [sp, #24]
     a4c:	9007      	str	r0, [sp, #28]
     a4e:	e7ff      	b.n	a50 <CLOCK_AttachClk+0x16>
     a50:	9906      	ldr	r1, [sp, #24]
     a52:	9807      	ldr	r0, [sp, #28]
     a54:	9004      	str	r0, [sp, #16]
     a56:	9105      	str	r1, [sp, #20]
     a58:	2801      	cmp	r0, #1
     a5a:	d838      	bhi.n	ace <CLOCK_AttachClk+0x94>
     a5c:	e7ff      	b.n	a5e <CLOCK_AttachClk+0x24>
     a5e:	9805      	ldr	r0, [sp, #20]
     a60:	b908      	cbnz	r0, a66 <CLOCK_AttachClk+0x2c>
     a62:	e7ff      	b.n	a64 <CLOCK_AttachClk+0x2a>
     a64:	e033      	b.n	ace <CLOCK_AttachClk+0x94>
     a66:	9805      	ldr	r0, [sp, #20]
     a68:	f36f 301f 	bfc	r0, #12, #20
     a6c:	4601      	mov	r1, r0
     a6e:	9103      	str	r1, [sp, #12]
     a70:	b318      	cbz	r0, aba <CLOCK_AttachClk+0x80>
     a72:	e7ff      	b.n	a74 <CLOCK_AttachClk+0x3a>
     a74:	9903      	ldr	r1, [sp, #12]
     a76:	b2c8      	uxtb	r0, r1
     a78:	4602      	mov	r2, r0
     a7a:	9201      	str	r2, [sp, #4]
     a7c:	f401 6270 	and.w	r2, r1, #3840	; 0xf00
     a80:	f04f 31ff 	mov.w	r1, #4294967295	; 0xffffffff
     a84:	eb01 2112 	add.w	r1, r1, r2, lsr #8
     a88:	9102      	str	r1, [sp, #8]
     a8a:	283f      	cmp	r0, #63	; 0x3f
     a8c:	d109      	bne.n	aa2 <CLOCK_AttachClk+0x68>
     a8e:	e7ff      	b.n	a90 <CLOCK_AttachClk+0x56>
     a90:	9a02      	ldr	r2, [sp, #8]
     a92:	2198      	movs	r1, #152	; 0x98
     a94:	f2c4 0102 	movt	r1, #16386	; 0x4002
     a98:	6808      	ldr	r0, [r1, #0]
     a9a:	f362 0000 	bfi	r0, r2, #0, #1
     a9e:	6008      	str	r0, [r1, #0]
     aa0:	e00a      	b.n	ab8 <CLOCK_AttachClk+0x7e>
     aa2:	9901      	ldr	r1, [sp, #4]
     aa4:	9802      	ldr	r0, [sp, #8]
     aa6:	b2c0      	uxtb	r0, r0
     aa8:	b2ca      	uxtb	r2, r1
     aaa:	f240 2160 	movw	r1, #608	; 0x260
     aae:	f2c4 0100 	movt	r1, #16384	; 0x4000
     ab2:	f841 0022 	str.w	r0, [r1, r2, lsl #2]
     ab6:	e7ff      	b.n	ab8 <CLOCK_AttachClk+0x7e>
     ab8:	e7ff      	b.n	aba <CLOCK_AttachClk+0x80>
     aba:	9805      	ldr	r0, [sp, #20]
     abc:	0b00      	lsrs	r0, r0, #12
     abe:	9000      	str	r0, [sp, #0]
     ac0:	e7ff      	b.n	ac2 <CLOCK_AttachClk+0x88>
     ac2:	9900      	ldr	r1, [sp, #0]
     ac4:	9804      	ldr	r0, [sp, #16]
     ac6:	3001      	adds	r0, #1
     ac8:	9106      	str	r1, [sp, #24]
     aca:	9007      	str	r0, [sp, #28]
     acc:	e7c0      	b.n	a50 <CLOCK_AttachClk+0x16>
     ace:	e7ff      	b.n	ad0 <CLOCK_AttachClk+0x96>
     ad0:	b009      	add	sp, #36	; 0x24
     ad2:	4770      	bx	lr

00000ad4 <CLOCK_SetClkDiv>:
     ad4:	b083      	sub	sp, #12
     ad6:	9100      	str	r1, [sp, #0]
     ad8:	4601      	mov	r1, r0
     ada:	9101      	str	r1, [sp, #4]
     adc:	9202      	str	r2, [sp, #8]
     ade:	2808      	cmp	r0, #8
     ae0:	db12      	blt.n	b08 <CLOCK_SetClkDiv+0x34>
     ae2:	e7ff      	b.n	ae4 <CLOCK_SetClkDiv+0x10>
     ae4:	9801      	ldr	r0, [sp, #4]
     ae6:	b2c0      	uxtb	r0, r0
     ae8:	280f      	cmp	r0, #15
     aea:	dc0d      	bgt.n	b08 <CLOCK_SetClkDiv+0x34>
     aec:	e7ff      	b.n	aee <CLOCK_SetClkDiv+0x1a>
     aee:	9901      	ldr	r1, [sp, #4]
     af0:	9a00      	ldr	r2, [sp, #0]
     af2:	20ff      	movs	r0, #255	; 0xff
     af4:	f362 200f 	bfi	r0, r2, #8, #8
     af8:	b2ca      	uxtb	r2, r1
     afa:	f240 3100 	movw	r1, #768	; 0x300
     afe:	f2c4 0100 	movt	r1, #16384	; 0x4000
     b02:	f841 0022 	str.w	r0, [r1, r2, lsl #2]
     b06:	e028      	b.n	b5a <CLOCK_SetClkDiv+0x86>
     b08:	9802      	ldr	r0, [sp, #8]
     b0a:	07c0      	lsls	r0, r0, #31
     b0c:	b158      	cbz	r0, b26 <CLOCK_SetClkDiv+0x52>
     b0e:	e7ff      	b.n	b10 <CLOCK_SetClkDiv+0x3c>
     b10:	9801      	ldr	r0, [sp, #4]
     b12:	b2c2      	uxtb	r2, r0
     b14:	f240 3100 	movw	r1, #768	; 0x300
     b18:	f2c4 0100 	movt	r1, #16384	; 0x4000
     b1c:	f04f 5000 	mov.w	r0, #536870912	; 0x20000000
     b20:	f841 0022 	str.w	r0, [r1, r2, lsl #2]
     b24:	e7ff      	b.n	b26 <CLOCK_SetClkDiv+0x52>
     b26:	9800      	ldr	r0, [sp, #0]
     b28:	b958      	cbnz	r0, b42 <CLOCK_SetClkDiv+0x6e>
     b2a:	e7ff      	b.n	b2c <CLOCK_SetClkDiv+0x58>
     b2c:	9801      	ldr	r0, [sp, #4]
     b2e:	b2c2      	uxtb	r2, r0
     b30:	f240 3100 	movw	r1, #768	; 0x300
     b34:	f2c4 0100 	movt	r1, #16384	; 0x4000
     b38:	f04f 4080 	mov.w	r0, #1073741824	; 0x40000000
     b3c:	f841 0022 	str.w	r0, [r1, r2, lsl #2]
     b40:	e00a      	b.n	b58 <CLOCK_SetClkDiv+0x84>
     b42:	9901      	ldr	r1, [sp, #4]
     b44:	9800      	ldr	r0, [sp, #0]
     b46:	3801      	subs	r0, #1
     b48:	b2ca      	uxtb	r2, r1
     b4a:	f240 3100 	movw	r1, #768	; 0x300
     b4e:	f2c4 0100 	movt	r1, #16384	; 0x4000
     b52:	f841 0022 	str.w	r0, [r1, r2, lsl #2]
     b56:	e7ff      	b.n	b58 <CLOCK_SetClkDiv+0x84>
     b58:	e7ff      	b.n	b5a <CLOCK_SetClkDiv+0x86>
     b5a:	b003      	add	sp, #12
     b5c:	4770      	bx	lr

00000b5e <CLOCK_SetupFROClocking>:
     b5e:	b580      	push	{r7, lr}
     b60:	466f      	mov	r7, sp
     b62:	b082      	sub	sp, #8
     b64:	9001      	str	r0, [sp, #4]
     b66:	f641 3100 	movw	r1, #6912	; 0x1b00
     b6a:	f2c0 01b7 	movt	r1, #183	; 0xb7
     b6e:	4288      	cmp	r0, r1
     b70:	d013      	beq.n	b9a <CLOCK_SetupFROClocking+0x3c>
     b72:	e7ff      	b.n	b74 <CLOCK_SetupFROClocking+0x16>
     b74:	9801      	ldr	r0, [sp, #4]
     b76:	f646 4100 	movw	r1, #27648	; 0x6c00
     b7a:	f2c0 21dc 	movt	r1, #732	; 0x2dc
     b7e:	4288      	cmp	r0, r1
     b80:	d00b      	beq.n	b9a <CLOCK_SetupFROClocking+0x3c>
     b82:	e7ff      	b.n	b84 <CLOCK_SetupFROClocking+0x26>
     b84:	9801      	ldr	r0, [sp, #4]
     b86:	f64d 0100 	movw	r1, #55296	; 0xd800
     b8a:	f2c0 51b8 	movt	r1, #1464	; 0x5b8
     b8e:	4288      	cmp	r0, r1
     b90:	d003      	beq.n	b9a <CLOCK_SetupFROClocking+0x3c>
     b92:	e7ff      	b.n	b94 <CLOCK_SetupFROClocking+0x36>
     b94:	2001      	movs	r0, #1
     b96:	9000      	str	r0, [sp, #0]
     b98:	e02b      	b.n	bf2 <CLOCK_SetupFROClocking+0x94>
     b9a:	f240 1148 	movw	r1, #328	; 0x148
     b9e:	f2c4 0100 	movt	r1, #16384	; 0x4000
     ba2:	f04f 6000 	mov.w	r0, #134217728	; 0x8000000
     ba6:	6008      	str	r0, [r1, #0]
     ba8:	f240 2128 	movw	r1, #552	; 0x228
     bac:	f2c4 0100 	movt	r1, #16384	; 0x4000
     bb0:	6008      	str	r0, [r1, #0]
     bb2:	2020      	movs	r0, #32
     bb4:	f000 f820 	bl	bf8 <POWER_DisablePD>
     bb8:	9801      	ldr	r0, [sp, #4]
     bba:	f64d 0100 	movw	r1, #55296	; 0xd800
     bbe:	f2c0 51b8 	movt	r1, #1464	; 0x5b8
     bc2:	4288      	cmp	r0, r1
     bc4:	d109      	bne.n	bda <CLOCK_SetupFROClocking+0x7c>
     bc6:	e7ff      	b.n	bc8 <CLOCK_SetupFROClocking+0x6a>
     bc8:	f243 0110 	movw	r1, #12304	; 0x3010
     bcc:	f2c4 0101 	movt	r1, #16385	; 0x4001
     bd0:	6808      	ldr	r0, [r1, #0]
     bd2:	f040 4080 	orr.w	r0, r0, #1073741824	; 0x40000000
     bd6:	6008      	str	r0, [r1, #0]
     bd8:	e008      	b.n	bec <CLOCK_SetupFROClocking+0x8e>
     bda:	f243 0110 	movw	r1, #12304	; 0x3010
     bde:	f2c4 0101 	movt	r1, #16385	; 0x4001
     be2:	6808      	ldr	r0, [r1, #0]
     be4:	f440 4080 	orr.w	r0, r0, #16384	; 0x4000
     be8:	6008      	str	r0, [r1, #0]
     bea:	e7ff      	b.n	bec <CLOCK_SetupFROClocking+0x8e>
     bec:	2000      	movs	r0, #0
     bee:	9000      	str	r0, [sp, #0]
     bf0:	e7ff      	b.n	bf2 <CLOCK_SetupFROClocking+0x94>
     bf2:	9800      	ldr	r0, [sp, #0]
     bf4:	b002      	add	sp, #8
     bf6:	bd80      	pop	{r7, pc}

00000bf8 <POWER_DisablePD>:
     bf8:	21c8      	movs	r1, #200	; 0xc8
     bfa:	f2c4 0102 	movt	r1, #16386	; 0x4002
     bfe:	6008      	str	r0, [r1, #0]
     c00:	4770      	bx	lr

00000c02 <CLOCK_SetFLASHAccessCyclesForFreq>:
     c02:	b08f      	sub	sp, #60	; 0x3c
     c04:	900d      	str	r0, [sp, #52]	; 0x34
     c06:	f240 4100 	movw	r1, #1024	; 0x400
     c0a:	f2c4 0100 	movt	r1, #16384	; 0x4000
     c0e:	6809      	ldr	r1, [r1, #0]
     c10:	f001 0120 	and.w	r1, r1, #32
     c14:	910e      	str	r1, [sp, #56]	; 0x38
     c16:	f64d 01c0 	movw	r1, #55488	; 0xd8c0
     c1a:	f2c0 01a7 	movt	r1, #167	; 0xa7
     c1e:	4288      	cmp	r0, r1
     c20:	d803      	bhi.n	c2a <CLOCK_SetFLASHAccessCyclesForFreq+0x28>
     c22:	e7ff      	b.n	c24 <CLOCK_SetFLASHAccessCyclesForFreq+0x22>
     c24:	2000      	movs	r0, #0
     c26:	900c      	str	r0, [sp, #48]	; 0x30
     c28:	e09c      	b.n	d64 <CLOCK_SetFLASHAccessCyclesForFreq+0x162>
     c2a:	980d      	ldr	r0, [sp, #52]	; 0x34
     c2c:	f24b 1180 	movw	r1, #45440	; 0xb180
     c30:	f2c0 114f 	movt	r1, #335	; 0x14f
     c34:	4288      	cmp	r0, r1
     c36:	d803      	bhi.n	c40 <CLOCK_SetFLASHAccessCyclesForFreq+0x3e>
     c38:	e7ff      	b.n	c3a <CLOCK_SetFLASHAccessCyclesForFreq+0x38>
     c3a:	2001      	movs	r0, #1
     c3c:	900b      	str	r0, [sp, #44]	; 0x2c
     c3e:	e08e      	b.n	d5e <CLOCK_SetFLASHAccessCyclesForFreq+0x15c>
     c40:	980d      	ldr	r0, [sp, #52]	; 0x34
     c42:	f648 2140 	movw	r1, #35392	; 0x8a40
     c46:	f2c0 11f7 	movt	r1, #503	; 0x1f7
     c4a:	4288      	cmp	r0, r1
     c4c:	d803      	bhi.n	c56 <CLOCK_SetFLASHAccessCyclesForFreq+0x54>
     c4e:	e7ff      	b.n	c50 <CLOCK_SetFLASHAccessCyclesForFreq+0x4e>
     c50:	2002      	movs	r0, #2
     c52:	900a      	str	r0, [sp, #40]	; 0x28
     c54:	e080      	b.n	d58 <CLOCK_SetFLASHAccessCyclesForFreq+0x156>
     c56:	980d      	ldr	r0, [sp, #52]	; 0x34
     c58:	f246 3100 	movw	r1, #25344	; 0x6300
     c5c:	f2c0 219f 	movt	r1, #671	; 0x29f
     c60:	4288      	cmp	r0, r1
     c62:	d803      	bhi.n	c6c <CLOCK_SetFLASHAccessCyclesForFreq+0x6a>
     c64:	e7ff      	b.n	c66 <CLOCK_SetFLASHAccessCyclesForFreq+0x64>
     c66:	2003      	movs	r0, #3
     c68:	9009      	str	r0, [sp, #36]	; 0x24
     c6a:	e072      	b.n	d52 <CLOCK_SetFLASHAccessCyclesForFreq+0x150>
     c6c:	980d      	ldr	r0, [sp, #52]	; 0x34
     c6e:	f643 31c0 	movw	r1, #15296	; 0x3bc0
     c72:	f2c0 3147 	movt	r1, #839	; 0x347
     c76:	4288      	cmp	r0, r1
     c78:	d803      	bhi.n	c82 <CLOCK_SetFLASHAccessCyclesForFreq+0x80>
     c7a:	e7ff      	b.n	c7c <CLOCK_SetFLASHAccessCyclesForFreq+0x7a>
     c7c:	2004      	movs	r0, #4
     c7e:	9008      	str	r0, [sp, #32]
     c80:	e064      	b.n	d4c <CLOCK_SetFLASHAccessCyclesForFreq+0x14a>
     c82:	980d      	ldr	r0, [sp, #52]	; 0x34
     c84:	f241 4180 	movw	r1, #5248	; 0x1480
     c88:	f2c0 31ef 	movt	r1, #1007	; 0x3ef
     c8c:	4288      	cmp	r0, r1
     c8e:	d803      	bhi.n	c98 <CLOCK_SetFLASHAccessCyclesForFreq+0x96>
     c90:	e7ff      	b.n	c92 <CLOCK_SetFLASHAccessCyclesForFreq+0x90>
     c92:	2005      	movs	r0, #5
     c94:	9007      	str	r0, [sp, #28]
     c96:	e056      	b.n	d46 <CLOCK_SetFLASHAccessCyclesForFreq+0x144>
     c98:	980d      	ldr	r0, [sp, #52]	; 0x34
     c9a:	f64e 5140 	movw	r1, #60736	; 0xed40
     c9e:	f2c0 4196 	movt	r1, #1174	; 0x496
     ca2:	4288      	cmp	r0, r1
     ca4:	d803      	bhi.n	cae <CLOCK_SetFLASHAccessCyclesForFreq+0xac>
     ca6:	e7ff      	b.n	ca8 <CLOCK_SetFLASHAccessCyclesForFreq+0xa6>
     ca8:	2006      	movs	r0, #6
     caa:	9006      	str	r0, [sp, #24]
     cac:	e048      	b.n	d40 <CLOCK_SetFLASHAccessCyclesForFreq+0x13e>
     cae:	980d      	ldr	r0, [sp, #52]	; 0x34
     cb0:	f24c 6100 	movw	r1, #50688	; 0xc600
     cb4:	f2c0 513e 	movt	r1, #1342	; 0x53e
     cb8:	4288      	cmp	r0, r1
     cba:	d803      	bhi.n	cc4 <CLOCK_SetFLASHAccessCyclesForFreq+0xc2>
     cbc:	e7ff      	b.n	cbe <CLOCK_SetFLASHAccessCyclesForFreq+0xbc>
     cbe:	2007      	movs	r0, #7
     cc0:	9005      	str	r0, [sp, #20]
     cc2:	e03a      	b.n	d3a <CLOCK_SetFLASHAccessCyclesForFreq+0x138>
     cc4:	980d      	ldr	r0, [sp, #52]	; 0x34
     cc6:	f24e 1100 	movw	r1, #57600	; 0xe100
     cca:	f2c0 51f5 	movt	r1, #1525	; 0x5f5
     cce:	4288      	cmp	r0, r1
     cd0:	d803      	bhi.n	cda <CLOCK_SetFLASHAccessCyclesForFreq+0xd8>
     cd2:	e7ff      	b.n	cd4 <CLOCK_SetFLASHAccessCyclesForFreq+0xd2>
     cd4:	2008      	movs	r0, #8
     cd6:	9004      	str	r0, [sp, #16]
     cd8:	e02c      	b.n	d34 <CLOCK_SetFLASHAccessCyclesForFreq+0x132>
     cda:	980d      	ldr	r0, [sp, #52]	; 0x34
     cdc:	f24c 21c0 	movw	r1, #49856	; 0xc2c0
     ce0:	f2c0 61da 	movt	r1, #1754	; 0x6da
     ce4:	4288      	cmp	r0, r1
     ce6:	d803      	bhi.n	cf0 <CLOCK_SetFLASHAccessCyclesForFreq+0xee>
     ce8:	e7ff      	b.n	cea <CLOCK_SetFLASHAccessCyclesForFreq+0xe8>
     cea:	2009      	movs	r0, #9
     cec:	9003      	str	r0, [sp, #12]
     cee:	e01e      	b.n	d2e <CLOCK_SetFLASHAccessCyclesForFreq+0x12c>
     cf0:	980d      	ldr	r0, [sp, #52]	; 0x34
     cf2:	f24a 4180 	movw	r1, #42112	; 0xa480
     cf6:	f2c0 71bf 	movt	r1, #1983	; 0x7bf
     cfa:	4288      	cmp	r0, r1
     cfc:	d803      	bhi.n	d06 <CLOCK_SetFLASHAccessCyclesForFreq+0x104>
     cfe:	e7ff      	b.n	d00 <CLOCK_SetFLASHAccessCyclesForFreq+0xfe>
     d00:	200a      	movs	r0, #10
     d02:	9002      	str	r0, [sp, #8]
     d04:	e010      	b.n	d28 <CLOCK_SetFLASHAccessCyclesForFreq+0x126>
     d06:	980d      	ldr	r0, [sp, #52]	; 0x34
     d08:	f24d 1180 	movw	r1, #53632	; 0xd180
     d0c:	f6c0 01f0 	movt	r1, #2288	; 0x8f0
     d10:	4288      	cmp	r0, r1
     d12:	d803      	bhi.n	d1c <CLOCK_SetFLASHAccessCyclesForFreq+0x11a>
     d14:	e7ff      	b.n	d16 <CLOCK_SetFLASHAccessCyclesForFreq+0x114>
     d16:	200b      	movs	r0, #11
     d18:	9001      	str	r0, [sp, #4]
     d1a:	e002      	b.n	d22 <CLOCK_SetFLASHAccessCyclesForFreq+0x120>
     d1c:	200c      	movs	r0, #12
     d1e:	9001      	str	r0, [sp, #4]
     d20:	e7ff      	b.n	d22 <CLOCK_SetFLASHAccessCyclesForFreq+0x120>
     d22:	9801      	ldr	r0, [sp, #4]
     d24:	9002      	str	r0, [sp, #8]
     d26:	e7ff      	b.n	d28 <CLOCK_SetFLASHAccessCyclesForFreq+0x126>
     d28:	9802      	ldr	r0, [sp, #8]
     d2a:	9003      	str	r0, [sp, #12]
     d2c:	e7ff      	b.n	d2e <CLOCK_SetFLASHAccessCyclesForFreq+0x12c>
     d2e:	9803      	ldr	r0, [sp, #12]
     d30:	9004      	str	r0, [sp, #16]
     d32:	e7ff      	b.n	d34 <CLOCK_SetFLASHAccessCyclesForFreq+0x132>
     d34:	9804      	ldr	r0, [sp, #16]
     d36:	9005      	str	r0, [sp, #20]
     d38:	e7ff      	b.n	d3a <CLOCK_SetFLASHAccessCyclesForFreq+0x138>
     d3a:	9805      	ldr	r0, [sp, #20]
     d3c:	9006      	str	r0, [sp, #24]
     d3e:	e7ff      	b.n	d40 <CLOCK_SetFLASHAccessCyclesForFreq+0x13e>
     d40:	9806      	ldr	r0, [sp, #24]
     d42:	9007      	str	r0, [sp, #28]
     d44:	e7ff      	b.n	d46 <CLOCK_SetFLASHAccessCyclesForFreq+0x144>
     d46:	9807      	ldr	r0, [sp, #28]
     d48:	9008      	str	r0, [sp, #32]
     d4a:	e7ff      	b.n	d4c <CLOCK_SetFLASHAccessCyclesForFreq+0x14a>
     d4c:	9808      	ldr	r0, [sp, #32]
     d4e:	9009      	str	r0, [sp, #36]	; 0x24
     d50:	e7ff      	b.n	d52 <CLOCK_SetFLASHAccessCyclesForFreq+0x150>
     d52:	9809      	ldr	r0, [sp, #36]	; 0x24
     d54:	900a      	str	r0, [sp, #40]	; 0x28
     d56:	e7ff      	b.n	d58 <CLOCK_SetFLASHAccessCyclesForFreq+0x156>
     d58:	980a      	ldr	r0, [sp, #40]	; 0x28
     d5a:	900b      	str	r0, [sp, #44]	; 0x2c
     d5c:	e7ff      	b.n	d5e <CLOCK_SetFLASHAccessCyclesForFreq+0x15c>
     d5e:	980b      	ldr	r0, [sp, #44]	; 0x2c
     d60:	900c      	str	r0, [sp, #48]	; 0x30
     d62:	e7ff      	b.n	d64 <CLOCK_SetFLASHAccessCyclesForFreq+0x162>
     d64:	9a0c      	ldr	r2, [sp, #48]	; 0x30
     d66:	9200      	str	r2, [sp, #0]
     d68:	f240 4100 	movw	r1, #1024	; 0x400
     d6c:	f2c4 0100 	movt	r1, #16384	; 0x4000
     d70:	6808      	ldr	r0, [r1, #0]
     d72:	f020 0020 	bic.w	r0, r0, #32
     d76:	6008      	str	r0, [r1, #0]
     d78:	f644 71e8 	movw	r1, #20456	; 0x4fe8
     d7c:	f2c4 0103 	movt	r1, #16387	; 0x4003
     d80:	201f      	movs	r0, #31
     d82:	6008      	str	r0, [r1, #0]
     d84:	f244 0180 	movw	r1, #16512	; 0x4080
     d88:	f2c4 0103 	movt	r1, #16387	; 0x4003
     d8c:	6808      	ldr	r0, [r1, #0]
     d8e:	f362 0003 	bfi	r0, r2, #0, #4
     d92:	6008      	str	r0, [r1, #0]
     d94:	f244 0100 	movw	r1, #16384	; 0x4000
     d98:	f2c4 0103 	movt	r1, #16387	; 0x4003
     d9c:	2002      	movs	r0, #2
     d9e:	6008      	str	r0, [r1, #0]
     da0:	e7ff      	b.n	da2 <CLOCK_SetFLASHAccessCyclesForFreq+0x1a0>
     da2:	f644 70e0 	movw	r0, #20448	; 0x4fe0
     da6:	f2c4 0003 	movt	r0, #16387	; 0x4003
     daa:	6800      	ldr	r0, [r0, #0]
     dac:	0740      	lsls	r0, r0, #29
     dae:	2800      	cmp	r0, #0
     db0:	d401      	bmi.n	db6 <CLOCK_SetFLASHAccessCyclesForFreq+0x1b4>
     db2:	e7ff      	b.n	db4 <CLOCK_SetFLASHAccessCyclesForFreq+0x1b2>
     db4:	e7f5      	b.n	da2 <CLOCK_SetFLASHAccessCyclesForFreq+0x1a0>
     db6:	9a0e      	ldr	r2, [sp, #56]	; 0x38
     db8:	9b00      	ldr	r3, [sp, #0]
     dba:	f240 4100 	movw	r1, #1024	; 0x400
     dbe:	f2c4 0100 	movt	r1, #16384	; 0x4000
     dc2:	6808      	ldr	r0, [r1, #0]
     dc4:	f363 300f 	bfi	r0, r3, #12, #4
     dc8:	6008      	str	r0, [r1, #0]
     dca:	6808      	ldr	r0, [r1, #0]
     dcc:	4310      	orrs	r0, r2
     dce:	6008      	str	r0, [r1, #0]
     dd0:	b00f      	add	sp, #60	; 0x3c
     dd2:	4770      	bx	lr

00000dd4 <CLOCK_SetupExtClocking>:
     dd4:	b580      	push	{r7, lr}
     dd6:	466f      	mov	r7, sp
     dd8:	b082      	sub	sp, #8
     dda:	9001      	str	r0, [sp, #4]
     ddc:	f644 0101 	movw	r1, #18433	; 0x4801
     de0:	f2c0 11e8 	movt	r1, #488	; 0x1e8
     de4:	4288      	cmp	r0, r1
     de6:	d303      	bcc.n	df0 <CLOCK_SetupExtClocking+0x1c>
     de8:	e7ff      	b.n	dea <CLOCK_SetupExtClocking+0x16>
     dea:	2001      	movs	r0, #1
     dec:	9000      	str	r0, [sp, #0]
     dee:	e022      	b.n	e36 <CLOCK_SetupExtClocking+0x62>
     df0:	f44f 7080 	mov.w	r0, #256	; 0x100
     df4:	f7ff ff00 	bl	bf8 <POWER_DisablePD>
     df8:	f44f 1080 	mov.w	r0, #1048576	; 0x100000
     dfc:	f7ff fefc 	bl	bf8 <POWER_DisablePD>
     e00:	f640 2118 	movw	r1, #2584	; 0xa18
     e04:	f2c4 0100 	movt	r1, #16384	; 0x4000
     e08:	6808      	ldr	r0, [r1, #0]
     e0a:	f040 0020 	orr.w	r0, r0, #32
     e0e:	6008      	str	r0, [r1, #0]
     e10:	e7ff      	b.n	e12 <CLOCK_SetupExtClocking+0x3e>
     e12:	f243 0024 	movw	r0, #12324	; 0x3024
     e16:	f2c4 0001 	movt	r0, #16385	; 0x4001
     e1a:	6800      	ldr	r0, [r0, #0]
     e1c:	07c0      	lsls	r0, r0, #31
     e1e:	b908      	cbnz	r0, e24 <CLOCK_SetupExtClocking+0x50>
     e20:	e7ff      	b.n	e22 <CLOCK_SetupExtClocking+0x4e>
     e22:	e7f6      	b.n	e12 <CLOCK_SetupExtClocking+0x3e>
     e24:	9801      	ldr	r0, [sp, #4]
     e26:	f240 0104 	movw	r1, #4
     e2a:	f2c2 0100 	movt	r1, #8192	; 0x2000
     e2e:	6008      	str	r0, [r1, #0]
     e30:	2000      	movs	r0, #0
     e32:	9000      	str	r0, [sp, #0]
     e34:	e7ff      	b.n	e36 <CLOCK_SetupExtClocking+0x62>
     e36:	9800      	ldr	r0, [sp, #0]
     e38:	b002      	add	sp, #8
     e3a:	bd80      	pop	{r7, pc}

00000e3c <CLOCK_GetExtClkFreq>:
     e3c:	b081      	sub	sp, #4
     e3e:	f243 0020 	movw	r0, #12320	; 0x3020
     e42:	f2c4 0001 	movt	r0, #16385	; 0x4001
     e46:	6800      	ldr	r0, [r0, #0]
     e48:	01c0      	lsls	r0, r0, #7
     e4a:	2800      	cmp	r0, #0
     e4c:	d507      	bpl.n	e5e <CLOCK_GetExtClkFreq+0x22>
     e4e:	e7ff      	b.n	e50 <CLOCK_GetExtClkFreq+0x14>
     e50:	f240 0004 	movw	r0, #4
     e54:	f2c2 0000 	movt	r0, #8192	; 0x2000
     e58:	6800      	ldr	r0, [r0, #0]
     e5a:	9000      	str	r0, [sp, #0]
     e5c:	e002      	b.n	e64 <CLOCK_GetExtClkFreq+0x28>
     e5e:	2000      	movs	r0, #0
     e60:	9000      	str	r0, [sp, #0]
     e62:	e7ff      	b.n	e64 <CLOCK_GetExtClkFreq+0x28>
     e64:	9800      	ldr	r0, [sp, #0]
     e66:	b001      	add	sp, #4
     e68:	4770      	bx	lr

00000e6a <CLOCK_GetFro1MFreq>:
     e6a:	f640 2018 	movw	r0, #2584	; 0xa18
     e6e:	f2c4 0000 	movt	r0, #16384	; 0x4000
     e72:	6800      	ldr	r0, [r0, #0]
     e74:	f000 0040 	and.w	r0, r0, #64	; 0x40
     e78:	2800      	cmp	r0, #0
     e7a:	bf1c      	itt	ne
     e7c:	f244 2040 	movwne	r0, #16960	; 0x4240
     e80:	f2c0 000f 	movtne	r0, #15
     e84:	4770      	bx	lr

00000e86 <CLOCK_GetOsc32KFreq>:
     e86:	b082      	sub	sp, #8
     e88:	20b8      	movs	r0, #184	; 0xb8
     e8a:	f2c4 0002 	movt	r0, #16386	; 0x4002
     e8e:	6800      	ldr	r0, [r0, #0]
     e90:	0640      	lsls	r0, r0, #25
     e92:	2800      	cmp	r0, #0
     e94:	d40b      	bmi.n	eae <CLOCK_GetOsc32KFreq+0x28>
     e96:	e7ff      	b.n	e98 <CLOCK_GetOsc32KFreq+0x12>
     e98:	2098      	movs	r0, #152	; 0x98
     e9a:	f2c4 0002 	movt	r0, #16386	; 0x4002
     e9e:	6800      	ldr	r0, [r0, #0]
     ea0:	07c0      	lsls	r0, r0, #31
     ea2:	b920      	cbnz	r0, eae <CLOCK_GetOsc32KFreq+0x28>
     ea4:	e7ff      	b.n	ea6 <CLOCK_GetOsc32KFreq+0x20>
     ea6:	f44f 4000 	mov.w	r0, #32768	; 0x8000
     eaa:	9001      	str	r0, [sp, #4]
     eac:	e01a      	b.n	ee4 <CLOCK_GetOsc32KFreq+0x5e>
     eae:	20b8      	movs	r0, #184	; 0xb8
     eb0:	f2c4 0002 	movt	r0, #16386	; 0x4002
     eb4:	6801      	ldr	r1, [r0, #0]
     eb6:	2000      	movs	r0, #0
     eb8:	0609      	lsls	r1, r1, #24
     eba:	2900      	cmp	r1, #0
     ebc:	9000      	str	r0, [sp, #0]
     ebe:	d408      	bmi.n	ed2 <CLOCK_GetOsc32KFreq+0x4c>
     ec0:	e7ff      	b.n	ec2 <CLOCK_GetOsc32KFreq+0x3c>
     ec2:	2098      	movs	r0, #152	; 0x98
     ec4:	f2c4 0002 	movt	r0, #16386	; 0x4002
     ec8:	6800      	ldr	r0, [r0, #0]
     eca:	f000 0001 	and.w	r0, r0, #1
     ece:	9000      	str	r0, [sp, #0]
     ed0:	e7ff      	b.n	ed2 <CLOCK_GetOsc32KFreq+0x4c>
     ed2:	9800      	ldr	r0, [sp, #0]
     ed4:	f000 0001 	and.w	r0, r0, #1
     ed8:	2800      	cmp	r0, #0
     eda:	bf18      	it	ne
     edc:	f44f 4000 	movne.w	r0, #32768	; 0x8000
     ee0:	9001      	str	r0, [sp, #4]
     ee2:	e7ff      	b.n	ee4 <CLOCK_GetOsc32KFreq+0x5e>
     ee4:	9801      	ldr	r0, [sp, #4]
     ee6:	b002      	add	sp, #8
     ee8:	4770      	bx	lr
	...

00000eec <CLOCK_GetPLL0InClockRate>:
     eec:	b580      	push	{r7, lr}
     eee:	466f      	mov	r7, sp
     ef0:	b082      	sub	sp, #8
     ef2:	f240 2090 	movw	r0, #656	; 0x290
     ef6:	f2c4 0000 	movt	r0, #16384	; 0x4000
     efa:	6800      	ldr	r0, [r0, #0]
     efc:	f000 0007 	and.w	r0, r0, #7
     f00:	4601      	mov	r1, r0
     f02:	9101      	str	r1, [sp, #4]
     f04:	2803      	cmp	r0, #3
     f06:	d816      	bhi.n	f36 <CLOCK_GetPLL0InClockRate+0x4a>
     f08:	9901      	ldr	r1, [sp, #4]
     f0a:	e8df f001 	tbb	[pc, r1]
     f0e:	0802      	.short	0x0802
     f10:	100c      	.short	0x100c
     f12:	f641 3000 	movw	r0, #6912	; 0x1b00
     f16:	f2c0 00b7 	movt	r0, #183	; 0xb7
     f1a:	9000      	str	r0, [sp, #0]
     f1c:	e00e      	b.n	f3c <CLOCK_GetPLL0InClockRate+0x50>
     f1e:	f7ff ff8d 	bl	e3c <CLOCK_GetExtClkFreq>
     f22:	9000      	str	r0, [sp, #0]
     f24:	e00a      	b.n	f3c <CLOCK_GetPLL0InClockRate+0x50>
     f26:	f7ff ffa0 	bl	e6a <CLOCK_GetFro1MFreq>
     f2a:	9000      	str	r0, [sp, #0]
     f2c:	e006      	b.n	f3c <CLOCK_GetPLL0InClockRate+0x50>
     f2e:	f7ff ffaa 	bl	e86 <CLOCK_GetOsc32KFreq>
     f32:	9000      	str	r0, [sp, #0]
     f34:	e002      	b.n	f3c <CLOCK_GetPLL0InClockRate+0x50>
     f36:	2000      	movs	r0, #0
     f38:	9000      	str	r0, [sp, #0]
     f3a:	e7ff      	b.n	f3c <CLOCK_GetPLL0InClockRate+0x50>
     f3c:	9800      	ldr	r0, [sp, #0]
     f3e:	b002      	add	sp, #8
     f40:	bd80      	pop	{r7, pc}

00000f42 <findPll0PreDiv>:
     f42:	b082      	sub	sp, #8
     f44:	f240 5080 	movw	r0, #1408	; 0x580
     f48:	f2c4 0000 	movt	r0, #16384	; 0x4000
     f4c:	6801      	ldr	r1, [r0, #0]
     f4e:	2001      	movs	r0, #1
     f50:	0309      	lsls	r1, r1, #12
     f52:	2900      	cmp	r1, #0
     f54:	9001      	str	r0, [sp, #4]
     f56:	d410      	bmi.n	f7a <findPll0PreDiv+0x38>
     f58:	e7ff      	b.n	f5a <findPll0PreDiv+0x18>
     f5a:	f240 5088 	movw	r0, #1416	; 0x588
     f5e:	f2c4 0000 	movt	r0, #16384	; 0x4000
     f62:	6800      	ldr	r0, [r0, #0]
     f64:	b2c1      	uxtb	r1, r0
     f66:	4608      	mov	r0, r1
     f68:	9000      	str	r0, [sp, #0]
     f6a:	b919      	cbnz	r1, f74 <findPll0PreDiv+0x32>
     f6c:	e7ff      	b.n	f6e <findPll0PreDiv+0x2c>
     f6e:	2001      	movs	r0, #1
     f70:	9000      	str	r0, [sp, #0]
     f72:	e7ff      	b.n	f74 <findPll0PreDiv+0x32>
     f74:	9800      	ldr	r0, [sp, #0]
     f76:	9001      	str	r0, [sp, #4]
     f78:	e7ff      	b.n	f7a <findPll0PreDiv+0x38>
     f7a:	9801      	ldr	r0, [sp, #4]
     f7c:	b002      	add	sp, #8
     f7e:	4770      	bx	lr

00000f80 <POWER_EnablePD>:
     f80:	21c0      	movs	r1, #192	; 0xc0
     f82:	f2c4 0102 	movt	r1, #16386	; 0x4002
     f86:	6008      	str	r0, [r1, #0]
     f88:	4770      	bx	lr

00000f8a <CLOCK_IsPLL0Locked>:
     f8a:	f240 5084 	movw	r0, #1412	; 0x584
     f8e:	f2c4 0000 	movt	r0, #16384	; 0x4000
     f92:	6800      	ldr	r0, [r0, #0]
     f94:	f000 0001 	and.w	r0, r0, #1
     f98:	4770      	bx	lr

00000f9a <CLOCK_SetPLL0Freq>:
     f9a:	b580      	push	{r7, lr}
     f9c:	466f      	mov	r7, sp
     f9e:	b08a      	sub	sp, #40	; 0x28
     fa0:	9009      	str	r0, [sp, #36]	; 0x24
     fa2:	f44f 7000 	mov.w	r0, #512	; 0x200
     fa6:	9007      	str	r0, [sp, #28]
     fa8:	f7ff ffea 	bl	f80 <POWER_EnablePD>
     fac:	f44f 0000 	mov.w	r0, #8388608	; 0x800000
     fb0:	9008      	str	r0, [sp, #32]
     fb2:	f7ff ffe5 	bl	f80 <POWER_EnablePD>
     fb6:	9807      	ldr	r0, [sp, #28]
     fb8:	9909      	ldr	r1, [sp, #36]	; 0x24
     fba:	680a      	ldr	r2, [r1, #0]
     fbc:	f240 5380 	movw	r3, #1408	; 0x580
     fc0:	f2c4 0300 	movt	r3, #16384	; 0x4000
     fc4:	601a      	str	r2, [r3, #0]
     fc6:	684a      	ldr	r2, [r1, #4]
     fc8:	f240 5388 	movw	r3, #1416	; 0x588
     fcc:	f2c4 0300 	movt	r3, #16384	; 0x4000
     fd0:	601a      	str	r2, [r3, #0]
     fd2:	684a      	ldr	r2, [r1, #4]
     fd4:	f442 7280 	orr.w	r2, r2, #256	; 0x100
     fd8:	601a      	str	r2, [r3, #0]
     fda:	688a      	ldr	r2, [r1, #8]
     fdc:	f240 538c 	movw	r3, #1420	; 0x58c
     fe0:	f2c4 0300 	movt	r3, #16384	; 0x4000
     fe4:	601a      	str	r2, [r3, #0]
     fe6:	688a      	ldr	r2, [r1, #8]
     fe8:	f042 0220 	orr.w	r2, r2, #32
     fec:	601a      	str	r2, [r3, #0]
     fee:	690a      	ldr	r2, [r1, #16]
     ff0:	f240 5390 	movw	r3, #1424	; 0x590
     ff4:	f2c4 0300 	movt	r3, #16384	; 0x4000
     ff8:	601a      	str	r2, [r3, #0]
     ffa:	694b      	ldr	r3, [r1, #20]
     ffc:	f240 5294 	movw	r2, #1428	; 0x594
    1000:	f2c4 0200 	movt	r2, #16384	; 0x4000
    1004:	6013      	str	r3, [r2, #0]
    1006:	6949      	ldr	r1, [r1, #20]
    1008:	2302      	movs	r3, #2
    100a:	f2c0 4300 	movt	r3, #1024	; 0x400
    100e:	4319      	orrs	r1, r3
    1010:	6011      	str	r1, [r2, #0]
    1012:	f7ff fdf1 	bl	bf8 <POWER_DisablePD>
    1016:	9808      	ldr	r0, [sp, #32]
    1018:	f7ff fdee 	bl	bf8 <POWER_DisablePD>
    101c:	9809      	ldr	r0, [sp, #36]	; 0x24
    101e:	7f00      	ldrb	r0, [r0, #28]
    1020:	0780      	lsls	r0, r0, #30
    1022:	2800      	cmp	r0, #0
    1024:	d55b      	bpl.n	10de <CLOCK_SetPLL0Freq+0x144>
    1026:	e7ff      	b.n	1028 <CLOCK_SetPLL0Freq+0x8e>
    1028:	f240 5094 	movw	r0, #1428	; 0x594
    102c:	f2c4 0000 	movt	r0, #16384	; 0x4000
    1030:	6800      	ldr	r0, [r0, #0]
    1032:	00c0      	lsls	r0, r0, #3
    1034:	2800      	cmp	r0, #0
    1036:	d548      	bpl.n	10ca <CLOCK_SetPLL0Freq+0x130>
    1038:	e7ff      	b.n	103a <CLOCK_SetPLL0Freq+0xa0>
    103a:	f7ff ff57 	bl	eec <CLOCK_GetPLL0InClockRate>
    103e:	9005      	str	r0, [sp, #20]
    1040:	f7ff ff7f 	bl	f42 <findPll0PreDiv>
    1044:	4601      	mov	r1, r0
    1046:	9805      	ldr	r0, [sp, #20]
    1048:	fbb0 f0f1 	udiv	r0, r0, r1
    104c:	f248 4100 	movw	r1, #33792	; 0x8400
    1050:	f2c1 71d7 	movt	r1, #6103	; 0x17d7
    1054:	fbb1 f1f0 	udiv	r1, r1, r0
    1058:	f501 71fa 	add.w	r1, r1, #500	; 0x1f4
    105c:	9106      	str	r1, [sp, #24]
    105e:	f642 41ff 	movw	r1, #11519	; 0x2cff
    1062:	f2c0 1131 	movt	r1, #305	; 0x131
    1066:	4288      	cmp	r0, r1
    1068:	d826      	bhi.n	10b8 <CLOCK_SetPLL0Freq+0x11e>
    106a:	e7ff      	b.n	106c <CLOCK_SetPLL0Freq+0xd2>
    106c:	2000      	movs	r0, #0
    106e:	9004      	str	r0, [sp, #16]
    1070:	e7ff      	b.n	1072 <CLOCK_SetPLL0Freq+0xd8>
    1072:	9804      	ldr	r0, [sp, #16]
    1074:	9002      	str	r0, [sp, #8]
    1076:	f7ff ff88 	bl	f8a <CLOCK_IsPLL0Locked>
    107a:	4601      	mov	r1, r0
    107c:	2000      	movs	r0, #0
    107e:	9003      	str	r0, [sp, #12]
    1080:	b941      	cbnz	r1, 1094 <CLOCK_SetPLL0Freq+0xfa>
    1082:	e7ff      	b.n	1084 <CLOCK_SetPLL0Freq+0xea>
    1084:	9902      	ldr	r1, [sp, #8]
    1086:	9a06      	ldr	r2, [sp, #24]
    1088:	2000      	movs	r0, #0
    108a:	4291      	cmp	r1, r2
    108c:	bf38      	it	cc
    108e:	2001      	movcc	r0, #1
    1090:	9003      	str	r0, [sp, #12]
    1092:	e7ff      	b.n	1094 <CLOCK_SetPLL0Freq+0xfa>
    1094:	9803      	ldr	r0, [sp, #12]
    1096:	07c0      	lsls	r0, r0, #31
    1098:	b168      	cbz	r0, 10b6 <CLOCK_SetPLL0Freq+0x11c>
    109a:	e7ff      	b.n	109c <CLOCK_SetPLL0Freq+0x102>
    109c:	9802      	ldr	r0, [sp, #8]
    109e:	3064      	adds	r0, #100	; 0x64
    10a0:	9001      	str	r0, [sp, #4]
    10a2:	2064      	movs	r0, #100	; 0x64
    10a4:	f24d 1180 	movw	r1, #53632	; 0xd180
    10a8:	f6c0 01f0 	movt	r1, #2288	; 0x8f0
    10ac:	f7ff fc8e 	bl	9cc <SDK_DelayAtLeastUs>
    10b0:	9801      	ldr	r0, [sp, #4]
    10b2:	9004      	str	r0, [sp, #16]
    10b4:	e7dd      	b.n	1072 <CLOCK_SetPLL0Freq+0xd8>
    10b6:	e007      	b.n	10c8 <CLOCK_SetPLL0Freq+0x12e>
    10b8:	9806      	ldr	r0, [sp, #24]
    10ba:	f24d 1180 	movw	r1, #53632	; 0xd180
    10be:	f6c0 01f0 	movt	r1, #2288	; 0x8f0
    10c2:	f7ff fc83 	bl	9cc <SDK_DelayAtLeastUs>
    10c6:	e7ff      	b.n	10c8 <CLOCK_SetPLL0Freq+0x12e>
    10c8:	e008      	b.n	10dc <CLOCK_SetPLL0Freq+0x142>
    10ca:	f241 7070 	movw	r0, #6000	; 0x1770
    10ce:	f24d 1180 	movw	r1, #53632	; 0xd180
    10d2:	f6c0 01f0 	movt	r1, #2288	; 0x8f0
    10d6:	f7ff fc79 	bl	9cc <SDK_DelayAtLeastUs>
    10da:	e7ff      	b.n	10dc <CLOCK_SetPLL0Freq+0x142>
    10dc:	e7ff      	b.n	10de <CLOCK_SetPLL0Freq+0x144>
    10de:	9809      	ldr	r0, [sp, #36]	; 0x24
    10e0:	6980      	ldr	r0, [r0, #24]
    10e2:	f640 11d4 	movw	r1, #2516	; 0x9d4
    10e6:	f2c2 0100 	movt	r1, #8192	; 0x2000
    10ea:	6008      	str	r0, [r1, #0]
    10ec:	2000      	movs	r0, #0
    10ee:	b00a      	add	sp, #40	; 0x28
    10f0:	bd80      	pop	{r7, pc}

000010f2 <POWER_SetVoltageForFreq>:
    10f2:	b580      	push	{r7, lr}
    10f4:	466f      	mov	r7, sp
    10f6:	b084      	sub	sp, #16
    10f8:	9003      	str	r0, [sp, #12]
    10fa:	f24e 1100 	movw	r1, #57600	; 0xe100
    10fe:	f2c0 51f5 	movt	r1, #1525	; 0x5f5
    1102:	4288      	cmp	r0, r1
    1104:	d808      	bhi.n	1118 <POWER_SetVoltageForFreq+0x26>
    1106:	e7ff      	b.n	1108 <POWER_SetVoltageForFreq+0x16>
    1108:	2000      	movs	r0, #0
    110a:	9002      	str	r0, [sp, #8]
    110c:	f000 f81f 	bl	114e <lowpower_set_dcdc_power_profile>
    1110:	9802      	ldr	r0, [sp, #8]
    1112:	f000 f890 	bl	1236 <lowpower_set_voltage_for_process>
    1116:	e018      	b.n	114a <POWER_SetVoltageForFreq+0x58>
    1118:	9803      	ldr	r0, [sp, #12]
    111a:	f24a 4180 	movw	r1, #42112	; 0xa480
    111e:	f2c0 71bf 	movt	r1, #1983	; 0x7bf
    1122:	4288      	cmp	r0, r1
    1124:	d808      	bhi.n	1138 <POWER_SetVoltageForFreq+0x46>
    1126:	e7ff      	b.n	1128 <POWER_SetVoltageForFreq+0x36>
    1128:	2001      	movs	r0, #1
    112a:	9001      	str	r0, [sp, #4]
    112c:	f000 f80f 	bl	114e <lowpower_set_dcdc_power_profile>
    1130:	9801      	ldr	r0, [sp, #4]
    1132:	f000 f880 	bl	1236 <lowpower_set_voltage_for_process>
    1136:	e007      	b.n	1148 <POWER_SetVoltageForFreq+0x56>
    1138:	2002      	movs	r0, #2
    113a:	9000      	str	r0, [sp, #0]
    113c:	f000 f807 	bl	114e <lowpower_set_dcdc_power_profile>
    1140:	9800      	ldr	r0, [sp, #0]
    1142:	f000 f878 	bl	1236 <lowpower_set_voltage_for_process>
    1146:	e7ff      	b.n	1148 <POWER_SetVoltageForFreq+0x56>
    1148:	e7ff      	b.n	114a <POWER_SetVoltageForFreq+0x58>
    114a:	b004      	add	sp, #16
    114c:	bd80      	pop	{r7, pc}

0000114e <lowpower_set_dcdc_power_profile>:
    114e:	b087      	sub	sp, #28
    1150:	4601      	mov	r1, r0
    1152:	9106      	str	r1, [sp, #24]
    1154:	b140      	cbz	r0, 1168 <lowpower_set_dcdc_power_profile+0x1a>
    1156:	e7ff      	b.n	1158 <lowpower_set_dcdc_power_profile+0xa>
    1158:	9806      	ldr	r0, [sp, #24]
    115a:	2801      	cmp	r0, #1
    115c:	d020      	beq.n	11a0 <lowpower_set_dcdc_power_profile+0x52>
    115e:	e7ff      	b.n	1160 <lowpower_set_dcdc_power_profile+0x12>
    1160:	9806      	ldr	r0, [sp, #24]
    1162:	2802      	cmp	r0, #2
    1164:	d038      	beq.n	11d8 <lowpower_set_dcdc_power_profile+0x8a>
    1166:	e053      	b.n	1210 <lowpower_set_dcdc_power_profile+0xc2>
    1168:	f64f 40e0 	movw	r0, #64736	; 0xfce0
    116c:	f2c0 0009 	movt	r0, #9
    1170:	6800      	ldr	r0, [r0, #0]
    1172:	9004      	str	r0, [sp, #16]
    1174:	f64f 41e4 	movw	r1, #64740	; 0xfce4
    1178:	f2c0 0109 	movt	r1, #9
    117c:	6809      	ldr	r1, [r1, #0]
    117e:	9105      	str	r1, [sp, #20]
    1180:	07c0      	lsls	r0, r0, #31
    1182:	b160      	cbz	r0, 119e <lowpower_set_dcdc_power_profile+0x50>
    1184:	e7ff      	b.n	1186 <lowpower_set_dcdc_power_profile+0x38>
    1186:	9805      	ldr	r0, [sp, #20]
    1188:	9904      	ldr	r1, [sp, #16]
    118a:	0849      	lsrs	r1, r1, #1
    118c:	2210      	movs	r2, #16
    118e:	f2c4 0202 	movt	r2, #16386	; 0x4002
    1192:	6011      	str	r1, [r2, #0]
    1194:	2114      	movs	r1, #20
    1196:	f2c4 0102 	movt	r1, #16386	; 0x4002
    119a:	6008      	str	r0, [r1, #0]
    119c:	e7ff      	b.n	119e <lowpower_set_dcdc_power_profile+0x50>
    119e:	e048      	b.n	1232 <lowpower_set_dcdc_power_profile+0xe4>
    11a0:	f64f 40e8 	movw	r0, #64744	; 0xfce8
    11a4:	f2c0 0009 	movt	r0, #9
    11a8:	6800      	ldr	r0, [r0, #0]
    11aa:	9002      	str	r0, [sp, #8]
    11ac:	f64f 41ec 	movw	r1, #64748	; 0xfcec
    11b0:	f2c0 0109 	movt	r1, #9
    11b4:	6809      	ldr	r1, [r1, #0]
    11b6:	9103      	str	r1, [sp, #12]
    11b8:	07c0      	lsls	r0, r0, #31
    11ba:	b160      	cbz	r0, 11d6 <lowpower_set_dcdc_power_profile+0x88>
    11bc:	e7ff      	b.n	11be <lowpower_set_dcdc_power_profile+0x70>
    11be:	9803      	ldr	r0, [sp, #12]
    11c0:	9902      	ldr	r1, [sp, #8]
    11c2:	0849      	lsrs	r1, r1, #1
    11c4:	2210      	movs	r2, #16
    11c6:	f2c4 0202 	movt	r2, #16386	; 0x4002
    11ca:	6011      	str	r1, [r2, #0]
    11cc:	2114      	movs	r1, #20
    11ce:	f2c4 0102 	movt	r1, #16386	; 0x4002
    11d2:	6008      	str	r0, [r1, #0]
    11d4:	e7ff      	b.n	11d6 <lowpower_set_dcdc_power_profile+0x88>
    11d6:	e02c      	b.n	1232 <lowpower_set_dcdc_power_profile+0xe4>
    11d8:	f64f 40d8 	movw	r0, #64728	; 0xfcd8
    11dc:	f2c0 0009 	movt	r0, #9
    11e0:	6800      	ldr	r0, [r0, #0]
    11e2:	9000      	str	r0, [sp, #0]
    11e4:	f64f 41dc 	movw	r1, #64732	; 0xfcdc
    11e8:	f2c0 0109 	movt	r1, #9
    11ec:	6809      	ldr	r1, [r1, #0]
    11ee:	9101      	str	r1, [sp, #4]
    11f0:	07c0      	lsls	r0, r0, #31
    11f2:	b160      	cbz	r0, 120e <lowpower_set_dcdc_power_profile+0xc0>
    11f4:	e7ff      	b.n	11f6 <lowpower_set_dcdc_power_profile+0xa8>
    11f6:	9801      	ldr	r0, [sp, #4]
    11f8:	9900      	ldr	r1, [sp, #0]
    11fa:	0849      	lsrs	r1, r1, #1
    11fc:	2210      	movs	r2, #16
    11fe:	f2c4 0202 	movt	r2, #16386	; 0x4002
    1202:	6011      	str	r1, [r2, #0]
    1204:	2114      	movs	r1, #20
    1206:	f2c4 0102 	movt	r1, #16386	; 0x4002
    120a:	6008      	str	r0, [r1, #0]
    120c:	e7ff      	b.n	120e <lowpower_set_dcdc_power_profile+0xc0>
    120e:	e010      	b.n	1232 <lowpower_set_dcdc_power_profile+0xe4>
    1210:	2110      	movs	r1, #16
    1212:	f2c4 0102 	movt	r1, #16386	; 0x4002
    1216:	f644 6068 	movw	r0, #20072	; 0x4e68
    121a:	f2c0 100c 	movt	r0, #268	; 0x10c
    121e:	6008      	str	r0, [r1, #0]
    1220:	2114      	movs	r1, #20
    1222:	f2c4 0102 	movt	r1, #16386	; 0x4002
    1226:	f643 2098 	movw	r0, #15000	; 0x3a98
    122a:	f2c0 1080 	movt	r0, #384	; 0x180
    122e:	6008      	str	r0, [r1, #0]
    1230:	e7ff      	b.n	1232 <lowpower_set_dcdc_power_profile+0xe4>
    1232:	b007      	add	sp, #28
    1234:	4770      	bx	lr

00001236 <lowpower_set_voltage_for_process>:
    1236:	b580      	push	{r7, lr}
    1238:	466f      	mov	r7, sp
    123a:	b086      	sub	sp, #24
    123c:	9004      	str	r0, [sp, #16]
    123e:	f000 f85b 	bl	12f8 <lowpower_get_part_process_corner>
    1242:	4601      	mov	r1, r0
    1244:	9105      	str	r1, [sp, #20]
    1246:	b120      	cbz	r0, 1252 <lowpower_set_voltage_for_process+0x1c>
    1248:	e7ff      	b.n	124a <lowpower_set_voltage_for_process+0x14>
    124a:	9805      	ldr	r0, [sp, #20]
    124c:	2802      	cmp	r0, #2
    124e:	d01b      	beq.n	1288 <lowpower_set_voltage_for_process+0x52>
    1250:	e035      	b.n	12be <lowpower_set_voltage_for_process+0x88>
    1252:	9804      	ldr	r0, [sp, #16]
    1254:	b2c0      	uxtb	r0, r0
    1256:	4601      	mov	r1, r0
    1258:	9103      	str	r1, [sp, #12]
    125a:	2801      	cmp	r0, #1
    125c:	d004      	beq.n	1268 <lowpower_set_voltage_for_process+0x32>
    125e:	e7ff      	b.n	1260 <lowpower_set_voltage_for_process+0x2a>
    1260:	9803      	ldr	r0, [sp, #12]
    1262:	2802      	cmp	r0, #2
    1264:	d005      	beq.n	1272 <lowpower_set_voltage_for_process+0x3c>
    1266:	e009      	b.n	127c <lowpower_set_voltage_for_process+0x46>
    1268:	f240 407e 	movw	r0, #1150	; 0x47e
    126c:	f000 f89b 	bl	13a6 <lowpower_set_system_voltage>
    1270:	e009      	b.n	1286 <lowpower_set_voltage_for_process+0x50>
    1272:	f44f 6096 	mov.w	r0, #1200	; 0x4b0
    1276:	f000 f896 	bl	13a6 <lowpower_set_system_voltage>
    127a:	e004      	b.n	1286 <lowpower_set_voltage_for_process+0x50>
    127c:	f240 4033 	movw	r0, #1075	; 0x433
    1280:	f000 f891 	bl	13a6 <lowpower_set_system_voltage>
    1284:	e7ff      	b.n	1286 <lowpower_set_voltage_for_process+0x50>
    1286:	e035      	b.n	12f4 <lowpower_set_voltage_for_process+0xbe>
    1288:	9804      	ldr	r0, [sp, #16]
    128a:	b2c0      	uxtb	r0, r0
    128c:	4601      	mov	r1, r0
    128e:	9102      	str	r1, [sp, #8]
    1290:	2801      	cmp	r0, #1
    1292:	d004      	beq.n	129e <lowpower_set_voltage_for_process+0x68>
    1294:	e7ff      	b.n	1296 <lowpower_set_voltage_for_process+0x60>
    1296:	9802      	ldr	r0, [sp, #8]
    1298:	2802      	cmp	r0, #2
    129a:	d005      	beq.n	12a8 <lowpower_set_voltage_for_process+0x72>
    129c:	e009      	b.n	12b2 <lowpower_set_voltage_for_process+0x7c>
    129e:	f240 4001 	movw	r0, #1025	; 0x401
    12a2:	f000 f880 	bl	13a6 <lowpower_set_system_voltage>
    12a6:	e009      	b.n	12bc <lowpower_set_voltage_for_process+0x86>
    12a8:	f240 401a 	movw	r0, #1050	; 0x41a
    12ac:	f000 f87b 	bl	13a6 <lowpower_set_system_voltage>
    12b0:	e004      	b.n	12bc <lowpower_set_voltage_for_process+0x86>
    12b2:	f44f 707a 	mov.w	r0, #1000	; 0x3e8
    12b6:	f000 f876 	bl	13a6 <lowpower_set_system_voltage>
    12ba:	e7ff      	b.n	12bc <lowpower_set_voltage_for_process+0x86>
    12bc:	e01a      	b.n	12f4 <lowpower_set_voltage_for_process+0xbe>
    12be:	9804      	ldr	r0, [sp, #16]
    12c0:	b2c0      	uxtb	r0, r0
    12c2:	4601      	mov	r1, r0
    12c4:	9101      	str	r1, [sp, #4]
    12c6:	2801      	cmp	r0, #1
    12c8:	d004      	beq.n	12d4 <lowpower_set_voltage_for_process+0x9e>
    12ca:	e7ff      	b.n	12cc <lowpower_set_voltage_for_process+0x96>
    12cc:	9801      	ldr	r0, [sp, #4]
    12ce:	2802      	cmp	r0, #2
    12d0:	d005      	beq.n	12de <lowpower_set_voltage_for_process+0xa8>
    12d2:	e009      	b.n	12e8 <lowpower_set_voltage_for_process+0xb2>
    12d4:	f240 404c 	movw	r0, #1100	; 0x44c
    12d8:	f000 f865 	bl	13a6 <lowpower_set_system_voltage>
    12dc:	e009      	b.n	12f2 <lowpower_set_voltage_for_process+0xbc>
    12de:	f240 407e 	movw	r0, #1150	; 0x47e
    12e2:	f000 f860 	bl	13a6 <lowpower_set_system_voltage>
    12e6:	e004      	b.n	12f2 <lowpower_set_voltage_for_process+0xbc>
    12e8:	f44f 707a 	mov.w	r0, #1000	; 0x3e8
    12ec:	f000 f85b 	bl	13a6 <lowpower_set_system_voltage>
    12f0:	e7ff      	b.n	12f2 <lowpower_set_voltage_for_process+0xbc>
    12f2:	e7ff      	b.n	12f4 <lowpower_set_voltage_for_process+0xbe>
    12f4:	b006      	add	sp, #24
    12f6:	bd80      	pop	{r7, pc}

000012f8 <lowpower_get_part_process_corner>:
    12f8:	b08a      	sub	sp, #40	; 0x28
    12fa:	f64f 5030 	movw	r0, #64816	; 0xfd30
    12fe:	f2c0 0009 	movt	r0, #9
    1302:	6800      	ldr	r0, [r0, #0]
    1304:	9008      	str	r0, [sp, #32]
    1306:	f64f 5140 	movw	r1, #64832	; 0xfd40
    130a:	f2c0 0109 	movt	r1, #9
    130e:	6809      	ldr	r1, [r1, #0]
    1310:	9109      	str	r1, [sp, #36]	; 0x24
    1312:	07c0      	lsls	r0, r0, #31
    1314:	b120      	cbz	r0, 1320 <lowpower_get_part_process_corner+0x28>
    1316:	e7ff      	b.n	1318 <lowpower_get_part_process_corner+0x20>
    1318:	9808      	ldr	r0, [sp, #32]
    131a:	0840      	lsrs	r0, r0, #1
    131c:	9007      	str	r0, [sp, #28]
    131e:	e005      	b.n	132c <lowpower_get_part_process_corner+0x34>
    1320:	f647 60a0 	movw	r0, #32416	; 0x7ea0
    1324:	f2c0 1026 	movt	r0, #294	; 0x126
    1328:	9007      	str	r0, [sp, #28]
    132a:	e7ff      	b.n	132c <lowpower_get_part_process_corner+0x34>
    132c:	9809      	ldr	r0, [sp, #36]	; 0x24
    132e:	9907      	ldr	r1, [sp, #28]
    1330:	9106      	str	r1, [sp, #24]
    1332:	07c0      	lsls	r0, r0, #31
    1334:	b120      	cbz	r0, 1340 <lowpower_get_part_process_corner+0x48>
    1336:	e7ff      	b.n	1338 <lowpower_get_part_process_corner+0x40>
    1338:	9809      	ldr	r0, [sp, #36]	; 0x24
    133a:	0840      	lsrs	r0, r0, #1
    133c:	9005      	str	r0, [sp, #20]
    133e:	e005      	b.n	134c <lowpower_get_part_process_corner+0x54>
    1340:	f647 60a0 	movw	r0, #32416	; 0x7ea0
    1344:	f2c0 1026 	movt	r0, #294	; 0x126
    1348:	9005      	str	r0, [sp, #20]
    134a:	e7ff      	b.n	134c <lowpower_get_part_process_corner+0x54>
    134c:	9906      	ldr	r1, [sp, #24]
    134e:	9805      	ldr	r0, [sp, #20]
    1350:	9004      	str	r0, [sp, #16]
    1352:	4288      	cmp	r0, r1
    1354:	d803      	bhi.n	135e <lowpower_get_part_process_corner+0x66>
    1356:	e7ff      	b.n	1358 <lowpower_get_part_process_corner+0x60>
    1358:	9804      	ldr	r0, [sp, #16]
    135a:	9003      	str	r0, [sp, #12]
    135c:	e002      	b.n	1364 <lowpower_get_part_process_corner+0x6c>
    135e:	9806      	ldr	r0, [sp, #24]
    1360:	9003      	str	r0, [sp, #12]
    1362:	e7ff      	b.n	1364 <lowpower_get_part_process_corner+0x6c>
    1364:	9803      	ldr	r0, [sp, #12]
    1366:	9002      	str	r0, [sp, #8]
    1368:	f64d 71a0 	movw	r1, #57248	; 0xdfa0
    136c:	f2c0 1101 	movt	r1, #257	; 0x101
    1370:	4288      	cmp	r0, r1
    1372:	d803      	bhi.n	137c <lowpower_get_part_process_corner+0x84>
    1374:	e7ff      	b.n	1376 <lowpower_get_part_process_corner+0x7e>
    1376:	2000      	movs	r0, #0
    1378:	9001      	str	r0, [sp, #4]
    137a:	e010      	b.n	139e <lowpower_get_part_process_corner+0xa6>
    137c:	9802      	ldr	r0, [sp, #8]
    137e:	f641 51a0 	movw	r1, #7584	; 0x1da0
    1382:	f2c0 114b 	movt	r1, #331	; 0x14b
    1386:	4288      	cmp	r0, r1
    1388:	d803      	bhi.n	1392 <lowpower_get_part_process_corner+0x9a>
    138a:	e7ff      	b.n	138c <lowpower_get_part_process_corner+0x94>
    138c:	2001      	movs	r0, #1
    138e:	9000      	str	r0, [sp, #0]
    1390:	e002      	b.n	1398 <lowpower_get_part_process_corner+0xa0>
    1392:	2002      	movs	r0, #2
    1394:	9000      	str	r0, [sp, #0]
    1396:	e7ff      	b.n	1398 <lowpower_get_part_process_corner+0xa0>
    1398:	9800      	ldr	r0, [sp, #0]
    139a:	9001      	str	r0, [sp, #4]
    139c:	e7ff      	b.n	139e <lowpower_get_part_process_corner+0xa6>
    139e:	9801      	ldr	r0, [sp, #4]
    13a0:	b2c0      	uxtb	r0, r0
    13a2:	b00a      	add	sp, #40	; 0x28
    13a4:	4770      	bx	lr

000013a6 <lowpower_set_system_voltage>:
    13a6:	b580      	push	{r7, lr}
    13a8:	466f      	mov	r7, sp
    13aa:	b09b      	sub	sp, #108	; 0x6c
    13ac:	901a      	str	r0, [sp, #104]	; 0x68
    13ae:	f240 31b6 	movw	r1, #950	; 0x3b6
    13b2:	4288      	cmp	r0, r1
    13b4:	d807      	bhi.n	13c6 <lowpower_set_system_voltage+0x20>
    13b6:	e7ff      	b.n	13b8 <lowpower_set_system_voltage+0x12>
    13b8:	2000      	movs	r0, #0
    13ba:	210a      	movs	r1, #10
    13bc:	220f      	movs	r2, #15
    13be:	9217      	str	r2, [sp, #92]	; 0x5c
    13c0:	9118      	str	r1, [sp, #96]	; 0x60
    13c2:	9019      	str	r0, [sp, #100]	; 0x64
    13c4:	e0a7      	b.n	1516 <lowpower_set_system_voltage+0x170>
    13c6:	981a      	ldr	r0, [sp, #104]	; 0x68
    13c8:	0900      	lsrs	r0, r0, #4
    13ca:	283c      	cmp	r0, #60	; 0x3c
    13cc:	d807      	bhi.n	13de <lowpower_set_system_voltage+0x38>
    13ce:	e7ff      	b.n	13d0 <lowpower_set_system_voltage+0x2a>
    13d0:	2001      	movs	r0, #1
    13d2:	210c      	movs	r1, #12
    13d4:	2211      	movs	r2, #17
    13d6:	9214      	str	r2, [sp, #80]	; 0x50
    13d8:	9115      	str	r1, [sp, #84]	; 0x54
    13da:	9016      	str	r0, [sp, #88]	; 0x58
    13dc:	e094      	b.n	1508 <lowpower_set_system_voltage+0x162>
    13de:	981a      	ldr	r0, [sp, #104]	; 0x68
    13e0:	f5b0 7f7a 	cmp.w	r0, #1000	; 0x3e8
    13e4:	d807      	bhi.n	13f6 <lowpower_set_system_voltage+0x50>
    13e6:	e7ff      	b.n	13e8 <lowpower_set_system_voltage+0x42>
    13e8:	2002      	movs	r0, #2
    13ea:	210e      	movs	r1, #14
    13ec:	2213      	movs	r2, #19
    13ee:	9211      	str	r2, [sp, #68]	; 0x44
    13f0:	9112      	str	r1, [sp, #72]	; 0x48
    13f2:	9013      	str	r0, [sp, #76]	; 0x4c
    13f4:	e081      	b.n	14fa <lowpower_set_system_voltage+0x154>
    13f6:	981a      	ldr	r0, [sp, #104]	; 0x68
    13f8:	f240 4101 	movw	r1, #1025	; 0x401
    13fc:	4288      	cmp	r0, r1
    13fe:	d807      	bhi.n	1410 <lowpower_set_system_voltage+0x6a>
    1400:	e7ff      	b.n	1402 <lowpower_set_system_voltage+0x5c>
    1402:	2003      	movs	r0, #3
    1404:	2111      	movs	r1, #17
    1406:	2216      	movs	r2, #22
    1408:	920e      	str	r2, [sp, #56]	; 0x38
    140a:	910f      	str	r1, [sp, #60]	; 0x3c
    140c:	9010      	str	r0, [sp, #64]	; 0x40
    140e:	e06d      	b.n	14ec <lowpower_set_system_voltage+0x146>
    1410:	981a      	ldr	r0, [sp, #104]	; 0x68
    1412:	f240 411a 	movw	r1, #1050	; 0x41a
    1416:	4288      	cmp	r0, r1
    1418:	d807      	bhi.n	142a <lowpower_set_system_voltage+0x84>
    141a:	e7ff      	b.n	141c <lowpower_set_system_voltage+0x76>
    141c:	2004      	movs	r0, #4
    141e:	2114      	movs	r1, #20
    1420:	2219      	movs	r2, #25
    1422:	920b      	str	r2, [sp, #44]	; 0x2c
    1424:	910c      	str	r1, [sp, #48]	; 0x30
    1426:	900d      	str	r0, [sp, #52]	; 0x34
    1428:	e059      	b.n	14de <lowpower_set_system_voltage+0x138>
    142a:	981a      	ldr	r0, [sp, #104]	; 0x68
    142c:	f240 4133 	movw	r1, #1075	; 0x433
    1430:	4288      	cmp	r0, r1
    1432:	d807      	bhi.n	1444 <lowpower_set_system_voltage+0x9e>
    1434:	e7ff      	b.n	1436 <lowpower_set_system_voltage+0x90>
    1436:	2005      	movs	r0, #5
    1438:	2116      	movs	r1, #22
    143a:	221b      	movs	r2, #27
    143c:	9208      	str	r2, [sp, #32]
    143e:	9109      	str	r1, [sp, #36]	; 0x24
    1440:	900a      	str	r0, [sp, #40]	; 0x28
    1442:	e045      	b.n	14d0 <lowpower_set_system_voltage+0x12a>
    1444:	981a      	ldr	r0, [sp, #104]	; 0x68
    1446:	f240 414c 	movw	r1, #1100	; 0x44c
    144a:	4288      	cmp	r0, r1
    144c:	d807      	bhi.n	145e <lowpower_set_system_voltage+0xb8>
    144e:	e7ff      	b.n	1450 <lowpower_set_system_voltage+0xaa>
    1450:	2006      	movs	r0, #6
    1452:	2118      	movs	r1, #24
    1454:	221d      	movs	r2, #29
    1456:	9205      	str	r2, [sp, #20]
    1458:	9106      	str	r1, [sp, #24]
    145a:	9007      	str	r0, [sp, #28]
    145c:	e031      	b.n	14c2 <lowpower_set_system_voltage+0x11c>
    145e:	981a      	ldr	r0, [sp, #104]	; 0x68
    1460:	f240 4165 	movw	r1, #1125	; 0x465
    1464:	4288      	cmp	r0, r1
    1466:	d807      	bhi.n	1478 <lowpower_set_system_voltage+0xd2>
    1468:	e7ff      	b.n	146a <lowpower_set_system_voltage+0xc4>
    146a:	2007      	movs	r0, #7
    146c:	211b      	movs	r1, #27
    146e:	221e      	movs	r2, #30
    1470:	9202      	str	r2, [sp, #8]
    1472:	9103      	str	r1, [sp, #12]
    1474:	9004      	str	r0, [sp, #16]
    1476:	e01d      	b.n	14b4 <lowpower_set_system_voltage+0x10e>
    1478:	981a      	ldr	r0, [sp, #104]	; 0x68
    147a:	f240 417e 	movw	r1, #1150	; 0x47e
    147e:	4288      	cmp	r0, r1
    1480:	d803      	bhi.n	148a <lowpower_set_system_voltage+0xe4>
    1482:	e7ff      	b.n	1484 <lowpower_set_system_voltage+0xde>
    1484:	2008      	movs	r0, #8
    1486:	9001      	str	r0, [sp, #4]
    1488:	e00d      	b.n	14a6 <lowpower_set_system_voltage+0x100>
    148a:	981a      	ldr	r0, [sp, #104]	; 0x68
    148c:	08c0      	lsrs	r0, r0, #3
    148e:	2892      	cmp	r0, #146	; 0x92
    1490:	d803      	bhi.n	149a <lowpower_set_system_voltage+0xf4>
    1492:	e7ff      	b.n	1494 <lowpower_set_system_voltage+0xee>
    1494:	2009      	movs	r0, #9
    1496:	9000      	str	r0, [sp, #0]
    1498:	e002      	b.n	14a0 <lowpower_set_system_voltage+0xfa>
    149a:	200a      	movs	r0, #10
    149c:	9000      	str	r0, [sp, #0]
    149e:	e7ff      	b.n	14a0 <lowpower_set_system_voltage+0xfa>
    14a0:	9800      	ldr	r0, [sp, #0]
    14a2:	9001      	str	r0, [sp, #4]
    14a4:	e7ff      	b.n	14a6 <lowpower_set_system_voltage+0x100>
    14a6:	9801      	ldr	r0, [sp, #4]
    14a8:	211e      	movs	r1, #30
    14aa:	221f      	movs	r2, #31
    14ac:	9202      	str	r2, [sp, #8]
    14ae:	9103      	str	r1, [sp, #12]
    14b0:	9004      	str	r0, [sp, #16]
    14b2:	e7ff      	b.n	14b4 <lowpower_set_system_voltage+0x10e>
    14b4:	9a02      	ldr	r2, [sp, #8]
    14b6:	9903      	ldr	r1, [sp, #12]
    14b8:	9804      	ldr	r0, [sp, #16]
    14ba:	9205      	str	r2, [sp, #20]
    14bc:	9106      	str	r1, [sp, #24]
    14be:	9007      	str	r0, [sp, #28]
    14c0:	e7ff      	b.n	14c2 <lowpower_set_system_voltage+0x11c>
    14c2:	9a05      	ldr	r2, [sp, #20]
    14c4:	9906      	ldr	r1, [sp, #24]
    14c6:	9807      	ldr	r0, [sp, #28]
    14c8:	9208      	str	r2, [sp, #32]
    14ca:	9109      	str	r1, [sp, #36]	; 0x24
    14cc:	900a      	str	r0, [sp, #40]	; 0x28
    14ce:	e7ff      	b.n	14d0 <lowpower_set_system_voltage+0x12a>
    14d0:	9a08      	ldr	r2, [sp, #32]
    14d2:	9909      	ldr	r1, [sp, #36]	; 0x24
    14d4:	980a      	ldr	r0, [sp, #40]	; 0x28
    14d6:	920b      	str	r2, [sp, #44]	; 0x2c
    14d8:	910c      	str	r1, [sp, #48]	; 0x30
    14da:	900d      	str	r0, [sp, #52]	; 0x34
    14dc:	e7ff      	b.n	14de <lowpower_set_system_voltage+0x138>
    14de:	9a0b      	ldr	r2, [sp, #44]	; 0x2c
    14e0:	990c      	ldr	r1, [sp, #48]	; 0x30
    14e2:	980d      	ldr	r0, [sp, #52]	; 0x34
    14e4:	920e      	str	r2, [sp, #56]	; 0x38
    14e6:	910f      	str	r1, [sp, #60]	; 0x3c
    14e8:	9010      	str	r0, [sp, #64]	; 0x40
    14ea:	e7ff      	b.n	14ec <lowpower_set_system_voltage+0x146>
    14ec:	9a0e      	ldr	r2, [sp, #56]	; 0x38
    14ee:	990f      	ldr	r1, [sp, #60]	; 0x3c
    14f0:	9810      	ldr	r0, [sp, #64]	; 0x40
    14f2:	9211      	str	r2, [sp, #68]	; 0x44
    14f4:	9112      	str	r1, [sp, #72]	; 0x48
    14f6:	9013      	str	r0, [sp, #76]	; 0x4c
    14f8:	e7ff      	b.n	14fa <lowpower_set_system_voltage+0x154>
    14fa:	9a11      	ldr	r2, [sp, #68]	; 0x44
    14fc:	9912      	ldr	r1, [sp, #72]	; 0x48
    14fe:	9813      	ldr	r0, [sp, #76]	; 0x4c
    1500:	9214      	str	r2, [sp, #80]	; 0x50
    1502:	9115      	str	r1, [sp, #84]	; 0x54
    1504:	9016      	str	r0, [sp, #88]	; 0x58
    1506:	e7ff      	b.n	1508 <lowpower_set_system_voltage+0x162>
    1508:	9a14      	ldr	r2, [sp, #80]	; 0x50
    150a:	9915      	ldr	r1, [sp, #84]	; 0x54
    150c:	9816      	ldr	r0, [sp, #88]	; 0x58
    150e:	9217      	str	r2, [sp, #92]	; 0x5c
    1510:	9118      	str	r1, [sp, #96]	; 0x60
    1512:	9019      	str	r0, [sp, #100]	; 0x64
    1514:	e7ff      	b.n	1516 <lowpower_set_system_voltage+0x170>
    1516:	9b17      	ldr	r3, [sp, #92]	; 0x5c
    1518:	f8dd c060 	ldr.w	ip, [sp, #96]	; 0x60
    151c:	9a19      	ldr	r2, [sp, #100]	; 0x64
    151e:	211c      	movs	r1, #28
    1520:	f2c4 0102 	movt	r1, #16386	; 0x4002
    1524:	6808      	ldr	r0, [r1, #0]
    1526:	f647 4e1f 	movw	lr, #31775	; 0x7c1f
    152a:	ea20 000e 	bic.w	r0, r0, lr
    152e:	f00c 0c1f 	and.w	ip, ip, #31
    1532:	4460      	add	r0, ip
    1534:	f003 031f 	and.w	r3, r3, #31
    1538:	ea40 2083 	orr.w	r0, r0, r3, lsl #10
    153c:	6008      	str	r0, [r1, #0]
    153e:	2110      	movs	r1, #16
    1540:	f2c4 0102 	movt	r1, #16386	; 0x4002
    1544:	6808      	ldr	r0, [r1, #0]
    1546:	f362 4054 	bfi	r0, r2, #17, #4
    154a:	6008      	str	r0, [r1, #0]
    154c:	b01b      	add	sp, #108	; 0x6c
    154e:	bd80      	pop	{r7, pc}

00001550 <RESET_SetPeripheralReset>:
    1550:	b580      	push	{r7, lr}
    1552:	466f      	mov	r7, sp
    1554:	b082      	sub	sp, #8
    1556:	0c01      	lsrs	r1, r0, #16
    1558:	9100      	str	r1, [sp, #0]
    155a:	b280      	uxth	r0, r0
    155c:	2101      	movs	r1, #1
    155e:	4081      	lsls	r1, r0
    1560:	9101      	str	r1, [sp, #4]
    1562:	281f      	cmp	r0, #31
    1564:	d801      	bhi.n	156a <RESET_SetPeripheralReset+0x1a>
    1566:	e7ff      	b.n	1568 <RESET_SetPeripheralReset+0x18>
    1568:	e00e      	b.n	1588 <RESET_SetPeripheralReset+0x38>
    156a:	f647 70c4 	movw	r0, #32708	; 0x7fc4
    156e:	f2c0 0000 	movt	r0, #0
    1572:	f647 72d8 	movw	r2, #32728	; 0x7fd8
    1576:	f2c0 0200 	movt	r2, #0
    157a:	f647 73f1 	movw	r3, #32753	; 0x7ff1
    157e:	f2c0 0300 	movt	r3, #0
    1582:	2130      	movs	r1, #48	; 0x30
    1584:	f003 fc66 	bl	4e54 <__assert_func>
    1588:	9801      	ldr	r0, [sp, #4]
    158a:	9a00      	ldr	r2, [sp, #0]
    158c:	f240 1120 	movw	r1, #288	; 0x120
    1590:	f2c4 0100 	movt	r1, #16384	; 0x4000
    1594:	f841 0022 	str.w	r0, [r1, r2, lsl #2]
    1598:	e7ff      	b.n	159a <RESET_SetPeripheralReset+0x4a>
    159a:	9901      	ldr	r1, [sp, #4]
    159c:	9a00      	ldr	r2, [sp, #0]
    159e:	f240 1000 	movw	r0, #256	; 0x100
    15a2:	f2c4 0000 	movt	r0, #16384	; 0x4000
    15a6:	f850 0022 	ldr.w	r0, [r0, r2, lsl #2]
    15aa:	4208      	tst	r0, r1
    15ac:	d101      	bne.n	15b2 <RESET_SetPeripheralReset+0x62>
    15ae:	e7ff      	b.n	15b0 <RESET_SetPeripheralReset+0x60>
    15b0:	e7f3      	b.n	159a <RESET_SetPeripheralReset+0x4a>
    15b2:	b002      	add	sp, #8
    15b4:	bd80      	pop	{r7, pc}

000015b6 <RESET_ClearPeripheralReset>:
    15b6:	b580      	push	{r7, lr}
    15b8:	466f      	mov	r7, sp
    15ba:	b082      	sub	sp, #8
    15bc:	0c01      	lsrs	r1, r0, #16
    15be:	9100      	str	r1, [sp, #0]
    15c0:	b280      	uxth	r0, r0
    15c2:	2101      	movs	r1, #1
    15c4:	4081      	lsls	r1, r0
    15c6:	9101      	str	r1, [sp, #4]
    15c8:	281f      	cmp	r0, #31
    15ca:	d801      	bhi.n	15d0 <RESET_ClearPeripheralReset+0x1a>
    15cc:	e7ff      	b.n	15ce <RESET_ClearPeripheralReset+0x18>
    15ce:	e00e      	b.n	15ee <RESET_ClearPeripheralReset+0x38>
    15d0:	f647 70c4 	movw	r0, #32708	; 0x7fc4
    15d4:	f2c0 0000 	movt	r0, #0
    15d8:	f647 72fe 	movw	r2, #32766	; 0x7ffe
    15dc:	f2c0 0200 	movt	r2, #0
    15e0:	f647 73f1 	movw	r3, #32753	; 0x7ff1
    15e4:	f2c0 0300 	movt	r3, #0
    15e8:	2149      	movs	r1, #73	; 0x49
    15ea:	f003 fc33 	bl	4e54 <__assert_func>
    15ee:	9801      	ldr	r0, [sp, #4]
    15f0:	9a00      	ldr	r2, [sp, #0]
    15f2:	f240 1140 	movw	r1, #320	; 0x140
    15f6:	f2c4 0100 	movt	r1, #16384	; 0x4000
    15fa:	f841 0022 	str.w	r0, [r1, r2, lsl #2]
    15fe:	e7ff      	b.n	1600 <RESET_ClearPeripheralReset+0x4a>
    1600:	9801      	ldr	r0, [sp, #4]
    1602:	9a00      	ldr	r2, [sp, #0]
    1604:	f240 1100 	movw	r1, #256	; 0x100
    1608:	f2c4 0100 	movt	r1, #16384	; 0x4000
    160c:	f851 1022 	ldr.w	r1, [r1, r2, lsl #2]
    1610:	4001      	ands	r1, r0
    1612:	4288      	cmp	r0, r1
    1614:	d101      	bne.n	161a <RESET_ClearPeripheralReset+0x64>
    1616:	e7ff      	b.n	1618 <RESET_ClearPeripheralReset+0x62>
    1618:	e7f2      	b.n	1600 <RESET_ClearPeripheralReset+0x4a>
    161a:	b002      	add	sp, #8
    161c:	bd80      	pop	{r7, pc}

0000161e <RESET_PeripheralReset>:
    161e:	b580      	push	{r7, lr}
    1620:	466f      	mov	r7, sp
    1622:	b082      	sub	sp, #8
    1624:	9001      	str	r0, [sp, #4]
    1626:	f7ff ff93 	bl	1550 <RESET_SetPeripheralReset>
    162a:	9801      	ldr	r0, [sp, #4]
    162c:	f7ff ffc3 	bl	15b6 <RESET_ClearPeripheralReset>
    1630:	b002      	add	sp, #8
    1632:	bd80      	pop	{r7, pc}

00001634 <GPIO_EnablePortClock>:
    1634:	b580      	push	{r7, lr}
    1636:	466f      	mov	r7, sp
    1638:	b082      	sub	sp, #8
    163a:	9101      	str	r1, [sp, #4]
    163c:	2903      	cmp	r1, #3
    163e:	d801      	bhi.n	1644 <GPIO_EnablePortClock+0x10>
    1640:	e7ff      	b.n	1642 <GPIO_EnablePortClock+0xe>
    1642:	e00e      	b.n	1662 <GPIO_EnablePortClock+0x2e>
    1644:	f248 0019 	movw	r0, #32793	; 0x8019
    1648:	f2c0 0000 	movt	r0, #0
    164c:	f248 022c 	movw	r2, #32812	; 0x802c
    1650:	f2c0 0200 	movt	r2, #0
    1654:	f248 0341 	movw	r3, #32833	; 0x8041
    1658:	f2c0 0300 	movt	r3, #0
    165c:	212d      	movs	r1, #45	; 0x2d
    165e:	f003 fbf9 	bl	4e54 <__assert_func>
    1662:	9901      	ldr	r1, [sp, #4]
    1664:	f248 0064 	movw	r0, #32868	; 0x8064
    1668:	f2c0 0000 	movt	r0, #0
    166c:	f830 0011 	ldrh.w	r0, [r0, r1, lsl #1]
    1670:	f000 f847 	bl	1702 <CLOCK_EnableClock>
    1674:	b002      	add	sp, #8
    1676:	bd80      	pop	{r7, pc}

00001678 <GPIO_PinInit>:
    1678:	b580      	push	{r7, lr}
    167a:	466f      	mov	r7, sp
    167c:	b084      	sub	sp, #16
    167e:	9303      	str	r3, [sp, #12]
    1680:	9200      	str	r2, [sp, #0]
    1682:	9101      	str	r1, [sp, #4]
    1684:	9002      	str	r0, [sp, #8]
    1686:	f7ff ffd5 	bl	1634 <GPIO_EnablePortClock>
    168a:	9b03      	ldr	r3, [sp, #12]
    168c:	7818      	ldrb	r0, [r3, #0]
    168e:	b970      	cbnz	r0, 16ae <GPIO_PinInit+0x36>
    1690:	e7ff      	b.n	1692 <GPIO_PinInit+0x1a>
    1692:	9802      	ldr	r0, [sp, #8]
    1694:	9901      	ldr	r1, [sp, #4]
    1696:	9b00      	ldr	r3, [sp, #0]
    1698:	2201      	movs	r2, #1
    169a:	fa02 f303 	lsl.w	r3, r2, r3
    169e:	eb00 0181 	add.w	r1, r0, r1, lsl #2
    16a2:	f44f 5200 	mov.w	r2, #8192	; 0x2000
    16a6:	5888      	ldr	r0, [r1, r2]
    16a8:	4398      	bics	r0, r3
    16aa:	5088      	str	r0, [r1, r2]
    16ac:	e027      	b.n	16fe <GPIO_PinInit+0x86>
    16ae:	9803      	ldr	r0, [sp, #12]
    16b0:	7840      	ldrb	r0, [r0, #1]
    16b2:	b958      	cbnz	r0, 16cc <GPIO_PinInit+0x54>
    16b4:	e7ff      	b.n	16b6 <GPIO_PinInit+0x3e>
    16b6:	9902      	ldr	r1, [sp, #8]
    16b8:	9a01      	ldr	r2, [sp, #4]
    16ba:	9b00      	ldr	r3, [sp, #0]
    16bc:	2001      	movs	r0, #1
    16be:	4098      	lsls	r0, r3
    16c0:	eb01 0182 	add.w	r1, r1, r2, lsl #2
    16c4:	f44f 520a 	mov.w	r2, #8832	; 0x2280
    16c8:	5088      	str	r0, [r1, r2]
    16ca:	e00a      	b.n	16e2 <GPIO_PinInit+0x6a>
    16cc:	9902      	ldr	r1, [sp, #8]
    16ce:	9a01      	ldr	r2, [sp, #4]
    16d0:	9b00      	ldr	r3, [sp, #0]
    16d2:	2001      	movs	r0, #1
    16d4:	4098      	lsls	r0, r3
    16d6:	eb01 0182 	add.w	r1, r1, r2, lsl #2
    16da:	f44f 5208 	mov.w	r2, #8704	; 0x2200
    16de:	5088      	str	r0, [r1, r2]
    16e0:	e7ff      	b.n	16e2 <GPIO_PinInit+0x6a>
    16e2:	9802      	ldr	r0, [sp, #8]
    16e4:	9901      	ldr	r1, [sp, #4]
    16e6:	9b00      	ldr	r3, [sp, #0]
    16e8:	2201      	movs	r2, #1
    16ea:	fa02 f303 	lsl.w	r3, r2, r3
    16ee:	eb00 0181 	add.w	r1, r0, r1, lsl #2
    16f2:	f44f 5200 	mov.w	r2, #8192	; 0x2000
    16f6:	5888      	ldr	r0, [r1, r2]
    16f8:	4318      	orrs	r0, r3
    16fa:	5088      	str	r0, [r1, r2]
    16fc:	e7ff      	b.n	16fe <GPIO_PinInit+0x86>
    16fe:	b004      	add	sp, #16
    1700:	bd80      	pop	{r7, pc}

00001702 <CLOCK_EnableClock>:
    1702:	0a02      	lsrs	r2, r0, #8
    1704:	b2c1      	uxtb	r1, r0
    1706:	2001      	movs	r0, #1
    1708:	4088      	lsls	r0, r1
    170a:	f240 2120 	movw	r1, #544	; 0x220
    170e:	f2c4 0100 	movt	r1, #16384	; 0x4000
    1712:	f841 0022 	str.w	r0, [r1, r2, lsl #2]
    1716:	4770      	bx	lr

00001718 <FLEXCOMM_GetInstance>:
    1718:	b580      	push	{r7, lr}
    171a:	466f      	mov	r7, sp
    171c:	b084      	sub	sp, #16
    171e:	9002      	str	r0, [sp, #8]
    1720:	2000      	movs	r0, #0
    1722:	9003      	str	r0, [sp, #12]
    1724:	e7ff      	b.n	1726 <FLEXCOMM_GetInstance+0xe>
    1726:	9803      	ldr	r0, [sp, #12]
    1728:	9001      	str	r0, [sp, #4]
    172a:	2808      	cmp	r0, #8
    172c:	d811      	bhi.n	1752 <FLEXCOMM_GetInstance+0x3a>
    172e:	e7ff      	b.n	1730 <FLEXCOMM_GetInstance+0x18>
    1730:	9802      	ldr	r0, [sp, #8]
    1732:	9a01      	ldr	r2, [sp, #4]
    1734:	f248 016c 	movw	r1, #32876	; 0x806c
    1738:	f2c0 0100 	movt	r1, #0
    173c:	f851 1022 	ldr.w	r1, [r1, r2, lsl #2]
    1740:	4288      	cmp	r0, r1
    1742:	d101      	bne.n	1748 <FLEXCOMM_GetInstance+0x30>
    1744:	e7ff      	b.n	1746 <FLEXCOMM_GetInstance+0x2e>
    1746:	e004      	b.n	1752 <FLEXCOMM_GetInstance+0x3a>
    1748:	e7ff      	b.n	174a <FLEXCOMM_GetInstance+0x32>
    174a:	9801      	ldr	r0, [sp, #4]
    174c:	3001      	adds	r0, #1
    174e:	9003      	str	r0, [sp, #12]
    1750:	e7e9      	b.n	1726 <FLEXCOMM_GetInstance+0xe>
    1752:	9801      	ldr	r0, [sp, #4]
    1754:	2808      	cmp	r0, #8
    1756:	d801      	bhi.n	175c <FLEXCOMM_GetInstance+0x44>
    1758:	e7ff      	b.n	175a <FLEXCOMM_GetInstance+0x42>
    175a:	e00e      	b.n	177a <FLEXCOMM_GetInstance+0x62>
    175c:	f248 0090 	movw	r0, #32912	; 0x8090
    1760:	f2c0 0000 	movt	r0, #0
    1764:	f248 02a7 	movw	r2, #32935	; 0x80a7
    1768:	f2c0 0200 	movt	r2, #0
    176c:	f248 03bc 	movw	r3, #32956	; 0x80bc
    1770:	f2c0 0300 	movt	r3, #0
    1774:	215f      	movs	r1, #95	; 0x5f
    1776:	f003 fb6d 	bl	4e54 <__assert_func>
    177a:	9801      	ldr	r0, [sp, #4]
    177c:	b004      	add	sp, #16
    177e:	bd80      	pop	{r7, pc}

00001780 <FLEXCOMM_Init>:
    1780:	b580      	push	{r7, lr}
    1782:	466f      	mov	r7, sp
    1784:	b084      	sub	sp, #16
    1786:	9103      	str	r1, [sp, #12]
    1788:	9002      	str	r0, [sp, #8]
    178a:	f7ff ffc5 	bl	1718 <FLEXCOMM_GetInstance>
    178e:	4601      	mov	r1, r0
    1790:	9101      	str	r1, [sp, #4]
    1792:	f248 2004 	movw	r0, #33284	; 0x8204
    1796:	f2c0 0000 	movt	r0, #0
    179a:	f830 0011 	ldrh.w	r0, [r0, r1, lsl #1]
    179e:	f000 f810 	bl	17c2 <CLOCK_EnableClock>
    17a2:	9901      	ldr	r1, [sp, #4]
    17a4:	f248 2018 	movw	r0, #33304	; 0x8218
    17a8:	f2c0 0000 	movt	r0, #0
    17ac:	f850 0021 	ldr.w	r0, [r0, r1, lsl #2]
    17b0:	f7ff ff35 	bl	161e <RESET_PeripheralReset>
    17b4:	9802      	ldr	r0, [sp, #8]
    17b6:	9903      	ldr	r1, [sp, #12]
    17b8:	2200      	movs	r2, #0
    17ba:	f000 f80d 	bl	17d8 <FLEXCOMM_SetPeriph>
    17be:	b004      	add	sp, #16
    17c0:	bd80      	pop	{r7, pc}

000017c2 <CLOCK_EnableClock>:
    17c2:	0a02      	lsrs	r2, r0, #8
    17c4:	b2c1      	uxtb	r1, r0
    17c6:	2001      	movs	r0, #1
    17c8:	4088      	lsls	r0, r1
    17ca:	f240 2120 	movw	r1, #544	; 0x220
    17ce:	f2c4 0100 	movt	r1, #16384	; 0x4000
    17d2:	f841 0022 	str.w	r0, [r1, r2, lsl #2]
    17d6:	4770      	bx	lr

000017d8 <FLEXCOMM_SetPeriph>:
    17d8:	b580      	push	{r7, lr}
    17da:	466f      	mov	r7, sp
    17dc:	b084      	sub	sp, #16
    17de:	9201      	str	r2, [sp, #4]
    17e0:	9002      	str	r0, [sp, #8]
    17e2:	460a      	mov	r2, r1
    17e4:	9203      	str	r2, [sp, #12]
    17e6:	f000 fa3d 	bl	1c64 <FLEXCOMM_PeripheralIsPresent>
    17ea:	b918      	cbnz	r0, 17f4 <FLEXCOMM_SetPeriph+0x1c>
    17ec:	e7ff      	b.n	17ee <FLEXCOMM_SetPeriph+0x16>
    17ee:	2003      	movs	r0, #3
    17f0:	9000      	str	r0, [sp, #0]
    17f2:	e027      	b.n	1844 <FLEXCOMM_SetPeriph+0x6c>
    17f4:	9802      	ldr	r0, [sp, #8]
    17f6:	f8d0 0ff8 	ldr.w	r0, [r0, #4088]	; 0xff8
    17fa:	0700      	lsls	r0, r0, #28
    17fc:	2800      	cmp	r0, #0
    17fe:	d50d      	bpl.n	181c <FLEXCOMM_SetPeriph+0x44>
    1800:	e7ff      	b.n	1802 <FLEXCOMM_SetPeriph+0x2a>
    1802:	9903      	ldr	r1, [sp, #12]
    1804:	9802      	ldr	r0, [sp, #8]
    1806:	f8d0 0ff8 	ldr.w	r0, [r0, #4088]	; 0xff8
    180a:	f000 0007 	and.w	r0, r0, #7
    180e:	b2c9      	uxtb	r1, r1
    1810:	4288      	cmp	r0, r1
    1812:	d003      	beq.n	181c <FLEXCOMM_SetPeriph+0x44>
    1814:	e7ff      	b.n	1816 <FLEXCOMM_SetPeriph+0x3e>
    1816:	2001      	movs	r0, #1
    1818:	9000      	str	r0, [sp, #0]
    181a:	e013      	b.n	1844 <FLEXCOMM_SetPeriph+0x6c>
    181c:	9801      	ldr	r0, [sp, #4]
    181e:	b140      	cbz	r0, 1832 <FLEXCOMM_SetPeriph+0x5a>
    1820:	e7ff      	b.n	1822 <FLEXCOMM_SetPeriph+0x4a>
    1822:	9902      	ldr	r1, [sp, #8]
    1824:	9803      	ldr	r0, [sp, #12]
    1826:	f040 0008 	orr.w	r0, r0, #8
    182a:	b2c0      	uxtb	r0, r0
    182c:	f8c1 0ff8 	str.w	r0, [r1, #4088]	; 0xff8
    1830:	e005      	b.n	183e <FLEXCOMM_SetPeriph+0x66>
    1832:	9902      	ldr	r1, [sp, #8]
    1834:	9803      	ldr	r0, [sp, #12]
    1836:	b2c0      	uxtb	r0, r0
    1838:	f8c1 0ff8 	str.w	r0, [r1, #4088]	; 0xff8
    183c:	e7ff      	b.n	183e <FLEXCOMM_SetPeriph+0x66>
    183e:	2000      	movs	r0, #0
    1840:	9000      	str	r0, [sp, #0]
    1842:	e7ff      	b.n	1844 <FLEXCOMM_SetPeriph+0x6c>
    1844:	9800      	ldr	r0, [sp, #0]
    1846:	b004      	add	sp, #16
    1848:	bd80      	pop	{r7, pc}

0000184a <FLEXCOMM0_DriverIRQHandler>:
    184a:	b580      	push	{r7, lr}
    184c:	466f      	mov	r7, sp
    184e:	b082      	sub	sp, #8
    1850:	f246 0000 	movw	r0, #24576	; 0x6000
    1854:	f2c4 0008 	movt	r0, #16392	; 0x4008
    1858:	f7ff ff5e 	bl	1718 <FLEXCOMM_GetInstance>
    185c:	4601      	mov	r1, r0
    185e:	4608      	mov	r0, r1
    1860:	9001      	str	r0, [sp, #4]
    1862:	f640 10d8 	movw	r0, #2520	; 0x9d8
    1866:	f2c2 0000 	movt	r0, #8192	; 0x2000
    186a:	f850 0021 	ldr.w	r0, [r0, r1, lsl #2]
    186e:	b108      	cbz	r0, 1874 <FLEXCOMM0_DriverIRQHandler+0x2a>
    1870:	e7ff      	b.n	1872 <FLEXCOMM0_DriverIRQHandler+0x28>
    1872:	e00e      	b.n	1892 <FLEXCOMM0_DriverIRQHandler+0x48>
    1874:	f248 0090 	movw	r0, #32912	; 0x8090
    1878:	f2c0 0000 	movt	r0, #0
    187c:	f248 02e9 	movw	r2, #33001	; 0x80e9
    1880:	f2c0 0200 	movt	r2, #0
    1884:	f248 1304 	movw	r3, #33028	; 0x8104
    1888:	f2c0 0300 	movt	r3, #0
    188c:	21ac      	movs	r1, #172	; 0xac
    188e:	f003 fae1 	bl	4e54 <__assert_func>
    1892:	9b01      	ldr	r3, [sp, #4]
    1894:	f640 10d8 	movw	r0, #2520	; 0x9d8
    1898:	f2c2 0000 	movt	r0, #8192	; 0x2000
    189c:	f850 2023 	ldr.w	r2, [r0, r3, lsl #2]
    18a0:	f248 006c 	movw	r0, #32876	; 0x806c
    18a4:	f2c0 0000 	movt	r0, #0
    18a8:	f850 0023 	ldr.w	r0, [r0, r3, lsl #2]
    18ac:	f640 11fc 	movw	r1, #2556	; 0x9fc
    18b0:	f2c2 0100 	movt	r1, #8192	; 0x2000
    18b4:	f851 1023 	ldr.w	r1, [r1, r3, lsl #2]
    18b8:	4790      	blx	r2
    18ba:	b002      	add	sp, #8
    18bc:	bd80      	pop	{r7, pc}

000018be <FLEXCOMM1_DriverIRQHandler>:
    18be:	b580      	push	{r7, lr}
    18c0:	466f      	mov	r7, sp
    18c2:	b082      	sub	sp, #8
    18c4:	f247 0000 	movw	r0, #28672	; 0x7000
    18c8:	f2c4 0008 	movt	r0, #16392	; 0x4008
    18cc:	f7ff ff24 	bl	1718 <FLEXCOMM_GetInstance>
    18d0:	4601      	mov	r1, r0
    18d2:	4608      	mov	r0, r1
    18d4:	9001      	str	r0, [sp, #4]
    18d6:	f640 10d8 	movw	r0, #2520	; 0x9d8
    18da:	f2c2 0000 	movt	r0, #8192	; 0x2000
    18de:	f850 0021 	ldr.w	r0, [r0, r1, lsl #2]
    18e2:	b108      	cbz	r0, 18e8 <FLEXCOMM1_DriverIRQHandler+0x2a>
    18e4:	e7ff      	b.n	18e6 <FLEXCOMM1_DriverIRQHandler+0x28>
    18e6:	e00e      	b.n	1906 <FLEXCOMM1_DriverIRQHandler+0x48>
    18e8:	f248 0090 	movw	r0, #32912	; 0x8090
    18ec:	f2c0 0000 	movt	r0, #0
    18f0:	f248 122b 	movw	r2, #33067	; 0x812b
    18f4:	f2c0 0200 	movt	r2, #0
    18f8:	f248 1304 	movw	r3, #33028	; 0x8104
    18fc:	f2c0 0300 	movt	r3, #0
    1900:	21ba      	movs	r1, #186	; 0xba
    1902:	f003 faa7 	bl	4e54 <__assert_func>
    1906:	9b01      	ldr	r3, [sp, #4]
    1908:	f640 10d8 	movw	r0, #2520	; 0x9d8
    190c:	f2c2 0000 	movt	r0, #8192	; 0x2000
    1910:	f850 2023 	ldr.w	r2, [r0, r3, lsl #2]
    1914:	f248 006c 	movw	r0, #32876	; 0x806c
    1918:	f2c0 0000 	movt	r0, #0
    191c:	f850 0023 	ldr.w	r0, [r0, r3, lsl #2]
    1920:	f640 11fc 	movw	r1, #2556	; 0x9fc
    1924:	f2c2 0100 	movt	r1, #8192	; 0x2000
    1928:	f851 1023 	ldr.w	r1, [r1, r3, lsl #2]
    192c:	4790      	blx	r2
    192e:	b002      	add	sp, #8
    1930:	bd80      	pop	{r7, pc}

00001932 <FLEXCOMM2_DriverIRQHandler>:
    1932:	b580      	push	{r7, lr}
    1934:	466f      	mov	r7, sp
    1936:	b082      	sub	sp, #8
    1938:	f248 0000 	movw	r0, #32768	; 0x8000
    193c:	f2c4 0008 	movt	r0, #16392	; 0x4008
    1940:	f7ff feea 	bl	1718 <FLEXCOMM_GetInstance>
    1944:	4601      	mov	r1, r0
    1946:	4608      	mov	r0, r1
    1948:	9001      	str	r0, [sp, #4]
    194a:	f640 10d8 	movw	r0, #2520	; 0x9d8
    194e:	f2c2 0000 	movt	r0, #8192	; 0x2000
    1952:	f850 0021 	ldr.w	r0, [r0, r1, lsl #2]
    1956:	b108      	cbz	r0, 195c <FLEXCOMM2_DriverIRQHandler+0x2a>
    1958:	e7ff      	b.n	195a <FLEXCOMM2_DriverIRQHandler+0x28>
    195a:	e00e      	b.n	197a <FLEXCOMM2_DriverIRQHandler+0x48>
    195c:	f248 0090 	movw	r0, #32912	; 0x8090
    1960:	f2c0 0000 	movt	r0, #0
    1964:	f248 1246 	movw	r2, #33094	; 0x8146
    1968:	f2c0 0200 	movt	r2, #0
    196c:	f248 1304 	movw	r3, #33028	; 0x8104
    1970:	f2c0 0300 	movt	r3, #0
    1974:	21c8      	movs	r1, #200	; 0xc8
    1976:	f003 fa6d 	bl	4e54 <__assert_func>
    197a:	9b01      	ldr	r3, [sp, #4]
    197c:	f640 10d8 	movw	r0, #2520	; 0x9d8
    1980:	f2c2 0000 	movt	r0, #8192	; 0x2000
    1984:	f850 2023 	ldr.w	r2, [r0, r3, lsl #2]
    1988:	f248 006c 	movw	r0, #32876	; 0x806c
    198c:	f2c0 0000 	movt	r0, #0
    1990:	f850 0023 	ldr.w	r0, [r0, r3, lsl #2]
    1994:	f640 11fc 	movw	r1, #2556	; 0x9fc
    1998:	f2c2 0100 	movt	r1, #8192	; 0x2000
    199c:	f851 1023 	ldr.w	r1, [r1, r3, lsl #2]
    19a0:	4790      	blx	r2
    19a2:	b002      	add	sp, #8
    19a4:	bd80      	pop	{r7, pc}

000019a6 <FLEXCOMM3_DriverIRQHandler>:
    19a6:	b580      	push	{r7, lr}
    19a8:	466f      	mov	r7, sp
    19aa:	b082      	sub	sp, #8
    19ac:	f249 0000 	movw	r0, #36864	; 0x9000
    19b0:	f2c4 0008 	movt	r0, #16392	; 0x4008
    19b4:	f7ff feb0 	bl	1718 <FLEXCOMM_GetInstance>
    19b8:	4601      	mov	r1, r0
    19ba:	4608      	mov	r0, r1
    19bc:	9001      	str	r0, [sp, #4]
    19be:	f640 10d8 	movw	r0, #2520	; 0x9d8
    19c2:	f2c2 0000 	movt	r0, #8192	; 0x2000
    19c6:	f850 0021 	ldr.w	r0, [r0, r1, lsl #2]
    19ca:	b108      	cbz	r0, 19d0 <FLEXCOMM3_DriverIRQHandler+0x2a>
    19cc:	e7ff      	b.n	19ce <FLEXCOMM3_DriverIRQHandler+0x28>
    19ce:	e00e      	b.n	19ee <FLEXCOMM3_DriverIRQHandler+0x48>
    19d0:	f248 0090 	movw	r0, #32912	; 0x8090
    19d4:	f2c0 0000 	movt	r0, #0
    19d8:	f248 1261 	movw	r2, #33121	; 0x8161
    19dc:	f2c0 0200 	movt	r2, #0
    19e0:	f248 1304 	movw	r3, #33028	; 0x8104
    19e4:	f2c0 0300 	movt	r3, #0
    19e8:	21d6      	movs	r1, #214	; 0xd6
    19ea:	f003 fa33 	bl	4e54 <__assert_func>
    19ee:	9b01      	ldr	r3, [sp, #4]
    19f0:	f640 10d8 	movw	r0, #2520	; 0x9d8
    19f4:	f2c2 0000 	movt	r0, #8192	; 0x2000
    19f8:	f850 2023 	ldr.w	r2, [r0, r3, lsl #2]
    19fc:	f248 006c 	movw	r0, #32876	; 0x806c
    1a00:	f2c0 0000 	movt	r0, #0
    1a04:	f850 0023 	ldr.w	r0, [r0, r3, lsl #2]
    1a08:	f640 11fc 	movw	r1, #2556	; 0x9fc
    1a0c:	f2c2 0100 	movt	r1, #8192	; 0x2000
    1a10:	f851 1023 	ldr.w	r1, [r1, r3, lsl #2]
    1a14:	4790      	blx	r2
    1a16:	b002      	add	sp, #8
    1a18:	bd80      	pop	{r7, pc}

00001a1a <FLEXCOMM4_DriverIRQHandler>:
    1a1a:	b580      	push	{r7, lr}
    1a1c:	466f      	mov	r7, sp
    1a1e:	b082      	sub	sp, #8
    1a20:	f24a 0000 	movw	r0, #40960	; 0xa000
    1a24:	f2c4 0008 	movt	r0, #16392	; 0x4008
    1a28:	f7ff fe76 	bl	1718 <FLEXCOMM_GetInstance>
    1a2c:	4601      	mov	r1, r0
    1a2e:	4608      	mov	r0, r1
    1a30:	9001      	str	r0, [sp, #4]
    1a32:	f640 10d8 	movw	r0, #2520	; 0x9d8
    1a36:	f2c2 0000 	movt	r0, #8192	; 0x2000
    1a3a:	f850 0021 	ldr.w	r0, [r0, r1, lsl #2]
    1a3e:	b108      	cbz	r0, 1a44 <FLEXCOMM4_DriverIRQHandler+0x2a>
    1a40:	e7ff      	b.n	1a42 <FLEXCOMM4_DriverIRQHandler+0x28>
    1a42:	e00e      	b.n	1a62 <FLEXCOMM4_DriverIRQHandler+0x48>
    1a44:	f248 0090 	movw	r0, #32912	; 0x8090
    1a48:	f2c0 0000 	movt	r0, #0
    1a4c:	f248 127c 	movw	r2, #33148	; 0x817c
    1a50:	f2c0 0200 	movt	r2, #0
    1a54:	f248 1304 	movw	r3, #33028	; 0x8104
    1a58:	f2c0 0300 	movt	r3, #0
    1a5c:	21e4      	movs	r1, #228	; 0xe4
    1a5e:	f003 f9f9 	bl	4e54 <__assert_func>
    1a62:	9b01      	ldr	r3, [sp, #4]
    1a64:	f640 10d8 	movw	r0, #2520	; 0x9d8
    1a68:	f2c2 0000 	movt	r0, #8192	; 0x2000
    1a6c:	f850 2023 	ldr.w	r2, [r0, r3, lsl #2]
    1a70:	f248 006c 	movw	r0, #32876	; 0x806c
    1a74:	f2c0 0000 	movt	r0, #0
    1a78:	f850 0023 	ldr.w	r0, [r0, r3, lsl #2]
    1a7c:	f640 11fc 	movw	r1, #2556	; 0x9fc
    1a80:	f2c2 0100 	movt	r1, #8192	; 0x2000
    1a84:	f851 1023 	ldr.w	r1, [r1, r3, lsl #2]
    1a88:	4790      	blx	r2
    1a8a:	b002      	add	sp, #8
    1a8c:	bd80      	pop	{r7, pc}

00001a8e <FLEXCOMM5_DriverIRQHandler>:
    1a8e:	b580      	push	{r7, lr}
    1a90:	466f      	mov	r7, sp
    1a92:	b082      	sub	sp, #8
    1a94:	f246 0000 	movw	r0, #24576	; 0x6000
    1a98:	f2c4 0009 	movt	r0, #16393	; 0x4009
    1a9c:	f7ff fe3c 	bl	1718 <FLEXCOMM_GetInstance>
    1aa0:	4601      	mov	r1, r0
    1aa2:	4608      	mov	r0, r1
    1aa4:	9001      	str	r0, [sp, #4]
    1aa6:	f640 10d8 	movw	r0, #2520	; 0x9d8
    1aaa:	f2c2 0000 	movt	r0, #8192	; 0x2000
    1aae:	f850 0021 	ldr.w	r0, [r0, r1, lsl #2]
    1ab2:	b108      	cbz	r0, 1ab8 <FLEXCOMM5_DriverIRQHandler+0x2a>
    1ab4:	e7ff      	b.n	1ab6 <FLEXCOMM5_DriverIRQHandler+0x28>
    1ab6:	e00e      	b.n	1ad6 <FLEXCOMM5_DriverIRQHandler+0x48>
    1ab8:	f248 0090 	movw	r0, #32912	; 0x8090
    1abc:	f2c0 0000 	movt	r0, #0
    1ac0:	f248 1297 	movw	r2, #33175	; 0x8197
    1ac4:	f2c0 0200 	movt	r2, #0
    1ac8:	f248 1304 	movw	r3, #33028	; 0x8104
    1acc:	f2c0 0300 	movt	r3, #0
    1ad0:	21f3      	movs	r1, #243	; 0xf3
    1ad2:	f003 f9bf 	bl	4e54 <__assert_func>
    1ad6:	9b01      	ldr	r3, [sp, #4]
    1ad8:	f640 10d8 	movw	r0, #2520	; 0x9d8
    1adc:	f2c2 0000 	movt	r0, #8192	; 0x2000
    1ae0:	f850 2023 	ldr.w	r2, [r0, r3, lsl #2]
    1ae4:	f248 006c 	movw	r0, #32876	; 0x806c
    1ae8:	f2c0 0000 	movt	r0, #0
    1aec:	f850 0023 	ldr.w	r0, [r0, r3, lsl #2]
    1af0:	f640 11fc 	movw	r1, #2556	; 0x9fc
    1af4:	f2c2 0100 	movt	r1, #8192	; 0x2000
    1af8:	f851 1023 	ldr.w	r1, [r1, r3, lsl #2]
    1afc:	4790      	blx	r2
    1afe:	b002      	add	sp, #8
    1b00:	bd80      	pop	{r7, pc}

00001b02 <FLEXCOMM6_DriverIRQHandler>:
    1b02:	b580      	push	{r7, lr}
    1b04:	466f      	mov	r7, sp
    1b06:	b082      	sub	sp, #8
    1b08:	f247 0000 	movw	r0, #28672	; 0x7000
    1b0c:	f2c4 0009 	movt	r0, #16393	; 0x4009
    1b10:	f7ff fe02 	bl	1718 <FLEXCOMM_GetInstance>
    1b14:	4601      	mov	r1, r0
    1b16:	4608      	mov	r0, r1
    1b18:	9001      	str	r0, [sp, #4]
    1b1a:	f640 10d8 	movw	r0, #2520	; 0x9d8
    1b1e:	f2c2 0000 	movt	r0, #8192	; 0x2000
    1b22:	f850 0021 	ldr.w	r0, [r0, r1, lsl #2]
    1b26:	b108      	cbz	r0, 1b2c <FLEXCOMM6_DriverIRQHandler+0x2a>
    1b28:	e7ff      	b.n	1b2a <FLEXCOMM6_DriverIRQHandler+0x28>
    1b2a:	e00f      	b.n	1b4c <FLEXCOMM6_DriverIRQHandler+0x4a>
    1b2c:	f248 0090 	movw	r0, #32912	; 0x8090
    1b30:	f2c0 0000 	movt	r0, #0
    1b34:	f248 12b2 	movw	r2, #33202	; 0x81b2
    1b38:	f2c0 0200 	movt	r2, #0
    1b3c:	f248 1304 	movw	r3, #33028	; 0x8104
    1b40:	f2c0 0300 	movt	r3, #0
    1b44:	f240 1101 	movw	r1, #257	; 0x101
    1b48:	f003 f984 	bl	4e54 <__assert_func>
    1b4c:	9b01      	ldr	r3, [sp, #4]
    1b4e:	f640 10d8 	movw	r0, #2520	; 0x9d8
    1b52:	f2c2 0000 	movt	r0, #8192	; 0x2000
    1b56:	f850 2023 	ldr.w	r2, [r0, r3, lsl #2]
    1b5a:	f248 006c 	movw	r0, #32876	; 0x806c
    1b5e:	f2c0 0000 	movt	r0, #0
    1b62:	f850 0023 	ldr.w	r0, [r0, r3, lsl #2]
    1b66:	f640 11fc 	movw	r1, #2556	; 0x9fc
    1b6a:	f2c2 0100 	movt	r1, #8192	; 0x2000
    1b6e:	f851 1023 	ldr.w	r1, [r1, r3, lsl #2]
    1b72:	4790      	blx	r2
    1b74:	b002      	add	sp, #8
    1b76:	bd80      	pop	{r7, pc}

00001b78 <FLEXCOMM7_DriverIRQHandler>:
    1b78:	b580      	push	{r7, lr}
    1b7a:	466f      	mov	r7, sp
    1b7c:	b082      	sub	sp, #8
    1b7e:	f248 0000 	movw	r0, #32768	; 0x8000
    1b82:	f2c4 0009 	movt	r0, #16393	; 0x4009
    1b86:	f7ff fdc7 	bl	1718 <FLEXCOMM_GetInstance>
    1b8a:	4601      	mov	r1, r0
    1b8c:	4608      	mov	r0, r1
    1b8e:	9001      	str	r0, [sp, #4]
    1b90:	f640 10d8 	movw	r0, #2520	; 0x9d8
    1b94:	f2c2 0000 	movt	r0, #8192	; 0x2000
    1b98:	f850 0021 	ldr.w	r0, [r0, r1, lsl #2]
    1b9c:	b108      	cbz	r0, 1ba2 <FLEXCOMM7_DriverIRQHandler+0x2a>
    1b9e:	e7ff      	b.n	1ba0 <FLEXCOMM7_DriverIRQHandler+0x28>
    1ba0:	e00f      	b.n	1bc2 <FLEXCOMM7_DriverIRQHandler+0x4a>
    1ba2:	f248 0090 	movw	r0, #32912	; 0x8090
    1ba6:	f2c0 0000 	movt	r0, #0
    1baa:	f248 12cd 	movw	r2, #33229	; 0x81cd
    1bae:	f2c0 0200 	movt	r2, #0
    1bb2:	f248 1304 	movw	r3, #33028	; 0x8104
    1bb6:	f2c0 0300 	movt	r3, #0
    1bba:	f240 110f 	movw	r1, #271	; 0x10f
    1bbe:	f003 f949 	bl	4e54 <__assert_func>
    1bc2:	9b01      	ldr	r3, [sp, #4]
    1bc4:	f640 10d8 	movw	r0, #2520	; 0x9d8
    1bc8:	f2c2 0000 	movt	r0, #8192	; 0x2000
    1bcc:	f850 2023 	ldr.w	r2, [r0, r3, lsl #2]
    1bd0:	f248 006c 	movw	r0, #32876	; 0x806c
    1bd4:	f2c0 0000 	movt	r0, #0
    1bd8:	f850 0023 	ldr.w	r0, [r0, r3, lsl #2]
    1bdc:	f640 11fc 	movw	r1, #2556	; 0x9fc
    1be0:	f2c2 0100 	movt	r1, #8192	; 0x2000
    1be4:	f851 1023 	ldr.w	r1, [r1, r3, lsl #2]
    1be8:	4790      	blx	r2
    1bea:	b002      	add	sp, #8
    1bec:	bd80      	pop	{r7, pc}

00001bee <FLEXCOMM8_DriverIRQHandler>:
    1bee:	b580      	push	{r7, lr}
    1bf0:	466f      	mov	r7, sp
    1bf2:	b082      	sub	sp, #8
    1bf4:	f24f 0000 	movw	r0, #61440	; 0xf000
    1bf8:	f2c4 0009 	movt	r0, #16393	; 0x4009
    1bfc:	f7ff fd8c 	bl	1718 <FLEXCOMM_GetInstance>
    1c00:	4601      	mov	r1, r0
    1c02:	4608      	mov	r0, r1
    1c04:	9001      	str	r0, [sp, #4]
    1c06:	f640 10d8 	movw	r0, #2520	; 0x9d8
    1c0a:	f2c2 0000 	movt	r0, #8192	; 0x2000
    1c0e:	f850 0021 	ldr.w	r0, [r0, r1, lsl #2]
    1c12:	b108      	cbz	r0, 1c18 <FLEXCOMM8_DriverIRQHandler+0x2a>
    1c14:	e7ff      	b.n	1c16 <FLEXCOMM8_DriverIRQHandler+0x28>
    1c16:	e00f      	b.n	1c38 <FLEXCOMM8_DriverIRQHandler+0x4a>
    1c18:	f248 0090 	movw	r0, #32912	; 0x8090
    1c1c:	f2c0 0000 	movt	r0, #0
    1c20:	f248 12e8 	movw	r2, #33256	; 0x81e8
    1c24:	f2c0 0200 	movt	r2, #0
    1c28:	f248 1304 	movw	r3, #33028	; 0x8104
    1c2c:	f2c0 0300 	movt	r3, #0
    1c30:	f240 111d 	movw	r1, #285	; 0x11d
    1c34:	f003 f90e 	bl	4e54 <__assert_func>
    1c38:	9b01      	ldr	r3, [sp, #4]
    1c3a:	f640 10d8 	movw	r0, #2520	; 0x9d8
    1c3e:	f2c2 0000 	movt	r0, #8192	; 0x2000
    1c42:	f850 2023 	ldr.w	r2, [r0, r3, lsl #2]
    1c46:	f248 006c 	movw	r0, #32876	; 0x806c
    1c4a:	f2c0 0000 	movt	r0, #0
    1c4e:	f850 0023 	ldr.w	r0, [r0, r3, lsl #2]
    1c52:	f640 11fc 	movw	r1, #2556	; 0x9fc
    1c56:	f2c2 0100 	movt	r1, #8192	; 0x2000
    1c5a:	f851 1023 	ldr.w	r1, [r1, r3, lsl #2]
    1c5e:	4790      	blx	r2
    1c60:	b002      	add	sp, #8
    1c62:	bd80      	pop	{r7, pc}

00001c64 <FLEXCOMM_PeripheralIsPresent>:
    1c64:	b083      	sub	sp, #12
    1c66:	9001      	str	r0, [sp, #4]
    1c68:	4608      	mov	r0, r1
    1c6a:	9002      	str	r0, [sp, #8]
    1c6c:	b919      	cbnz	r1, 1c76 <FLEXCOMM_PeripheralIsPresent+0x12>
    1c6e:	e7ff      	b.n	1c70 <FLEXCOMM_PeripheralIsPresent+0xc>
    1c70:	2001      	movs	r0, #1
    1c72:	9000      	str	r0, [sp, #0]
    1c74:	e01f      	b.n	1cb6 <FLEXCOMM_PeripheralIsPresent+0x52>
    1c76:	9802      	ldr	r0, [sp, #8]
    1c78:	b2c0      	uxtb	r0, r0
    1c7a:	2804      	cmp	r0, #4
    1c7c:	dc0c      	bgt.n	1c98 <FLEXCOMM_PeripheralIsPresent+0x34>
    1c7e:	e7ff      	b.n	1c80 <FLEXCOMM_PeripheralIsPresent+0x1c>
    1c80:	9a02      	ldr	r2, [sp, #8]
    1c82:	9801      	ldr	r0, [sp, #4]
    1c84:	f8d0 0ff8 	ldr.w	r0, [r0, #4088]	; 0xff8
    1c88:	2103      	movs	r1, #3
    1c8a:	fa51 f182 	uxtab	r1, r1, r2
    1c8e:	40c8      	lsrs	r0, r1
    1c90:	f000 0001 	and.w	r0, r0, #1
    1c94:	9000      	str	r0, [sp, #0]
    1c96:	e00e      	b.n	1cb6 <FLEXCOMM_PeripheralIsPresent+0x52>
    1c98:	9802      	ldr	r0, [sp, #8]
    1c9a:	b2c0      	uxtb	r0, r0
    1c9c:	2805      	cmp	r0, #5
    1c9e:	d107      	bne.n	1cb0 <FLEXCOMM_PeripheralIsPresent+0x4c>
    1ca0:	e7ff      	b.n	1ca2 <FLEXCOMM_PeripheralIsPresent+0x3e>
    1ca2:	9801      	ldr	r0, [sp, #4]
    1ca4:	f8d0 0ff8 	ldr.w	r0, [r0, #4088]	; 0xff8
    1ca8:	b2c0      	uxtb	r0, r0
    1caa:	09c0      	lsrs	r0, r0, #7
    1cac:	9000      	str	r0, [sp, #0]
    1cae:	e002      	b.n	1cb6 <FLEXCOMM_PeripheralIsPresent+0x52>
    1cb0:	2000      	movs	r0, #0
    1cb2:	9000      	str	r0, [sp, #0]
    1cb4:	e7ff      	b.n	1cb6 <FLEXCOMM_PeripheralIsPresent+0x52>
    1cb6:	9800      	ldr	r0, [sp, #0]
    1cb8:	f000 0001 	and.w	r0, r0, #1
    1cbc:	b003      	add	sp, #12
    1cbe:	4770      	bx	lr

00001cc0 <USART_Init>:
    1cc0:	b5d0      	push	{r4, r6, r7, lr}
    1cc2:	af02      	add	r7, sp, #8
    1cc4:	b086      	sub	sp, #24
    1cc6:	9203      	str	r2, [sp, #12]
    1cc8:	9104      	str	r1, [sp, #16]
    1cca:	9005      	str	r0, [sp, #20]
    1ccc:	b138      	cbz	r0, 1cde <USART_Init+0x1e>
    1cce:	e7ff      	b.n	1cd0 <USART_Init+0x10>
    1cd0:	9804      	ldr	r0, [sp, #16]
    1cd2:	b120      	cbz	r0, 1cde <USART_Init+0x1e>
    1cd4:	e7ff      	b.n	1cd6 <USART_Init+0x16>
    1cd6:	9803      	ldr	r0, [sp, #12]
    1cd8:	b108      	cbz	r0, 1cde <USART_Init+0x1e>
    1cda:	e7ff      	b.n	1cdc <USART_Init+0x1c>
    1cdc:	e00e      	b.n	1cfc <USART_Init+0x3c>
    1cde:	f248 203c 	movw	r0, #33340	; 0x823c
    1ce2:	f2c0 0000 	movt	r0, #0
    1ce6:	f248 321a 	movw	r2, #33562	; 0x831a
    1cea:	f2c0 0200 	movt	r2, #0
    1cee:	f248 3325 	movw	r3, #33573	; 0x8325
    1cf2:	f2c0 0300 	movt	r3, #0
    1cf6:	21c6      	movs	r1, #198	; 0xc6
    1cf8:	f003 f8ac 	bl	4e54 <__assert_func>
    1cfc:	9805      	ldr	r0, [sp, #20]
    1cfe:	b130      	cbz	r0, 1d0e <USART_Init+0x4e>
    1d00:	e7ff      	b.n	1d02 <USART_Init+0x42>
    1d02:	9804      	ldr	r0, [sp, #16]
    1d04:	b118      	cbz	r0, 1d0e <USART_Init+0x4e>
    1d06:	e7ff      	b.n	1d08 <USART_Init+0x48>
    1d08:	9803      	ldr	r0, [sp, #12]
    1d0a:	b918      	cbnz	r0, 1d14 <USART_Init+0x54>
    1d0c:	e7ff      	b.n	1d0e <USART_Init+0x4e>
    1d0e:	2004      	movs	r0, #4
    1d10:	9002      	str	r0, [sp, #8]
    1d12:	e0b6      	b.n	1e82 <USART_Init+0x1c2>
    1d14:	9805      	ldr	r0, [sp, #20]
    1d16:	2101      	movs	r1, #1
    1d18:	f7ff fd32 	bl	1780 <FLEXCOMM_Init>
    1d1c:	4601      	mov	r1, r0
    1d1e:	9101      	str	r1, [sp, #4]
    1d20:	b118      	cbz	r0, 1d2a <USART_Init+0x6a>
    1d22:	e7ff      	b.n	1d24 <USART_Init+0x64>
    1d24:	9801      	ldr	r0, [sp, #4]
    1d26:	9002      	str	r0, [sp, #8]
    1d28:	e0ab      	b.n	1e82 <USART_Init+0x1c2>
    1d2a:	9804      	ldr	r0, [sp, #16]
    1d2c:	7a40      	ldrb	r0, [r0, #9]
    1d2e:	07c0      	lsls	r0, r0, #31
    1d30:	b1f0      	cbz	r0, 1d70 <USART_Init+0xb0>
    1d32:	e7ff      	b.n	1d34 <USART_Init+0x74>
    1d34:	9905      	ldr	r1, [sp, #20]
    1d36:	9804      	ldr	r0, [sp, #16]
    1d38:	f8d1 2e00 	ldr.w	r2, [r1, #3584]	; 0xe00
    1d3c:	f042 1201 	orr.w	r2, r2, #65537	; 0x10001
    1d40:	f8c1 2e00 	str.w	r2, [r1, #3584]	; 0xe00
    1d44:	f8d1 2e08 	ldr.w	r2, [r1, #3592]	; 0xe08
    1d48:	f422 6270 	bic.w	r2, r2, #3840	; 0xf00
    1d4c:	f8c1 2e08 	str.w	r2, [r1, #3592]	; 0xe08
    1d50:	7b40      	ldrb	r0, [r0, #13]
    1d52:	f000 020f 	and.w	r2, r0, #15
    1d56:	f8d1 0e08 	ldr.w	r0, [r1, #3592]	; 0xe08
    1d5a:	ea40 2002 	orr.w	r0, r0, r2, lsl #8
    1d5e:	f8c1 0e08 	str.w	r0, [r1, #3592]	; 0xe08
    1d62:	f8d1 0e08 	ldr.w	r0, [r1, #3592]	; 0xe08
    1d66:	f040 0001 	orr.w	r0, r0, #1
    1d6a:	f8c1 0e08 	str.w	r0, [r1, #3592]	; 0xe08
    1d6e:	e7ff      	b.n	1d70 <USART_Init+0xb0>
    1d70:	9804      	ldr	r0, [sp, #16]
    1d72:	7a00      	ldrb	r0, [r0, #8]
    1d74:	07c0      	lsls	r0, r0, #31
    1d76:	b1f0      	cbz	r0, 1db6 <USART_Init+0xf6>
    1d78:	e7ff      	b.n	1d7a <USART_Init+0xba>
    1d7a:	9905      	ldr	r1, [sp, #20]
    1d7c:	9804      	ldr	r0, [sp, #16]
    1d7e:	f8d1 2e00 	ldr.w	r2, [r1, #3584]	; 0xe00
    1d82:	f042 1202 	orr.w	r2, r2, #131074	; 0x20002
    1d86:	f8c1 2e00 	str.w	r2, [r1, #3584]	; 0xe00
    1d8a:	f8d1 2e08 	ldr.w	r2, [r1, #3592]	; 0xe08
    1d8e:	f422 2270 	bic.w	r2, r2, #983040	; 0xf0000
    1d92:	f8c1 2e08 	str.w	r2, [r1, #3592]	; 0xe08
    1d96:	7b80      	ldrb	r0, [r0, #14]
    1d98:	f000 020f 	and.w	r2, r0, #15
    1d9c:	f8d1 0e08 	ldr.w	r0, [r1, #3592]	; 0xe08
    1da0:	ea40 4002 	orr.w	r0, r0, r2, lsl #16
    1da4:	f8c1 0e08 	str.w	r0, [r1, #3592]	; 0xe08
    1da8:	f8d1 0e08 	ldr.w	r0, [r1, #3592]	; 0xe08
    1dac:	f040 0002 	orr.w	r0, r0, #2
    1db0:	f8c1 0e08 	str.w	r0, [r1, #3592]	; 0xe08
    1db4:	e7ff      	b.n	1db6 <USART_Init+0xf6>
    1db6:	9804      	ldr	r0, [sp, #16]
    1db8:	9a05      	ldr	r2, [sp, #20]
    1dba:	f890 e004 	ldrb.w	lr, [r0, #4]
    1dbe:	7944      	ldrb	r4, [r0, #5]
    1dc0:	f890 c006 	ldrb.w	ip, [r0, #6]
    1dc4:	79c3      	ldrb	r3, [r0, #7]
    1dc6:	2140      	movs	r1, #64	; 0x40
    1dc8:	ea01 1184 	and.w	r1, r1, r4, lsl #6
    1dcc:	f36e 1105 	bfi	r1, lr, #4, #2
    1dd0:	f00c 0c03 	and.w	ip, ip, #3
    1dd4:	ea41 018c 	orr.w	r1, r1, ip, lsl #2
    1dd8:	f003 0301 	and.w	r3, r3, #1
    1ddc:	ea41 31c3 	orr.w	r1, r1, r3, lsl #15
    1de0:	7bc3      	ldrb	r3, [r0, #15]
    1de2:	f003 0c02 	and.w	ip, r3, #2
    1de6:	ea41 218c 	orr.w	r1, r1, ip, lsl #10
    1dea:	f003 0301 	and.w	r3, r3, #1
    1dee:	ea41 3183 	orr.w	r1, r1, r3, lsl #14
    1df2:	7c03      	ldrb	r3, [r0, #16]
    1df4:	f003 0301 	and.w	r3, r3, #1
    1df8:	ea41 3103 	orr.w	r1, r1, r3, lsl #12
    1dfc:	7ac3      	ldrb	r3, [r0, #11]
    1dfe:	f003 0301 	and.w	r3, r3, #1
    1e02:	ea41 11c3 	orr.w	r1, r1, r3, lsl #7
    1e06:	7b03      	ldrb	r3, [r0, #12]
    1e08:	f003 0301 	and.w	r3, r3, #1
    1e0c:	ea41 2143 	orr.w	r1, r1, r3, lsl #9
    1e10:	f041 0101 	orr.w	r1, r1, #1
    1e14:	6011      	str	r1, [r2, #0]
    1e16:	7ac0      	ldrb	r0, [r0, #11]
    1e18:	07c0      	lsls	r0, r0, #31
    1e1a:	b1d0      	cbz	r0, 1e52 <USART_Init+0x192>
    1e1c:	e7ff      	b.n	1e1e <USART_Init+0x15e>
    1e1e:	9804      	ldr	r0, [sp, #16]
    1e20:	6801      	ldr	r1, [r0, #0]
    1e22:	f44f 5016 	mov.w	r0, #9600	; 0x2580
    1e26:	fbb0 f0f1 	udiv	r0, r0, r1
    1e2a:	4348      	muls	r0, r1
    1e2c:	f5c0 5016 	rsb	r0, r0, #9600	; 0x2580
    1e30:	b950      	cbnz	r0, 1e48 <USART_Init+0x188>
    1e32:	e7ff      	b.n	1e34 <USART_Init+0x174>
    1e34:	9905      	ldr	r1, [sp, #20]
    1e36:	9804      	ldr	r0, [sp, #16]
    1e38:	6802      	ldr	r2, [r0, #0]
    1e3a:	f44f 5016 	mov.w	r0, #9600	; 0x2580
    1e3e:	fbb0 f0f2 	udiv	r0, r0, r2
    1e42:	3801      	subs	r0, #1
    1e44:	6208      	str	r0, [r1, #32]
    1e46:	e003      	b.n	1e50 <USART_Init+0x190>
    1e48:	f241 6051 	movw	r0, #5713	; 0x1651
    1e4c:	9002      	str	r0, [sp, #8]
    1e4e:	e018      	b.n	1e82 <USART_Init+0x1c2>
    1e50:	e00d      	b.n	1e6e <USART_Init+0x1ae>
    1e52:	9a03      	ldr	r2, [sp, #12]
    1e54:	9805      	ldr	r0, [sp, #20]
    1e56:	9904      	ldr	r1, [sp, #16]
    1e58:	6809      	ldr	r1, [r1, #0]
    1e5a:	f000 f815 	bl	1e88 <USART_SetBaudRate>
    1e5e:	4601      	mov	r1, r0
    1e60:	9100      	str	r1, [sp, #0]
    1e62:	b118      	cbz	r0, 1e6c <USART_Init+0x1ac>
    1e64:	e7ff      	b.n	1e66 <USART_Init+0x1a6>
    1e66:	9800      	ldr	r0, [sp, #0]
    1e68:	9002      	str	r0, [sp, #8]
    1e6a:	e00a      	b.n	1e82 <USART_Init+0x1c2>
    1e6c:	e7ff      	b.n	1e6e <USART_Init+0x1ae>
    1e6e:	9805      	ldr	r0, [sp, #20]
    1e70:	9904      	ldr	r1, [sp, #16]
    1e72:	7a89      	ldrb	r1, [r1, #10]
    1e74:	f001 0101 	and.w	r1, r1, #1
    1e78:	f000 f900 	bl	207c <USART_EnableContinuousSCLK>
    1e7c:	2000      	movs	r0, #0
    1e7e:	9002      	str	r0, [sp, #8]
    1e80:	e7ff      	b.n	1e82 <USART_Init+0x1c2>
    1e82:	9802      	ldr	r0, [sp, #8]
    1e84:	b006      	add	sp, #24
    1e86:	bdd0      	pop	{r4, r6, r7, pc}

00001e88 <USART_SetBaudRate>:
    1e88:	b580      	push	{r7, lr}
    1e8a:	466f      	mov	r7, sp
    1e8c:	b09a      	sub	sp, #104	; 0x68
    1e8e:	9217      	str	r2, [sp, #92]	; 0x5c
    1e90:	9118      	str	r1, [sp, #96]	; 0x60
    1e92:	9019      	str	r0, [sp, #100]	; 0x64
    1e94:	b138      	cbz	r0, 1ea6 <USART_SetBaudRate+0x1e>
    1e96:	e7ff      	b.n	1e98 <USART_SetBaudRate+0x10>
    1e98:	9818      	ldr	r0, [sp, #96]	; 0x60
    1e9a:	b120      	cbz	r0, 1ea6 <USART_SetBaudRate+0x1e>
    1e9c:	e7ff      	b.n	1e9e <USART_SetBaudRate+0x16>
    1e9e:	9817      	ldr	r0, [sp, #92]	; 0x5c
    1ea0:	b108      	cbz	r0, 1ea6 <USART_SetBaudRate+0x1e>
    1ea2:	e7ff      	b.n	1ea4 <USART_SetBaudRate+0x1c>
    1ea4:	e00f      	b.n	1ec6 <USART_SetBaudRate+0x3e>
    1ea6:	f248 203c 	movw	r0, #33340	; 0x823c
    1eaa:	f2c0 0000 	movt	r0, #0
    1eae:	f248 3295 	movw	r2, #33685	; 0x8395
    1eb2:	f2c0 0200 	movt	r2, #0
    1eb6:	f248 33a7 	movw	r3, #33703	; 0x83a7
    1eba:	f2c0 0300 	movt	r3, #0
    1ebe:	f240 11af 	movw	r1, #431	; 0x1af
    1ec2:	f002 ffc7 	bl	4e54 <__assert_func>
    1ec6:	9819      	ldr	r0, [sp, #100]	; 0x64
    1ec8:	b130      	cbz	r0, 1ed8 <USART_SetBaudRate+0x50>
    1eca:	e7ff      	b.n	1ecc <USART_SetBaudRate+0x44>
    1ecc:	9818      	ldr	r0, [sp, #96]	; 0x60
    1ece:	b118      	cbz	r0, 1ed8 <USART_SetBaudRate+0x50>
    1ed0:	e7ff      	b.n	1ed2 <USART_SetBaudRate+0x4a>
    1ed2:	9817      	ldr	r0, [sp, #92]	; 0x5c
    1ed4:	b918      	cbnz	r0, 1ede <USART_SetBaudRate+0x56>
    1ed6:	e7ff      	b.n	1ed8 <USART_SetBaudRate+0x50>
    1ed8:	2004      	movs	r0, #4
    1eda:	9016      	str	r0, [sp, #88]	; 0x58
    1edc:	e0cb      	b.n	2076 <USART_SetBaudRate+0x1ee>
    1ede:	9819      	ldr	r0, [sp, #100]	; 0x64
    1ee0:	6800      	ldr	r0, [r0, #0]
    1ee2:	0500      	lsls	r0, r0, #20
    1ee4:	2800      	cmp	r0, #0
    1ee6:	d50f      	bpl.n	1f08 <USART_SetBaudRate+0x80>
    1ee8:	e7ff      	b.n	1eea <USART_SetBaudRate+0x62>
    1eea:	9819      	ldr	r0, [sp, #100]	; 0x64
    1eec:	6800      	ldr	r0, [r0, #0]
    1eee:	0440      	lsls	r0, r0, #17
    1ef0:	2800      	cmp	r0, #0
    1ef2:	d508      	bpl.n	1f06 <USART_SetBaudRate+0x7e>
    1ef4:	e7ff      	b.n	1ef6 <USART_SetBaudRate+0x6e>
    1ef6:	9919      	ldr	r1, [sp, #100]	; 0x64
    1ef8:	9817      	ldr	r0, [sp, #92]	; 0x5c
    1efa:	9a18      	ldr	r2, [sp, #96]	; 0x60
    1efc:	fbb0 f0f2 	udiv	r0, r0, r2
    1f00:	3801      	subs	r0, #1
    1f02:	6208      	str	r0, [r1, #32]
    1f04:	e7ff      	b.n	1f06 <USART_SetBaudRate+0x7e>
    1f06:	e0b3      	b.n	2070 <USART_SetBaudRate+0x1e8>
    1f08:	9818      	ldr	r0, [sp, #96]	; 0x60
    1f0a:	f248 511f 	movw	r1, #34079	; 0x851f
    1f0e:	f2c5 11eb 	movt	r1, #20971	; 0x51eb
    1f12:	fba0 1001 	umull	r1, r0, r0, r1
    1f16:	0940      	lsrs	r0, r0, #5
    1f18:	eb00 0240 	add.w	r2, r0, r0, lsl #1
    1f1c:	f04f 30ff 	mov.w	r0, #4294967295	; 0xffffffff
    1f20:	210f      	movs	r1, #15
    1f22:	9211      	str	r2, [sp, #68]	; 0x44
    1f24:	460a      	mov	r2, r1
    1f26:	9212      	str	r2, [sp, #72]	; 0x48
    1f28:	4602      	mov	r2, r0
    1f2a:	9213      	str	r2, [sp, #76]	; 0x4c
    1f2c:	9114      	str	r1, [sp, #80]	; 0x50
    1f2e:	9015      	str	r0, [sp, #84]	; 0x54
    1f30:	e7ff      	b.n	1f32 <USART_SetBaudRate+0xaa>
    1f32:	9812      	ldr	r0, [sp, #72]	; 0x48
    1f34:	9913      	ldr	r1, [sp, #76]	; 0x4c
    1f36:	9a14      	ldr	r2, [sp, #80]	; 0x50
    1f38:	9b15      	ldr	r3, [sp, #84]	; 0x54
    1f3a:	930d      	str	r3, [sp, #52]	; 0x34
    1f3c:	920e      	str	r2, [sp, #56]	; 0x38
    1f3e:	910f      	str	r1, [sp, #60]	; 0x3c
    1f40:	9010      	str	r0, [sp, #64]	; 0x40
    1f42:	2804      	cmp	r0, #4
    1f44:	d364      	bcc.n	2010 <USART_SetBaudRate+0x188>
    1f46:	e7ff      	b.n	1f48 <USART_SetBaudRate+0xc0>
    1f48:	9810      	ldr	r0, [sp, #64]	; 0x40
    1f4a:	2808      	cmp	r0, #8
    1f4c:	d806      	bhi.n	1f5c <USART_SetBaudRate+0xd4>
    1f4e:	e7ff      	b.n	1f50 <USART_SetBaudRate+0xc8>
    1f50:	980d      	ldr	r0, [sp, #52]	; 0x34
    1f52:	9911      	ldr	r1, [sp, #68]	; 0x44
    1f54:	4288      	cmp	r0, r1
    1f56:	d801      	bhi.n	1f5c <USART_SetBaudRate+0xd4>
    1f58:	e7ff      	b.n	1f5a <USART_SetBaudRate+0xd2>
    1f5a:	e059      	b.n	2010 <USART_SetBaudRate+0x188>
    1f5c:	9a18      	ldr	r2, [sp, #96]	; 0x60
    1f5e:	9910      	ldr	r1, [sp, #64]	; 0x40
    1f60:	9817      	ldr	r0, [sp, #92]	; 0x5c
    1f62:	eb00 0080 	add.w	r0, r0, r0, lsl #2
    1f66:	0040      	lsls	r0, r0, #1
    1f68:	3101      	adds	r1, #1
    1f6a:	4351      	muls	r1, r2
    1f6c:	fbb0 f0f1 	udiv	r0, r0, r1
    1f70:	3805      	subs	r0, #5
    1f72:	f64c 41cd 	movw	r1, #52429	; 0xcccd
    1f76:	f6cc 41cc 	movt	r1, #52428	; 0xcccc
    1f7a:	fba0 1001 	umull	r1, r0, r0, r1
    1f7e:	08c0      	lsrs	r0, r0, #3
    1f80:	4601      	mov	r1, r0
    1f82:	910c      	str	r1, [sp, #48]	; 0x30
    1f84:	f5b0 3f80 	cmp.w	r0, #65536	; 0x10000
    1f88:	d307      	bcc.n	1f9a <USART_SetBaudRate+0x112>
    1f8a:	e7ff      	b.n	1f8c <USART_SetBaudRate+0x104>
    1f8c:	980d      	ldr	r0, [sp, #52]	; 0x34
    1f8e:	990e      	ldr	r1, [sp, #56]	; 0x38
    1f90:	9a0f      	ldr	r2, [sp, #60]	; 0x3c
    1f92:	9209      	str	r2, [sp, #36]	; 0x24
    1f94:	910a      	str	r1, [sp, #40]	; 0x28
    1f96:	900b      	str	r0, [sp, #44]	; 0x2c
    1f98:	e030      	b.n	1ffc <USART_SetBaudRate+0x174>
    1f9a:	9818      	ldr	r0, [sp, #96]	; 0x60
    1f9c:	9917      	ldr	r1, [sp, #92]	; 0x5c
    1f9e:	9b0c      	ldr	r3, [sp, #48]	; 0x30
    1fa0:	9a10      	ldr	r2, [sp, #64]	; 0x40
    1fa2:	3201      	adds	r2, #1
    1fa4:	3301      	adds	r3, #1
    1fa6:	435a      	muls	r2, r3
    1fa8:	fbb1 f1f2 	udiv	r1, r1, r2
    1fac:	460a      	mov	r2, r1
    1fae:	9208      	str	r2, [sp, #32]
    1fb0:	4288      	cmp	r0, r1
    1fb2:	d205      	bcs.n	1fc0 <USART_SetBaudRate+0x138>
    1fb4:	e7ff      	b.n	1fb6 <USART_SetBaudRate+0x12e>
    1fb6:	9808      	ldr	r0, [sp, #32]
    1fb8:	9918      	ldr	r1, [sp, #96]	; 0x60
    1fba:	1a40      	subs	r0, r0, r1
    1fbc:	9007      	str	r0, [sp, #28]
    1fbe:	e004      	b.n	1fca <USART_SetBaudRate+0x142>
    1fc0:	9818      	ldr	r0, [sp, #96]	; 0x60
    1fc2:	9908      	ldr	r1, [sp, #32]
    1fc4:	1a40      	subs	r0, r0, r1
    1fc6:	9007      	str	r0, [sp, #28]
    1fc8:	e7ff      	b.n	1fca <USART_SetBaudRate+0x142>
    1fca:	980d      	ldr	r0, [sp, #52]	; 0x34
    1fcc:	990e      	ldr	r1, [sp, #56]	; 0x38
    1fce:	9a0f      	ldr	r2, [sp, #60]	; 0x3c
    1fd0:	9b07      	ldr	r3, [sp, #28]
    1fd2:	9303      	str	r3, [sp, #12]
    1fd4:	4283      	cmp	r3, r0
    1fd6:	9204      	str	r2, [sp, #16]
    1fd8:	9105      	str	r1, [sp, #20]
    1fda:	9006      	str	r0, [sp, #24]
    1fdc:	d207      	bcs.n	1fee <USART_SetBaudRate+0x166>
    1fde:	e7ff      	b.n	1fe0 <USART_SetBaudRate+0x158>
    1fe0:	9803      	ldr	r0, [sp, #12]
    1fe2:	9910      	ldr	r1, [sp, #64]	; 0x40
    1fe4:	9a0c      	ldr	r2, [sp, #48]	; 0x30
    1fe6:	9204      	str	r2, [sp, #16]
    1fe8:	9105      	str	r1, [sp, #20]
    1fea:	9006      	str	r0, [sp, #24]
    1fec:	e7ff      	b.n	1fee <USART_SetBaudRate+0x166>
    1fee:	9a04      	ldr	r2, [sp, #16]
    1ff0:	9905      	ldr	r1, [sp, #20]
    1ff2:	9806      	ldr	r0, [sp, #24]
    1ff4:	9209      	str	r2, [sp, #36]	; 0x24
    1ff6:	910a      	str	r1, [sp, #40]	; 0x28
    1ff8:	900b      	str	r0, [sp, #44]	; 0x2c
    1ffa:	e7ff      	b.n	1ffc <USART_SetBaudRate+0x174>
    1ffc:	9b10      	ldr	r3, [sp, #64]	; 0x40
    1ffe:	9a09      	ldr	r2, [sp, #36]	; 0x24
    2000:	990a      	ldr	r1, [sp, #40]	; 0x28
    2002:	980b      	ldr	r0, [sp, #44]	; 0x2c
    2004:	3b01      	subs	r3, #1
    2006:	9312      	str	r3, [sp, #72]	; 0x48
    2008:	9213      	str	r2, [sp, #76]	; 0x4c
    200a:	9114      	str	r1, [sp, #80]	; 0x50
    200c:	9015      	str	r0, [sp, #84]	; 0x54
    200e:	e790      	b.n	1f32 <USART_SetBaudRate+0xaa>
    2010:	9818      	ldr	r0, [sp, #96]	; 0x60
    2012:	9917      	ldr	r1, [sp, #92]	; 0x5c
    2014:	9b0f      	ldr	r3, [sp, #60]	; 0x3c
    2016:	9a0e      	ldr	r2, [sp, #56]	; 0x38
    2018:	3201      	adds	r2, #1
    201a:	3301      	adds	r3, #1
    201c:	435a      	muls	r2, r3
    201e:	fbb1 f1f2 	udiv	r1, r1, r2
    2022:	460a      	mov	r2, r1
    2024:	9202      	str	r2, [sp, #8]
    2026:	4288      	cmp	r0, r1
    2028:	d205      	bcs.n	2036 <USART_SetBaudRate+0x1ae>
    202a:	e7ff      	b.n	202c <USART_SetBaudRate+0x1a4>
    202c:	9802      	ldr	r0, [sp, #8]
    202e:	9918      	ldr	r1, [sp, #96]	; 0x60
    2030:	1a40      	subs	r0, r0, r1
    2032:	9001      	str	r0, [sp, #4]
    2034:	e004      	b.n	2040 <USART_SetBaudRate+0x1b8>
    2036:	9818      	ldr	r0, [sp, #96]	; 0x60
    2038:	9902      	ldr	r1, [sp, #8]
    203a:	1a40      	subs	r0, r0, r1
    203c:	9001      	str	r0, [sp, #4]
    203e:	e7ff      	b.n	2040 <USART_SetBaudRate+0x1b8>
    2040:	9911      	ldr	r1, [sp, #68]	; 0x44
    2042:	9801      	ldr	r0, [sp, #4]
    2044:	4288      	cmp	r0, r1
    2046:	d904      	bls.n	2052 <USART_SetBaudRate+0x1ca>
    2048:	e7ff      	b.n	204a <USART_SetBaudRate+0x1c2>
    204a:	f241 6051 	movw	r0, #5713	; 0x1651
    204e:	9016      	str	r0, [sp, #88]	; 0x58
    2050:	e011      	b.n	2076 <USART_SetBaudRate+0x1ee>
    2052:	980f      	ldr	r0, [sp, #60]	; 0x3c
    2054:	f5b0 3f80 	cmp.w	r0, #65536	; 0x10000
    2058:	d304      	bcc.n	2064 <USART_SetBaudRate+0x1dc>
    205a:	e7ff      	b.n	205c <USART_SetBaudRate+0x1d4>
    205c:	f241 6051 	movw	r0, #5713	; 0x1651
    2060:	9016      	str	r0, [sp, #88]	; 0x58
    2062:	e008      	b.n	2076 <USART_SetBaudRate+0x1ee>
    2064:	980f      	ldr	r0, [sp, #60]	; 0x3c
    2066:	9919      	ldr	r1, [sp, #100]	; 0x64
    2068:	9a0e      	ldr	r2, [sp, #56]	; 0x38
    206a:	628a      	str	r2, [r1, #40]	; 0x28
    206c:	6208      	str	r0, [r1, #32]
    206e:	e7ff      	b.n	2070 <USART_SetBaudRate+0x1e8>
    2070:	2000      	movs	r0, #0
    2072:	9016      	str	r0, [sp, #88]	; 0x58
    2074:	e7ff      	b.n	2076 <USART_SetBaudRate+0x1ee>
    2076:	9816      	ldr	r0, [sp, #88]	; 0x58
    2078:	b01a      	add	sp, #104	; 0x68
    207a:	bd80      	pop	{r7, pc}

0000207c <USART_EnableContinuousSCLK>:
    207c:	b081      	sub	sp, #4
    207e:	9000      	str	r0, [sp, #0]
    2080:	b131      	cbz	r1, 2090 <USART_EnableContinuousSCLK+0x14>
    2082:	e7ff      	b.n	2084 <USART_EnableContinuousSCLK+0x8>
    2084:	9900      	ldr	r1, [sp, #0]
    2086:	6848      	ldr	r0, [r1, #4]
    2088:	f440 7080 	orr.w	r0, r0, #256	; 0x100
    208c:	6048      	str	r0, [r1, #4]
    208e:	e005      	b.n	209c <USART_EnableContinuousSCLK+0x20>
    2090:	9900      	ldr	r1, [sp, #0]
    2092:	6848      	ldr	r0, [r1, #4]
    2094:	f420 7080 	bic.w	r0, r0, #256	; 0x100
    2098:	6048      	str	r0, [r1, #4]
    209a:	e7ff      	b.n	209c <USART_EnableContinuousSCLK+0x20>
    209c:	b001      	add	sp, #4
    209e:	4770      	bx	lr

000020a0 <HASHCRYPT_SHA>:
    20a0:	b580      	push	{r7, lr}
    20a2:	466f      	mov	r7, sp
    20a4:	b09e      	sub	sp, #120	; 0x78
    20a6:	9302      	str	r3, [sp, #8]
    20a8:	9203      	str	r2, [sp, #12]
    20aa:	460a      	mov	r2, r1
    20ac:	9004      	str	r0, [sp, #16]
    20ae:	68f9      	ldr	r1, [r7, #12]
    20b0:	9105      	str	r1, [sp, #20]
    20b2:	68b9      	ldr	r1, [r7, #8]
    20b4:	9106      	str	r1, [sp, #24]
    20b6:	a908      	add	r1, sp, #32
    20b8:	f000 f81f 	bl	20fa <HASHCRYPT_SHA_Init>
    20bc:	4601      	mov	r1, r0
    20be:	9107      	str	r1, [sp, #28]
    20c0:	b118      	cbz	r0, 20ca <HASHCRYPT_SHA+0x2a>
    20c2:	e7ff      	b.n	20c4 <HASHCRYPT_SHA+0x24>
    20c4:	9807      	ldr	r0, [sp, #28]
    20c6:	9001      	str	r0, [sp, #4]
    20c8:	e014      	b.n	20f4 <HASHCRYPT_SHA+0x54>
    20ca:	9b02      	ldr	r3, [sp, #8]
    20cc:	9a03      	ldr	r2, [sp, #12]
    20ce:	9804      	ldr	r0, [sp, #16]
    20d0:	a908      	add	r1, sp, #32
    20d2:	f000 f830 	bl	2136 <HASHCRYPT_SHA_Update>
    20d6:	4601      	mov	r1, r0
    20d8:	9100      	str	r1, [sp, #0]
    20da:	b118      	cbz	r0, 20e4 <HASHCRYPT_SHA+0x44>
    20dc:	e7ff      	b.n	20de <HASHCRYPT_SHA+0x3e>
    20de:	9800      	ldr	r0, [sp, #0]
    20e0:	9001      	str	r0, [sp, #4]
    20e2:	e007      	b.n	20f4 <HASHCRYPT_SHA+0x54>
    20e4:	9b05      	ldr	r3, [sp, #20]
    20e6:	9a06      	ldr	r2, [sp, #24]
    20e8:	9804      	ldr	r0, [sp, #16]
    20ea:	a908      	add	r1, sp, #32
    20ec:	f000 f87b 	bl	21e6 <HASHCRYPT_SHA_Finish>
    20f0:	9001      	str	r0, [sp, #4]
    20f2:	e7ff      	b.n	20f4 <HASHCRYPT_SHA+0x54>
    20f4:	9801      	ldr	r0, [sp, #4]
    20f6:	b01e      	add	sp, #120	; 0x78
    20f8:	bd80      	pop	{r7, pc}

000020fa <HASHCRYPT_SHA_Init>:
    20fa:	b580      	push	{r7, lr}
    20fc:	466f      	mov	r7, sp
    20fe:	b084      	sub	sp, #16
    2100:	9101      	str	r1, [sp, #4]
    2102:	4613      	mov	r3, r2
    2104:	9302      	str	r3, [sp, #8]
    2106:	f000 f8d9 	bl	22bc <hashcrypt_sha_check_input_args>
    210a:	4601      	mov	r1, r0
    210c:	9103      	str	r1, [sp, #12]
    210e:	b118      	cbz	r0, 2118 <HASHCRYPT_SHA_Init+0x1e>
    2110:	e7ff      	b.n	2112 <HASHCRYPT_SHA_Init+0x18>
    2112:	9803      	ldr	r0, [sp, #12]
    2114:	9000      	str	r0, [sp, #0]
    2116:	e00b      	b.n	2130 <HASHCRYPT_SHA_Init+0x36>
    2118:	9901      	ldr	r1, [sp, #4]
    211a:	9802      	ldr	r0, [sp, #8]
    211c:	f881 0044 	strb.w	r0, [r1, #68]	; 0x44
    2120:	2000      	movs	r0, #0
    2122:	6408      	str	r0, [r1, #64]	; 0x40
    2124:	2201      	movs	r2, #1
    2126:	f881 2045 	strb.w	r2, [r1, #69]	; 0x45
    212a:	6488      	str	r0, [r1, #72]	; 0x48
    212c:	9000      	str	r0, [sp, #0]
    212e:	e7ff      	b.n	2130 <HASHCRYPT_SHA_Init+0x36>
    2130:	9800      	ldr	r0, [sp, #0]
    2132:	b004      	add	sp, #16
    2134:	bd80      	pop	{r7, pc}

00002136 <HASHCRYPT_SHA_Update>:
    2136:	b580      	push	{r7, lr}
    2138:	466f      	mov	r7, sp
    213a:	b088      	sub	sp, #32
    213c:	9304      	str	r3, [sp, #16]
    213e:	9205      	str	r2, [sp, #20]
    2140:	9106      	str	r1, [sp, #24]
    2142:	9007      	str	r0, [sp, #28]
    2144:	b91b      	cbnz	r3, 214e <HASHCRYPT_SHA_Update+0x18>
    2146:	e7ff      	b.n	2148 <HASHCRYPT_SHA_Update+0x12>
    2148:	2000      	movs	r0, #0
    214a:	9003      	str	r0, [sp, #12]
    214c:	e048      	b.n	21e0 <HASHCRYPT_SHA_Update+0xaa>
    214e:	9904      	ldr	r1, [sp, #16]
    2150:	9806      	ldr	r0, [sp, #24]
    2152:	4602      	mov	r2, r0
    2154:	9202      	str	r2, [sp, #8]
    2156:	6c82      	ldr	r2, [r0, #72]	; 0x48
    2158:	440a      	add	r2, r1
    215a:	6482      	str	r2, [r0, #72]	; 0x48
    215c:	6c00      	ldr	r0, [r0, #64]	; 0x40
    215e:	4408      	add	r0, r1
    2160:	2840      	cmp	r0, #64	; 0x40
    2162:	d80f      	bhi.n	2184 <HASHCRYPT_SHA_Update+0x4e>
    2164:	e7ff      	b.n	2166 <HASHCRYPT_SHA_Update+0x30>
    2166:	9802      	ldr	r0, [sp, #8]
    2168:	9a04      	ldr	r2, [sp, #16]
    216a:	9905      	ldr	r1, [sp, #20]
    216c:	6c03      	ldr	r3, [r0, #64]	; 0x40
    216e:	4418      	add	r0, r3
    2170:	f7fe fb86 	bl	880 <memcpy>
    2174:	9a04      	ldr	r2, [sp, #16]
    2176:	9902      	ldr	r1, [sp, #8]
    2178:	6c08      	ldr	r0, [r1, #64]	; 0x40
    217a:	4410      	add	r0, r2
    217c:	6408      	str	r0, [r1, #64]	; 0x40
    217e:	2000      	movs	r0, #0
    2180:	9003      	str	r0, [sp, #12]
    2182:	e02d      	b.n	21e0 <HASHCRYPT_SHA_Update+0xaa>
    2184:	9802      	ldr	r0, [sp, #8]
    2186:	f890 0045 	ldrb.w	r0, [r0, #69]	; 0x45
    218a:	2802      	cmp	r0, #2
    218c:	d00b      	beq.n	21a6 <HASHCRYPT_SHA_Update+0x70>
    218e:	e7ff      	b.n	2190 <HASHCRYPT_SHA_Update+0x5a>
    2190:	9902      	ldr	r1, [sp, #8]
    2192:	9807      	ldr	r0, [sp, #28]
    2194:	f891 1044 	ldrb.w	r1, [r1, #68]	; 0x44
    2198:	f000 f8ae 	bl	22f8 <hashcrypt_engine_init>
    219c:	9902      	ldr	r1, [sp, #8]
    219e:	2002      	movs	r0, #2
    21a0:	f881 0045 	strb.w	r0, [r1, #69]	; 0x45
    21a4:	e004      	b.n	21b0 <HASHCRYPT_SHA_Update+0x7a>
    21a6:	9902      	ldr	r1, [sp, #8]
    21a8:	9807      	ldr	r0, [sp, #28]
    21aa:	f000 f8ac 	bl	2306 <hashcrypt_restore_running_hash>
    21ae:	e7ff      	b.n	21b0 <HASHCRYPT_SHA_Update+0x7a>
    21b0:	e7ff      	b.n	21b2 <HASHCRYPT_SHA_Update+0x7c>
    21b2:	9b04      	ldr	r3, [sp, #16]
    21b4:	9a05      	ldr	r2, [sp, #20]
    21b6:	9902      	ldr	r1, [sp, #8]
    21b8:	9807      	ldr	r0, [sp, #28]
    21ba:	f3bf 8f4f 	dsb	sy
    21be:	f000 f8a3 	bl	2308 <hashcrypt_sha_process_message_data>
    21c2:	4601      	mov	r1, r0
    21c4:	9101      	str	r1, [sp, #4]
    21c6:	b118      	cbz	r0, 21d0 <HASHCRYPT_SHA_Update+0x9a>
    21c8:	e7ff      	b.n	21ca <HASHCRYPT_SHA_Update+0x94>
    21ca:	9801      	ldr	r0, [sp, #4]
    21cc:	9003      	str	r0, [sp, #12]
    21ce:	e007      	b.n	21e0 <HASHCRYPT_SHA_Update+0xaa>
    21d0:	9902      	ldr	r1, [sp, #8]
    21d2:	9807      	ldr	r0, [sp, #28]
    21d4:	f3bf 8f4f 	dsb	sy
    21d8:	f000 f9a6 	bl	2528 <hashcrypt_save_running_hash>
    21dc:	9003      	str	r0, [sp, #12]
    21de:	e7ff      	b.n	21e0 <HASHCRYPT_SHA_Update+0xaa>
    21e0:	9803      	ldr	r0, [sp, #12]
    21e2:	b008      	add	sp, #32
    21e4:	bd80      	pop	{r7, pc}

000021e6 <HASHCRYPT_SHA_Finish>:
    21e6:	b580      	push	{r7, lr}
    21e8:	466f      	mov	r7, sp
    21ea:	b08e      	sub	sp, #56	; 0x38
    21ec:	930a      	str	r3, [sp, #40]	; 0x28
    21ee:	920b      	str	r2, [sp, #44]	; 0x2c
    21f0:	910c      	str	r1, [sp, #48]	; 0x30
    21f2:	900d      	str	r0, [sp, #52]	; 0x34
    21f4:	b91a      	cbnz	r2, 21fe <HASHCRYPT_SHA_Finish+0x18>
    21f6:	e7ff      	b.n	21f8 <HASHCRYPT_SHA_Finish+0x12>
    21f8:	2004      	movs	r0, #4
    21fa:	9009      	str	r0, [sp, #36]	; 0x24
    21fc:	e05b      	b.n	22b6 <HASHCRYPT_SHA_Finish+0xd0>
    21fe:	980c      	ldr	r0, [sp, #48]	; 0x30
    2200:	4601      	mov	r1, r0
    2202:	9108      	str	r1, [sp, #32]
    2204:	f890 0045 	ldrb.w	r0, [r0, #69]	; 0x45
    2208:	2801      	cmp	r0, #1
    220a:	d107      	bne.n	221c <HASHCRYPT_SHA_Finish+0x36>
    220c:	e7ff      	b.n	220e <HASHCRYPT_SHA_Finish+0x28>
    220e:	980d      	ldr	r0, [sp, #52]	; 0x34
    2210:	9908      	ldr	r1, [sp, #32]
    2212:	f891 1044 	ldrb.w	r1, [r1, #68]	; 0x44
    2216:	f000 f86f 	bl	22f8 <hashcrypt_engine_init>
    221a:	e004      	b.n	2226 <HASHCRYPT_SHA_Finish+0x40>
    221c:	9908      	ldr	r1, [sp, #32]
    221e:	980d      	ldr	r0, [sp, #52]	; 0x34
    2220:	f000 f871 	bl	2306 <hashcrypt_restore_running_hash>
    2224:	e7ff      	b.n	2226 <HASHCRYPT_SHA_Finish+0x40>
    2226:	9808      	ldr	r0, [sp, #32]
    2228:	f890 0044 	ldrb.w	r0, [r0, #68]	; 0x44
    222c:	4601      	mov	r1, r0
    222e:	9107      	str	r1, [sp, #28]
    2230:	2801      	cmp	r0, #1
    2232:	d004      	beq.n	223e <HASHCRYPT_SHA_Finish+0x58>
    2234:	e7ff      	b.n	2236 <HASHCRYPT_SHA_Finish+0x50>
    2236:	9807      	ldr	r0, [sp, #28]
    2238:	2802      	cmp	r0, #2
    223a:	d003      	beq.n	2244 <HASHCRYPT_SHA_Finish+0x5e>
    223c:	e005      	b.n	224a <HASHCRYPT_SHA_Finish+0x64>
    223e:	2014      	movs	r0, #20
    2240:	9006      	str	r0, [sp, #24]
    2242:	e005      	b.n	2250 <HASHCRYPT_SHA_Finish+0x6a>
    2244:	2020      	movs	r0, #32
    2246:	9006      	str	r0, [sp, #24]
    2248:	e002      	b.n	2250 <HASHCRYPT_SHA_Finish+0x6a>
    224a:	2000      	movs	r0, #0
    224c:	9006      	str	r0, [sp, #24]
    224e:	e7ff      	b.n	2250 <HASHCRYPT_SHA_Finish+0x6a>
    2250:	9908      	ldr	r1, [sp, #32]
    2252:	980d      	ldr	r0, [sp, #52]	; 0x34
    2254:	9a06      	ldr	r2, [sp, #24]
    2256:	9204      	str	r2, [sp, #16]
    2258:	f000 f968 	bl	252c <hashcrypt_sha_finalize>
    225c:	4601      	mov	r1, r0
    225e:	9105      	str	r1, [sp, #20]
    2260:	b118      	cbz	r0, 226a <HASHCRYPT_SHA_Finish+0x84>
    2262:	e7ff      	b.n	2264 <HASHCRYPT_SHA_Finish+0x7e>
    2264:	9805      	ldr	r0, [sp, #20]
    2266:	9009      	str	r0, [sp, #36]	; 0x24
    2268:	e025      	b.n	22b6 <HASHCRYPT_SHA_Finish+0xd0>
    226a:	9804      	ldr	r0, [sp, #16]
    226c:	990a      	ldr	r1, [sp, #40]	; 0x28
    226e:	9003      	str	r0, [sp, #12]
    2270:	b191      	cbz	r1, 2298 <HASHCRYPT_SHA_Finish+0xb2>
    2272:	e7ff      	b.n	2274 <HASHCRYPT_SHA_Finish+0x8e>
    2274:	9804      	ldr	r0, [sp, #16]
    2276:	990a      	ldr	r1, [sp, #40]	; 0x28
    2278:	6809      	ldr	r1, [r1, #0]
    227a:	4288      	cmp	r0, r1
    227c:	d205      	bcs.n	228a <HASHCRYPT_SHA_Finish+0xa4>
    227e:	e7ff      	b.n	2280 <HASHCRYPT_SHA_Finish+0x9a>
    2280:	9804      	ldr	r0, [sp, #16]
    2282:	990a      	ldr	r1, [sp, #40]	; 0x28
    2284:	6008      	str	r0, [r1, #0]
    2286:	9002      	str	r0, [sp, #8]
    2288:	e003      	b.n	2292 <HASHCRYPT_SHA_Finish+0xac>
    228a:	980a      	ldr	r0, [sp, #40]	; 0x28
    228c:	6800      	ldr	r0, [r0, #0]
    228e:	9002      	str	r0, [sp, #8]
    2290:	e7ff      	b.n	2292 <HASHCRYPT_SHA_Finish+0xac>
    2292:	9802      	ldr	r0, [sp, #8]
    2294:	9003      	str	r0, [sp, #12]
    2296:	e7ff      	b.n	2298 <HASHCRYPT_SHA_Finish+0xb2>
    2298:	990b      	ldr	r1, [sp, #44]	; 0x2c
    229a:	980d      	ldr	r0, [sp, #52]	; 0x34
    229c:	9a03      	ldr	r2, [sp, #12]
    229e:	f000 f9bc 	bl	261a <hashcrypt_get_data>
    22a2:	4601      	mov	r1, r0
    22a4:	9101      	str	r1, [sp, #4]
    22a6:	b118      	cbz	r0, 22b0 <HASHCRYPT_SHA_Finish+0xca>
    22a8:	e7ff      	b.n	22aa <HASHCRYPT_SHA_Finish+0xc4>
    22aa:	9801      	ldr	r0, [sp, #4]
    22ac:	9009      	str	r0, [sp, #36]	; 0x24
    22ae:	e002      	b.n	22b6 <HASHCRYPT_SHA_Finish+0xd0>
    22b0:	9801      	ldr	r0, [sp, #4]
    22b2:	9009      	str	r0, [sp, #36]	; 0x24
    22b4:	e7ff      	b.n	22b6 <HASHCRYPT_SHA_Finish+0xd0>
    22b6:	9809      	ldr	r0, [sp, #36]	; 0x24
    22b8:	b00e      	add	sp, #56	; 0x38
    22ba:	bd80      	pop	{r7, pc}

000022bc <hashcrypt_sha_check_input_args>:
    22bc:	b580      	push	{r7, lr}
    22be:	466f      	mov	r7, sp
    22c0:	b084      	sub	sp, #16
    22c2:	9201      	str	r2, [sp, #4]
    22c4:	460a      	mov	r2, r1
    22c6:	9901      	ldr	r1, [sp, #4]
    22c8:	9202      	str	r2, [sp, #8]
    22ca:	9003      	str	r0, [sp, #12]
    22cc:	f000 fa59 	bl	2782 <hashcrypt_sha_check_input_alg>
    22d0:	b118      	cbz	r0, 22da <hashcrypt_sha_check_input_args+0x1e>
    22d2:	e7ff      	b.n	22d4 <hashcrypt_sha_check_input_args+0x18>
    22d4:	2004      	movs	r0, #4
    22d6:	9000      	str	r0, [sp, #0]
    22d8:	e00b      	b.n	22f2 <hashcrypt_sha_check_input_args+0x36>
    22da:	9802      	ldr	r0, [sp, #8]
    22dc:	b118      	cbz	r0, 22e6 <hashcrypt_sha_check_input_args+0x2a>
    22de:	e7ff      	b.n	22e0 <hashcrypt_sha_check_input_args+0x24>
    22e0:	9803      	ldr	r0, [sp, #12]
    22e2:	b918      	cbnz	r0, 22ec <hashcrypt_sha_check_input_args+0x30>
    22e4:	e7ff      	b.n	22e6 <hashcrypt_sha_check_input_args+0x2a>
    22e6:	2004      	movs	r0, #4
    22e8:	9000      	str	r0, [sp, #0]
    22ea:	e002      	b.n	22f2 <hashcrypt_sha_check_input_args+0x36>
    22ec:	2000      	movs	r0, #0
    22ee:	9000      	str	r0, [sp, #0]
    22f0:	e7ff      	b.n	22f2 <hashcrypt_sha_check_input_args+0x36>
    22f2:	9800      	ldr	r0, [sp, #0]
    22f4:	b004      	add	sp, #16
    22f6:	bd80      	pop	{r7, pc}

000022f8 <hashcrypt_engine_init>:
    22f8:	2210      	movs	r2, #16
    22fa:	6002      	str	r2, [r0, #0]
    22fc:	2202      	movs	r2, #2
    22fe:	f362 01df 	bfi	r1, r2, #3, #29
    2302:	6001      	str	r1, [r0, #0]
    2304:	4770      	bx	lr

00002306 <hashcrypt_restore_running_hash>:
    2306:	4770      	bx	lr

00002308 <hashcrypt_sha_process_message_data>:
    2308:	b580      	push	{r7, lr}
    230a:	466f      	mov	r7, sp
    230c:	b0a4      	sub	sp, #144	; 0x90
    230e:	931e      	str	r3, [sp, #120]	; 0x78
    2310:	921f      	str	r2, [sp, #124]	; 0x7c
    2312:	9120      	str	r1, [sp, #128]	; 0x80
    2314:	9021      	str	r0, [sp, #132]	; 0x84
    2316:	6c08      	ldr	r0, [r1, #64]	; 0x40
    2318:	9322      	str	r3, [sp, #136]	; 0x88
    231a:	9223      	str	r2, [sp, #140]	; 0x8c
    231c:	b1d8      	cbz	r0, 2356 <hashcrypt_sha_process_message_data+0x4e>
    231e:	e7ff      	b.n	2320 <hashcrypt_sha_process_message_data+0x18>
    2320:	9820      	ldr	r0, [sp, #128]	; 0x80
    2322:	991f      	ldr	r1, [sp, #124]	; 0x7c
    2324:	6c03      	ldr	r3, [r0, #64]	; 0x40
    2326:	f1c3 0240 	rsb	r2, r3, #64	; 0x40
    232a:	921b      	str	r2, [sp, #108]	; 0x6c
    232c:	4418      	add	r0, r3
    232e:	f7fe faa7 	bl	880 <memcpy>
    2332:	f8dd c07c 	ldr.w	ip, [sp, #124]	; 0x7c
    2336:	9b1b      	ldr	r3, [sp, #108]	; 0x6c
    2338:	9a1e      	ldr	r2, [sp, #120]	; 0x78
    233a:	9920      	ldr	r1, [sp, #128]	; 0x80
    233c:	9821      	ldr	r0, [sp, #132]	; 0x84
    233e:	449c      	add	ip, r3
    2340:	f8cd c074 	str.w	ip, [sp, #116]	; 0x74
    2344:	1ad2      	subs	r2, r2, r3
    2346:	921c      	str	r2, [sp, #112]	; 0x70
    2348:	f000 fa2f 	bl	27aa <hashcrypt_sha_one_block>
    234c:	991c      	ldr	r1, [sp, #112]	; 0x70
    234e:	981d      	ldr	r0, [sp, #116]	; 0x74
    2350:	9122      	str	r1, [sp, #136]	; 0x88
    2352:	9023      	str	r0, [sp, #140]	; 0x8c
    2354:	e7ff      	b.n	2356 <hashcrypt_sha_process_message_data+0x4e>
    2356:	9922      	ldr	r1, [sp, #136]	; 0x88
    2358:	9823      	ldr	r0, [sp, #140]	; 0x8c
    235a:	9017      	str	r0, [sp, #92]	; 0x5c
    235c:	9118      	str	r1, [sp, #96]	; 0x60
    235e:	2940      	cmp	r1, #64	; 0x40
    2360:	9119      	str	r1, [sp, #100]	; 0x64
    2362:	901a      	str	r0, [sp, #104]	; 0x68
    2364:	f0c0 80c4 	bcc.w	24f0 <hashcrypt_sha_process_message_data+0x1e8>
    2368:	e7ff      	b.n	236a <hashcrypt_sha_process_message_data+0x62>
    236a:	9817      	ldr	r0, [sp, #92]	; 0x5c
    236c:	0780      	lsls	r0, r0, #30
    236e:	b1e0      	cbz	r0, 23aa <hashcrypt_sha_process_message_data+0xa2>
    2370:	e7ff      	b.n	2372 <hashcrypt_sha_process_message_data+0x6a>
    2372:	9817      	ldr	r0, [sp, #92]	; 0x5c
    2374:	9918      	ldr	r1, [sp, #96]	; 0x60
    2376:	9115      	str	r1, [sp, #84]	; 0x54
    2378:	9016      	str	r0, [sp, #88]	; 0x58
    237a:	e7ff      	b.n	237c <hashcrypt_sha_process_message_data+0x74>
    237c:	9815      	ldr	r0, [sp, #84]	; 0x54
    237e:	9916      	ldr	r1, [sp, #88]	; 0x58
    2380:	9113      	str	r1, [sp, #76]	; 0x4c
    2382:	9014      	str	r0, [sp, #80]	; 0x50
    2384:	2840      	cmp	r0, #64	; 0x40
    2386:	d30b      	bcc.n	23a0 <hashcrypt_sha_process_message_data+0x98>
    2388:	e7ff      	b.n	238a <hashcrypt_sha_process_message_data+0x82>
    238a:	9913      	ldr	r1, [sp, #76]	; 0x4c
    238c:	9821      	ldr	r0, [sp, #132]	; 0x84
    238e:	f000 fa0c 	bl	27aa <hashcrypt_sha_one_block>
    2392:	9813      	ldr	r0, [sp, #76]	; 0x4c
    2394:	9914      	ldr	r1, [sp, #80]	; 0x50
    2396:	3040      	adds	r0, #64	; 0x40
    2398:	3940      	subs	r1, #64	; 0x40
    239a:	9115      	str	r1, [sp, #84]	; 0x54
    239c:	9016      	str	r0, [sp, #88]	; 0x58
    239e:	e7ed      	b.n	237c <hashcrypt_sha_process_message_data+0x74>
    23a0:	9813      	ldr	r0, [sp, #76]	; 0x4c
    23a2:	9914      	ldr	r1, [sp, #80]	; 0x50
    23a4:	9111      	str	r1, [sp, #68]	; 0x44
    23a6:	9012      	str	r0, [sp, #72]	; 0x48
    23a8:	e09d      	b.n	24e6 <hashcrypt_sha_process_message_data+0x1de>
    23aa:	9a17      	ldr	r2, [sp, #92]	; 0x5c
    23ac:	9b18      	ldr	r3, [sp, #96]	; 0x60
    23ae:	0998      	lsrs	r0, r3, #6
    23b0:	4601      	mov	r1, r0
    23b2:	f240 4c01 	movw	ip, #1025	; 0x401
    23b6:	f2c0 0c20 	movt	ip, #32
    23ba:	fba0 c00c 	umull	ip, r0, r0, ip
    23be:	ebc0 1c93 	rsb	ip, r0, r3, lsr #6
    23c2:	eb00 005c 	add.w	r0, r0, ip, lsr #1
    23c6:	0a80      	lsrs	r0, r0, #10
    23c8:	930d      	str	r3, [sp, #52]	; 0x34
    23ca:	920e      	str	r2, [sp, #56]	; 0x38
    23cc:	910f      	str	r1, [sp, #60]	; 0x3c
    23ce:	9010      	str	r0, [sp, #64]	; 0x40
    23d0:	e7ff      	b.n	23d2 <hashcrypt_sha_process_message_data+0xca>
    23d2:	990d      	ldr	r1, [sp, #52]	; 0x34
    23d4:	9a0e      	ldr	r2, [sp, #56]	; 0x38
    23d6:	9b0f      	ldr	r3, [sp, #60]	; 0x3c
    23d8:	9810      	ldr	r0, [sp, #64]	; 0x40
    23da:	9009      	str	r0, [sp, #36]	; 0x24
    23dc:	930a      	str	r3, [sp, #40]	; 0x28
    23de:	920b      	str	r2, [sp, #44]	; 0x2c
    23e0:	910c      	str	r1, [sp, #48]	; 0x30
    23e2:	2800      	cmp	r0, #0
    23e4:	d03f      	beq.n	2466 <hashcrypt_sha_process_message_data+0x15e>
    23e6:	e7ff      	b.n	23e8 <hashcrypt_sha_process_message_data+0xe0>
    23e8:	e7ff      	b.n	23ea <hashcrypt_sha_process_message_data+0xe2>
    23ea:	9821      	ldr	r0, [sp, #132]	; 0x84
    23ec:	6840      	ldr	r0, [r0, #4]
    23ee:	07c0      	lsls	r0, r0, #31
    23f0:	b908      	cbnz	r0, 23f6 <hashcrypt_sha_process_message_data+0xee>
    23f2:	e7ff      	b.n	23f4 <hashcrypt_sha_process_message_data+0xec>
    23f4:	e7f9      	b.n	23ea <hashcrypt_sha_process_message_data+0xe2>
    23f6:	9921      	ldr	r1, [sp, #132]	; 0x84
    23f8:	980b      	ldr	r0, [sp, #44]	; 0x2c
    23fa:	f3bf 8f4f 	dsb	sy
    23fe:	6148      	str	r0, [r1, #20]
    2400:	2001      	movs	r0, #1
    2402:	f2c0 70ff 	movt	r0, #2047	; 0x7ff
    2406:	6108      	str	r0, [r1, #16]
    2408:	f3bf 8f4f 	dsb	sy
    240c:	e7ff      	b.n	240e <hashcrypt_sha_process_message_data+0x106>
    240e:	9821      	ldr	r0, [sp, #132]	; 0x84
    2410:	6841      	ldr	r1, [r0, #4]
    2412:	2000      	movs	r0, #0
    2414:	0789      	lsls	r1, r1, #30
    2416:	2900      	cmp	r1, #0
    2418:	9008      	str	r0, [sp, #32]
    241a:	d409      	bmi.n	2430 <hashcrypt_sha_process_message_data+0x128>
    241c:	e7ff      	b.n	241e <hashcrypt_sha_process_message_data+0x116>
    241e:	9821      	ldr	r0, [sp, #132]	; 0x84
    2420:	6840      	ldr	r0, [r0, #4]
    2422:	f000 0104 	and.w	r1, r0, #4
    2426:	2001      	movs	r0, #1
    2428:	ea80 0091 	eor.w	r0, r0, r1, lsr #2
    242c:	9008      	str	r0, [sp, #32]
    242e:	e7ff      	b.n	2430 <hashcrypt_sha_process_message_data+0x128>
    2430:	9808      	ldr	r0, [sp, #32]
    2432:	07c0      	lsls	r0, r0, #31
    2434:	b108      	cbz	r0, 243a <hashcrypt_sha_process_message_data+0x132>
    2436:	e7ff      	b.n	2438 <hashcrypt_sha_process_message_data+0x130>
    2438:	e7e9      	b.n	240e <hashcrypt_sha_process_message_data+0x106>
    243a:	990a      	ldr	r1, [sp, #40]	; 0x28
    243c:	9809      	ldr	r0, [sp, #36]	; 0x24
    243e:	9b0c      	ldr	r3, [sp, #48]	; 0x30
    2440:	9a0b      	ldr	r2, [sp, #44]	; 0x2c
    2442:	f64f 7cc0 	movw	ip, #65472	; 0xffc0
    2446:	f2c0 0c01 	movt	ip, #1
    244a:	4462      	add	r2, ip
    244c:	f240 0c40 	movw	ip, #64	; 0x40
    2450:	f6cf 7cfe 	movt	ip, #65534	; 0xfffe
    2454:	4463      	add	r3, ip
    2456:	3801      	subs	r0, #1
    2458:	f2a1 71ff 	subw	r1, r1, #2047	; 0x7ff
    245c:	930d      	str	r3, [sp, #52]	; 0x34
    245e:	920e      	str	r2, [sp, #56]	; 0x38
    2460:	910f      	str	r1, [sp, #60]	; 0x3c
    2462:	9010      	str	r0, [sp, #64]	; 0x40
    2464:	e7b5      	b.n	23d2 <hashcrypt_sha_process_message_data+0xca>
    2466:	980b      	ldr	r0, [sp, #44]	; 0x2c
    2468:	990c      	ldr	r1, [sp, #48]	; 0x30
    246a:	9a0a      	ldr	r2, [sp, #40]	; 0x28
    246c:	9106      	str	r1, [sp, #24]
    246e:	9007      	str	r0, [sp, #28]
    2470:	b3a2      	cbz	r2, 24dc <hashcrypt_sha_process_message_data+0x1d4>
    2472:	e7ff      	b.n	2474 <hashcrypt_sha_process_message_data+0x16c>
    2474:	e7ff      	b.n	2476 <hashcrypt_sha_process_message_data+0x16e>
    2476:	9821      	ldr	r0, [sp, #132]	; 0x84
    2478:	6840      	ldr	r0, [r0, #4]
    247a:	07c0      	lsls	r0, r0, #31
    247c:	b908      	cbnz	r0, 2482 <hashcrypt_sha_process_message_data+0x17a>
    247e:	e7ff      	b.n	2480 <hashcrypt_sha_process_message_data+0x178>
    2480:	e7f9      	b.n	2476 <hashcrypt_sha_process_message_data+0x16e>
    2482:	9921      	ldr	r1, [sp, #132]	; 0x84
    2484:	9a0a      	ldr	r2, [sp, #40]	; 0x28
    2486:	980b      	ldr	r0, [sp, #44]	; 0x2c
    2488:	0193      	lsls	r3, r2, #6
    248a:	9305      	str	r3, [sp, #20]
    248c:	f3bf 8f4f 	dsb	sy
    2490:	6148      	str	r0, [r1, #20]
    2492:	2001      	movs	r0, #1
    2494:	f362 401a 	bfi	r0, r2, #16, #11
    2498:	6108      	str	r0, [r1, #16]
    249a:	f3bf 8f4f 	dsb	sy
    249e:	e7ff      	b.n	24a0 <hashcrypt_sha_process_message_data+0x198>
    24a0:	9821      	ldr	r0, [sp, #132]	; 0x84
    24a2:	6841      	ldr	r1, [r0, #4]
    24a4:	2000      	movs	r0, #0
    24a6:	0789      	lsls	r1, r1, #30
    24a8:	2900      	cmp	r1, #0
    24aa:	9004      	str	r0, [sp, #16]
    24ac:	d409      	bmi.n	24c2 <hashcrypt_sha_process_message_data+0x1ba>
    24ae:	e7ff      	b.n	24b0 <hashcrypt_sha_process_message_data+0x1a8>
    24b0:	9821      	ldr	r0, [sp, #132]	; 0x84
    24b2:	6840      	ldr	r0, [r0, #4]
    24b4:	f000 0104 	and.w	r1, r0, #4
    24b8:	2001      	movs	r0, #1
    24ba:	ea80 0091 	eor.w	r0, r0, r1, lsr #2
    24be:	9004      	str	r0, [sp, #16]
    24c0:	e7ff      	b.n	24c2 <hashcrypt_sha_process_message_data+0x1ba>
    24c2:	9804      	ldr	r0, [sp, #16]
    24c4:	07c0      	lsls	r0, r0, #31
    24c6:	b108      	cbz	r0, 24cc <hashcrypt_sha_process_message_data+0x1c4>
    24c8:	e7ff      	b.n	24ca <hashcrypt_sha_process_message_data+0x1c2>
    24ca:	e7e9      	b.n	24a0 <hashcrypt_sha_process_message_data+0x198>
    24cc:	990c      	ldr	r1, [sp, #48]	; 0x30
    24ce:	9a05      	ldr	r2, [sp, #20]
    24d0:	980b      	ldr	r0, [sp, #44]	; 0x2c
    24d2:	4410      	add	r0, r2
    24d4:	1a89      	subs	r1, r1, r2
    24d6:	9106      	str	r1, [sp, #24]
    24d8:	9007      	str	r0, [sp, #28]
    24da:	e7ff      	b.n	24dc <hashcrypt_sha_process_message_data+0x1d4>
    24dc:	9906      	ldr	r1, [sp, #24]
    24de:	9807      	ldr	r0, [sp, #28]
    24e0:	9111      	str	r1, [sp, #68]	; 0x44
    24e2:	9012      	str	r0, [sp, #72]	; 0x48
    24e4:	e7ff      	b.n	24e6 <hashcrypt_sha_process_message_data+0x1de>
    24e6:	9911      	ldr	r1, [sp, #68]	; 0x44
    24e8:	9812      	ldr	r0, [sp, #72]	; 0x48
    24ea:	9119      	str	r1, [sp, #100]	; 0x64
    24ec:	901a      	str	r0, [sp, #104]	; 0x68
    24ee:	e7ff      	b.n	24f0 <hashcrypt_sha_process_message_data+0x1e8>
    24f0:	9821      	ldr	r0, [sp, #132]	; 0x84
    24f2:	9919      	ldr	r1, [sp, #100]	; 0x64
    24f4:	9a1a      	ldr	r2, [sp, #104]	; 0x68
    24f6:	9201      	str	r2, [sp, #4]
    24f8:	9102      	str	r1, [sp, #8]
    24fa:	6841      	ldr	r1, [r0, #4]
    24fc:	2001      	movs	r0, #1
    24fe:	0749      	lsls	r1, r1, #29
    2500:	2900      	cmp	r1, #0
    2502:	9003      	str	r0, [sp, #12]
    2504:	d403      	bmi.n	250e <hashcrypt_sha_process_message_data+0x206>
    2506:	e7ff      	b.n	2508 <hashcrypt_sha_process_message_data+0x200>
    2508:	2000      	movs	r0, #0
    250a:	9003      	str	r0, [sp, #12]
    250c:	e7ff      	b.n	250e <hashcrypt_sha_process_message_data+0x206>
    250e:	9a02      	ldr	r2, [sp, #8]
    2510:	9820      	ldr	r0, [sp, #128]	; 0x80
    2512:	9901      	ldr	r1, [sp, #4]
    2514:	9b03      	ldr	r3, [sp, #12]
    2516:	9300      	str	r3, [sp, #0]
    2518:	f7fe f9b2 	bl	880 <memcpy>
    251c:	9a20      	ldr	r2, [sp, #128]	; 0x80
    251e:	9902      	ldr	r1, [sp, #8]
    2520:	9800      	ldr	r0, [sp, #0]
    2522:	6411      	str	r1, [r2, #64]	; 0x40
    2524:	b024      	add	sp, #144	; 0x90
    2526:	bd80      	pop	{r7, pc}

00002528 <hashcrypt_save_running_hash>:
    2528:	2000      	movs	r0, #0
    252a:	4770      	bx	lr

0000252c <hashcrypt_sha_finalize>:
    252c:	b580      	push	{r7, lr}
    252e:	466f      	mov	r7, sp
    2530:	b098      	sub	sp, #96	; 0x60
    2532:	9107      	str	r1, [sp, #28]
    2534:	9006      	str	r0, [sp, #24]
    2536:	a808      	add	r0, sp, #32
    2538:	2100      	movs	r1, #0
    253a:	2240      	movs	r2, #64	; 0x40
    253c:	f002 ffde 	bl	54fc <memset>
    2540:	9907      	ldr	r1, [sp, #28]
    2542:	6c08      	ldr	r0, [r1, #64]	; 0x40
    2544:	2837      	cmp	r0, #55	; 0x37
    2546:	d815      	bhi.n	2574 <hashcrypt_sha_finalize+0x48>
    2548:	e7ff      	b.n	254a <hashcrypt_sha_finalize+0x1e>
    254a:	9907      	ldr	r1, [sp, #28]
    254c:	6c0a      	ldr	r2, [r1, #64]	; 0x40
    254e:	a808      	add	r0, sp, #32
    2550:	9005      	str	r0, [sp, #20]
    2552:	f7fe f995 	bl	880 <memcpy>
    2556:	9a07      	ldr	r2, [sp, #28]
    2558:	9905      	ldr	r1, [sp, #20]
    255a:	9806      	ldr	r0, [sp, #24]
    255c:	f8d2 c040 	ldr.w	ip, [r2, #64]	; 0x40
    2560:	2380      	movs	r3, #128	; 0x80
    2562:	f801 300c 	strb.w	r3, [r1, ip]
    2566:	6c92      	ldr	r2, [r2, #72]	; 0x48
    2568:	00d2      	lsls	r2, r2, #3
    256a:	ba12      	rev	r2, r2
    256c:	9217      	str	r2, [sp, #92]	; 0x5c
    256e:	f000 f91c 	bl	27aa <hashcrypt_sha_one_block>
    2572:	e02d      	b.n	25d0 <hashcrypt_sha_finalize+0xa4>
    2574:	9807      	ldr	r0, [sp, #28]
    2576:	6c00      	ldr	r0, [r0, #64]	; 0x40
    2578:	283f      	cmp	r0, #63	; 0x3f
    257a:	d817      	bhi.n	25ac <hashcrypt_sha_finalize+0x80>
    257c:	e7ff      	b.n	257e <hashcrypt_sha_finalize+0x52>
    257e:	9807      	ldr	r0, [sp, #28]
    2580:	6c02      	ldr	r2, [r0, #64]	; 0x40
    2582:	2180      	movs	r1, #128	; 0x80
    2584:	5481      	strb	r1, [r0, r2]
    2586:	6c00      	ldr	r0, [r0, #64]	; 0x40
    2588:	3001      	adds	r0, #1
    258a:	9004      	str	r0, [sp, #16]
    258c:	e7ff      	b.n	258e <hashcrypt_sha_finalize+0x62>
    258e:	9804      	ldr	r0, [sp, #16]
    2590:	9003      	str	r0, [sp, #12]
    2592:	283f      	cmp	r0, #63	; 0x3f
    2594:	d809      	bhi.n	25aa <hashcrypt_sha_finalize+0x7e>
    2596:	e7ff      	b.n	2598 <hashcrypt_sha_finalize+0x6c>
    2598:	9907      	ldr	r1, [sp, #28]
    259a:	9a03      	ldr	r2, [sp, #12]
    259c:	2000      	movs	r0, #0
    259e:	5488      	strb	r0, [r1, r2]
    25a0:	e7ff      	b.n	25a2 <hashcrypt_sha_finalize+0x76>
    25a2:	9803      	ldr	r0, [sp, #12]
    25a4:	3001      	adds	r0, #1
    25a6:	9004      	str	r0, [sp, #16]
    25a8:	e7f1      	b.n	258e <hashcrypt_sha_finalize+0x62>
    25aa:	e003      	b.n	25b4 <hashcrypt_sha_finalize+0x88>
    25ac:	2080      	movs	r0, #128	; 0x80
    25ae:	f88d 0020 	strb.w	r0, [sp, #32]
    25b2:	e7ff      	b.n	25b4 <hashcrypt_sha_finalize+0x88>
    25b4:	9806      	ldr	r0, [sp, #24]
    25b6:	9907      	ldr	r1, [sp, #28]
    25b8:	f000 f8f7 	bl	27aa <hashcrypt_sha_one_block>
    25bc:	9907      	ldr	r1, [sp, #28]
    25be:	9806      	ldr	r0, [sp, #24]
    25c0:	6c89      	ldr	r1, [r1, #72]	; 0x48
    25c2:	00c9      	lsls	r1, r1, #3
    25c4:	ba09      	rev	r1, r1
    25c6:	9117      	str	r1, [sp, #92]	; 0x5c
    25c8:	a908      	add	r1, sp, #32
    25ca:	f000 f8ee 	bl	27aa <hashcrypt_sha_one_block>
    25ce:	e7ff      	b.n	25d0 <hashcrypt_sha_finalize+0xa4>
    25d0:	e7ff      	b.n	25d2 <hashcrypt_sha_finalize+0xa6>
    25d2:	9806      	ldr	r0, [sp, #24]
    25d4:	6841      	ldr	r1, [r0, #4]
    25d6:	2000      	movs	r0, #0
    25d8:	0789      	lsls	r1, r1, #30
    25da:	2900      	cmp	r1, #0
    25dc:	9002      	str	r0, [sp, #8]
    25de:	d409      	bmi.n	25f4 <hashcrypt_sha_finalize+0xc8>
    25e0:	e7ff      	b.n	25e2 <hashcrypt_sha_finalize+0xb6>
    25e2:	9806      	ldr	r0, [sp, #24]
    25e4:	6840      	ldr	r0, [r0, #4]
    25e6:	f000 0104 	and.w	r1, r0, #4
    25ea:	2001      	movs	r0, #1
    25ec:	ea80 0091 	eor.w	r0, r0, r1, lsr #2
    25f0:	9002      	str	r0, [sp, #8]
    25f2:	e7ff      	b.n	25f4 <hashcrypt_sha_finalize+0xc8>
    25f4:	9802      	ldr	r0, [sp, #8]
    25f6:	07c0      	lsls	r0, r0, #31
    25f8:	b108      	cbz	r0, 25fe <hashcrypt_sha_finalize+0xd2>
    25fa:	e7ff      	b.n	25fc <hashcrypt_sha_finalize+0xd0>
    25fc:	e7e9      	b.n	25d2 <hashcrypt_sha_finalize+0xa6>
    25fe:	9806      	ldr	r0, [sp, #24]
    2600:	6841      	ldr	r1, [r0, #4]
    2602:	2001      	movs	r0, #1
    2604:	0749      	lsls	r1, r1, #29
    2606:	2900      	cmp	r1, #0
    2608:	9001      	str	r0, [sp, #4]
    260a:	d403      	bmi.n	2614 <hashcrypt_sha_finalize+0xe8>
    260c:	e7ff      	b.n	260e <hashcrypt_sha_finalize+0xe2>
    260e:	2000      	movs	r0, #0
    2610:	9001      	str	r0, [sp, #4]
    2612:	e7ff      	b.n	2614 <hashcrypt_sha_finalize+0xe8>
    2614:	9801      	ldr	r0, [sp, #4]
    2616:	b018      	add	sp, #96	; 0x60
    2618:	bd80      	pop	{r7, pc}

0000261a <hashcrypt_get_data>:
    261a:	b580      	push	{r7, lr}
    261c:	466f      	mov	r7, sp
    261e:	b092      	sub	sp, #72	; 0x48
    2620:	9207      	str	r2, [sp, #28]
    2622:	9108      	str	r1, [sp, #32]
    2624:	9009      	str	r0, [sp, #36]	; 0x24
    2626:	e7ff      	b.n	2628 <hashcrypt_get_data+0xe>
    2628:	9809      	ldr	r0, [sp, #36]	; 0x24
    262a:	6841      	ldr	r1, [r0, #4]
    262c:	2000      	movs	r0, #0
    262e:	0789      	lsls	r1, r1, #30
    2630:	2900      	cmp	r1, #0
    2632:	9006      	str	r0, [sp, #24]
    2634:	d409      	bmi.n	264a <hashcrypt_get_data+0x30>
    2636:	e7ff      	b.n	2638 <hashcrypt_get_data+0x1e>
    2638:	9809      	ldr	r0, [sp, #36]	; 0x24
    263a:	6840      	ldr	r0, [r0, #4]
    263c:	f000 0104 	and.w	r1, r0, #4
    2640:	2001      	movs	r0, #1
    2642:	ea80 0091 	eor.w	r0, r0, r1, lsr #2
    2646:	9006      	str	r0, [sp, #24]
    2648:	e7ff      	b.n	264a <hashcrypt_get_data+0x30>
    264a:	9806      	ldr	r0, [sp, #24]
    264c:	07c0      	lsls	r0, r0, #31
    264e:	b108      	cbz	r0, 2654 <hashcrypt_get_data+0x3a>
    2650:	e7ff      	b.n	2652 <hashcrypt_get_data+0x38>
    2652:	e7e9      	b.n	2628 <hashcrypt_get_data+0xe>
    2654:	9809      	ldr	r0, [sp, #36]	; 0x24
    2656:	6841      	ldr	r1, [r0, #4]
    2658:	2001      	movs	r0, #1
    265a:	0749      	lsls	r1, r1, #29
    265c:	2900      	cmp	r1, #0
    265e:	9005      	str	r0, [sp, #20]
    2660:	d403      	bmi.n	266a <hashcrypt_get_data+0x50>
    2662:	e7ff      	b.n	2664 <hashcrypt_get_data+0x4a>
    2664:	2000      	movs	r0, #0
    2666:	9005      	str	r0, [sp, #20]
    2668:	e7ff      	b.n	266a <hashcrypt_get_data+0x50>
    266a:	9805      	ldr	r0, [sp, #20]
    266c:	9003      	str	r0, [sp, #12]
    266e:	f3bf 8f4f 	dsb	sy
    2672:	2000      	movs	r0, #0
    2674:	9004      	str	r0, [sp, #16]
    2676:	e7ff      	b.n	2678 <hashcrypt_get_data+0x5e>
    2678:	9804      	ldr	r0, [sp, #16]
    267a:	9002      	str	r0, [sp, #8]
    267c:	2807      	cmp	r0, #7
    267e:	dc0e      	bgt.n	269e <hashcrypt_get_data+0x84>
    2680:	e7ff      	b.n	2682 <hashcrypt_get_data+0x68>
    2682:	9a02      	ldr	r2, [sp, #8]
    2684:	9809      	ldr	r0, [sp, #36]	; 0x24
    2686:	eb00 0082 	add.w	r0, r0, r2, lsl #2
    268a:	6c00      	ldr	r0, [r0, #64]	; 0x40
    268c:	ba00      	rev	r0, r0
    268e:	a90a      	add	r1, sp, #40	; 0x28
    2690:	f841 0022 	str.w	r0, [r1, r2, lsl #2]
    2694:	e7ff      	b.n	2696 <hashcrypt_get_data+0x7c>
    2696:	9802      	ldr	r0, [sp, #8]
    2698:	3001      	adds	r0, #1
    269a:	9004      	str	r0, [sp, #16]
    269c:	e7ec      	b.n	2678 <hashcrypt_get_data+0x5e>
    269e:	9807      	ldr	r0, [sp, #28]
    26a0:	2821      	cmp	r0, #33	; 0x21
    26a2:	9001      	str	r0, [sp, #4]
    26a4:	d303      	bcc.n	26ae <hashcrypt_get_data+0x94>
    26a6:	e7ff      	b.n	26a8 <hashcrypt_get_data+0x8e>
    26a8:	2020      	movs	r0, #32
    26aa:	9001      	str	r0, [sp, #4]
    26ac:	e7ff      	b.n	26ae <hashcrypt_get_data+0x94>
    26ae:	9808      	ldr	r0, [sp, #32]
    26b0:	9a01      	ldr	r2, [sp, #4]
    26b2:	a90a      	add	r1, sp, #40	; 0x28
    26b4:	f7fe f8e4 	bl	880 <memcpy>
    26b8:	9803      	ldr	r0, [sp, #12]
    26ba:	b012      	add	sp, #72	; 0x48
    26bc:	bd80      	pop	{r7, pc}

000026be <HASHCRYPT_DriverIRQHandler>:
    26be:	b580      	push	{r7, lr}
    26c0:	466f      	mov	r7, sp
    26c2:	b084      	sub	sp, #16
    26c4:	f640 2020 	movw	r0, #2592	; 0xa20
    26c8:	f2c2 0000 	movt	r0, #8192	; 0x2000
    26cc:	6800      	ldr	r0, [r0, #0]
    26ce:	9003      	str	r0, [sp, #12]
    26d0:	f244 0004 	movw	r0, #16388	; 0x4004
    26d4:	f2c4 000a 	movt	r0, #16394	; 0x400a
    26d8:	6800      	ldr	r0, [r0, #0]
    26da:	0740      	lsls	r0, r0, #29
    26dc:	2800      	cmp	r0, #0
    26de:	d435      	bmi.n	274c <HASHCRYPT_DriverIRQHandler+0x8e>
    26e0:	e7ff      	b.n	26e2 <HASHCRYPT_DriverIRQHandler+0x24>
    26e2:	9803      	ldr	r0, [sp, #12]
    26e4:	6cc0      	ldr	r0, [r0, #76]	; 0x4c
    26e6:	b1e0      	cbz	r0, 2722 <HASHCRYPT_DriverIRQHandler+0x64>
    26e8:	e7ff      	b.n	26ea <HASHCRYPT_DriverIRQHandler+0x2c>
    26ea:	9803      	ldr	r0, [sp, #12]
    26ec:	6cc0      	ldr	r0, [r0, #76]	; 0x4c
    26ee:	f5b0 6f00 	cmp.w	r0, #2048	; 0x800
    26f2:	d304      	bcc.n	26fe <HASHCRYPT_DriverIRQHandler+0x40>
    26f4:	e7ff      	b.n	26f6 <HASHCRYPT_DriverIRQHandler+0x38>
    26f6:	f240 70ff 	movw	r0, #2047	; 0x7ff
    26fa:	9002      	str	r0, [sp, #8]
    26fc:	e003      	b.n	2706 <HASHCRYPT_DriverIRQHandler+0x48>
    26fe:	9803      	ldr	r0, [sp, #12]
    2700:	6cc0      	ldr	r0, [r0, #76]	; 0x4c
    2702:	9002      	str	r0, [sp, #8]
    2704:	e7ff      	b.n	2706 <HASHCRYPT_DriverIRQHandler+0x48>
    2706:	9a03      	ldr	r2, [sp, #12]
    2708:	9902      	ldr	r1, [sp, #8]
    270a:	6cd0      	ldr	r0, [r2, #76]	; 0x4c
    270c:	1a40      	subs	r0, r0, r1
    270e:	64d0      	str	r0, [r2, #76]	; 0x4c
    2710:	2001      	movs	r0, #1
    2712:	f361 401a 	bfi	r0, r1, #16, #11
    2716:	f244 0110 	movw	r1, #16400	; 0x4010
    271a:	f2c4 010a 	movt	r1, #16394	; 0x400a
    271e:	6008      	str	r0, [r1, #0]
    2720:	e02d      	b.n	277e <HASHCRYPT_DriverIRQHandler+0xc0>
    2722:	9903      	ldr	r1, [sp, #12]
    2724:	f244 020c 	movw	r2, #16396	; 0x400c
    2728:	f2c4 020a 	movt	r2, #16394	; 0x400a
    272c:	2006      	movs	r0, #6
    272e:	6010      	str	r0, [r2, #0]
    2730:	f244 0210 	movw	r2, #16400	; 0x4010
    2734:	f2c4 020a 	movt	r2, #16394	; 0x400a
    2738:	2000      	movs	r0, #0
    273a:	6010      	str	r0, [r2, #0]
    273c:	f244 0000 	movw	r0, #16384	; 0x4000
    2740:	f2c4 000a 	movt	r0, #16394	; 0x400a
    2744:	f7ff fef0 	bl	2528 <hashcrypt_save_running_hash>
    2748:	9001      	str	r0, [sp, #4]
    274a:	e002      	b.n	2752 <HASHCRYPT_DriverIRQHandler+0x94>
    274c:	2001      	movs	r0, #1
    274e:	9001      	str	r0, [sp, #4]
    2750:	e7ff      	b.n	2752 <HASHCRYPT_DriverIRQHandler+0x94>
    2752:	9803      	ldr	r0, [sp, #12]
    2754:	9901      	ldr	r1, [sp, #4]
    2756:	9100      	str	r1, [sp, #0]
    2758:	6d00      	ldr	r0, [r0, #80]	; 0x50
    275a:	b180      	cbz	r0, 277e <HASHCRYPT_DriverIRQHandler+0xc0>
    275c:	e7ff      	b.n	275e <HASHCRYPT_DriverIRQHandler+0xa0>
    275e:	9a00      	ldr	r2, [sp, #0]
    2760:	9803      	ldr	r0, [sp, #12]
    2762:	f640 2120 	movw	r1, #2592	; 0xa20
    2766:	f2c2 0100 	movt	r1, #8192	; 0x2000
    276a:	6809      	ldr	r1, [r1, #0]
    276c:	f8d0 c050 	ldr.w	ip, [r0, #80]	; 0x50
    2770:	6d43      	ldr	r3, [r0, #84]	; 0x54
    2772:	f244 0000 	movw	r0, #16384	; 0x4000
    2776:	f2c4 000a 	movt	r0, #16394	; 0x400a
    277a:	47e0      	blx	ip
    277c:	e7ff      	b.n	277e <HASHCRYPT_DriverIRQHandler+0xc0>
    277e:	b004      	add	sp, #16
    2780:	bd80      	pop	{r7, pc}

00002782 <hashcrypt_sha_check_input_alg>:
    2782:	b082      	sub	sp, #8
    2784:	4608      	mov	r0, r1
    2786:	9001      	str	r0, [sp, #4]
    2788:	2901      	cmp	r1, #1
    278a:	d005      	beq.n	2798 <hashcrypt_sha_check_input_alg+0x16>
    278c:	e7ff      	b.n	278e <hashcrypt_sha_check_input_alg+0xc>
    278e:	9801      	ldr	r0, [sp, #4]
    2790:	b2c0      	uxtb	r0, r0
    2792:	2802      	cmp	r0, #2
    2794:	d103      	bne.n	279e <hashcrypt_sha_check_input_alg+0x1c>
    2796:	e7ff      	b.n	2798 <hashcrypt_sha_check_input_alg+0x16>
    2798:	2000      	movs	r0, #0
    279a:	9000      	str	r0, [sp, #0]
    279c:	e002      	b.n	27a4 <hashcrypt_sha_check_input_alg+0x22>
    279e:	2004      	movs	r0, #4
    27a0:	9000      	str	r0, [sp, #0]
    27a2:	e7ff      	b.n	27a4 <hashcrypt_sha_check_input_alg+0x22>
    27a4:	9800      	ldr	r0, [sp, #0]
    27a6:	b002      	add	sp, #8
    27a8:	4770      	bx	lr

000027aa <hashcrypt_sha_one_block>:
    27aa:	b580      	push	{r7, lr}
    27ac:	466f      	mov	r7, sp
    27ae:	b096      	sub	sp, #88	; 0x58
    27b0:	9104      	str	r1, [sp, #16]
    27b2:	9005      	str	r0, [sp, #20]
    27b4:	0788      	lsls	r0, r1, #30
    27b6:	b148      	cbz	r0, 27cc <hashcrypt_sha_one_block+0x22>
    27b8:	e7ff      	b.n	27ba <hashcrypt_sha_one_block+0x10>
    27ba:	9904      	ldr	r1, [sp, #16]
    27bc:	a806      	add	r0, sp, #24
    27be:	9002      	str	r0, [sp, #8]
    27c0:	2240      	movs	r2, #64	; 0x40
    27c2:	f7fe f85d 	bl	880 <memcpy>
    27c6:	9802      	ldr	r0, [sp, #8]
    27c8:	9003      	str	r0, [sp, #12]
    27ca:	e002      	b.n	27d2 <hashcrypt_sha_one_block+0x28>
    27cc:	9804      	ldr	r0, [sp, #16]
    27ce:	9003      	str	r0, [sp, #12]
    27d0:	e7ff      	b.n	27d2 <hashcrypt_sha_one_block+0x28>
    27d2:	9803      	ldr	r0, [sp, #12]
    27d4:	9001      	str	r0, [sp, #4]
    27d6:	e7ff      	b.n	27d8 <hashcrypt_sha_one_block+0x2e>
    27d8:	9805      	ldr	r0, [sp, #20]
    27da:	6840      	ldr	r0, [r0, #4]
    27dc:	07c0      	lsls	r0, r0, #31
    27de:	b908      	cbnz	r0, 27e4 <hashcrypt_sha_one_block+0x3a>
    27e0:	e7ff      	b.n	27e2 <hashcrypt_sha_one_block+0x38>
    27e2:	e7f9      	b.n	27d8 <hashcrypt_sha_one_block+0x2e>
    27e4:	9905      	ldr	r1, [sp, #20]
    27e6:	9801      	ldr	r0, [sp, #4]
    27e8:	f3bf 8f4f 	dsb	sy
    27ec:	f3bf 8f4f 	dsb	sy
    27f0:	6148      	str	r0, [r1, #20]
    27f2:	f04f 1001 	mov.w	r0, #65537	; 0x10001
    27f6:	6108      	str	r0, [r1, #16]
    27f8:	f3bf 8f4f 	dsb	sy
    27fc:	b016      	add	sp, #88	; 0x58
    27fe:	bd80      	pop	{r7, pc}

00002800 <vPortSetupTimerInterrupt>:
    2800:	f24e 0110 	movw	r1, #57360	; 0xe010
    2804:	f2ce 0100 	movt	r1, #57344	; 0xe000
    2808:	2000      	movs	r0, #0
    280a:	6008      	str	r0, [r1, #0]
    280c:	f24e 0218 	movw	r2, #57368	; 0xe018
    2810:	f2ce 0200 	movt	r2, #57344	; 0xe000
    2814:	6010      	str	r0, [r2, #0]
    2816:	f240 0000 	movw	r0, #0
    281a:	f2c2 0000 	movt	r0, #8192	; 0x2000
    281e:	6800      	ldr	r0, [r0, #0]
    2820:	f644 52d3 	movw	r2, #19923	; 0x4dd3
    2824:	f2c1 0262 	movt	r2, #4194	; 0x1062
    2828:	fba0 0202 	umull	r0, r2, r0, r2
    282c:	f04f 30ff 	mov.w	r0, #4294967295	; 0xffffffff
    2830:	eb00 1092 	add.w	r0, r0, r2, lsr #6
    2834:	f24e 0214 	movw	r2, #57364	; 0xe014
    2838:	f2ce 0200 	movt	r2, #57344	; 0xe000
    283c:	6010      	str	r0, [r2, #0]
    283e:	2007      	movs	r0, #7
    2840:	6008      	str	r0, [r1, #0]
    2842:	4770      	bx	lr

00002844 <vPortYield>:
    2844:	f64e 5104 	movw	r1, #60676	; 0xed04
    2848:	f2ce 0100 	movt	r1, #57344	; 0xe000
    284c:	f04f 5080 	mov.w	r0, #268435456	; 0x10000000
    2850:	6008      	str	r0, [r1, #0]
    2852:	f3bf 8f4f 	dsb	sy
    2856:	f3bf 8f6f 	isb	sy
    285a:	4770      	bx	lr

0000285c <vPortEnterCritical>:
    285c:	b580      	push	{r7, lr}
    285e:	466f      	mov	r7, sp
    2860:	f000 f918 	bl	2a94 <ulSetInterruptMask>
    2864:	f240 0108 	movw	r1, #8
    2868:	f2c2 0100 	movt	r1, #8192	; 0x2000
    286c:	6808      	ldr	r0, [r1, #0]
    286e:	3001      	adds	r0, #1
    2870:	6008      	str	r0, [r1, #0]
    2872:	f3bf 8f4f 	dsb	sy
    2876:	f3bf 8f6f 	isb	sy
    287a:	bd80      	pop	{r7, pc}

0000287c <vPortExitCritical>:
    287c:	b580      	push	{r7, lr}
    287e:	466f      	mov	r7, sp
    2880:	f240 0008 	movw	r0, #8
    2884:	f2c2 0000 	movt	r0, #8192	; 0x2000
    2888:	6800      	ldr	r0, [r0, #0]
    288a:	b920      	cbnz	r0, 2896 <vPortExitCritical+0x1a>
    288c:	e7ff      	b.n	288e <vPortExitCritical+0x12>
    288e:	f000 f901 	bl	2a94 <ulSetInterruptMask>
    2892:	e7ff      	b.n	2894 <vPortExitCritical+0x18>
    2894:	e7fe      	b.n	2894 <vPortExitCritical+0x18>
    2896:	f240 0008 	movw	r0, #8
    289a:	f2c2 0000 	movt	r0, #8192	; 0x2000
    289e:	6801      	ldr	r1, [r0, #0]
    28a0:	3901      	subs	r1, #1
    28a2:	6001      	str	r1, [r0, #0]
    28a4:	6800      	ldr	r0, [r0, #0]
    28a6:	b920      	cbnz	r0, 28b2 <vPortExitCritical+0x36>
    28a8:	e7ff      	b.n	28aa <vPortExitCritical+0x2e>
    28aa:	2000      	movs	r0, #0
    28ac:	f000 f8fd 	bl	2aaa <vClearInterruptMask>
    28b0:	e7ff      	b.n	28b2 <vPortExitCritical+0x36>
    28b2:	bd80      	pop	{r7, pc}

000028b4 <SysTick_Handler>:
    28b4:	b580      	push	{r7, lr}
    28b6:	466f      	mov	r7, sp
    28b8:	b082      	sub	sp, #8
    28ba:	f000 f8eb 	bl	2a94 <ulSetInterruptMask>
    28be:	9001      	str	r0, [sp, #4]
    28c0:	f001 f849 	bl	3956 <xTaskIncrementTick>
    28c4:	b140      	cbz	r0, 28d8 <SysTick_Handler+0x24>
    28c6:	e7ff      	b.n	28c8 <SysTick_Handler+0x14>
    28c8:	f64e 5104 	movw	r1, #60676	; 0xed04
    28cc:	f2ce 0100 	movt	r1, #57344	; 0xe000
    28d0:	f04f 5080 	mov.w	r0, #268435456	; 0x10000000
    28d4:	6008      	str	r0, [r1, #0]
    28d6:	e7ff      	b.n	28d8 <SysTick_Handler+0x24>
    28d8:	9801      	ldr	r0, [sp, #4]
    28da:	f000 f8e6 	bl	2aaa <vClearInterruptMask>
    28de:	b002      	add	sp, #8
    28e0:	bd80      	pop	{r7, pc}

000028e2 <vPortSVCHandler_C>:
    28e2:	b580      	push	{r7, lr}
    28e4:	466f      	mov	r7, sp
    28e6:	6980      	ldr	r0, [r0, #24]
    28e8:	f810 0c02 	ldrb.w	r0, [r0, #-2]
    28ec:	2802      	cmp	r0, #2
    28ee:	d105      	bne.n	28fc <vPortSVCHandler_C+0x1a>
    28f0:	e7ff      	b.n	28f2 <vPortSVCHandler_C+0x10>
    28f2:	f000 f808 	bl	2906 <prvSetupFPU>
    28f6:	f000 f89b 	bl	2a30 <vRestoreContextOfFirstTask>
    28fa:	e003      	b.n	2904 <vPortSVCHandler_C+0x22>
    28fc:	f000 f8ca 	bl	2a94 <ulSetInterruptMask>
    2900:	e7ff      	b.n	2902 <vPortSVCHandler_C+0x20>
    2902:	e7fe      	b.n	2902 <vPortSVCHandler_C+0x20>
    2904:	bd80      	pop	{r7, pc}

00002906 <prvSetupFPU>:
    2906:	f64e 5188 	movw	r1, #60808	; 0xed88
    290a:	f2ce 0100 	movt	r1, #57344	; 0xe000
    290e:	6808      	ldr	r0, [r1, #0]
    2910:	f440 0070 	orr.w	r0, r0, #15728640	; 0xf00000
    2914:	6008      	str	r0, [r1, #0]
    2916:	f64e 7134 	movw	r1, #61236	; 0xef34
    291a:	f2ce 0100 	movt	r1, #57344	; 0xe000
    291e:	6808      	ldr	r0, [r1, #0]
    2920:	f040 4040 	orr.w	r0, r0, #3221225472	; 0xc0000000
    2924:	6008      	str	r0, [r1, #0]
    2926:	4770      	bx	lr

00002928 <pxPortInitialiseStack>:
    2928:	f04f 7c80 	mov.w	ip, #16777216	; 0x1000000
    292c:	f840 cc04 	str.w	ip, [r0, #-4]
    2930:	f840 2c08 	str.w	r2, [r0, #-8]
    2934:	f642 12b3 	movw	r2, #10675	; 0x29b3
    2938:	f2c0 0200 	movt	r2, #0
    293c:	f840 2c0c 	str.w	r2, [r0, #-12]
    2940:	f04f 3212 	mov.w	r2, #303174162	; 0x12121212
    2944:	f840 2c10 	str.w	r2, [r0, #-16]
    2948:	f04f 3203 	mov.w	r2, #50529027	; 0x3030303
    294c:	f840 2c14 	str.w	r2, [r0, #-20]
    2950:	f04f 3202 	mov.w	r2, #33686018	; 0x2020202
    2954:	f840 2c18 	str.w	r2, [r0, #-24]
    2958:	f04f 3201 	mov.w	r2, #16843009	; 0x1010101
    295c:	f840 2c1c 	str.w	r2, [r0, #-28]
    2960:	f840 3c20 	str.w	r3, [r0, #-32]
    2964:	f04f 3211 	mov.w	r2, #286331153	; 0x11111111
    2968:	f840 2c24 	str.w	r2, [r0, #-36]
    296c:	f04f 3210 	mov.w	r2, #269488144	; 0x10101010
    2970:	f840 2c28 	str.w	r2, [r0, #-40]
    2974:	f04f 3209 	mov.w	r2, #151587081	; 0x9090909
    2978:	f840 2c2c 	str.w	r2, [r0, #-44]
    297c:	f04f 3208 	mov.w	r2, #134744072	; 0x8080808
    2980:	f840 2c30 	str.w	r2, [r0, #-48]
    2984:	f04f 3207 	mov.w	r2, #117901063	; 0x7070707
    2988:	f840 2c34 	str.w	r2, [r0, #-52]
    298c:	f04f 3206 	mov.w	r2, #101058054	; 0x6060606
    2990:	f840 2c38 	str.w	r2, [r0, #-56]
    2994:	f04f 3205 	mov.w	r2, #84215045	; 0x5050505
    2998:	f840 2c3c 	str.w	r2, [r0, #-60]
    299c:	f04f 3204 	mov.w	r2, #67372036	; 0x4040404
    29a0:	f840 2c40 	str.w	r2, [r0, #-64]
    29a4:	f06f 0202 	mvn.w	r2, #2
    29a8:	f840 2c44 	str.w	r2, [r0, #-68]
    29ac:	f840 1d48 	str.w	r1, [r0, #-72]!
    29b0:	4770      	bx	lr

000029b2 <prvTaskExitError>:
    29b2:	b580      	push	{r7, lr}
    29b4:	466f      	mov	r7, sp
    29b6:	b082      	sub	sp, #8
    29b8:	2000      	movs	r0, #0
    29ba:	9001      	str	r0, [sp, #4]
    29bc:	f240 0008 	movw	r0, #8
    29c0:	f2c2 0000 	movt	r0, #8192	; 0x2000
    29c4:	6800      	ldr	r0, [r0, #0]
    29c6:	3001      	adds	r0, #1
    29c8:	b120      	cbz	r0, 29d4 <prvTaskExitError+0x22>
    29ca:	e7ff      	b.n	29cc <prvTaskExitError+0x1a>
    29cc:	f000 f862 	bl	2a94 <ulSetInterruptMask>
    29d0:	e7ff      	b.n	29d2 <prvTaskExitError+0x20>
    29d2:	e7fe      	b.n	29d2 <prvTaskExitError+0x20>
    29d4:	f000 f85e 	bl	2a94 <ulSetInterruptMask>
    29d8:	e7ff      	b.n	29da <prvTaskExitError+0x28>
    29da:	9801      	ldr	r0, [sp, #4]
    29dc:	b908      	cbnz	r0, 29e2 <prvTaskExitError+0x30>
    29de:	e7ff      	b.n	29e0 <prvTaskExitError+0x2e>
    29e0:	e7fb      	b.n	29da <prvTaskExitError+0x28>
    29e2:	b002      	add	sp, #8
    29e4:	bd80      	pop	{r7, pc}

000029e6 <xPortStartScheduler>:
    29e6:	b580      	push	{r7, lr}
    29e8:	466f      	mov	r7, sp
    29ea:	b082      	sub	sp, #8
    29ec:	f64e 5120 	movw	r1, #60704	; 0xed20
    29f0:	f2ce 0100 	movt	r1, #57344	; 0xe000
    29f4:	6808      	ldr	r0, [r1, #0]
    29f6:	f440 007f 	orr.w	r0, r0, #16711680	; 0xff0000
    29fa:	6008      	str	r0, [r1, #0]
    29fc:	6808      	ldr	r0, [r1, #0]
    29fe:	f040 407f 	orr.w	r0, r0, #4278190080	; 0xff000000
    2a02:	6008      	str	r0, [r1, #0]
    2a04:	f7ff fefc 	bl	2800 <vPortSetupTimerInterrupt>
    2a08:	f240 0108 	movw	r1, #8
    2a0c:	f2c2 0100 	movt	r1, #8192	; 0x2000
    2a10:	2000      	movs	r0, #0
    2a12:	9001      	str	r0, [sp, #4]
    2a14:	6008      	str	r0, [r1, #0]
    2a16:	f000 f82b 	bl	2a70 <vStartFirstTask>
    2a1a:	f000 fedd 	bl	37d8 <vTaskSwitchContext>
    2a1e:	f7ff ffc8 	bl	29b2 <prvTaskExitError>
    2a22:	9801      	ldr	r0, [sp, #4]
    2a24:	b002      	add	sp, #8
    2a26:	bd80      	pop	{r7, pc}
	...

00002a30 <vRestoreContextOfFirstTask>:
    2a30:	4a0b      	ldr	r2, [pc, #44]	; (2a60 <pxCurrentTCBConst2>)
    2a32:	6811      	ldr	r1, [r2, #0]
    2a34:	6808      	ldr	r0, [r1, #0]
    2a36:	c806      	ldmia	r0!, {r1, r2}
    2a38:	f381 880b 	msr	PSPLIM, r1
    2a3c:	2102      	movs	r1, #2
    2a3e:	f381 8814 	msr	CONTROL, r1
    2a42:	3020      	adds	r0, #32
    2a44:	f380 8809 	msr	PSP, r0
    2a48:	f3bf 8f6f 	isb	sy
    2a4c:	f04f 0000 	mov.w	r0, #0
    2a50:	f380 8811 	msr	BASEPRI, r0
    2a54:	4710      	bx	r2
    2a56:	bf00      	nop
    2a58:	bf00      	nop
    2a5a:	bf00      	nop
    2a5c:	bf00      	nop
    2a5e:	bf00      	nop

00002a60 <pxCurrentTCBConst2>:
    2a60:	20000a64 	.word	0x20000a64
	...

00002a70 <vStartFirstTask>:
    2a70:	4807      	ldr	r0, [pc, #28]	; (2a90 <xVTORConst>)
    2a72:	6800      	ldr	r0, [r0, #0]
    2a74:	6800      	ldr	r0, [r0, #0]
    2a76:	f380 8808 	msr	MSP, r0
    2a7a:	b662      	cpsie	i
    2a7c:	b661      	cpsie	f
    2a7e:	f3bf 8f4f 	dsb	sy
    2a82:	f3bf 8f6f 	isb	sy
    2a86:	df02      	svc	2
    2a88:	bf00      	nop
    2a8a:	bf00      	nop
    2a8c:	bf00      	nop
    2a8e:	bf00      	nop

00002a90 <xVTORConst>:
    2a90:	e000ed08 	.word	0xe000ed08

00002a94 <ulSetInterruptMask>:
    2a94:	f3ef 8011 	mrs	r0, BASEPRI
    2a98:	f04f 0140 	mov.w	r1, #64	; 0x40
    2a9c:	f381 8811 	msr	BASEPRI, r1
    2aa0:	f3bf 8f4f 	dsb	sy
    2aa4:	f3bf 8f6f 	isb	sy
    2aa8:	4770      	bx	lr

00002aaa <vClearInterruptMask>:
    2aaa:	f380 8811 	msr	BASEPRI, r0
    2aae:	f3bf 8f4f 	dsb	sy
    2ab2:	f3bf 8f6f 	isb	sy
    2ab6:	4770      	bx	lr
	...

00002ac0 <PendSV_Handler>:
    2ac0:	f3ef 8009 	mrs	r0, PSP
    2ac4:	f01e 0f10 	tst.w	lr, #16
    2ac8:	bf08      	it	eq
    2aca:	ed20 8a10 	vstmdbeq	r0!, {s16-s31}
    2ace:	f3ef 820b 	mrs	r2, PSPLIM
    2ad2:	4673      	mov	r3, lr
    2ad4:	e920 0ffc 	stmdb	r0!, {r2, r3, r4, r5, r6, r7, r8, r9, sl, fp}
    2ad8:	4a11      	ldr	r2, [pc, #68]	; (2b20 <pxCurrentTCBConst>)
    2ada:	6811      	ldr	r1, [r2, #0]
    2adc:	6008      	str	r0, [r1, #0]
    2ade:	f04f 0040 	mov.w	r0, #64	; 0x40
    2ae2:	f380 8811 	msr	BASEPRI, r0
    2ae6:	f3bf 8f4f 	dsb	sy
    2aea:	f3bf 8f6f 	isb	sy
    2aee:	f000 fe73 	bl	37d8 <vTaskSwitchContext>
    2af2:	f04f 0000 	mov.w	r0, #0
    2af6:	f380 8811 	msr	BASEPRI, r0
    2afa:	4a09      	ldr	r2, [pc, #36]	; (2b20 <pxCurrentTCBConst>)
    2afc:	6811      	ldr	r1, [r2, #0]
    2afe:	6808      	ldr	r0, [r1, #0]
    2b00:	e8b0 0ffc 	ldmia.w	r0!, {r2, r3, r4, r5, r6, r7, r8, r9, sl, fp}
    2b04:	f013 0f10 	tst.w	r3, #16
    2b08:	bf08      	it	eq
    2b0a:	ecb0 8a10 	vldmiaeq	r0!, {s16-s31}
    2b0e:	f382 880b 	msr	PSPLIM, r2
    2b12:	f380 8809 	msr	PSP, r0
    2b16:	4718      	bx	r3
    2b18:	bf00      	nop
    2b1a:	bf00      	nop
    2b1c:	bf00      	nop
    2b1e:	bf00      	nop

00002b20 <pxCurrentTCBConst>:
    2b20:	20000a64 	.word	0x20000a64
	...

00002b30 <SVC_Handler>:
    2b30:	f01e 0f04 	tst.w	lr, #4
    2b34:	bf0c      	ite	eq
    2b36:	f3ef 8008 	mrseq	r0, MSP
    2b3a:	f3ef 8009 	mrsne	r0, PSP
    2b3e:	4904      	ldr	r1, [pc, #16]	; (2b50 <svchandler_address_const>)
    2b40:	4708      	bx	r1
    2b42:	bf00      	nop
    2b44:	bf00      	nop
    2b46:	bf00      	nop
    2b48:	bf00      	nop
    2b4a:	bf00      	nop
    2b4c:	bf00      	nop
    2b4e:	bf00      	nop

00002b50 <svchandler_address_const>:
    2b50:	000028e3 	.word	0x000028e3

00002b54 <vListInitialise>:
    2b54:	4601      	mov	r1, r0
    2b56:	f101 0008 	add.w	r0, r1, #8
    2b5a:	6048      	str	r0, [r1, #4]
    2b5c:	f04f 32ff 	mov.w	r2, #4294967295	; 0xffffffff
    2b60:	608a      	str	r2, [r1, #8]
    2b62:	60c8      	str	r0, [r1, #12]
    2b64:	6108      	str	r0, [r1, #16]
    2b66:	2000      	movs	r0, #0
    2b68:	6008      	str	r0, [r1, #0]
    2b6a:	4770      	bx	lr

00002b6c <vListInitialiseItem>:
    2b6c:	4601      	mov	r1, r0
    2b6e:	2000      	movs	r0, #0
    2b70:	6108      	str	r0, [r1, #16]
    2b72:	4770      	bx	lr

00002b74 <vListInsert>:
    2b74:	b086      	sub	sp, #24
    2b76:	9103      	str	r1, [sp, #12]
    2b78:	9004      	str	r0, [sp, #16]
    2b7a:	6808      	ldr	r0, [r1, #0]
    2b7c:	9005      	str	r0, [sp, #20]
    2b7e:	3001      	adds	r0, #1
    2b80:	b920      	cbnz	r0, 2b8c <vListInsert+0x18>
    2b82:	e7ff      	b.n	2b84 <vListInsert+0x10>
    2b84:	9804      	ldr	r0, [sp, #16]
    2b86:	6900      	ldr	r0, [r0, #16]
    2b88:	9002      	str	r0, [sp, #8]
    2b8a:	e013      	b.n	2bb4 <vListInsert+0x40>
    2b8c:	9804      	ldr	r0, [sp, #16]
    2b8e:	3008      	adds	r0, #8
    2b90:	9001      	str	r0, [sp, #4]
    2b92:	e7ff      	b.n	2b94 <vListInsert+0x20>
    2b94:	9905      	ldr	r1, [sp, #20]
    2b96:	9801      	ldr	r0, [sp, #4]
    2b98:	9000      	str	r0, [sp, #0]
    2b9a:	6840      	ldr	r0, [r0, #4]
    2b9c:	6800      	ldr	r0, [r0, #0]
    2b9e:	4288      	cmp	r0, r1
    2ba0:	d805      	bhi.n	2bae <vListInsert+0x3a>
    2ba2:	e7ff      	b.n	2ba4 <vListInsert+0x30>
    2ba4:	e7ff      	b.n	2ba6 <vListInsert+0x32>
    2ba6:	9800      	ldr	r0, [sp, #0]
    2ba8:	6840      	ldr	r0, [r0, #4]
    2baa:	9001      	str	r0, [sp, #4]
    2bac:	e7f2      	b.n	2b94 <vListInsert+0x20>
    2bae:	9800      	ldr	r0, [sp, #0]
    2bb0:	9002      	str	r0, [sp, #8]
    2bb2:	e7ff      	b.n	2bb4 <vListInsert+0x40>
    2bb4:	9904      	ldr	r1, [sp, #16]
    2bb6:	9803      	ldr	r0, [sp, #12]
    2bb8:	9a02      	ldr	r2, [sp, #8]
    2bba:	6853      	ldr	r3, [r2, #4]
    2bbc:	6043      	str	r3, [r0, #4]
    2bbe:	6843      	ldr	r3, [r0, #4]
    2bc0:	6098      	str	r0, [r3, #8]
    2bc2:	6082      	str	r2, [r0, #8]
    2bc4:	6050      	str	r0, [r2, #4]
    2bc6:	6101      	str	r1, [r0, #16]
    2bc8:	6808      	ldr	r0, [r1, #0]
    2bca:	3001      	adds	r0, #1
    2bcc:	6008      	str	r0, [r1, #0]
    2bce:	b006      	add	sp, #24
    2bd0:	4770      	bx	lr

00002bd2 <uxListRemove>:
    2bd2:	b082      	sub	sp, #8
    2bd4:	4601      	mov	r1, r0
    2bd6:	9100      	str	r1, [sp, #0]
    2bd8:	684b      	ldr	r3, [r1, #4]
    2bda:	688a      	ldr	r2, [r1, #8]
    2bdc:	6908      	ldr	r0, [r1, #16]
    2bde:	9001      	str	r0, [sp, #4]
    2be0:	609a      	str	r2, [r3, #8]
    2be2:	684a      	ldr	r2, [r1, #4]
    2be4:	688b      	ldr	r3, [r1, #8]
    2be6:	605a      	str	r2, [r3, #4]
    2be8:	6840      	ldr	r0, [r0, #4]
    2bea:	4288      	cmp	r0, r1
    2bec:	d105      	bne.n	2bfa <uxListRemove+0x28>
    2bee:	e7ff      	b.n	2bf0 <uxListRemove+0x1e>
    2bf0:	9901      	ldr	r1, [sp, #4]
    2bf2:	9800      	ldr	r0, [sp, #0]
    2bf4:	6880      	ldr	r0, [r0, #8]
    2bf6:	6048      	str	r0, [r1, #4]
    2bf8:	e000      	b.n	2bfc <uxListRemove+0x2a>
    2bfa:	e7ff      	b.n	2bfc <uxListRemove+0x2a>
    2bfc:	9801      	ldr	r0, [sp, #4]
    2bfe:	9a00      	ldr	r2, [sp, #0]
    2c00:	2100      	movs	r1, #0
    2c02:	6111      	str	r1, [r2, #16]
    2c04:	6801      	ldr	r1, [r0, #0]
    2c06:	3901      	subs	r1, #1
    2c08:	6001      	str	r1, [r0, #0]
    2c0a:	6800      	ldr	r0, [r0, #0]
    2c0c:	b002      	add	sp, #8
    2c0e:	4770      	bx	lr

00002c10 <xQueueGenericReset>:
    2c10:	b580      	push	{r7, lr}
    2c12:	466f      	mov	r7, sp
    2c14:	b084      	sub	sp, #16
    2c16:	9102      	str	r1, [sp, #8]
    2c18:	9003      	str	r0, [sp, #12]
    2c1a:	b920      	cbnz	r0, 2c26 <xQueueGenericReset+0x16>
    2c1c:	e7ff      	b.n	2c1e <xQueueGenericReset+0xe>
    2c1e:	f7ff ff39 	bl	2a94 <ulSetInterruptMask>
    2c22:	e7ff      	b.n	2c24 <xQueueGenericReset+0x14>
    2c24:	e7fe      	b.n	2c24 <xQueueGenericReset+0x14>
    2c26:	9803      	ldr	r0, [sp, #12]
    2c28:	2800      	cmp	r0, #0
    2c2a:	d04c      	beq.n	2cc6 <xQueueGenericReset+0xb6>
    2c2c:	e7ff      	b.n	2c2e <xQueueGenericReset+0x1e>
    2c2e:	9803      	ldr	r0, [sp, #12]
    2c30:	6bc0      	ldr	r0, [r0, #60]	; 0x3c
    2c32:	2800      	cmp	r0, #0
    2c34:	d047      	beq.n	2cc6 <xQueueGenericReset+0xb6>
    2c36:	e7ff      	b.n	2c38 <xQueueGenericReset+0x28>
    2c38:	9803      	ldr	r0, [sp, #12]
    2c3a:	6bc2      	ldr	r2, [r0, #60]	; 0x3c
    2c3c:	6c01      	ldr	r1, [r0, #64]	; 0x40
    2c3e:	f04f 30ff 	mov.w	r0, #4294967295	; 0xffffffff
    2c42:	fbb0 f0f2 	udiv	r0, r0, r2
    2c46:	4288      	cmp	r0, r1
    2c48:	d33d      	bcc.n	2cc6 <xQueueGenericReset+0xb6>
    2c4a:	e7ff      	b.n	2c4c <xQueueGenericReset+0x3c>
    2c4c:	f7ff fe06 	bl	285c <vPortEnterCritical>
    2c50:	9a03      	ldr	r2, [sp, #12]
    2c52:	9802      	ldr	r0, [sp, #8]
    2c54:	f8d2 c000 	ldr.w	ip, [r2]
    2c58:	6bd1      	ldr	r1, [r2, #60]	; 0x3c
    2c5a:	6c13      	ldr	r3, [r2, #64]	; 0x40
    2c5c:	fb01 c103 	mla	r1, r1, r3, ip
    2c60:	6091      	str	r1, [r2, #8]
    2c62:	2100      	movs	r1, #0
    2c64:	6391      	str	r1, [r2, #56]	; 0x38
    2c66:	6811      	ldr	r1, [r2, #0]
    2c68:	6051      	str	r1, [r2, #4]
    2c6a:	f8d2 c000 	ldr.w	ip, [r2]
    2c6e:	6bd1      	ldr	r1, [r2, #60]	; 0x3c
    2c70:	6c13      	ldr	r3, [r2, #64]	; 0x40
    2c72:	3901      	subs	r1, #1
    2c74:	fb01 c103 	mla	r1, r1, r3, ip
    2c78:	60d1      	str	r1, [r2, #12]
    2c7a:	21ff      	movs	r1, #255	; 0xff
    2c7c:	f882 1044 	strb.w	r1, [r2, #68]	; 0x44
    2c80:	f882 1045 	strb.w	r1, [r2, #69]	; 0x45
    2c84:	b988      	cbnz	r0, 2caa <xQueueGenericReset+0x9a>
    2c86:	e7ff      	b.n	2c88 <xQueueGenericReset+0x78>
    2c88:	9803      	ldr	r0, [sp, #12]
    2c8a:	6900      	ldr	r0, [r0, #16]
    2c8c:	b158      	cbz	r0, 2ca6 <xQueueGenericReset+0x96>
    2c8e:	e7ff      	b.n	2c90 <xQueueGenericReset+0x80>
    2c90:	9803      	ldr	r0, [sp, #12]
    2c92:	3010      	adds	r0, #16
    2c94:	f000 ffda 	bl	3c4c <xTaskRemoveFromEventList>
    2c98:	b118      	cbz	r0, 2ca2 <xQueueGenericReset+0x92>
    2c9a:	e7ff      	b.n	2c9c <xQueueGenericReset+0x8c>
    2c9c:	f7ff fdd2 	bl	2844 <vPortYield>
    2ca0:	e000      	b.n	2ca4 <xQueueGenericReset+0x94>
    2ca2:	e7ff      	b.n	2ca4 <xQueueGenericReset+0x94>
    2ca4:	e000      	b.n	2ca8 <xQueueGenericReset+0x98>
    2ca6:	e7ff      	b.n	2ca8 <xQueueGenericReset+0x98>
    2ca8:	e008      	b.n	2cbc <xQueueGenericReset+0xac>
    2caa:	9803      	ldr	r0, [sp, #12]
    2cac:	3010      	adds	r0, #16
    2cae:	f7ff ff51 	bl	2b54 <vListInitialise>
    2cb2:	9803      	ldr	r0, [sp, #12]
    2cb4:	3024      	adds	r0, #36	; 0x24
    2cb6:	f7ff ff4d 	bl	2b54 <vListInitialise>
    2cba:	e7ff      	b.n	2cbc <xQueueGenericReset+0xac>
    2cbc:	f7ff fdde 	bl	287c <vPortExitCritical>
    2cc0:	2001      	movs	r0, #1
    2cc2:	9001      	str	r0, [sp, #4]
    2cc4:	e002      	b.n	2ccc <xQueueGenericReset+0xbc>
    2cc6:	2000      	movs	r0, #0
    2cc8:	9001      	str	r0, [sp, #4]
    2cca:	e7ff      	b.n	2ccc <xQueueGenericReset+0xbc>
    2ccc:	9801      	ldr	r0, [sp, #4]
    2cce:	9000      	str	r0, [sp, #0]
    2cd0:	b920      	cbnz	r0, 2cdc <xQueueGenericReset+0xcc>
    2cd2:	e7ff      	b.n	2cd4 <xQueueGenericReset+0xc4>
    2cd4:	f7ff fede 	bl	2a94 <ulSetInterruptMask>
    2cd8:	e7ff      	b.n	2cda <xQueueGenericReset+0xca>
    2cda:	e7fe      	b.n	2cda <xQueueGenericReset+0xca>
    2cdc:	9800      	ldr	r0, [sp, #0]
    2cde:	b004      	add	sp, #16
    2ce0:	bd80      	pop	{r7, pc}

00002ce2 <xQueueGenericCreate>:
    2ce2:	b580      	push	{r7, lr}
    2ce4:	466f      	mov	r7, sp
    2ce6:	b086      	sub	sp, #24
    2ce8:	9103      	str	r1, [sp, #12]
    2cea:	9004      	str	r0, [sp, #16]
    2cec:	9205      	str	r2, [sp, #20]
    2cee:	b360      	cbz	r0, 2d4a <xQueueGenericCreate+0x68>
    2cf0:	e7ff      	b.n	2cf2 <xQueueGenericCreate+0x10>
    2cf2:	9903      	ldr	r1, [sp, #12]
    2cf4:	9a04      	ldr	r2, [sp, #16]
    2cf6:	f04f 30ff 	mov.w	r0, #4294967295	; 0xffffffff
    2cfa:	fbb0 f0f2 	udiv	r0, r0, r2
    2cfe:	4288      	cmp	r0, r1
    2d00:	d323      	bcc.n	2d4a <xQueueGenericCreate+0x68>
    2d02:	e7ff      	b.n	2d04 <xQueueGenericCreate+0x22>
    2d04:	9804      	ldr	r0, [sp, #16]
    2d06:	9903      	ldr	r1, [sp, #12]
    2d08:	4348      	muls	r0, r1
    2d0a:	f110 0f51 	cmn.w	r0, #81	; 0x51
    2d0e:	d81c      	bhi.n	2d4a <xQueueGenericCreate+0x68>
    2d10:	e7ff      	b.n	2d12 <xQueueGenericCreate+0x30>
    2d12:	9804      	ldr	r0, [sp, #16]
    2d14:	9903      	ldr	r1, [sp, #12]
    2d16:	4348      	muls	r0, r1
    2d18:	3050      	adds	r0, #80	; 0x50
    2d1a:	f001 fbbb 	bl	4494 <pvPortMalloc>
    2d1e:	4601      	mov	r1, r0
    2d20:	9102      	str	r1, [sp, #8]
    2d22:	b170      	cbz	r0, 2d42 <xQueueGenericCreate+0x60>
    2d24:	e7ff      	b.n	2d26 <xQueueGenericCreate+0x44>
    2d26:	9903      	ldr	r1, [sp, #12]
    2d28:	9804      	ldr	r0, [sp, #16]
    2d2a:	9b05      	ldr	r3, [sp, #20]
    2d2c:	f8dd c008 	ldr.w	ip, [sp, #8]
    2d30:	f10c 0250 	add.w	r2, ip, #80	; 0x50
    2d34:	46ee      	mov	lr, sp
    2d36:	f8ce c000 	str.w	ip, [lr]
    2d3a:	b2db      	uxtb	r3, r3
    2d3c:	f000 f812 	bl	2d64 <prvInitialiseNewQueue>
    2d40:	e000      	b.n	2d44 <xQueueGenericCreate+0x62>
    2d42:	e7ff      	b.n	2d44 <xQueueGenericCreate+0x62>
    2d44:	9802      	ldr	r0, [sp, #8]
    2d46:	9001      	str	r0, [sp, #4]
    2d48:	e009      	b.n	2d5e <xQueueGenericCreate+0x7c>
    2d4a:	2000      	movs	r0, #0
    2d4c:	b920      	cbnz	r0, 2d58 <xQueueGenericCreate+0x76>
    2d4e:	e7ff      	b.n	2d50 <xQueueGenericCreate+0x6e>
    2d50:	f7ff fea0 	bl	2a94 <ulSetInterruptMask>
    2d54:	e7ff      	b.n	2d56 <xQueueGenericCreate+0x74>
    2d56:	e7fe      	b.n	2d56 <xQueueGenericCreate+0x74>
    2d58:	2000      	movs	r0, #0
    2d5a:	9001      	str	r0, [sp, #4]
    2d5c:	e7ff      	b.n	2d5e <xQueueGenericCreate+0x7c>
    2d5e:	9801      	ldr	r0, [sp, #4]
    2d60:	b006      	add	sp, #24
    2d62:	bd80      	pop	{r7, pc}

00002d64 <prvInitialiseNewQueue>:
    2d64:	b580      	push	{r7, lr}
    2d66:	466f      	mov	r7, sp
    2d68:	b086      	sub	sp, #24
    2d6a:	9201      	str	r2, [sp, #4]
    2d6c:	9102      	str	r1, [sp, #8]
    2d6e:	9003      	str	r0, [sp, #12]
    2d70:	68b8      	ldr	r0, [r7, #8]
    2d72:	9004      	str	r0, [sp, #16]
    2d74:	9305      	str	r3, [sp, #20]
    2d76:	b919      	cbnz	r1, 2d80 <prvInitialiseNewQueue+0x1c>
    2d78:	e7ff      	b.n	2d7a <prvInitialiseNewQueue+0x16>
    2d7a:	9804      	ldr	r0, [sp, #16]
    2d7c:	6000      	str	r0, [r0, #0]
    2d7e:	e003      	b.n	2d88 <prvInitialiseNewQueue+0x24>
    2d80:	9801      	ldr	r0, [sp, #4]
    2d82:	9904      	ldr	r1, [sp, #16]
    2d84:	6008      	str	r0, [r1, #0]
    2d86:	e7ff      	b.n	2d88 <prvInitialiseNewQueue+0x24>
    2d88:	9804      	ldr	r0, [sp, #16]
    2d8a:	9902      	ldr	r1, [sp, #8]
    2d8c:	9a03      	ldr	r2, [sp, #12]
    2d8e:	63c2      	str	r2, [r0, #60]	; 0x3c
    2d90:	6401      	str	r1, [r0, #64]	; 0x40
    2d92:	2101      	movs	r1, #1
    2d94:	f7ff ff3c 	bl	2c10 <xQueueGenericReset>
    2d98:	9904      	ldr	r1, [sp, #16]
    2d9a:	9805      	ldr	r0, [sp, #20]
    2d9c:	f881 004c 	strb.w	r0, [r1, #76]	; 0x4c
    2da0:	b006      	add	sp, #24
    2da2:	bd80      	pop	{r7, pc}

00002da4 <prvUnlockQueue>:
    2da4:	b580      	push	{r7, lr}
    2da6:	466f      	mov	r7, sp
    2da8:	b086      	sub	sp, #24
    2daa:	9004      	str	r0, [sp, #16]
    2dac:	f7ff fd56 	bl	285c <vPortEnterCritical>
    2db0:	9804      	ldr	r0, [sp, #16]
    2db2:	f890 0045 	ldrb.w	r0, [r0, #69]	; 0x45
    2db6:	9005      	str	r0, [sp, #20]
    2db8:	e7ff      	b.n	2dba <prvUnlockQueue+0x16>
    2dba:	9805      	ldr	r0, [sp, #20]
    2dbc:	9003      	str	r0, [sp, #12]
    2dbe:	b240      	sxtb	r0, r0
    2dc0:	2801      	cmp	r0, #1
    2dc2:	db14      	blt.n	2dee <prvUnlockQueue+0x4a>
    2dc4:	e7ff      	b.n	2dc6 <prvUnlockQueue+0x22>
    2dc6:	9804      	ldr	r0, [sp, #16]
    2dc8:	6a40      	ldr	r0, [r0, #36]	; 0x24
    2dca:	b158      	cbz	r0, 2de4 <prvUnlockQueue+0x40>
    2dcc:	e7ff      	b.n	2dce <prvUnlockQueue+0x2a>
    2dce:	9804      	ldr	r0, [sp, #16]
    2dd0:	3024      	adds	r0, #36	; 0x24
    2dd2:	f000 ff3b 	bl	3c4c <xTaskRemoveFromEventList>
    2dd6:	b118      	cbz	r0, 2de0 <prvUnlockQueue+0x3c>
    2dd8:	e7ff      	b.n	2dda <prvUnlockQueue+0x36>
    2dda:	f001 f858 	bl	3e8e <vTaskMissedYield>
    2dde:	e000      	b.n	2de2 <prvUnlockQueue+0x3e>
    2de0:	e7ff      	b.n	2de2 <prvUnlockQueue+0x3e>
    2de2:	e000      	b.n	2de6 <prvUnlockQueue+0x42>
    2de4:	e003      	b.n	2dee <prvUnlockQueue+0x4a>
    2de6:	9803      	ldr	r0, [sp, #12]
    2de8:	3801      	subs	r0, #1
    2dea:	9005      	str	r0, [sp, #20]
    2dec:	e7e5      	b.n	2dba <prvUnlockQueue+0x16>
    2dee:	9904      	ldr	r1, [sp, #16]
    2df0:	20ff      	movs	r0, #255	; 0xff
    2df2:	f881 0045 	strb.w	r0, [r1, #69]	; 0x45
    2df6:	f7ff fd41 	bl	287c <vPortExitCritical>
    2dfa:	f7ff fd2f 	bl	285c <vPortEnterCritical>
    2dfe:	9804      	ldr	r0, [sp, #16]
    2e00:	f890 0044 	ldrb.w	r0, [r0, #68]	; 0x44
    2e04:	9002      	str	r0, [sp, #8]
    2e06:	e7ff      	b.n	2e08 <prvUnlockQueue+0x64>
    2e08:	9802      	ldr	r0, [sp, #8]
    2e0a:	9001      	str	r0, [sp, #4]
    2e0c:	b240      	sxtb	r0, r0
    2e0e:	2801      	cmp	r0, #1
    2e10:	db16      	blt.n	2e40 <prvUnlockQueue+0x9c>
    2e12:	e7ff      	b.n	2e14 <prvUnlockQueue+0x70>
    2e14:	9804      	ldr	r0, [sp, #16]
    2e16:	6900      	ldr	r0, [r0, #16]
    2e18:	b170      	cbz	r0, 2e38 <prvUnlockQueue+0x94>
    2e1a:	e7ff      	b.n	2e1c <prvUnlockQueue+0x78>
    2e1c:	9804      	ldr	r0, [sp, #16]
    2e1e:	3010      	adds	r0, #16
    2e20:	f000 ff14 	bl	3c4c <xTaskRemoveFromEventList>
    2e24:	b118      	cbz	r0, 2e2e <prvUnlockQueue+0x8a>
    2e26:	e7ff      	b.n	2e28 <prvUnlockQueue+0x84>
    2e28:	f001 f831 	bl	3e8e <vTaskMissedYield>
    2e2c:	e000      	b.n	2e30 <prvUnlockQueue+0x8c>
    2e2e:	e7ff      	b.n	2e30 <prvUnlockQueue+0x8c>
    2e30:	9801      	ldr	r0, [sp, #4]
    2e32:	3801      	subs	r0, #1
    2e34:	9000      	str	r0, [sp, #0]
    2e36:	e000      	b.n	2e3a <prvUnlockQueue+0x96>
    2e38:	e002      	b.n	2e40 <prvUnlockQueue+0x9c>
    2e3a:	9800      	ldr	r0, [sp, #0]
    2e3c:	9002      	str	r0, [sp, #8]
    2e3e:	e7e3      	b.n	2e08 <prvUnlockQueue+0x64>
    2e40:	9904      	ldr	r1, [sp, #16]
    2e42:	20ff      	movs	r0, #255	; 0xff
    2e44:	f881 0044 	strb.w	r0, [r1, #68]	; 0x44
    2e48:	f7ff fd18 	bl	287c <vPortExitCritical>
    2e4c:	b006      	add	sp, #24
    2e4e:	bd80      	pop	{r7, pc}

00002e50 <xQueueReceive>:
    2e50:	b580      	push	{r7, lr}
    2e52:	466f      	mov	r7, sp
    2e54:	b08e      	sub	sp, #56	; 0x38
    2e56:	9109      	str	r1, [sp, #36]	; 0x24
    2e58:	900a      	str	r0, [sp, #40]	; 0x28
    2e5a:	920d      	str	r2, [sp, #52]	; 0x34
    2e5c:	b920      	cbnz	r0, 2e68 <xQueueReceive+0x18>
    2e5e:	e7ff      	b.n	2e60 <xQueueReceive+0x10>
    2e60:	f7ff fe18 	bl	2a94 <ulSetInterruptMask>
    2e64:	e7ff      	b.n	2e66 <xQueueReceive+0x16>
    2e66:	e7fe      	b.n	2e66 <xQueueReceive+0x16>
    2e68:	9909      	ldr	r1, [sp, #36]	; 0x24
    2e6a:	2000      	movs	r0, #0
    2e6c:	9008      	str	r0, [sp, #32]
    2e6e:	b939      	cbnz	r1, 2e80 <xQueueReceive+0x30>
    2e70:	e7ff      	b.n	2e72 <xQueueReceive+0x22>
    2e72:	980a      	ldr	r0, [sp, #40]	; 0x28
    2e74:	6c00      	ldr	r0, [r0, #64]	; 0x40
    2e76:	2800      	cmp	r0, #0
    2e78:	bf18      	it	ne
    2e7a:	2001      	movne	r0, #1
    2e7c:	9008      	str	r0, [sp, #32]
    2e7e:	e7ff      	b.n	2e80 <xQueueReceive+0x30>
    2e80:	9808      	ldr	r0, [sp, #32]
    2e82:	07c0      	lsls	r0, r0, #31
    2e84:	b120      	cbz	r0, 2e90 <xQueueReceive+0x40>
    2e86:	e7ff      	b.n	2e88 <xQueueReceive+0x38>
    2e88:	f7ff fe04 	bl	2a94 <ulSetInterruptMask>
    2e8c:	e7ff      	b.n	2e8e <xQueueReceive+0x3e>
    2e8e:	e7fe      	b.n	2e8e <xQueueReceive+0x3e>
    2e90:	f001 f804 	bl	3e9c <xTaskGetSchedulerState>
    2e94:	4601      	mov	r1, r0
    2e96:	2000      	movs	r0, #0
    2e98:	9007      	str	r0, [sp, #28]
    2e9a:	b931      	cbnz	r1, 2eaa <xQueueReceive+0x5a>
    2e9c:	e7ff      	b.n	2e9e <xQueueReceive+0x4e>
    2e9e:	980d      	ldr	r0, [sp, #52]	; 0x34
    2ea0:	2800      	cmp	r0, #0
    2ea2:	bf18      	it	ne
    2ea4:	2001      	movne	r0, #1
    2ea6:	9007      	str	r0, [sp, #28]
    2ea8:	e7ff      	b.n	2eaa <xQueueReceive+0x5a>
    2eaa:	9807      	ldr	r0, [sp, #28]
    2eac:	07c0      	lsls	r0, r0, #31
    2eae:	b120      	cbz	r0, 2eba <xQueueReceive+0x6a>
    2eb0:	e7ff      	b.n	2eb2 <xQueueReceive+0x62>
    2eb2:	f7ff fdef 	bl	2a94 <ulSetInterruptMask>
    2eb6:	e7ff      	b.n	2eb8 <xQueueReceive+0x68>
    2eb8:	e7fe      	b.n	2eb8 <xQueueReceive+0x68>
    2eba:	2000      	movs	r0, #0
    2ebc:	9006      	str	r0, [sp, #24]
    2ebe:	e7ff      	b.n	2ec0 <xQueueReceive+0x70>
    2ec0:	9806      	ldr	r0, [sp, #24]
    2ec2:	9004      	str	r0, [sp, #16]
    2ec4:	f7ff fcca 	bl	285c <vPortEnterCritical>
    2ec8:	980a      	ldr	r0, [sp, #40]	; 0x28
    2eca:	6b80      	ldr	r0, [r0, #56]	; 0x38
    2ecc:	9005      	str	r0, [sp, #20]
    2ece:	b1e0      	cbz	r0, 2f0a <xQueueReceive+0xba>
    2ed0:	e7ff      	b.n	2ed2 <xQueueReceive+0x82>
    2ed2:	980a      	ldr	r0, [sp, #40]	; 0x28
    2ed4:	9909      	ldr	r1, [sp, #36]	; 0x24
    2ed6:	f000 f886 	bl	2fe6 <prvCopyDataFromQueue>
    2eda:	9905      	ldr	r1, [sp, #20]
    2edc:	980a      	ldr	r0, [sp, #40]	; 0x28
    2ede:	3901      	subs	r1, #1
    2ee0:	6381      	str	r1, [r0, #56]	; 0x38
    2ee2:	6900      	ldr	r0, [r0, #16]
    2ee4:	b158      	cbz	r0, 2efe <xQueueReceive+0xae>
    2ee6:	e7ff      	b.n	2ee8 <xQueueReceive+0x98>
    2ee8:	980a      	ldr	r0, [sp, #40]	; 0x28
    2eea:	3010      	adds	r0, #16
    2eec:	f000 feae 	bl	3c4c <xTaskRemoveFromEventList>
    2ef0:	b118      	cbz	r0, 2efa <xQueueReceive+0xaa>
    2ef2:	e7ff      	b.n	2ef4 <xQueueReceive+0xa4>
    2ef4:	f7ff fca6 	bl	2844 <vPortYield>
    2ef8:	e000      	b.n	2efc <xQueueReceive+0xac>
    2efa:	e7ff      	b.n	2efc <xQueueReceive+0xac>
    2efc:	e000      	b.n	2f00 <xQueueReceive+0xb0>
    2efe:	e7ff      	b.n	2f00 <xQueueReceive+0xb0>
    2f00:	f7ff fcbc 	bl	287c <vPortExitCritical>
    2f04:	2001      	movs	r0, #1
    2f06:	9003      	str	r0, [sp, #12]
    2f08:	e06a      	b.n	2fe0 <xQueueReceive+0x190>
    2f0a:	980d      	ldr	r0, [sp, #52]	; 0x34
    2f0c:	b928      	cbnz	r0, 2f1a <xQueueReceive+0xca>
    2f0e:	e7ff      	b.n	2f10 <xQueueReceive+0xc0>
    2f10:	f7ff fcb4 	bl	287c <vPortExitCritical>
    2f14:	2000      	movs	r0, #0
    2f16:	9003      	str	r0, [sp, #12]
    2f18:	e062      	b.n	2fe0 <xQueueReceive+0x190>
    2f1a:	9804      	ldr	r0, [sp, #16]
    2f1c:	b930      	cbnz	r0, 2f2c <xQueueReceive+0xdc>
    2f1e:	e7ff      	b.n	2f20 <xQueueReceive+0xd0>
    2f20:	a80b      	add	r0, sp, #44	; 0x2c
    2f22:	f000 ff46 	bl	3db2 <vTaskInternalSetTimeOutState>
    2f26:	2001      	movs	r0, #1
    2f28:	9002      	str	r0, [sp, #8]
    2f2a:	e002      	b.n	2f32 <xQueueReceive+0xe2>
    2f2c:	9804      	ldr	r0, [sp, #16]
    2f2e:	9002      	str	r0, [sp, #8]
    2f30:	e7ff      	b.n	2f32 <xQueueReceive+0xe2>
    2f32:	9802      	ldr	r0, [sp, #8]
    2f34:	9001      	str	r0, [sp, #4]
    2f36:	e7ff      	b.n	2f38 <xQueueReceive+0xe8>
    2f38:	e7ff      	b.n	2f3a <xQueueReceive+0xea>
    2f3a:	f7ff fc9f 	bl	287c <vPortExitCritical>
    2f3e:	f000 fabc 	bl	34ba <vTaskSuspendAll>
    2f42:	f7ff fc8b 	bl	285c <vPortEnterCritical>
    2f46:	980a      	ldr	r0, [sp, #40]	; 0x28
    2f48:	f990 0044 	ldrsb.w	r0, [r0, #68]	; 0x44
    2f4c:	3001      	adds	r0, #1
    2f4e:	b928      	cbnz	r0, 2f5c <xQueueReceive+0x10c>
    2f50:	e7ff      	b.n	2f52 <xQueueReceive+0x102>
    2f52:	990a      	ldr	r1, [sp, #40]	; 0x28
    2f54:	2000      	movs	r0, #0
    2f56:	f881 0044 	strb.w	r0, [r1, #68]	; 0x44
    2f5a:	e7ff      	b.n	2f5c <xQueueReceive+0x10c>
    2f5c:	980a      	ldr	r0, [sp, #40]	; 0x28
    2f5e:	f990 0045 	ldrsb.w	r0, [r0, #69]	; 0x45
    2f62:	3001      	adds	r0, #1
    2f64:	b928      	cbnz	r0, 2f72 <xQueueReceive+0x122>
    2f66:	e7ff      	b.n	2f68 <xQueueReceive+0x118>
    2f68:	990a      	ldr	r1, [sp, #40]	; 0x28
    2f6a:	2000      	movs	r0, #0
    2f6c:	f881 0045 	strb.w	r0, [r1, #69]	; 0x45
    2f70:	e7ff      	b.n	2f72 <xQueueReceive+0x122>
    2f72:	f7ff fc83 	bl	287c <vPortExitCritical>
    2f76:	a80b      	add	r0, sp, #44	; 0x2c
    2f78:	a90d      	add	r1, sp, #52	; 0x34
    2f7a:	f000 ff28 	bl	3dce <xTaskCheckForTimeOut>
    2f7e:	b9e8      	cbnz	r0, 2fbc <xQueueReceive+0x16c>
    2f80:	e7ff      	b.n	2f82 <xQueueReceive+0x132>
    2f82:	980a      	ldr	r0, [sp, #40]	; 0x28
    2f84:	f000 f84f 	bl	3026 <prvIsQueueEmpty>
    2f88:	b188      	cbz	r0, 2fae <xQueueReceive+0x15e>
    2f8a:	e7ff      	b.n	2f8c <xQueueReceive+0x13c>
    2f8c:	980a      	ldr	r0, [sp, #40]	; 0x28
    2f8e:	3024      	adds	r0, #36	; 0x24
    2f90:	990d      	ldr	r1, [sp, #52]	; 0x34
    2f92:	f000 fe03 	bl	3b9c <vTaskPlaceOnEventList>
    2f96:	980a      	ldr	r0, [sp, #40]	; 0x28
    2f98:	f7ff ff04 	bl	2da4 <prvUnlockQueue>
    2f9c:	f000 fb10 	bl	35c0 <xTaskResumeAll>
    2fa0:	b918      	cbnz	r0, 2faa <xQueueReceive+0x15a>
    2fa2:	e7ff      	b.n	2fa4 <xQueueReceive+0x154>
    2fa4:	f7ff fc4e 	bl	2844 <vPortYield>
    2fa8:	e000      	b.n	2fac <xQueueReceive+0x15c>
    2faa:	e7ff      	b.n	2fac <xQueueReceive+0x15c>
    2fac:	e005      	b.n	2fba <xQueueReceive+0x16a>
    2fae:	980a      	ldr	r0, [sp, #40]	; 0x28
    2fb0:	f7ff fef8 	bl	2da4 <prvUnlockQueue>
    2fb4:	f000 fb04 	bl	35c0 <xTaskResumeAll>
    2fb8:	e7ff      	b.n	2fba <xQueueReceive+0x16a>
    2fba:	e00e      	b.n	2fda <xQueueReceive+0x18a>
    2fbc:	980a      	ldr	r0, [sp, #40]	; 0x28
    2fbe:	f7ff fef1 	bl	2da4 <prvUnlockQueue>
    2fc2:	f000 fafd 	bl	35c0 <xTaskResumeAll>
    2fc6:	980a      	ldr	r0, [sp, #40]	; 0x28
    2fc8:	f000 f82d 	bl	3026 <prvIsQueueEmpty>
    2fcc:	b118      	cbz	r0, 2fd6 <xQueueReceive+0x186>
    2fce:	e7ff      	b.n	2fd0 <xQueueReceive+0x180>
    2fd0:	2000      	movs	r0, #0
    2fd2:	9003      	str	r0, [sp, #12]
    2fd4:	e004      	b.n	2fe0 <xQueueReceive+0x190>
    2fd6:	e7ff      	b.n	2fd8 <xQueueReceive+0x188>
    2fd8:	e7ff      	b.n	2fda <xQueueReceive+0x18a>
    2fda:	9801      	ldr	r0, [sp, #4]
    2fdc:	9006      	str	r0, [sp, #24]
    2fde:	e76f      	b.n	2ec0 <xQueueReceive+0x70>
    2fe0:	9803      	ldr	r0, [sp, #12]
    2fe2:	b00e      	add	sp, #56	; 0x38
    2fe4:	bd80      	pop	{r7, pc}

00002fe6 <prvCopyDataFromQueue>:
    2fe6:	b580      	push	{r7, lr}
    2fe8:	466f      	mov	r7, sp
    2fea:	b082      	sub	sp, #8
    2fec:	9100      	str	r1, [sp, #0]
    2fee:	9001      	str	r0, [sp, #4]
    2ff0:	6c00      	ldr	r0, [r0, #64]	; 0x40
    2ff2:	b1b0      	cbz	r0, 3022 <prvCopyDataFromQueue+0x3c>
    2ff4:	e7ff      	b.n	2ff6 <prvCopyDataFromQueue+0x10>
    2ff6:	9801      	ldr	r0, [sp, #4]
    2ff8:	68c1      	ldr	r1, [r0, #12]
    2ffa:	6c02      	ldr	r2, [r0, #64]	; 0x40
    2ffc:	4411      	add	r1, r2
    2ffe:	60c1      	str	r1, [r0, #12]
    3000:	6881      	ldr	r1, [r0, #8]
    3002:	68c0      	ldr	r0, [r0, #12]
    3004:	4288      	cmp	r0, r1
    3006:	d304      	bcc.n	3012 <prvCopyDataFromQueue+0x2c>
    3008:	e7ff      	b.n	300a <prvCopyDataFromQueue+0x24>
    300a:	9901      	ldr	r1, [sp, #4]
    300c:	6808      	ldr	r0, [r1, #0]
    300e:	60c8      	str	r0, [r1, #12]
    3010:	e000      	b.n	3014 <prvCopyDataFromQueue+0x2e>
    3012:	e7ff      	b.n	3014 <prvCopyDataFromQueue+0x2e>
    3014:	9800      	ldr	r0, [sp, #0]
    3016:	9a01      	ldr	r2, [sp, #4]
    3018:	68d1      	ldr	r1, [r2, #12]
    301a:	6c12      	ldr	r2, [r2, #64]	; 0x40
    301c:	f7fd fc30 	bl	880 <memcpy>
    3020:	e7ff      	b.n	3022 <prvCopyDataFromQueue+0x3c>
    3022:	b002      	add	sp, #8
    3024:	bd80      	pop	{r7, pc}

00003026 <prvIsQueueEmpty>:
    3026:	b580      	push	{r7, lr}
    3028:	466f      	mov	r7, sp
    302a:	b084      	sub	sp, #16
    302c:	9003      	str	r0, [sp, #12]
    302e:	f7ff fc15 	bl	285c <vPortEnterCritical>
    3032:	9803      	ldr	r0, [sp, #12]
    3034:	6b80      	ldr	r0, [r0, #56]	; 0x38
    3036:	b918      	cbnz	r0, 3040 <prvIsQueueEmpty+0x1a>
    3038:	e7ff      	b.n	303a <prvIsQueueEmpty+0x14>
    303a:	2001      	movs	r0, #1
    303c:	9002      	str	r0, [sp, #8]
    303e:	e002      	b.n	3046 <prvIsQueueEmpty+0x20>
    3040:	2000      	movs	r0, #0
    3042:	9002      	str	r0, [sp, #8]
    3044:	e7ff      	b.n	3046 <prvIsQueueEmpty+0x20>
    3046:	9802      	ldr	r0, [sp, #8]
    3048:	9001      	str	r0, [sp, #4]
    304a:	f7ff fc17 	bl	287c <vPortExitCritical>
    304e:	9801      	ldr	r0, [sp, #4]
    3050:	b004      	add	sp, #16
    3052:	bd80      	pop	{r7, pc}

00003054 <vQueueAddToRegistry>:
    3054:	b580      	push	{r7, lr}
    3056:	466f      	mov	r7, sp
    3058:	b08c      	sub	sp, #48	; 0x30
    305a:	910a      	str	r1, [sp, #40]	; 0x28
    305c:	900b      	str	r0, [sp, #44]	; 0x2c
    305e:	b920      	cbnz	r0, 306a <vQueueAddToRegistry+0x16>
    3060:	e7ff      	b.n	3062 <vQueueAddToRegistry+0xe>
    3062:	f7ff fd17 	bl	2a94 <ulSetInterruptMask>
    3066:	e7ff      	b.n	3068 <vQueueAddToRegistry+0x14>
    3068:	e7fe      	b.n	3068 <vQueueAddToRegistry+0x14>
    306a:	990a      	ldr	r1, [sp, #40]	; 0x28
    306c:	2000      	movs	r0, #0
    306e:	2900      	cmp	r1, #0
    3070:	9009      	str	r0, [sp, #36]	; 0x24
    3072:	d047      	beq.n	3104 <vQueueAddToRegistry+0xb0>
    3074:	e7ff      	b.n	3076 <vQueueAddToRegistry+0x22>
    3076:	2100      	movs	r1, #0
    3078:	4608      	mov	r0, r1
    307a:	9107      	str	r1, [sp, #28]
    307c:	9008      	str	r0, [sp, #32]
    307e:	e7ff      	b.n	3080 <vQueueAddToRegistry+0x2c>
    3080:	9907      	ldr	r1, [sp, #28]
    3082:	9808      	ldr	r0, [sp, #32]
    3084:	9004      	str	r0, [sp, #16]
    3086:	9105      	str	r1, [sp, #20]
    3088:	2907      	cmp	r1, #7
    308a:	9006      	str	r0, [sp, #24]
    308c:	d837      	bhi.n	30fe <vQueueAddToRegistry+0xaa>
    308e:	e7ff      	b.n	3090 <vQueueAddToRegistry+0x3c>
    3090:	980b      	ldr	r0, [sp, #44]	; 0x2c
    3092:	9a05      	ldr	r2, [sp, #20]
    3094:	f640 2124 	movw	r1, #2596	; 0xa24
    3098:	f2c2 0100 	movt	r1, #8192	; 0x2000
    309c:	eb01 01c2 	add.w	r1, r1, r2, lsl #3
    30a0:	6849      	ldr	r1, [r1, #4]
    30a2:	4288      	cmp	r0, r1
    30a4:	d109      	bne.n	30ba <vQueueAddToRegistry+0x66>
    30a6:	e7ff      	b.n	30a8 <vQueueAddToRegistry+0x54>
    30a8:	9905      	ldr	r1, [sp, #20]
    30aa:	f640 2024 	movw	r0, #2596	; 0xa24
    30ae:	f2c2 0000 	movt	r0, #8192	; 0x2000
    30b2:	eb00 00c1 	add.w	r0, r0, r1, lsl #3
    30b6:	9006      	str	r0, [sp, #24]
    30b8:	e021      	b.n	30fe <vQueueAddToRegistry+0xaa>
    30ba:	9804      	ldr	r0, [sp, #16]
    30bc:	b990      	cbnz	r0, 30e4 <vQueueAddToRegistry+0x90>
    30be:	e7ff      	b.n	30c0 <vQueueAddToRegistry+0x6c>
    30c0:	9905      	ldr	r1, [sp, #20]
    30c2:	f640 2024 	movw	r0, #2596	; 0xa24
    30c6:	f2c2 0000 	movt	r0, #8192	; 0x2000
    30ca:	f850 0031 	ldr.w	r0, [r0, r1, lsl #3]
    30ce:	b948      	cbnz	r0, 30e4 <vQueueAddToRegistry+0x90>
    30d0:	e7ff      	b.n	30d2 <vQueueAddToRegistry+0x7e>
    30d2:	9905      	ldr	r1, [sp, #20]
    30d4:	f640 2024 	movw	r0, #2596	; 0xa24
    30d8:	f2c2 0000 	movt	r0, #8192	; 0x2000
    30dc:	eb00 00c1 	add.w	r0, r0, r1, lsl #3
    30e0:	9003      	str	r0, [sp, #12]
    30e2:	e002      	b.n	30ea <vQueueAddToRegistry+0x96>
    30e4:	9804      	ldr	r0, [sp, #16]
    30e6:	9003      	str	r0, [sp, #12]
    30e8:	e7ff      	b.n	30ea <vQueueAddToRegistry+0x96>
    30ea:	9803      	ldr	r0, [sp, #12]
    30ec:	9002      	str	r0, [sp, #8]
    30ee:	e7ff      	b.n	30f0 <vQueueAddToRegistry+0x9c>
    30f0:	e7ff      	b.n	30f2 <vQueueAddToRegistry+0x9e>
    30f2:	9802      	ldr	r0, [sp, #8]
    30f4:	9905      	ldr	r1, [sp, #20]
    30f6:	3101      	adds	r1, #1
    30f8:	9107      	str	r1, [sp, #28]
    30fa:	9008      	str	r0, [sp, #32]
    30fc:	e7c0      	b.n	3080 <vQueueAddToRegistry+0x2c>
    30fe:	9806      	ldr	r0, [sp, #24]
    3100:	9009      	str	r0, [sp, #36]	; 0x24
    3102:	e7ff      	b.n	3104 <vQueueAddToRegistry+0xb0>
    3104:	9809      	ldr	r0, [sp, #36]	; 0x24
    3106:	9001      	str	r0, [sp, #4]
    3108:	b130      	cbz	r0, 3118 <vQueueAddToRegistry+0xc4>
    310a:	e7ff      	b.n	310c <vQueueAddToRegistry+0xb8>
    310c:	980b      	ldr	r0, [sp, #44]	; 0x2c
    310e:	9901      	ldr	r1, [sp, #4]
    3110:	9a0a      	ldr	r2, [sp, #40]	; 0x28
    3112:	600a      	str	r2, [r1, #0]
    3114:	6048      	str	r0, [r1, #4]
    3116:	e7ff      	b.n	3118 <vQueueAddToRegistry+0xc4>
    3118:	b00c      	add	sp, #48	; 0x30
    311a:	bd80      	pop	{r7, pc}

0000311c <vQueueWaitForMessageRestricted>:
    311c:	b580      	push	{r7, lr}
    311e:	466f      	mov	r7, sp
    3120:	b084      	sub	sp, #16
    3122:	9201      	str	r2, [sp, #4]
    3124:	9102      	str	r1, [sp, #8]
    3126:	9003      	str	r0, [sp, #12]
    3128:	f7ff fb98 	bl	285c <vPortEnterCritical>
    312c:	9803      	ldr	r0, [sp, #12]
    312e:	f990 0044 	ldrsb.w	r0, [r0, #68]	; 0x44
    3132:	3001      	adds	r0, #1
    3134:	b928      	cbnz	r0, 3142 <vQueueWaitForMessageRestricted+0x26>
    3136:	e7ff      	b.n	3138 <vQueueWaitForMessageRestricted+0x1c>
    3138:	9903      	ldr	r1, [sp, #12]
    313a:	2000      	movs	r0, #0
    313c:	f881 0044 	strb.w	r0, [r1, #68]	; 0x44
    3140:	e7ff      	b.n	3142 <vQueueWaitForMessageRestricted+0x26>
    3142:	9803      	ldr	r0, [sp, #12]
    3144:	f990 0045 	ldrsb.w	r0, [r0, #69]	; 0x45
    3148:	3001      	adds	r0, #1
    314a:	b928      	cbnz	r0, 3158 <vQueueWaitForMessageRestricted+0x3c>
    314c:	e7ff      	b.n	314e <vQueueWaitForMessageRestricted+0x32>
    314e:	9903      	ldr	r1, [sp, #12]
    3150:	2000      	movs	r0, #0
    3152:	f881 0045 	strb.w	r0, [r1, #69]	; 0x45
    3156:	e7ff      	b.n	3158 <vQueueWaitForMessageRestricted+0x3c>
    3158:	f7ff fb90 	bl	287c <vPortExitCritical>
    315c:	9803      	ldr	r0, [sp, #12]
    315e:	6b80      	ldr	r0, [r0, #56]	; 0x38
    3160:	b938      	cbnz	r0, 3172 <vQueueWaitForMessageRestricted+0x56>
    3162:	e7ff      	b.n	3164 <vQueueWaitForMessageRestricted+0x48>
    3164:	9a01      	ldr	r2, [sp, #4]
    3166:	9902      	ldr	r1, [sp, #8]
    3168:	9803      	ldr	r0, [sp, #12]
    316a:	3024      	adds	r0, #36	; 0x24
    316c:	f000 fd30 	bl	3bd0 <vTaskPlaceOnEventListRestricted>
    3170:	e000      	b.n	3174 <vQueueWaitForMessageRestricted+0x58>
    3172:	e7ff      	b.n	3174 <vQueueWaitForMessageRestricted+0x58>
    3174:	9803      	ldr	r0, [sp, #12]
    3176:	f7ff fe15 	bl	2da4 <prvUnlockQueue>
    317a:	b004      	add	sp, #16
    317c:	bd80      	pop	{r7, pc}

0000317e <xTaskCreate>:
    317e:	b5f0      	push	{r4, r5, r6, r7, lr}
    3180:	af03      	add	r7, sp, #12
    3182:	f84d bd04 	str.w	fp, [sp, #-4]!
    3186:	b090      	sub	sp, #64	; 0x40
    3188:	9309      	str	r3, [sp, #36]	; 0x24
    318a:	910a      	str	r1, [sp, #40]	; 0x28
    318c:	900b      	str	r0, [sp, #44]	; 0x2c
    318e:	68f8      	ldr	r0, [r7, #12]
    3190:	900c      	str	r0, [sp, #48]	; 0x30
    3192:	68b8      	ldr	r0, [r7, #8]
    3194:	900d      	str	r0, [sp, #52]	; 0x34
    3196:	4610      	mov	r0, r2
    3198:	900e      	str	r0, [sp, #56]	; 0x38
    319a:	0090      	lsls	r0, r2, #2
    319c:	f001 f97a 	bl	4494 <pvPortMalloc>
    31a0:	4601      	mov	r1, r0
    31a2:	910f      	str	r1, [sp, #60]	; 0x3c
    31a4:	b1b8      	cbz	r0, 31d6 <xTaskCreate+0x58>
    31a6:	e7ff      	b.n	31a8 <xTaskCreate+0x2a>
    31a8:	2074      	movs	r0, #116	; 0x74
    31aa:	f001 f973 	bl	4494 <pvPortMalloc>
    31ae:	4601      	mov	r1, r0
    31b0:	9108      	str	r1, [sp, #32]
    31b2:	b148      	cbz	r0, 31c8 <xTaskCreate+0x4a>
    31b4:	e7ff      	b.n	31b6 <xTaskCreate+0x38>
    31b6:	9808      	ldr	r0, [sp, #32]
    31b8:	2100      	movs	r1, #0
    31ba:	2274      	movs	r2, #116	; 0x74
    31bc:	f002 f99e 	bl	54fc <memset>
    31c0:	9908      	ldr	r1, [sp, #32]
    31c2:	980f      	ldr	r0, [sp, #60]	; 0x3c
    31c4:	6308      	str	r0, [r1, #48]	; 0x30
    31c6:	e003      	b.n	31d0 <xTaskCreate+0x52>
    31c8:	980f      	ldr	r0, [sp, #60]	; 0x3c
    31ca:	f001 fae8 	bl	479e <vPortFree>
    31ce:	e7ff      	b.n	31d0 <xTaskCreate+0x52>
    31d0:	9808      	ldr	r0, [sp, #32]
    31d2:	9007      	str	r0, [sp, #28]
    31d4:	e002      	b.n	31dc <xTaskCreate+0x5e>
    31d6:	2000      	movs	r0, #0
    31d8:	9007      	str	r0, [sp, #28]
    31da:	e7ff      	b.n	31dc <xTaskCreate+0x5e>
    31dc:	9807      	ldr	r0, [sp, #28]
    31de:	9006      	str	r0, [sp, #24]
    31e0:	b1d8      	cbz	r0, 321a <xTaskCreate+0x9c>
    31e2:	e7ff      	b.n	31e4 <xTaskCreate+0x66>
    31e4:	9d06      	ldr	r5, [sp, #24]
    31e6:	9b09      	ldr	r3, [sp, #36]	; 0x24
    31e8:	990a      	ldr	r1, [sp, #40]	; 0x28
    31ea:	980b      	ldr	r0, [sp, #44]	; 0x2c
    31ec:	f8dd c034 	ldr.w	ip, [sp, #52]	; 0x34
    31f0:	9c0c      	ldr	r4, [sp, #48]	; 0x30
    31f2:	9a0e      	ldr	r2, [sp, #56]	; 0x38
    31f4:	b292      	uxth	r2, r2
    31f6:	46ee      	mov	lr, sp
    31f8:	2600      	movs	r6, #0
    31fa:	f8ce 600c 	str.w	r6, [lr, #12]
    31fe:	f8ce 5008 	str.w	r5, [lr, #8]
    3202:	f8ce 4004 	str.w	r4, [lr, #4]
    3206:	f8ce c000 	str.w	ip, [lr]
    320a:	f000 f80f 	bl	322c <prvInitialiseNewTask>
    320e:	9806      	ldr	r0, [sp, #24]
    3210:	f000 f88a 	bl	3328 <prvAddNewTaskToReadyList>
    3214:	2001      	movs	r0, #1
    3216:	9005      	str	r0, [sp, #20]
    3218:	e003      	b.n	3222 <xTaskCreate+0xa4>
    321a:	f04f 30ff 	mov.w	r0, #4294967295	; 0xffffffff
    321e:	9005      	str	r0, [sp, #20]
    3220:	e7ff      	b.n	3222 <xTaskCreate+0xa4>
    3222:	9805      	ldr	r0, [sp, #20]
    3224:	b010      	add	sp, #64	; 0x40
    3226:	f85d bb04 	ldr.w	fp, [sp], #4
    322a:	bdf0      	pop	{r4, r5, r6, r7, pc}

0000322c <prvInitialiseNewTask>:
    322c:	b580      	push	{r7, lr}
    322e:	466f      	mov	r7, sp
    3230:	b08c      	sub	sp, #48	; 0x30
    3232:	9304      	str	r3, [sp, #16]
    3234:	9209      	str	r2, [sp, #36]	; 0x24
    3236:	9105      	str	r1, [sp, #20]
    3238:	9006      	str	r0, [sp, #24]
    323a:	6938      	ldr	r0, [r7, #16]
    323c:	900a      	str	r0, [sp, #40]	; 0x28
    323e:	68f9      	ldr	r1, [r7, #12]
    3240:	9107      	str	r1, [sp, #28]
    3242:	68b9      	ldr	r1, [r7, #8]
    3244:	9108      	str	r1, [sp, #32]
    3246:	6b00      	ldr	r0, [r0, #48]	; 0x30
    3248:	0092      	lsls	r2, r2, #2
    324a:	21a5      	movs	r1, #165	; 0xa5
    324c:	f002 f956 	bl	54fc <memset>
    3250:	9a09      	ldr	r2, [sp, #36]	; 0x24
    3252:	980a      	ldr	r0, [sp, #40]	; 0x28
    3254:	6b00      	ldr	r0, [r0, #48]	; 0x30
    3256:	eb00 0082 	add.w	r0, r0, r2, lsl #2
    325a:	3804      	subs	r0, #4
    325c:	f020 0007 	bic.w	r0, r0, #7
    3260:	900b      	str	r0, [sp, #44]	; 0x2c
    3262:	2001      	movs	r0, #1
    3264:	b920      	cbnz	r0, 3270 <prvInitialiseNewTask+0x44>
    3266:	e7ff      	b.n	3268 <prvInitialiseNewTask+0x3c>
    3268:	f7ff fc14 	bl	2a94 <ulSetInterruptMask>
    326c:	e7ff      	b.n	326e <prvInitialiseNewTask+0x42>
    326e:	e7fe      	b.n	326e <prvInitialiseNewTask+0x42>
    3270:	9805      	ldr	r0, [sp, #20]
    3272:	b1f0      	cbz	r0, 32b2 <prvInitialiseNewTask+0x86>
    3274:	e7ff      	b.n	3276 <prvInitialiseNewTask+0x4a>
    3276:	2000      	movs	r0, #0
    3278:	9003      	str	r0, [sp, #12]
    327a:	e7ff      	b.n	327c <prvInitialiseNewTask+0x50>
    327c:	9803      	ldr	r0, [sp, #12]
    327e:	9002      	str	r0, [sp, #8]
    3280:	2813      	cmp	r0, #19
    3282:	d811      	bhi.n	32a8 <prvInitialiseNewTask+0x7c>
    3284:	e7ff      	b.n	3286 <prvInitialiseNewTask+0x5a>
    3286:	9805      	ldr	r0, [sp, #20]
    3288:	9902      	ldr	r1, [sp, #8]
    328a:	9b0a      	ldr	r3, [sp, #40]	; 0x28
    328c:	5c42      	ldrb	r2, [r0, r1]
    328e:	440b      	add	r3, r1
    3290:	f883 2034 	strb.w	r2, [r3, #52]	; 0x34
    3294:	5c40      	ldrb	r0, [r0, r1]
    3296:	b908      	cbnz	r0, 329c <prvInitialiseNewTask+0x70>
    3298:	e7ff      	b.n	329a <prvInitialiseNewTask+0x6e>
    329a:	e005      	b.n	32a8 <prvInitialiseNewTask+0x7c>
    329c:	e7ff      	b.n	329e <prvInitialiseNewTask+0x72>
    329e:	e7ff      	b.n	32a0 <prvInitialiseNewTask+0x74>
    32a0:	9802      	ldr	r0, [sp, #8]
    32a2:	3001      	adds	r0, #1
    32a4:	9003      	str	r0, [sp, #12]
    32a6:	e7e9      	b.n	327c <prvInitialiseNewTask+0x50>
    32a8:	990a      	ldr	r1, [sp, #40]	; 0x28
    32aa:	2000      	movs	r0, #0
    32ac:	f881 0047 	strb.w	r0, [r1, #71]	; 0x47
    32b0:	e000      	b.n	32b4 <prvInitialiseNewTask+0x88>
    32b2:	e7ff      	b.n	32b4 <prvInitialiseNewTask+0x88>
    32b4:	9808      	ldr	r0, [sp, #32]
    32b6:	2805      	cmp	r0, #5
    32b8:	d304      	bcc.n	32c4 <prvInitialiseNewTask+0x98>
    32ba:	e7ff      	b.n	32bc <prvInitialiseNewTask+0x90>
    32bc:	f7ff fbea 	bl	2a94 <ulSetInterruptMask>
    32c0:	e7ff      	b.n	32c2 <prvInitialiseNewTask+0x96>
    32c2:	e7fe      	b.n	32c2 <prvInitialiseNewTask+0x96>
    32c4:	9808      	ldr	r0, [sp, #32]
    32c6:	2805      	cmp	r0, #5
    32c8:	d303      	bcc.n	32d2 <prvInitialiseNewTask+0xa6>
    32ca:	e7ff      	b.n	32cc <prvInitialiseNewTask+0xa0>
    32cc:	2004      	movs	r0, #4
    32ce:	9001      	str	r0, [sp, #4]
    32d0:	e002      	b.n	32d8 <prvInitialiseNewTask+0xac>
    32d2:	9808      	ldr	r0, [sp, #32]
    32d4:	9001      	str	r0, [sp, #4]
    32d6:	e7ff      	b.n	32d8 <prvInitialiseNewTask+0xac>
    32d8:	980a      	ldr	r0, [sp, #40]	; 0x28
    32da:	9901      	ldr	r1, [sp, #4]
    32dc:	9100      	str	r1, [sp, #0]
    32de:	62c1      	str	r1, [r0, #44]	; 0x2c
    32e0:	6501      	str	r1, [r0, #80]	; 0x50
    32e2:	3004      	adds	r0, #4
    32e4:	f7ff fc42 	bl	2b6c <vListInitialiseItem>
    32e8:	980a      	ldr	r0, [sp, #40]	; 0x28
    32ea:	3018      	adds	r0, #24
    32ec:	f7ff fc3e 	bl	2b6c <vListInitialiseItem>
    32f0:	f8dd c000 	ldr.w	ip, [sp]
    32f4:	980b      	ldr	r0, [sp, #44]	; 0x2c
    32f6:	9a06      	ldr	r2, [sp, #24]
    32f8:	9b04      	ldr	r3, [sp, #16]
    32fa:	990a      	ldr	r1, [sp, #40]	; 0x28
    32fc:	6109      	str	r1, [r1, #16]
    32fe:	f1cc 0c05 	rsb	ip, ip, #5
    3302:	f8c1 c018 	str.w	ip, [r1, #24]
    3306:	6249      	str	r1, [r1, #36]	; 0x24
    3308:	6b09      	ldr	r1, [r1, #48]	; 0x30
    330a:	f7ff fb0d 	bl	2928 <pxPortInitialiseStack>
    330e:	9a0a      	ldr	r2, [sp, #40]	; 0x28
    3310:	4601      	mov	r1, r0
    3312:	9807      	ldr	r0, [sp, #28]
    3314:	6011      	str	r1, [r2, #0]
    3316:	b120      	cbz	r0, 3322 <prvInitialiseNewTask+0xf6>
    3318:	e7ff      	b.n	331a <prvInitialiseNewTask+0xee>
    331a:	980a      	ldr	r0, [sp, #40]	; 0x28
    331c:	9907      	ldr	r1, [sp, #28]
    331e:	6008      	str	r0, [r1, #0]
    3320:	e000      	b.n	3324 <prvInitialiseNewTask+0xf8>
    3322:	e7ff      	b.n	3324 <prvInitialiseNewTask+0xf8>
    3324:	b00c      	add	sp, #48	; 0x30
    3326:	bd80      	pop	{r7, pc}

00003328 <prvAddNewTaskToReadyList>:
    3328:	b580      	push	{r7, lr}
    332a:	466f      	mov	r7, sp
    332c:	b082      	sub	sp, #8
    332e:	9001      	str	r0, [sp, #4]
    3330:	f7ff fa94 	bl	285c <vPortEnterCritical>
    3334:	f640 2184 	movw	r1, #2692	; 0xa84
    3338:	f2c2 0100 	movt	r1, #8192	; 0x2000
    333c:	6808      	ldr	r0, [r1, #0]
    333e:	3001      	adds	r0, #1
    3340:	6008      	str	r0, [r1, #0]
    3342:	f640 2064 	movw	r0, #2660	; 0xa64
    3346:	f2c2 0000 	movt	r0, #8192	; 0x2000
    334a:	6800      	ldr	r0, [r0, #0]
    334c:	b998      	cbnz	r0, 3376 <prvAddNewTaskToReadyList+0x4e>
    334e:	e7ff      	b.n	3350 <prvAddNewTaskToReadyList+0x28>
    3350:	9801      	ldr	r0, [sp, #4]
    3352:	f640 2164 	movw	r1, #2660	; 0xa64
    3356:	f2c2 0100 	movt	r1, #8192	; 0x2000
    335a:	6008      	str	r0, [r1, #0]
    335c:	f640 2084 	movw	r0, #2692	; 0xa84
    3360:	f2c2 0000 	movt	r0, #8192	; 0x2000
    3364:	6800      	ldr	r0, [r0, #0]
    3366:	2801      	cmp	r0, #1
    3368:	d103      	bne.n	3372 <prvAddNewTaskToReadyList+0x4a>
    336a:	e7ff      	b.n	336c <prvAddNewTaskToReadyList+0x44>
    336c:	f000 fdb4 	bl	3ed8 <prvInitialiseTaskLists>
    3370:	e000      	b.n	3374 <prvAddNewTaskToReadyList+0x4c>
    3372:	e7ff      	b.n	3374 <prvAddNewTaskToReadyList+0x4c>
    3374:	e01c      	b.n	33b0 <prvAddNewTaskToReadyList+0x88>
    3376:	f640 2088 	movw	r0, #2696	; 0xa88
    337a:	f2c2 0000 	movt	r0, #8192	; 0x2000
    337e:	6800      	ldr	r0, [r0, #0]
    3380:	b9a0      	cbnz	r0, 33ac <prvAddNewTaskToReadyList+0x84>
    3382:	e7ff      	b.n	3384 <prvAddNewTaskToReadyList+0x5c>
    3384:	9901      	ldr	r1, [sp, #4]
    3386:	f640 2064 	movw	r0, #2660	; 0xa64
    338a:	f2c2 0000 	movt	r0, #8192	; 0x2000
    338e:	6800      	ldr	r0, [r0, #0]
    3390:	6ac0      	ldr	r0, [r0, #44]	; 0x2c
    3392:	6ac9      	ldr	r1, [r1, #44]	; 0x2c
    3394:	4288      	cmp	r0, r1
    3396:	d807      	bhi.n	33a8 <prvAddNewTaskToReadyList+0x80>
    3398:	e7ff      	b.n	339a <prvAddNewTaskToReadyList+0x72>
    339a:	9801      	ldr	r0, [sp, #4]
    339c:	f640 2164 	movw	r1, #2660	; 0xa64
    33a0:	f2c2 0100 	movt	r1, #8192	; 0x2000
    33a4:	6008      	str	r0, [r1, #0]
    33a6:	e000      	b.n	33aa <prvAddNewTaskToReadyList+0x82>
    33a8:	e7ff      	b.n	33aa <prvAddNewTaskToReadyList+0x82>
    33aa:	e000      	b.n	33ae <prvAddNewTaskToReadyList+0x86>
    33ac:	e7ff      	b.n	33ae <prvAddNewTaskToReadyList+0x86>
    33ae:	e7ff      	b.n	33b0 <prvAddNewTaskToReadyList+0x88>
    33b0:	9801      	ldr	r0, [sp, #4]
    33b2:	f640 2168 	movw	r1, #2664	; 0xa68
    33b6:	f2c2 0100 	movt	r1, #8192	; 0x2000
    33ba:	680a      	ldr	r2, [r1, #0]
    33bc:	3201      	adds	r2, #1
    33be:	600a      	str	r2, [r1, #0]
    33c0:	6809      	ldr	r1, [r1, #0]
    33c2:	6481      	str	r1, [r0, #72]	; 0x48
    33c4:	6ac0      	ldr	r0, [r0, #44]	; 0x2c
    33c6:	f640 3114 	movw	r1, #2836	; 0xb14
    33ca:	f2c2 0100 	movt	r1, #8192	; 0x2000
    33ce:	6809      	ldr	r1, [r1, #0]
    33d0:	4288      	cmp	r0, r1
    33d2:	d908      	bls.n	33e6 <prvAddNewTaskToReadyList+0xbe>
    33d4:	e7ff      	b.n	33d6 <prvAddNewTaskToReadyList+0xae>
    33d6:	9801      	ldr	r0, [sp, #4]
    33d8:	6ac0      	ldr	r0, [r0, #44]	; 0x2c
    33da:	f640 3114 	movw	r1, #2836	; 0xb14
    33de:	f2c2 0100 	movt	r1, #8192	; 0x2000
    33e2:	6008      	str	r0, [r1, #0]
    33e4:	e7ff      	b.n	33e6 <prvAddNewTaskToReadyList+0xbe>
    33e6:	9801      	ldr	r0, [sp, #4]
    33e8:	6ac1      	ldr	r1, [r0, #44]	; 0x2c
    33ea:	eb01 0281 	add.w	r2, r1, r1, lsl #2
    33ee:	f640 21b0 	movw	r1, #2736	; 0xab0
    33f2:	f2c2 0100 	movt	r1, #8192	; 0x2000
    33f6:	eb01 0282 	add.w	r2, r1, r2, lsl #2
    33fa:	6853      	ldr	r3, [r2, #4]
    33fc:	1d02      	adds	r2, r0, #4
    33fe:	6083      	str	r3, [r0, #8]
    3400:	f8d3 c008 	ldr.w	ip, [r3, #8]
    3404:	f8c0 c00c 	str.w	ip, [r0, #12]
    3408:	f8d3 c008 	ldr.w	ip, [r3, #8]
    340c:	f8cc 2004 	str.w	r2, [ip, #4]
    3410:	609a      	str	r2, [r3, #8]
    3412:	6ac2      	ldr	r2, [r0, #44]	; 0x2c
    3414:	eb02 0282 	add.w	r2, r2, r2, lsl #2
    3418:	eb01 0282 	add.w	r2, r1, r2, lsl #2
    341c:	6142      	str	r2, [r0, #20]
    341e:	6ac0      	ldr	r0, [r0, #44]	; 0x2c
    3420:	eb00 0280 	add.w	r2, r0, r0, lsl #2
    3424:	f851 0022 	ldr.w	r0, [r1, r2, lsl #2]
    3428:	3001      	adds	r0, #1
    342a:	f841 0022 	str.w	r0, [r1, r2, lsl #2]
    342e:	f7ff fa25 	bl	287c <vPortExitCritical>
    3432:	f640 2088 	movw	r0, #2696	; 0xa88
    3436:	f2c2 0000 	movt	r0, #8192	; 0x2000
    343a:	6800      	ldr	r0, [r0, #0]
    343c:	b180      	cbz	r0, 3460 <prvAddNewTaskToReadyList+0x138>
    343e:	e7ff      	b.n	3440 <prvAddNewTaskToReadyList+0x118>
    3440:	9901      	ldr	r1, [sp, #4]
    3442:	f640 2064 	movw	r0, #2660	; 0xa64
    3446:	f2c2 0000 	movt	r0, #8192	; 0x2000
    344a:	6800      	ldr	r0, [r0, #0]
    344c:	6ac0      	ldr	r0, [r0, #44]	; 0x2c
    344e:	6ac9      	ldr	r1, [r1, #44]	; 0x2c
    3450:	4288      	cmp	r0, r1
    3452:	d203      	bcs.n	345c <prvAddNewTaskToReadyList+0x134>
    3454:	e7ff      	b.n	3456 <prvAddNewTaskToReadyList+0x12e>
    3456:	f7ff f9f5 	bl	2844 <vPortYield>
    345a:	e000      	b.n	345e <prvAddNewTaskToReadyList+0x136>
    345c:	e7ff      	b.n	345e <prvAddNewTaskToReadyList+0x136>
    345e:	e000      	b.n	3462 <prvAddNewTaskToReadyList+0x13a>
    3460:	e7ff      	b.n	3462 <prvAddNewTaskToReadyList+0x13a>
    3462:	b002      	add	sp, #8
    3464:	bd80      	pop	{r7, pc}

00003466 <prvResetNextTaskUnblockTime>:
    3466:	f640 2094 	movw	r0, #2708	; 0xa94
    346a:	f2c2 0000 	movt	r0, #8192	; 0x2000
    346e:	6800      	ldr	r0, [r0, #0]
    3470:	6800      	ldr	r0, [r0, #0]
    3472:	b940      	cbnz	r0, 3486 <prvResetNextTaskUnblockTime+0x20>
    3474:	e7ff      	b.n	3476 <prvResetNextTaskUnblockTime+0x10>
    3476:	f640 3134 	movw	r1, #2868	; 0xb34
    347a:	f2c2 0100 	movt	r1, #8192	; 0x2000
    347e:	f04f 30ff 	mov.w	r0, #4294967295	; 0xffffffff
    3482:	6008      	str	r0, [r1, #0]
    3484:	e00c      	b.n	34a0 <prvResetNextTaskUnblockTime+0x3a>
    3486:	f640 2094 	movw	r0, #2708	; 0xa94
    348a:	f2c2 0000 	movt	r0, #8192	; 0x2000
    348e:	6800      	ldr	r0, [r0, #0]
    3490:	68c0      	ldr	r0, [r0, #12]
    3492:	6800      	ldr	r0, [r0, #0]
    3494:	f640 3134 	movw	r1, #2868	; 0xb34
    3498:	f2c2 0100 	movt	r1, #8192	; 0x2000
    349c:	6008      	str	r0, [r1, #0]
    349e:	e7ff      	b.n	34a0 <prvResetNextTaskUnblockTime+0x3a>
    34a0:	4770      	bx	lr

000034a2 <prvDeleteTCB>:
    34a2:	b580      	push	{r7, lr}
    34a4:	466f      	mov	r7, sp
    34a6:	b082      	sub	sp, #8
    34a8:	9001      	str	r0, [sp, #4]
    34aa:	6b00      	ldr	r0, [r0, #48]	; 0x30
    34ac:	f001 f977 	bl	479e <vPortFree>
    34b0:	9801      	ldr	r0, [sp, #4]
    34b2:	f001 f974 	bl	479e <vPortFree>
    34b6:	b002      	add	sp, #8
    34b8:	bd80      	pop	{r7, pc}

000034ba <vTaskSuspendAll>:
    34ba:	f640 218c 	movw	r1, #2700	; 0xa8c
    34be:	f2c2 0100 	movt	r1, #8192	; 0x2000
    34c2:	6808      	ldr	r0, [r1, #0]
    34c4:	3001      	adds	r0, #1
    34c6:	6008      	str	r0, [r1, #0]
    34c8:	4770      	bx	lr

000034ca <prvAddCurrentTaskToDelayedList>:
    34ca:	b580      	push	{r7, lr}
    34cc:	466f      	mov	r7, sp
    34ce:	b084      	sub	sp, #16
    34d0:	9101      	str	r1, [sp, #4]
    34d2:	9002      	str	r0, [sp, #8]
    34d4:	f640 2090 	movw	r0, #2704	; 0xa90
    34d8:	f2c2 0000 	movt	r0, #8192	; 0x2000
    34dc:	6800      	ldr	r0, [r0, #0]
    34de:	9003      	str	r0, [sp, #12]
    34e0:	f640 2064 	movw	r0, #2660	; 0xa64
    34e4:	f2c2 0000 	movt	r0, #8192	; 0x2000
    34e8:	6800      	ldr	r0, [r0, #0]
    34ea:	3004      	adds	r0, #4
    34ec:	f7ff fb71 	bl	2bd2 <uxListRemove>
    34f0:	b908      	cbnz	r0, 34f6 <prvAddCurrentTaskToDelayedList+0x2c>
    34f2:	e7ff      	b.n	34f4 <prvAddCurrentTaskToDelayedList+0x2a>
    34f4:	e000      	b.n	34f8 <prvAddCurrentTaskToDelayedList+0x2e>
    34f6:	e7ff      	b.n	34f8 <prvAddCurrentTaskToDelayedList+0x2e>
    34f8:	9802      	ldr	r0, [sp, #8]
    34fa:	3001      	adds	r0, #1
    34fc:	bb10      	cbnz	r0, 3544 <prvAddCurrentTaskToDelayedList+0x7a>
    34fe:	e7ff      	b.n	3500 <prvAddCurrentTaskToDelayedList+0x36>
    3500:	9801      	ldr	r0, [sp, #4]
    3502:	b1f8      	cbz	r0, 3544 <prvAddCurrentTaskToDelayedList+0x7a>
    3504:	e7ff      	b.n	3506 <prvAddCurrentTaskToDelayedList+0x3c>
    3506:	f640 219c 	movw	r1, #2716	; 0xa9c
    350a:	f2c2 0100 	movt	r1, #8192	; 0x2000
    350e:	684b      	ldr	r3, [r1, #4]
    3510:	f640 2064 	movw	r0, #2660	; 0xa64
    3514:	f2c2 0000 	movt	r0, #8192	; 0x2000
    3518:	6802      	ldr	r2, [r0, #0]
    351a:	6093      	str	r3, [r2, #8]
    351c:	689a      	ldr	r2, [r3, #8]
    351e:	f8d0 c000 	ldr.w	ip, [r0]
    3522:	f8cc 200c 	str.w	r2, [ip, #12]
    3526:	6802      	ldr	r2, [r0, #0]
    3528:	3204      	adds	r2, #4
    352a:	f8d3 c008 	ldr.w	ip, [r3, #8]
    352e:	f8cc 2004 	str.w	r2, [ip, #4]
    3532:	6802      	ldr	r2, [r0, #0]
    3534:	3204      	adds	r2, #4
    3536:	609a      	str	r2, [r3, #8]
    3538:	6800      	ldr	r0, [r0, #0]
    353a:	6141      	str	r1, [r0, #20]
    353c:	6808      	ldr	r0, [r1, #0]
    353e:	3001      	adds	r0, #1
    3540:	6008      	str	r0, [r1, #0]
    3542:	e03b      	b.n	35bc <prvAddCurrentTaskToDelayedList+0xf2>
    3544:	9903      	ldr	r1, [sp, #12]
    3546:	9802      	ldr	r0, [sp, #8]
    3548:	4408      	add	r0, r1
    354a:	4602      	mov	r2, r0
    354c:	9200      	str	r2, [sp, #0]
    354e:	f640 2264 	movw	r2, #2660	; 0xa64
    3552:	f2c2 0200 	movt	r2, #8192	; 0x2000
    3556:	6812      	ldr	r2, [r2, #0]
    3558:	6050      	str	r0, [r2, #4]
    355a:	4288      	cmp	r0, r1
    355c:	d20e      	bcs.n	357c <prvAddCurrentTaskToDelayedList+0xb2>
    355e:	e7ff      	b.n	3560 <prvAddCurrentTaskToDelayedList+0x96>
    3560:	f640 2098 	movw	r0, #2712	; 0xa98
    3564:	f2c2 0000 	movt	r0, #8192	; 0x2000
    3568:	6800      	ldr	r0, [r0, #0]
    356a:	f640 2164 	movw	r1, #2660	; 0xa64
    356e:	f2c2 0100 	movt	r1, #8192	; 0x2000
    3572:	6809      	ldr	r1, [r1, #0]
    3574:	3104      	adds	r1, #4
    3576:	f7ff fafd 	bl	2b74 <vListInsert>
    357a:	e01e      	b.n	35ba <prvAddCurrentTaskToDelayedList+0xf0>
    357c:	f640 2094 	movw	r0, #2708	; 0xa94
    3580:	f2c2 0000 	movt	r0, #8192	; 0x2000
    3584:	6800      	ldr	r0, [r0, #0]
    3586:	f640 2164 	movw	r1, #2660	; 0xa64
    358a:	f2c2 0100 	movt	r1, #8192	; 0x2000
    358e:	6809      	ldr	r1, [r1, #0]
    3590:	3104      	adds	r1, #4
    3592:	f7ff faef 	bl	2b74 <vListInsert>
    3596:	9800      	ldr	r0, [sp, #0]
    3598:	f640 3134 	movw	r1, #2868	; 0xb34
    359c:	f2c2 0100 	movt	r1, #8192	; 0x2000
    35a0:	6809      	ldr	r1, [r1, #0]
    35a2:	4288      	cmp	r0, r1
    35a4:	d207      	bcs.n	35b6 <prvAddCurrentTaskToDelayedList+0xec>
    35a6:	e7ff      	b.n	35a8 <prvAddCurrentTaskToDelayedList+0xde>
    35a8:	9800      	ldr	r0, [sp, #0]
    35aa:	f640 3134 	movw	r1, #2868	; 0xb34
    35ae:	f2c2 0100 	movt	r1, #8192	; 0x2000
    35b2:	6008      	str	r0, [r1, #0]
    35b4:	e000      	b.n	35b8 <prvAddCurrentTaskToDelayedList+0xee>
    35b6:	e7ff      	b.n	35b8 <prvAddCurrentTaskToDelayedList+0xee>
    35b8:	e7ff      	b.n	35ba <prvAddCurrentTaskToDelayedList+0xf0>
    35ba:	e7ff      	b.n	35bc <prvAddCurrentTaskToDelayedList+0xf2>
    35bc:	b004      	add	sp, #16
    35be:	bd80      	pop	{r7, pc}

000035c0 <xTaskResumeAll>:
    35c0:	b580      	push	{r7, lr}
    35c2:	466f      	mov	r7, sp
    35c4:	b08e      	sub	sp, #56	; 0x38
    35c6:	f640 208c 	movw	r0, #2700	; 0xa8c
    35ca:	f2c2 0000 	movt	r0, #8192	; 0x2000
    35ce:	6800      	ldr	r0, [r0, #0]
    35d0:	b920      	cbnz	r0, 35dc <xTaskResumeAll+0x1c>
    35d2:	e7ff      	b.n	35d4 <xTaskResumeAll+0x14>
    35d4:	f7ff fa5e 	bl	2a94 <ulSetInterruptMask>
    35d8:	e7ff      	b.n	35da <xTaskResumeAll+0x1a>
    35da:	e7fe      	b.n	35da <xTaskResumeAll+0x1a>
    35dc:	f7ff f93e 	bl	285c <vPortEnterCritical>
    35e0:	f640 208c 	movw	r0, #2700	; 0xa8c
    35e4:	f2c2 0000 	movt	r0, #8192	; 0x2000
    35e8:	6801      	ldr	r1, [r0, #0]
    35ea:	3901      	subs	r1, #1
    35ec:	6001      	str	r1, [r0, #0]
    35ee:	6800      	ldr	r0, [r0, #0]
    35f0:	2800      	cmp	r0, #0
    35f2:	f040 80e7 	bne.w	37c4 <xTaskResumeAll+0x204>
    35f6:	e7ff      	b.n	35f8 <xTaskResumeAll+0x38>
    35f8:	f640 2084 	movw	r0, #2692	; 0xa84
    35fc:	f2c2 0000 	movt	r0, #8192	; 0x2000
    3600:	6801      	ldr	r1, [r0, #0]
    3602:	2000      	movs	r0, #0
    3604:	2900      	cmp	r1, #0
    3606:	900d      	str	r0, [sp, #52]	; 0x34
    3608:	f000 80d9 	beq.w	37be <xTaskResumeAll+0x1fe>
    360c:	e7ff      	b.n	360e <xTaskResumeAll+0x4e>
    360e:	2000      	movs	r0, #0
    3610:	900c      	str	r0, [sp, #48]	; 0x30
    3612:	e7ff      	b.n	3614 <xTaskResumeAll+0x54>
    3614:	980c      	ldr	r0, [sp, #48]	; 0x30
    3616:	900b      	str	r0, [sp, #44]	; 0x2c
    3618:	f640 301c 	movw	r0, #2844	; 0xb1c
    361c:	f2c2 0000 	movt	r0, #8192	; 0x2000
    3620:	6800      	ldr	r0, [r0, #0]
    3622:	2800      	cmp	r0, #0
    3624:	f000 8089 	beq.w	373a <xTaskResumeAll+0x17a>
    3628:	e7ff      	b.n	362a <xTaskResumeAll+0x6a>
    362a:	f640 301c 	movw	r0, #2844	; 0xb1c
    362e:	f2c2 0000 	movt	r0, #8192	; 0x2000
    3632:	68c0      	ldr	r0, [r0, #12]
    3634:	68c3      	ldr	r3, [r0, #12]
    3636:	9309      	str	r3, [sp, #36]	; 0x24
    3638:	f103 0118 	add.w	r1, r3, #24
    363c:	f8d3 c01c 	ldr.w	ip, [r3, #28]
    3640:	6a1a      	ldr	r2, [r3, #32]
    3642:	6a98      	ldr	r0, [r3, #40]	; 0x28
    3644:	900a      	str	r0, [sp, #40]	; 0x28
    3646:	f8cc 2008 	str.w	r2, [ip, #8]
    364a:	69da      	ldr	r2, [r3, #28]
    364c:	6a1b      	ldr	r3, [r3, #32]
    364e:	605a      	str	r2, [r3, #4]
    3650:	6840      	ldr	r0, [r0, #4]
    3652:	4288      	cmp	r0, r1
    3654:	d105      	bne.n	3662 <xTaskResumeAll+0xa2>
    3656:	e7ff      	b.n	3658 <xTaskResumeAll+0x98>
    3658:	990a      	ldr	r1, [sp, #40]	; 0x28
    365a:	9809      	ldr	r0, [sp, #36]	; 0x24
    365c:	6a00      	ldr	r0, [r0, #32]
    365e:	6048      	str	r0, [r1, #4]
    3660:	e7ff      	b.n	3662 <xTaskResumeAll+0xa2>
    3662:	9b09      	ldr	r3, [sp, #36]	; 0x24
    3664:	990a      	ldr	r1, [sp, #40]	; 0x28
    3666:	2000      	movs	r0, #0
    3668:	6298      	str	r0, [r3, #40]	; 0x28
    366a:	6808      	ldr	r0, [r1, #0]
    366c:	3801      	subs	r0, #1
    366e:	6008      	str	r0, [r1, #0]
    3670:	1d19      	adds	r1, r3, #4
    3672:	f8d3 c008 	ldr.w	ip, [r3, #8]
    3676:	68da      	ldr	r2, [r3, #12]
    3678:	6958      	ldr	r0, [r3, #20]
    367a:	9008      	str	r0, [sp, #32]
    367c:	f8cc 2008 	str.w	r2, [ip, #8]
    3680:	689a      	ldr	r2, [r3, #8]
    3682:	68db      	ldr	r3, [r3, #12]
    3684:	605a      	str	r2, [r3, #4]
    3686:	6840      	ldr	r0, [r0, #4]
    3688:	4288      	cmp	r0, r1
    368a:	d105      	bne.n	3698 <xTaskResumeAll+0xd8>
    368c:	e7ff      	b.n	368e <xTaskResumeAll+0xce>
    368e:	9908      	ldr	r1, [sp, #32]
    3690:	9809      	ldr	r0, [sp, #36]	; 0x24
    3692:	68c0      	ldr	r0, [r0, #12]
    3694:	6048      	str	r0, [r1, #4]
    3696:	e7ff      	b.n	3698 <xTaskResumeAll+0xd8>
    3698:	9809      	ldr	r0, [sp, #36]	; 0x24
    369a:	9a08      	ldr	r2, [sp, #32]
    369c:	2100      	movs	r1, #0
    369e:	6141      	str	r1, [r0, #20]
    36a0:	6811      	ldr	r1, [r2, #0]
    36a2:	3901      	subs	r1, #1
    36a4:	6011      	str	r1, [r2, #0]
    36a6:	6ac0      	ldr	r0, [r0, #44]	; 0x2c
    36a8:	f640 3114 	movw	r1, #2836	; 0xb14
    36ac:	f2c2 0100 	movt	r1, #8192	; 0x2000
    36b0:	6809      	ldr	r1, [r1, #0]
    36b2:	4288      	cmp	r0, r1
    36b4:	d908      	bls.n	36c8 <xTaskResumeAll+0x108>
    36b6:	e7ff      	b.n	36b8 <xTaskResumeAll+0xf8>
    36b8:	9809      	ldr	r0, [sp, #36]	; 0x24
    36ba:	6ac0      	ldr	r0, [r0, #44]	; 0x2c
    36bc:	f640 3114 	movw	r1, #2836	; 0xb14
    36c0:	f2c2 0100 	movt	r1, #8192	; 0x2000
    36c4:	6008      	str	r0, [r1, #0]
    36c6:	e7ff      	b.n	36c8 <xTaskResumeAll+0x108>
    36c8:	9809      	ldr	r0, [sp, #36]	; 0x24
    36ca:	6ac1      	ldr	r1, [r0, #44]	; 0x2c
    36cc:	eb01 0181 	add.w	r1, r1, r1, lsl #2
    36d0:	f640 22b0 	movw	r2, #2736	; 0xab0
    36d4:	f2c2 0200 	movt	r2, #8192	; 0x2000
    36d8:	eb02 0181 	add.w	r1, r2, r1, lsl #2
    36dc:	684b      	ldr	r3, [r1, #4]
    36de:	1d01      	adds	r1, r0, #4
    36e0:	6083      	str	r3, [r0, #8]
    36e2:	f8d3 c008 	ldr.w	ip, [r3, #8]
    36e6:	f8c0 c00c 	str.w	ip, [r0, #12]
    36ea:	f8d3 c008 	ldr.w	ip, [r3, #8]
    36ee:	f8cc 1004 	str.w	r1, [ip, #4]
    36f2:	6099      	str	r1, [r3, #8]
    36f4:	6ac1      	ldr	r1, [r0, #44]	; 0x2c
    36f6:	eb01 0181 	add.w	r1, r1, r1, lsl #2
    36fa:	eb02 0181 	add.w	r1, r2, r1, lsl #2
    36fe:	6141      	str	r1, [r0, #20]
    3700:	6ac1      	ldr	r1, [r0, #44]	; 0x2c
    3702:	eb01 0381 	add.w	r3, r1, r1, lsl #2
    3706:	f852 1023 	ldr.w	r1, [r2, r3, lsl #2]
    370a:	3101      	adds	r1, #1
    370c:	f842 1023 	str.w	r1, [r2, r3, lsl #2]
    3710:	6ac0      	ldr	r0, [r0, #44]	; 0x2c
    3712:	f640 2164 	movw	r1, #2660	; 0xa64
    3716:	f2c2 0100 	movt	r1, #8192	; 0x2000
    371a:	6809      	ldr	r1, [r1, #0]
    371c:	6ac9      	ldr	r1, [r1, #44]	; 0x2c
    371e:	4288      	cmp	r0, r1
    3720:	d307      	bcc.n	3732 <xTaskResumeAll+0x172>
    3722:	e7ff      	b.n	3724 <xTaskResumeAll+0x164>
    3724:	f640 3118 	movw	r1, #2840	; 0xb18
    3728:	f2c2 0100 	movt	r1, #8192	; 0x2000
    372c:	2001      	movs	r0, #1
    372e:	6008      	str	r0, [r1, #0]
    3730:	e000      	b.n	3734 <xTaskResumeAll+0x174>
    3732:	e7ff      	b.n	3734 <xTaskResumeAll+0x174>
    3734:	9809      	ldr	r0, [sp, #36]	; 0x24
    3736:	900c      	str	r0, [sp, #48]	; 0x30
    3738:	e76c      	b.n	3614 <xTaskResumeAll+0x54>
    373a:	980b      	ldr	r0, [sp, #44]	; 0x2c
    373c:	b118      	cbz	r0, 3746 <xTaskResumeAll+0x186>
    373e:	e7ff      	b.n	3740 <xTaskResumeAll+0x180>
    3740:	f7ff fe91 	bl	3466 <prvResetNextTaskUnblockTime>
    3744:	e7ff      	b.n	3746 <xTaskResumeAll+0x186>
    3746:	f640 3038 	movw	r0, #2872	; 0xb38
    374a:	f2c2 0000 	movt	r0, #8192	; 0x2000
    374e:	6800      	ldr	r0, [r0, #0]
    3750:	9007      	str	r0, [sp, #28]
    3752:	b308      	cbz	r0, 3798 <xTaskResumeAll+0x1d8>
    3754:	e7ff      	b.n	3756 <xTaskResumeAll+0x196>
    3756:	9807      	ldr	r0, [sp, #28]
    3758:	9006      	str	r0, [sp, #24]
    375a:	e7ff      	b.n	375c <xTaskResumeAll+0x19c>
    375c:	9806      	ldr	r0, [sp, #24]
    375e:	9005      	str	r0, [sp, #20]
    3760:	f000 f8f9 	bl	3956 <xTaskIncrementTick>
    3764:	b138      	cbz	r0, 3776 <xTaskResumeAll+0x1b6>
    3766:	e7ff      	b.n	3768 <xTaskResumeAll+0x1a8>
    3768:	f640 3118 	movw	r1, #2840	; 0xb18
    376c:	f2c2 0100 	movt	r1, #8192	; 0x2000
    3770:	2001      	movs	r0, #1
    3772:	6008      	str	r0, [r1, #0]
    3774:	e000      	b.n	3778 <xTaskResumeAll+0x1b8>
    3776:	e7ff      	b.n	3778 <xTaskResumeAll+0x1b8>
    3778:	9805      	ldr	r0, [sp, #20]
    377a:	3801      	subs	r0, #1
    377c:	9004      	str	r0, [sp, #16]
    377e:	e7ff      	b.n	3780 <xTaskResumeAll+0x1c0>
    3780:	9804      	ldr	r0, [sp, #16]
    3782:	2800      	cmp	r0, #0
    3784:	9006      	str	r0, [sp, #24]
    3786:	d1e9      	bne.n	375c <xTaskResumeAll+0x19c>
    3788:	e7ff      	b.n	378a <xTaskResumeAll+0x1ca>
    378a:	f640 3138 	movw	r1, #2872	; 0xb38
    378e:	f2c2 0100 	movt	r1, #8192	; 0x2000
    3792:	2000      	movs	r0, #0
    3794:	6008      	str	r0, [r1, #0]
    3796:	e000      	b.n	379a <xTaskResumeAll+0x1da>
    3798:	e7ff      	b.n	379a <xTaskResumeAll+0x1da>
    379a:	f640 3018 	movw	r0, #2840	; 0xb18
    379e:	f2c2 0000 	movt	r0, #8192	; 0x2000
    37a2:	6800      	ldr	r0, [r0, #0]
    37a4:	b128      	cbz	r0, 37b2 <xTaskResumeAll+0x1f2>
    37a6:	e7ff      	b.n	37a8 <xTaskResumeAll+0x1e8>
    37a8:	f7ff f84c 	bl	2844 <vPortYield>
    37ac:	2001      	movs	r0, #1
    37ae:	9003      	str	r0, [sp, #12]
    37b0:	e002      	b.n	37b8 <xTaskResumeAll+0x1f8>
    37b2:	2000      	movs	r0, #0
    37b4:	9003      	str	r0, [sp, #12]
    37b6:	e7ff      	b.n	37b8 <xTaskResumeAll+0x1f8>
    37b8:	9803      	ldr	r0, [sp, #12]
    37ba:	900d      	str	r0, [sp, #52]	; 0x34
    37bc:	e7ff      	b.n	37be <xTaskResumeAll+0x1fe>
    37be:	980d      	ldr	r0, [sp, #52]	; 0x34
    37c0:	9002      	str	r0, [sp, #8]
    37c2:	e002      	b.n	37ca <xTaskResumeAll+0x20a>
    37c4:	2000      	movs	r0, #0
    37c6:	9002      	str	r0, [sp, #8]
    37c8:	e7ff      	b.n	37ca <xTaskResumeAll+0x20a>
    37ca:	9802      	ldr	r0, [sp, #8]
    37cc:	9001      	str	r0, [sp, #4]
    37ce:	f7ff f855 	bl	287c <vPortExitCritical>
    37d2:	9801      	ldr	r0, [sp, #4]
    37d4:	b00e      	add	sp, #56	; 0x38
    37d6:	bd80      	pop	{r7, pc}

000037d8 <vTaskSwitchContext>:
    37d8:	b580      	push	{r7, lr}
    37da:	466f      	mov	r7, sp
    37dc:	b084      	sub	sp, #16
    37de:	f640 208c 	movw	r0, #2700	; 0xa8c
    37e2:	f2c2 0000 	movt	r0, #8192	; 0x2000
    37e6:	6800      	ldr	r0, [r0, #0]
    37e8:	b138      	cbz	r0, 37fa <vTaskSwitchContext+0x22>
    37ea:	e7ff      	b.n	37ec <vTaskSwitchContext+0x14>
    37ec:	f640 3118 	movw	r1, #2840	; 0xb18
    37f0:	f2c2 0100 	movt	r1, #8192	; 0x2000
    37f4:	2001      	movs	r0, #1
    37f6:	6008      	str	r0, [r1, #0]
    37f8:	e04a      	b.n	3890 <vTaskSwitchContext+0xb8>
    37fa:	f640 3118 	movw	r1, #2840	; 0xb18
    37fe:	f2c2 0100 	movt	r1, #8192	; 0x2000
    3802:	2000      	movs	r0, #0
    3804:	6008      	str	r0, [r1, #0]
    3806:	f640 3014 	movw	r0, #2836	; 0xb14
    380a:	f2c2 0000 	movt	r0, #8192	; 0x2000
    380e:	6800      	ldr	r0, [r0, #0]
    3810:	9003      	str	r0, [sp, #12]
    3812:	e7ff      	b.n	3814 <vTaskSwitchContext+0x3c>
    3814:	9803      	ldr	r0, [sp, #12]
    3816:	9002      	str	r0, [sp, #8]
    3818:	eb00 0180 	add.w	r1, r0, r0, lsl #2
    381c:	f640 20b0 	movw	r0, #2736	; 0xab0
    3820:	f2c2 0000 	movt	r0, #8192	; 0x2000
    3824:	f850 0021 	ldr.w	r0, [r0, r1, lsl #2]
    3828:	b958      	cbnz	r0, 3842 <vTaskSwitchContext+0x6a>
    382a:	e7ff      	b.n	382c <vTaskSwitchContext+0x54>
    382c:	9802      	ldr	r0, [sp, #8]
    382e:	b920      	cbnz	r0, 383a <vTaskSwitchContext+0x62>
    3830:	e7ff      	b.n	3832 <vTaskSwitchContext+0x5a>
    3832:	f7ff f92f 	bl	2a94 <ulSetInterruptMask>
    3836:	e7ff      	b.n	3838 <vTaskSwitchContext+0x60>
    3838:	e7fe      	b.n	3838 <vTaskSwitchContext+0x60>
    383a:	9802      	ldr	r0, [sp, #8]
    383c:	3801      	subs	r0, #1
    383e:	9003      	str	r0, [sp, #12]
    3840:	e7e8      	b.n	3814 <vTaskSwitchContext+0x3c>
    3842:	9802      	ldr	r0, [sp, #8]
    3844:	eb00 0180 	add.w	r1, r0, r0, lsl #2
    3848:	f640 20b0 	movw	r0, #2736	; 0xab0
    384c:	f2c2 0000 	movt	r0, #8192	; 0x2000
    3850:	eb00 0181 	add.w	r1, r0, r1, lsl #2
    3854:	4608      	mov	r0, r1
    3856:	9001      	str	r0, [sp, #4]
    3858:	6848      	ldr	r0, [r1, #4]
    385a:	6840      	ldr	r0, [r0, #4]
    385c:	6048      	str	r0, [r1, #4]
    385e:	6848      	ldr	r0, [r1, #4]
    3860:	3108      	adds	r1, #8
    3862:	4288      	cmp	r0, r1
    3864:	d105      	bne.n	3872 <vTaskSwitchContext+0x9a>
    3866:	e7ff      	b.n	3868 <vTaskSwitchContext+0x90>
    3868:	9901      	ldr	r1, [sp, #4]
    386a:	6848      	ldr	r0, [r1, #4]
    386c:	6840      	ldr	r0, [r0, #4]
    386e:	6048      	str	r0, [r1, #4]
    3870:	e7ff      	b.n	3872 <vTaskSwitchContext+0x9a>
    3872:	9802      	ldr	r0, [sp, #8]
    3874:	9901      	ldr	r1, [sp, #4]
    3876:	6849      	ldr	r1, [r1, #4]
    3878:	68c9      	ldr	r1, [r1, #12]
    387a:	f640 2264 	movw	r2, #2660	; 0xa64
    387e:	f2c2 0200 	movt	r2, #8192	; 0x2000
    3882:	6011      	str	r1, [r2, #0]
    3884:	f640 3114 	movw	r1, #2836	; 0xb14
    3888:	f2c2 0100 	movt	r1, #8192	; 0x2000
    388c:	6008      	str	r0, [r1, #0]
    388e:	e7ff      	b.n	3890 <vTaskSwitchContext+0xb8>
    3890:	b004      	add	sp, #16
    3892:	bd80      	pop	{r7, pc}

00003894 <vTaskStartScheduler>:
    3894:	b580      	push	{r7, lr}
    3896:	466f      	mov	r7, sp
    3898:	b086      	sub	sp, #24
    389a:	f640 3130 	movw	r1, #2864	; 0xb30
    389e:	f2c2 0100 	movt	r1, #8192	; 0x2000
    38a2:	4668      	mov	r0, sp
    38a4:	6041      	str	r1, [r0, #4]
    38a6:	2300      	movs	r3, #0
    38a8:	6003      	str	r3, [r0, #0]
    38aa:	f643 1033 	movw	r0, #14643	; 0x3933
    38ae:	f2c0 0000 	movt	r0, #0
    38b2:	f248 6164 	movw	r1, #34404	; 0x8664
    38b6:	f2c0 0100 	movt	r1, #0
    38ba:	2240      	movs	r2, #64	; 0x40
    38bc:	f7ff fc5f 	bl	317e <xTaskCreate>
    38c0:	4601      	mov	r1, r0
    38c2:	9105      	str	r1, [sp, #20]
    38c4:	2801      	cmp	r0, #1
    38c6:	d104      	bne.n	38d2 <vTaskStartScheduler+0x3e>
    38c8:	e7ff      	b.n	38ca <vTaskStartScheduler+0x36>
    38ca:	f000 fb7b 	bl	3fc4 <xTimerCreateTimerTask>
    38ce:	9004      	str	r0, [sp, #16]
    38d0:	e002      	b.n	38d8 <vTaskStartScheduler+0x44>
    38d2:	9805      	ldr	r0, [sp, #20]
    38d4:	9004      	str	r0, [sp, #16]
    38d6:	e7ff      	b.n	38d8 <vTaskStartScheduler+0x44>
    38d8:	9804      	ldr	r0, [sp, #16]
    38da:	9003      	str	r0, [sp, #12]
    38dc:	2801      	cmp	r0, #1
    38de:	d118      	bne.n	3912 <vTaskStartScheduler+0x7e>
    38e0:	e7ff      	b.n	38e2 <vTaskStartScheduler+0x4e>
    38e2:	f7ff f8d7 	bl	2a94 <ulSetInterruptMask>
    38e6:	f640 3134 	movw	r1, #2868	; 0xb34
    38ea:	f2c2 0100 	movt	r1, #8192	; 0x2000
    38ee:	f04f 30ff 	mov.w	r0, #4294967295	; 0xffffffff
    38f2:	6008      	str	r0, [r1, #0]
    38f4:	f640 2188 	movw	r1, #2696	; 0xa88
    38f8:	f2c2 0100 	movt	r1, #8192	; 0x2000
    38fc:	2001      	movs	r0, #1
    38fe:	6008      	str	r0, [r1, #0]
    3900:	f640 2190 	movw	r1, #2704	; 0xa90
    3904:	f2c2 0100 	movt	r1, #8192	; 0x2000
    3908:	2000      	movs	r0, #0
    390a:	6008      	str	r0, [r1, #0]
    390c:	f7ff f86b 	bl	29e6 <xPortStartScheduler>
    3910:	e008      	b.n	3924 <vTaskStartScheduler+0x90>
    3912:	9803      	ldr	r0, [sp, #12]
    3914:	3001      	adds	r0, #1
    3916:	b920      	cbnz	r0, 3922 <vTaskStartScheduler+0x8e>
    3918:	e7ff      	b.n	391a <vTaskStartScheduler+0x86>
    391a:	f7ff f8bb 	bl	2a94 <ulSetInterruptMask>
    391e:	e7ff      	b.n	3920 <vTaskStartScheduler+0x8c>
    3920:	e7fe      	b.n	3920 <vTaskStartScheduler+0x8c>
    3922:	e7ff      	b.n	3924 <vTaskStartScheduler+0x90>
    3924:	f248 6060 	movw	r0, #34400	; 0x8660
    3928:	f2c0 0000 	movt	r0, #0
    392c:	6800      	ldr	r0, [r0, #0]
    392e:	b006      	add	sp, #24
    3930:	bd80      	pop	{r7, pc}

00003932 <prvIdleTask>:
    3932:	b580      	push	{r7, lr}
    3934:	466f      	mov	r7, sp
    3936:	e7ff      	b.n	3938 <prvIdleTask+0x6>
    3938:	f000 fb17 	bl	3f6a <prvCheckTasksWaitingTermination>
    393c:	f640 20b0 	movw	r0, #2736	; 0xab0
    3940:	f2c2 0000 	movt	r0, #8192	; 0x2000
    3944:	6800      	ldr	r0, [r0, #0]
    3946:	2802      	cmp	r0, #2
    3948:	d303      	bcc.n	3952 <prvIdleTask+0x20>
    394a:	e7ff      	b.n	394c <prvIdleTask+0x1a>
    394c:	f7fe ff7a 	bl	2844 <vPortYield>
    3950:	e000      	b.n	3954 <prvIdleTask+0x22>
    3952:	e7ff      	b.n	3954 <prvIdleTask+0x22>
    3954:	e7f0      	b.n	3938 <prvIdleTask+0x6>

00003956 <xTaskIncrementTick>:
    3956:	b580      	push	{r7, lr}
    3958:	466f      	mov	r7, sp
    395a:	b08e      	sub	sp, #56	; 0x38
    395c:	f640 208c 	movw	r0, #2700	; 0xa8c
    3960:	f2c2 0000 	movt	r0, #8192	; 0x2000
    3964:	6800      	ldr	r0, [r0, #0]
    3966:	2800      	cmp	r0, #0
    3968:	f040 8105 	bne.w	3b76 <xTaskIncrementTick+0x220>
    396c:	e7ff      	b.n	396e <xTaskIncrementTick+0x18>
    396e:	f640 2190 	movw	r1, #2704	; 0xa90
    3972:	f2c2 0100 	movt	r1, #8192	; 0x2000
    3976:	6808      	ldr	r0, [r1, #0]
    3978:	3001      	adds	r0, #1
    397a:	4602      	mov	r2, r0
    397c:	920d      	str	r2, [sp, #52]	; 0x34
    397e:	6008      	str	r0, [r1, #0]
    3980:	bb10      	cbnz	r0, 39c8 <xTaskIncrementTick+0x72>
    3982:	e7ff      	b.n	3984 <xTaskIncrementTick+0x2e>
    3984:	f640 2094 	movw	r0, #2708	; 0xa94
    3988:	f2c2 0000 	movt	r0, #8192	; 0x2000
    398c:	6800      	ldr	r0, [r0, #0]
    398e:	6800      	ldr	r0, [r0, #0]
    3990:	b120      	cbz	r0, 399c <xTaskIncrementTick+0x46>
    3992:	e7ff      	b.n	3994 <xTaskIncrementTick+0x3e>
    3994:	f7ff f87e 	bl	2a94 <ulSetInterruptMask>
    3998:	e7ff      	b.n	399a <xTaskIncrementTick+0x44>
    399a:	e7fe      	b.n	399a <xTaskIncrementTick+0x44>
    399c:	f640 2394 	movw	r3, #2708	; 0xa94
    39a0:	f2c2 0300 	movt	r3, #8192	; 0x2000
    39a4:	6818      	ldr	r0, [r3, #0]
    39a6:	f640 2198 	movw	r1, #2712	; 0xa98
    39aa:	f2c2 0100 	movt	r1, #8192	; 0x2000
    39ae:	680a      	ldr	r2, [r1, #0]
    39b0:	601a      	str	r2, [r3, #0]
    39b2:	6008      	str	r0, [r1, #0]
    39b4:	f640 313c 	movw	r1, #2876	; 0xb3c
    39b8:	f2c2 0100 	movt	r1, #8192	; 0x2000
    39bc:	6808      	ldr	r0, [r1, #0]
    39be:	3001      	adds	r0, #1
    39c0:	6008      	str	r0, [r1, #0]
    39c2:	f7ff fd50 	bl	3466 <prvResetNextTaskUnblockTime>
    39c6:	e000      	b.n	39ca <xTaskIncrementTick+0x74>
    39c8:	e7ff      	b.n	39ca <xTaskIncrementTick+0x74>
    39ca:	990d      	ldr	r1, [sp, #52]	; 0x34
    39cc:	f640 3034 	movw	r0, #2868	; 0xb34
    39d0:	f2c2 0000 	movt	r0, #8192	; 0x2000
    39d4:	6802      	ldr	r2, [r0, #0]
    39d6:	2000      	movs	r0, #0
    39d8:	4291      	cmp	r1, r2
    39da:	900c      	str	r0, [sp, #48]	; 0x30
    39dc:	f0c0 80b9 	bcc.w	3b52 <xTaskIncrementTick+0x1fc>
    39e0:	e7ff      	b.n	39e2 <xTaskIncrementTick+0x8c>
    39e2:	2000      	movs	r0, #0
    39e4:	900b      	str	r0, [sp, #44]	; 0x2c
    39e6:	e7ff      	b.n	39e8 <xTaskIncrementTick+0x92>
    39e8:	980b      	ldr	r0, [sp, #44]	; 0x2c
    39ea:	900a      	str	r0, [sp, #40]	; 0x28
    39ec:	f640 2094 	movw	r0, #2708	; 0xa94
    39f0:	f2c2 0000 	movt	r0, #8192	; 0x2000
    39f4:	6800      	ldr	r0, [r0, #0]
    39f6:	6800      	ldr	r0, [r0, #0]
    39f8:	b940      	cbnz	r0, 3a0c <xTaskIncrementTick+0xb6>
    39fa:	e7ff      	b.n	39fc <xTaskIncrementTick+0xa6>
    39fc:	f640 3134 	movw	r1, #2868	; 0xb34
    3a00:	f2c2 0100 	movt	r1, #8192	; 0x2000
    3a04:	f04f 30ff 	mov.w	r0, #4294967295	; 0xffffffff
    3a08:	6008      	str	r0, [r1, #0]
    3a0a:	e09f      	b.n	3b4c <xTaskIncrementTick+0x1f6>
    3a0c:	980d      	ldr	r0, [sp, #52]	; 0x34
    3a0e:	f640 2194 	movw	r1, #2708	; 0xa94
    3a12:	f2c2 0100 	movt	r1, #8192	; 0x2000
    3a16:	6809      	ldr	r1, [r1, #0]
    3a18:	68c9      	ldr	r1, [r1, #12]
    3a1a:	68c9      	ldr	r1, [r1, #12]
    3a1c:	9108      	str	r1, [sp, #32]
    3a1e:	6849      	ldr	r1, [r1, #4]
    3a20:	9109      	str	r1, [sp, #36]	; 0x24
    3a22:	4288      	cmp	r0, r1
    3a24:	d207      	bcs.n	3a36 <xTaskIncrementTick+0xe0>
    3a26:	e7ff      	b.n	3a28 <xTaskIncrementTick+0xd2>
    3a28:	9809      	ldr	r0, [sp, #36]	; 0x24
    3a2a:	f640 3134 	movw	r1, #2868	; 0xb34
    3a2e:	f2c2 0100 	movt	r1, #8192	; 0x2000
    3a32:	6008      	str	r0, [r1, #0]
    3a34:	e08a      	b.n	3b4c <xTaskIncrementTick+0x1f6>
    3a36:	e7ff      	b.n	3a38 <xTaskIncrementTick+0xe2>
    3a38:	9b08      	ldr	r3, [sp, #32]
    3a3a:	1d19      	adds	r1, r3, #4
    3a3c:	f8d3 c008 	ldr.w	ip, [r3, #8]
    3a40:	68da      	ldr	r2, [r3, #12]
    3a42:	6958      	ldr	r0, [r3, #20]
    3a44:	9007      	str	r0, [sp, #28]
    3a46:	f8cc 2008 	str.w	r2, [ip, #8]
    3a4a:	689a      	ldr	r2, [r3, #8]
    3a4c:	68db      	ldr	r3, [r3, #12]
    3a4e:	605a      	str	r2, [r3, #4]
    3a50:	6840      	ldr	r0, [r0, #4]
    3a52:	4288      	cmp	r0, r1
    3a54:	d105      	bne.n	3a62 <xTaskIncrementTick+0x10c>
    3a56:	e7ff      	b.n	3a58 <xTaskIncrementTick+0x102>
    3a58:	9907      	ldr	r1, [sp, #28]
    3a5a:	9808      	ldr	r0, [sp, #32]
    3a5c:	68c0      	ldr	r0, [r0, #12]
    3a5e:	6048      	str	r0, [r1, #4]
    3a60:	e7ff      	b.n	3a62 <xTaskIncrementTick+0x10c>
    3a62:	9808      	ldr	r0, [sp, #32]
    3a64:	9a07      	ldr	r2, [sp, #28]
    3a66:	2100      	movs	r1, #0
    3a68:	6141      	str	r1, [r0, #20]
    3a6a:	6811      	ldr	r1, [r2, #0]
    3a6c:	3901      	subs	r1, #1
    3a6e:	6011      	str	r1, [r2, #0]
    3a70:	6a80      	ldr	r0, [r0, #40]	; 0x28
    3a72:	b1f0      	cbz	r0, 3ab2 <xTaskIncrementTick+0x15c>
    3a74:	e7ff      	b.n	3a76 <xTaskIncrementTick+0x120>
    3a76:	9b08      	ldr	r3, [sp, #32]
    3a78:	f103 0118 	add.w	r1, r3, #24
    3a7c:	f8d3 c01c 	ldr.w	ip, [r3, #28]
    3a80:	6a1a      	ldr	r2, [r3, #32]
    3a82:	6a98      	ldr	r0, [r3, #40]	; 0x28
    3a84:	9006      	str	r0, [sp, #24]
    3a86:	f8cc 2008 	str.w	r2, [ip, #8]
    3a8a:	69da      	ldr	r2, [r3, #28]
    3a8c:	6a1b      	ldr	r3, [r3, #32]
    3a8e:	605a      	str	r2, [r3, #4]
    3a90:	6840      	ldr	r0, [r0, #4]
    3a92:	4288      	cmp	r0, r1
    3a94:	d105      	bne.n	3aa2 <xTaskIncrementTick+0x14c>
    3a96:	e7ff      	b.n	3a98 <xTaskIncrementTick+0x142>
    3a98:	9906      	ldr	r1, [sp, #24]
    3a9a:	9808      	ldr	r0, [sp, #32]
    3a9c:	6a00      	ldr	r0, [r0, #32]
    3a9e:	6048      	str	r0, [r1, #4]
    3aa0:	e7ff      	b.n	3aa2 <xTaskIncrementTick+0x14c>
    3aa2:	9906      	ldr	r1, [sp, #24]
    3aa4:	9a08      	ldr	r2, [sp, #32]
    3aa6:	2000      	movs	r0, #0
    3aa8:	6290      	str	r0, [r2, #40]	; 0x28
    3aaa:	6808      	ldr	r0, [r1, #0]
    3aac:	3801      	subs	r0, #1
    3aae:	6008      	str	r0, [r1, #0]
    3ab0:	e000      	b.n	3ab4 <xTaskIncrementTick+0x15e>
    3ab2:	e7ff      	b.n	3ab4 <xTaskIncrementTick+0x15e>
    3ab4:	9808      	ldr	r0, [sp, #32]
    3ab6:	6ac0      	ldr	r0, [r0, #44]	; 0x2c
    3ab8:	f640 3114 	movw	r1, #2836	; 0xb14
    3abc:	f2c2 0100 	movt	r1, #8192	; 0x2000
    3ac0:	6809      	ldr	r1, [r1, #0]
    3ac2:	4288      	cmp	r0, r1
    3ac4:	d908      	bls.n	3ad8 <xTaskIncrementTick+0x182>
    3ac6:	e7ff      	b.n	3ac8 <xTaskIncrementTick+0x172>
    3ac8:	9808      	ldr	r0, [sp, #32]
    3aca:	6ac0      	ldr	r0, [r0, #44]	; 0x2c
    3acc:	f640 3114 	movw	r1, #2836	; 0xb14
    3ad0:	f2c2 0100 	movt	r1, #8192	; 0x2000
    3ad4:	6008      	str	r0, [r1, #0]
    3ad6:	e7ff      	b.n	3ad8 <xTaskIncrementTick+0x182>
    3ad8:	9808      	ldr	r0, [sp, #32]
    3ada:	6ac1      	ldr	r1, [r0, #44]	; 0x2c
    3adc:	eb01 0181 	add.w	r1, r1, r1, lsl #2
    3ae0:	f640 22b0 	movw	r2, #2736	; 0xab0
    3ae4:	f2c2 0200 	movt	r2, #8192	; 0x2000
    3ae8:	eb02 0181 	add.w	r1, r2, r1, lsl #2
    3aec:	684b      	ldr	r3, [r1, #4]
    3aee:	1d01      	adds	r1, r0, #4
    3af0:	6083      	str	r3, [r0, #8]
    3af2:	f8d3 c008 	ldr.w	ip, [r3, #8]
    3af6:	f8c0 c00c 	str.w	ip, [r0, #12]
    3afa:	f8d3 c008 	ldr.w	ip, [r3, #8]
    3afe:	f8cc 1004 	str.w	r1, [ip, #4]
    3b02:	6099      	str	r1, [r3, #8]
    3b04:	6ac1      	ldr	r1, [r0, #44]	; 0x2c
    3b06:	eb01 0181 	add.w	r1, r1, r1, lsl #2
    3b0a:	eb02 0181 	add.w	r1, r2, r1, lsl #2
    3b0e:	6141      	str	r1, [r0, #20]
    3b10:	6ac1      	ldr	r1, [r0, #44]	; 0x2c
    3b12:	eb01 0381 	add.w	r3, r1, r1, lsl #2
    3b16:	f852 1023 	ldr.w	r1, [r2, r3, lsl #2]
    3b1a:	3101      	adds	r1, #1
    3b1c:	f842 1023 	str.w	r1, [r2, r3, lsl #2]
    3b20:	6ac0      	ldr	r0, [r0, #44]	; 0x2c
    3b22:	f640 2164 	movw	r1, #2660	; 0xa64
    3b26:	f2c2 0100 	movt	r1, #8192	; 0x2000
    3b2a:	6809      	ldr	r1, [r1, #0]
    3b2c:	6ac9      	ldr	r1, [r1, #44]	; 0x2c
    3b2e:	4288      	cmp	r0, r1
    3b30:	d903      	bls.n	3b3a <xTaskIncrementTick+0x1e4>
    3b32:	e7ff      	b.n	3b34 <xTaskIncrementTick+0x1de>
    3b34:	2001      	movs	r0, #1
    3b36:	9005      	str	r0, [sp, #20]
    3b38:	e002      	b.n	3b40 <xTaskIncrementTick+0x1ea>
    3b3a:	980a      	ldr	r0, [sp, #40]	; 0x28
    3b3c:	9005      	str	r0, [sp, #20]
    3b3e:	e7ff      	b.n	3b40 <xTaskIncrementTick+0x1ea>
    3b40:	9805      	ldr	r0, [sp, #20]
    3b42:	9004      	str	r0, [sp, #16]
    3b44:	e7ff      	b.n	3b46 <xTaskIncrementTick+0x1f0>
    3b46:	9804      	ldr	r0, [sp, #16]
    3b48:	900b      	str	r0, [sp, #44]	; 0x2c
    3b4a:	e74d      	b.n	39e8 <xTaskIncrementTick+0x92>
    3b4c:	980a      	ldr	r0, [sp, #40]	; 0x28
    3b4e:	900c      	str	r0, [sp, #48]	; 0x30
    3b50:	e7ff      	b.n	3b52 <xTaskIncrementTick+0x1fc>
    3b52:	980c      	ldr	r0, [sp, #48]	; 0x30
    3b54:	9003      	str	r0, [sp, #12]
    3b56:	f640 3018 	movw	r0, #2840	; 0xb18
    3b5a:	f2c2 0000 	movt	r0, #8192	; 0x2000
    3b5e:	6800      	ldr	r0, [r0, #0]
    3b60:	b118      	cbz	r0, 3b6a <xTaskIncrementTick+0x214>
    3b62:	e7ff      	b.n	3b64 <xTaskIncrementTick+0x20e>
    3b64:	2001      	movs	r0, #1
    3b66:	9002      	str	r0, [sp, #8]
    3b68:	e002      	b.n	3b70 <xTaskIncrementTick+0x21a>
    3b6a:	9803      	ldr	r0, [sp, #12]
    3b6c:	9002      	str	r0, [sp, #8]
    3b6e:	e7ff      	b.n	3b70 <xTaskIncrementTick+0x21a>
    3b70:	9802      	ldr	r0, [sp, #8]
    3b72:	9001      	str	r0, [sp, #4]
    3b74:	e009      	b.n	3b8a <xTaskIncrementTick+0x234>
    3b76:	f640 3138 	movw	r1, #2872	; 0xb38
    3b7a:	f2c2 0100 	movt	r1, #8192	; 0x2000
    3b7e:	6808      	ldr	r0, [r1, #0]
    3b80:	3001      	adds	r0, #1
    3b82:	6008      	str	r0, [r1, #0]
    3b84:	2000      	movs	r0, #0
    3b86:	9001      	str	r0, [sp, #4]
    3b88:	e7ff      	b.n	3b8a <xTaskIncrementTick+0x234>
    3b8a:	9801      	ldr	r0, [sp, #4]
    3b8c:	b00e      	add	sp, #56	; 0x38
    3b8e:	bd80      	pop	{r7, pc}

00003b90 <xTaskGetTickCount>:
    3b90:	f640 2090 	movw	r0, #2704	; 0xa90
    3b94:	f2c2 0000 	movt	r0, #8192	; 0x2000
    3b98:	6800      	ldr	r0, [r0, #0]
    3b9a:	4770      	bx	lr

00003b9c <vTaskPlaceOnEventList>:
    3b9c:	b580      	push	{r7, lr}
    3b9e:	466f      	mov	r7, sp
    3ba0:	b082      	sub	sp, #8
    3ba2:	9100      	str	r1, [sp, #0]
    3ba4:	9001      	str	r0, [sp, #4]
    3ba6:	b920      	cbnz	r0, 3bb2 <vTaskPlaceOnEventList+0x16>
    3ba8:	e7ff      	b.n	3baa <vTaskPlaceOnEventList+0xe>
    3baa:	f7fe ff73 	bl	2a94 <ulSetInterruptMask>
    3bae:	e7ff      	b.n	3bb0 <vTaskPlaceOnEventList+0x14>
    3bb0:	e7fe      	b.n	3bb0 <vTaskPlaceOnEventList+0x14>
    3bb2:	9801      	ldr	r0, [sp, #4]
    3bb4:	f640 2164 	movw	r1, #2660	; 0xa64
    3bb8:	f2c2 0100 	movt	r1, #8192	; 0x2000
    3bbc:	6809      	ldr	r1, [r1, #0]
    3bbe:	3118      	adds	r1, #24
    3bc0:	f7fe ffd8 	bl	2b74 <vListInsert>
    3bc4:	9800      	ldr	r0, [sp, #0]
    3bc6:	2101      	movs	r1, #1
    3bc8:	f7ff fc7f 	bl	34ca <prvAddCurrentTaskToDelayedList>
    3bcc:	b002      	add	sp, #8
    3bce:	bd80      	pop	{r7, pc}

00003bd0 <vTaskPlaceOnEventListRestricted>:
    3bd0:	b5d0      	push	{r4, r6, r7, lr}
    3bd2:	af02      	add	r7, sp, #8
    3bd4:	b084      	sub	sp, #16
    3bd6:	9201      	str	r2, [sp, #4]
    3bd8:	9102      	str	r1, [sp, #8]
    3bda:	9003      	str	r0, [sp, #12]
    3bdc:	b920      	cbnz	r0, 3be8 <vTaskPlaceOnEventListRestricted+0x18>
    3bde:	e7ff      	b.n	3be0 <vTaskPlaceOnEventListRestricted+0x10>
    3be0:	f7fe ff58 	bl	2a94 <ulSetInterruptMask>
    3be4:	e7ff      	b.n	3be6 <vTaskPlaceOnEventListRestricted+0x16>
    3be6:	e7fe      	b.n	3be6 <vTaskPlaceOnEventListRestricted+0x16>
    3be8:	9802      	ldr	r0, [sp, #8]
    3bea:	9901      	ldr	r1, [sp, #4]
    3bec:	9b03      	ldr	r3, [sp, #12]
    3bee:	f8d3 e004 	ldr.w	lr, [r3, #4]
    3bf2:	f640 2264 	movw	r2, #2660	; 0xa64
    3bf6:	f2c2 0200 	movt	r2, #8192	; 0x2000
    3bfa:	f8d2 c000 	ldr.w	ip, [r2]
    3bfe:	f8cc e01c 	str.w	lr, [ip, #28]
    3c02:	f8de c008 	ldr.w	ip, [lr, #8]
    3c06:	6814      	ldr	r4, [r2, #0]
    3c08:	f8c4 c020 	str.w	ip, [r4, #32]
    3c0c:	f8d2 c000 	ldr.w	ip, [r2]
    3c10:	f10c 0c18 	add.w	ip, ip, #24
    3c14:	f8de 4008 	ldr.w	r4, [lr, #8]
    3c18:	f8c4 c004 	str.w	ip, [r4, #4]
    3c1c:	f8d2 c000 	ldr.w	ip, [r2]
    3c20:	f10c 0c18 	add.w	ip, ip, #24
    3c24:	f8ce c008 	str.w	ip, [lr, #8]
    3c28:	6812      	ldr	r2, [r2, #0]
    3c2a:	6293      	str	r3, [r2, #40]	; 0x28
    3c2c:	681a      	ldr	r2, [r3, #0]
    3c2e:	3201      	adds	r2, #1
    3c30:	601a      	str	r2, [r3, #0]
    3c32:	9000      	str	r0, [sp, #0]
    3c34:	b121      	cbz	r1, 3c40 <vTaskPlaceOnEventListRestricted+0x70>
    3c36:	e7ff      	b.n	3c38 <vTaskPlaceOnEventListRestricted+0x68>
    3c38:	f04f 30ff 	mov.w	r0, #4294967295	; 0xffffffff
    3c3c:	9000      	str	r0, [sp, #0]
    3c3e:	e7ff      	b.n	3c40 <vTaskPlaceOnEventListRestricted+0x70>
    3c40:	9901      	ldr	r1, [sp, #4]
    3c42:	9800      	ldr	r0, [sp, #0]
    3c44:	f7ff fc41 	bl	34ca <prvAddCurrentTaskToDelayedList>
    3c48:	b004      	add	sp, #16
    3c4a:	bdd0      	pop	{r4, r6, r7, pc}

00003c4c <xTaskRemoveFromEventList>:
    3c4c:	b580      	push	{r7, lr}
    3c4e:	466f      	mov	r7, sp
    3c50:	b084      	sub	sp, #16
    3c52:	68c0      	ldr	r0, [r0, #12]
    3c54:	68c0      	ldr	r0, [r0, #12]
    3c56:	9003      	str	r0, [sp, #12]
    3c58:	b920      	cbnz	r0, 3c64 <xTaskRemoveFromEventList+0x18>
    3c5a:	e7ff      	b.n	3c5c <xTaskRemoveFromEventList+0x10>
    3c5c:	f7fe ff1a 	bl	2a94 <ulSetInterruptMask>
    3c60:	e7ff      	b.n	3c62 <xTaskRemoveFromEventList+0x16>
    3c62:	e7fe      	b.n	3c62 <xTaskRemoveFromEventList+0x16>
    3c64:	9b03      	ldr	r3, [sp, #12]
    3c66:	f103 0118 	add.w	r1, r3, #24
    3c6a:	f8d3 c01c 	ldr.w	ip, [r3, #28]
    3c6e:	6a1a      	ldr	r2, [r3, #32]
    3c70:	6a98      	ldr	r0, [r3, #40]	; 0x28
    3c72:	9002      	str	r0, [sp, #8]
    3c74:	f8cc 2008 	str.w	r2, [ip, #8]
    3c78:	69da      	ldr	r2, [r3, #28]
    3c7a:	6a1b      	ldr	r3, [r3, #32]
    3c7c:	605a      	str	r2, [r3, #4]
    3c7e:	6840      	ldr	r0, [r0, #4]
    3c80:	4288      	cmp	r0, r1
    3c82:	d105      	bne.n	3c90 <xTaskRemoveFromEventList+0x44>
    3c84:	e7ff      	b.n	3c86 <xTaskRemoveFromEventList+0x3a>
    3c86:	9902      	ldr	r1, [sp, #8]
    3c88:	9803      	ldr	r0, [sp, #12]
    3c8a:	6a00      	ldr	r0, [r0, #32]
    3c8c:	6048      	str	r0, [r1, #4]
    3c8e:	e7ff      	b.n	3c90 <xTaskRemoveFromEventList+0x44>
    3c90:	9902      	ldr	r1, [sp, #8]
    3c92:	9a03      	ldr	r2, [sp, #12]
    3c94:	2000      	movs	r0, #0
    3c96:	6290      	str	r0, [r2, #40]	; 0x28
    3c98:	6808      	ldr	r0, [r1, #0]
    3c9a:	3801      	subs	r0, #1
    3c9c:	6008      	str	r0, [r1, #0]
    3c9e:	f640 208c 	movw	r0, #2700	; 0xa8c
    3ca2:	f2c2 0000 	movt	r0, #8192	; 0x2000
    3ca6:	6800      	ldr	r0, [r0, #0]
    3ca8:	2800      	cmp	r0, #0
    3caa:	d152      	bne.n	3d52 <xTaskRemoveFromEventList+0x106>
    3cac:	e7ff      	b.n	3cae <xTaskRemoveFromEventList+0x62>
    3cae:	9b03      	ldr	r3, [sp, #12]
    3cb0:	1d19      	adds	r1, r3, #4
    3cb2:	f8d3 c008 	ldr.w	ip, [r3, #8]
    3cb6:	68da      	ldr	r2, [r3, #12]
    3cb8:	6958      	ldr	r0, [r3, #20]
    3cba:	9001      	str	r0, [sp, #4]
    3cbc:	f8cc 2008 	str.w	r2, [ip, #8]
    3cc0:	689a      	ldr	r2, [r3, #8]
    3cc2:	68db      	ldr	r3, [r3, #12]
    3cc4:	605a      	str	r2, [r3, #4]
    3cc6:	6840      	ldr	r0, [r0, #4]
    3cc8:	4288      	cmp	r0, r1
    3cca:	d105      	bne.n	3cd8 <xTaskRemoveFromEventList+0x8c>
    3ccc:	e7ff      	b.n	3cce <xTaskRemoveFromEventList+0x82>
    3cce:	9901      	ldr	r1, [sp, #4]
    3cd0:	9803      	ldr	r0, [sp, #12]
    3cd2:	68c0      	ldr	r0, [r0, #12]
    3cd4:	6048      	str	r0, [r1, #4]
    3cd6:	e7ff      	b.n	3cd8 <xTaskRemoveFromEventList+0x8c>
    3cd8:	9803      	ldr	r0, [sp, #12]
    3cda:	9a01      	ldr	r2, [sp, #4]
    3cdc:	2100      	movs	r1, #0
    3cde:	6141      	str	r1, [r0, #20]
    3ce0:	6811      	ldr	r1, [r2, #0]
    3ce2:	3901      	subs	r1, #1
    3ce4:	6011      	str	r1, [r2, #0]
    3ce6:	6ac0      	ldr	r0, [r0, #44]	; 0x2c
    3ce8:	f640 3114 	movw	r1, #2836	; 0xb14
    3cec:	f2c2 0100 	movt	r1, #8192	; 0x2000
    3cf0:	6809      	ldr	r1, [r1, #0]
    3cf2:	4288      	cmp	r0, r1
    3cf4:	d908      	bls.n	3d08 <xTaskRemoveFromEventList+0xbc>
    3cf6:	e7ff      	b.n	3cf8 <xTaskRemoveFromEventList+0xac>
    3cf8:	9803      	ldr	r0, [sp, #12]
    3cfa:	6ac0      	ldr	r0, [r0, #44]	; 0x2c
    3cfc:	f640 3114 	movw	r1, #2836	; 0xb14
    3d00:	f2c2 0100 	movt	r1, #8192	; 0x2000
    3d04:	6008      	str	r0, [r1, #0]
    3d06:	e7ff      	b.n	3d08 <xTaskRemoveFromEventList+0xbc>
    3d08:	9803      	ldr	r0, [sp, #12]
    3d0a:	6ac1      	ldr	r1, [r0, #44]	; 0x2c
    3d0c:	eb01 0281 	add.w	r2, r1, r1, lsl #2
    3d10:	f640 21b0 	movw	r1, #2736	; 0xab0
    3d14:	f2c2 0100 	movt	r1, #8192	; 0x2000
    3d18:	eb01 0282 	add.w	r2, r1, r2, lsl #2
    3d1c:	6853      	ldr	r3, [r2, #4]
    3d1e:	1d02      	adds	r2, r0, #4
    3d20:	6083      	str	r3, [r0, #8]
    3d22:	f8d3 c008 	ldr.w	ip, [r3, #8]
    3d26:	f8c0 c00c 	str.w	ip, [r0, #12]
    3d2a:	f8d3 c008 	ldr.w	ip, [r3, #8]
    3d2e:	f8cc 2004 	str.w	r2, [ip, #4]
    3d32:	609a      	str	r2, [r3, #8]
    3d34:	6ac2      	ldr	r2, [r0, #44]	; 0x2c
    3d36:	eb02 0282 	add.w	r2, r2, r2, lsl #2
    3d3a:	eb01 0282 	add.w	r2, r1, r2, lsl #2
    3d3e:	6142      	str	r2, [r0, #20]
    3d40:	6ac0      	ldr	r0, [r0, #44]	; 0x2c
    3d42:	eb00 0280 	add.w	r2, r0, r0, lsl #2
    3d46:	f851 0022 	ldr.w	r0, [r1, r2, lsl #2]
    3d4a:	3001      	adds	r0, #1
    3d4c:	f841 0022 	str.w	r0, [r1, r2, lsl #2]
    3d50:	e016      	b.n	3d80 <xTaskRemoveFromEventList+0x134>
    3d52:	9803      	ldr	r0, [sp, #12]
    3d54:	f640 311c 	movw	r1, #2844	; 0xb1c
    3d58:	f2c2 0100 	movt	r1, #8192	; 0x2000
    3d5c:	684b      	ldr	r3, [r1, #4]
    3d5e:	f100 0218 	add.w	r2, r0, #24
    3d62:	61c3      	str	r3, [r0, #28]
    3d64:	f8d3 c008 	ldr.w	ip, [r3, #8]
    3d68:	f8c0 c020 	str.w	ip, [r0, #32]
    3d6c:	f8d3 c008 	ldr.w	ip, [r3, #8]
    3d70:	f8cc 2004 	str.w	r2, [ip, #4]
    3d74:	609a      	str	r2, [r3, #8]
    3d76:	6281      	str	r1, [r0, #40]	; 0x28
    3d78:	6808      	ldr	r0, [r1, #0]
    3d7a:	3001      	adds	r0, #1
    3d7c:	6008      	str	r0, [r1, #0]
    3d7e:	e7ff      	b.n	3d80 <xTaskRemoveFromEventList+0x134>
    3d80:	9803      	ldr	r0, [sp, #12]
    3d82:	6ac0      	ldr	r0, [r0, #44]	; 0x2c
    3d84:	f640 2164 	movw	r1, #2660	; 0xa64
    3d88:	f2c2 0100 	movt	r1, #8192	; 0x2000
    3d8c:	6809      	ldr	r1, [r1, #0]
    3d8e:	6ac9      	ldr	r1, [r1, #44]	; 0x2c
    3d90:	4288      	cmp	r0, r1
    3d92:	d908      	bls.n	3da6 <xTaskRemoveFromEventList+0x15a>
    3d94:	e7ff      	b.n	3d96 <xTaskRemoveFromEventList+0x14a>
    3d96:	f640 3118 	movw	r1, #2840	; 0xb18
    3d9a:	f2c2 0100 	movt	r1, #8192	; 0x2000
    3d9e:	2001      	movs	r0, #1
    3da0:	6008      	str	r0, [r1, #0]
    3da2:	9000      	str	r0, [sp, #0]
    3da4:	e002      	b.n	3dac <xTaskRemoveFromEventList+0x160>
    3da6:	2000      	movs	r0, #0
    3da8:	9000      	str	r0, [sp, #0]
    3daa:	e7ff      	b.n	3dac <xTaskRemoveFromEventList+0x160>
    3dac:	9800      	ldr	r0, [sp, #0]
    3dae:	b004      	add	sp, #16
    3db0:	bd80      	pop	{r7, pc}

00003db2 <vTaskInternalSetTimeOutState>:
    3db2:	4601      	mov	r1, r0
    3db4:	f640 303c 	movw	r0, #2876	; 0xb3c
    3db8:	f2c2 0000 	movt	r0, #8192	; 0x2000
    3dbc:	6800      	ldr	r0, [r0, #0]
    3dbe:	6008      	str	r0, [r1, #0]
    3dc0:	f640 2090 	movw	r0, #2704	; 0xa90
    3dc4:	f2c2 0000 	movt	r0, #8192	; 0x2000
    3dc8:	6800      	ldr	r0, [r0, #0]
    3dca:	6048      	str	r0, [r1, #4]
    3dcc:	4770      	bx	lr

00003dce <xTaskCheckForTimeOut>:
    3dce:	b580      	push	{r7, lr}
    3dd0:	466f      	mov	r7, sp
    3dd2:	b088      	sub	sp, #32
    3dd4:	9106      	str	r1, [sp, #24]
    3dd6:	9007      	str	r0, [sp, #28]
    3dd8:	b920      	cbnz	r0, 3de4 <xTaskCheckForTimeOut+0x16>
    3dda:	e7ff      	b.n	3ddc <xTaskCheckForTimeOut+0xe>
    3ddc:	f7fe fe5a 	bl	2a94 <ulSetInterruptMask>
    3de0:	e7ff      	b.n	3de2 <xTaskCheckForTimeOut+0x14>
    3de2:	e7fe      	b.n	3de2 <xTaskCheckForTimeOut+0x14>
    3de4:	9806      	ldr	r0, [sp, #24]
    3de6:	b920      	cbnz	r0, 3df2 <xTaskCheckForTimeOut+0x24>
    3de8:	e7ff      	b.n	3dea <xTaskCheckForTimeOut+0x1c>
    3dea:	f7fe fe53 	bl	2a94 <ulSetInterruptMask>
    3dee:	e7ff      	b.n	3df0 <xTaskCheckForTimeOut+0x22>
    3df0:	e7fe      	b.n	3df0 <xTaskCheckForTimeOut+0x22>
    3df2:	f7fe fd33 	bl	285c <vPortEnterCritical>
    3df6:	9a07      	ldr	r2, [sp, #28]
    3df8:	9806      	ldr	r0, [sp, #24]
    3dfa:	f640 2190 	movw	r1, #2704	; 0xa90
    3dfe:	f2c2 0100 	movt	r1, #8192	; 0x2000
    3e02:	6809      	ldr	r1, [r1, #0]
    3e04:	9104      	str	r1, [sp, #16]
    3e06:	6852      	ldr	r2, [r2, #4]
    3e08:	1a89      	subs	r1, r1, r2
    3e0a:	9105      	str	r1, [sp, #20]
    3e0c:	6800      	ldr	r0, [r0, #0]
    3e0e:	3001      	adds	r0, #1
    3e10:	b918      	cbnz	r0, 3e1a <xTaskCheckForTimeOut+0x4c>
    3e12:	e7ff      	b.n	3e14 <xTaskCheckForTimeOut+0x46>
    3e14:	2000      	movs	r0, #0
    3e16:	9003      	str	r0, [sp, #12]
    3e18:	e032      	b.n	3e80 <xTaskCheckForTimeOut+0xb2>
    3e1a:	9907      	ldr	r1, [sp, #28]
    3e1c:	f640 303c 	movw	r0, #2876	; 0xb3c
    3e20:	f2c2 0000 	movt	r0, #8192	; 0x2000
    3e24:	6800      	ldr	r0, [r0, #0]
    3e26:	6809      	ldr	r1, [r1, #0]
    3e28:	4288      	cmp	r0, r1
    3e2a:	d00c      	beq.n	3e46 <xTaskCheckForTimeOut+0x78>
    3e2c:	e7ff      	b.n	3e2e <xTaskCheckForTimeOut+0x60>
    3e2e:	9804      	ldr	r0, [sp, #16]
    3e30:	9907      	ldr	r1, [sp, #28]
    3e32:	6849      	ldr	r1, [r1, #4]
    3e34:	4288      	cmp	r0, r1
    3e36:	d306      	bcc.n	3e46 <xTaskCheckForTimeOut+0x78>
    3e38:	e7ff      	b.n	3e3a <xTaskCheckForTimeOut+0x6c>
    3e3a:	9906      	ldr	r1, [sp, #24]
    3e3c:	2000      	movs	r0, #0
    3e3e:	6008      	str	r0, [r1, #0]
    3e40:	2001      	movs	r0, #1
    3e42:	9002      	str	r0, [sp, #8]
    3e44:	e019      	b.n	3e7a <xTaskCheckForTimeOut+0xac>
    3e46:	9805      	ldr	r0, [sp, #20]
    3e48:	9906      	ldr	r1, [sp, #24]
    3e4a:	6809      	ldr	r1, [r1, #0]
    3e4c:	4288      	cmp	r0, r1
    3e4e:	d20b      	bcs.n	3e68 <xTaskCheckForTimeOut+0x9a>
    3e50:	e7ff      	b.n	3e52 <xTaskCheckForTimeOut+0x84>
    3e52:	9807      	ldr	r0, [sp, #28]
    3e54:	9a06      	ldr	r2, [sp, #24]
    3e56:	9b05      	ldr	r3, [sp, #20]
    3e58:	6811      	ldr	r1, [r2, #0]
    3e5a:	1ac9      	subs	r1, r1, r3
    3e5c:	6011      	str	r1, [r2, #0]
    3e5e:	f7ff ffa8 	bl	3db2 <vTaskInternalSetTimeOutState>
    3e62:	2000      	movs	r0, #0
    3e64:	9001      	str	r0, [sp, #4]
    3e66:	e005      	b.n	3e74 <xTaskCheckForTimeOut+0xa6>
    3e68:	9906      	ldr	r1, [sp, #24]
    3e6a:	2000      	movs	r0, #0
    3e6c:	6008      	str	r0, [r1, #0]
    3e6e:	2001      	movs	r0, #1
    3e70:	9001      	str	r0, [sp, #4]
    3e72:	e7ff      	b.n	3e74 <xTaskCheckForTimeOut+0xa6>
    3e74:	9801      	ldr	r0, [sp, #4]
    3e76:	9002      	str	r0, [sp, #8]
    3e78:	e7ff      	b.n	3e7a <xTaskCheckForTimeOut+0xac>
    3e7a:	9802      	ldr	r0, [sp, #8]
    3e7c:	9003      	str	r0, [sp, #12]
    3e7e:	e7ff      	b.n	3e80 <xTaskCheckForTimeOut+0xb2>
    3e80:	9803      	ldr	r0, [sp, #12]
    3e82:	9000      	str	r0, [sp, #0]
    3e84:	f7fe fcfa 	bl	287c <vPortExitCritical>
    3e88:	9800      	ldr	r0, [sp, #0]
    3e8a:	b008      	add	sp, #32
    3e8c:	bd80      	pop	{r7, pc}

00003e8e <vTaskMissedYield>:
    3e8e:	f640 3118 	movw	r1, #2840	; 0xb18
    3e92:	f2c2 0100 	movt	r1, #8192	; 0x2000
    3e96:	2001      	movs	r0, #1
    3e98:	6008      	str	r0, [r1, #0]
    3e9a:	4770      	bx	lr

00003e9c <xTaskGetSchedulerState>:
    3e9c:	b082      	sub	sp, #8
    3e9e:	f640 2088 	movw	r0, #2696	; 0xa88
    3ea2:	f2c2 0000 	movt	r0, #8192	; 0x2000
    3ea6:	6800      	ldr	r0, [r0, #0]
    3ea8:	b918      	cbnz	r0, 3eb2 <xTaskGetSchedulerState+0x16>
    3eaa:	e7ff      	b.n	3eac <xTaskGetSchedulerState+0x10>
    3eac:	2001      	movs	r0, #1
    3eae:	9001      	str	r0, [sp, #4]
    3eb0:	e00f      	b.n	3ed2 <xTaskGetSchedulerState+0x36>
    3eb2:	f640 208c 	movw	r0, #2700	; 0xa8c
    3eb6:	f2c2 0000 	movt	r0, #8192	; 0x2000
    3eba:	6800      	ldr	r0, [r0, #0]
    3ebc:	b918      	cbnz	r0, 3ec6 <xTaskGetSchedulerState+0x2a>
    3ebe:	e7ff      	b.n	3ec0 <xTaskGetSchedulerState+0x24>
    3ec0:	2002      	movs	r0, #2
    3ec2:	9000      	str	r0, [sp, #0]
    3ec4:	e002      	b.n	3ecc <xTaskGetSchedulerState+0x30>
    3ec6:	2000      	movs	r0, #0
    3ec8:	9000      	str	r0, [sp, #0]
    3eca:	e7ff      	b.n	3ecc <xTaskGetSchedulerState+0x30>
    3ecc:	9800      	ldr	r0, [sp, #0]
    3ece:	9001      	str	r0, [sp, #4]
    3ed0:	e7ff      	b.n	3ed2 <xTaskGetSchedulerState+0x36>
    3ed2:	9801      	ldr	r0, [sp, #4]
    3ed4:	b002      	add	sp, #8
    3ed6:	4770      	bx	lr

00003ed8 <prvInitialiseTaskLists>:
    3ed8:	b580      	push	{r7, lr}
    3eda:	466f      	mov	r7, sp
    3edc:	b084      	sub	sp, #16
    3ede:	2000      	movs	r0, #0
    3ee0:	9003      	str	r0, [sp, #12]
    3ee2:	e7ff      	b.n	3ee4 <prvInitialiseTaskLists+0xc>
    3ee4:	9803      	ldr	r0, [sp, #12]
    3ee6:	9002      	str	r0, [sp, #8]
    3ee8:	2804      	cmp	r0, #4
    3eea:	d810      	bhi.n	3f0e <prvInitialiseTaskLists+0x36>
    3eec:	e7ff      	b.n	3eee <prvInitialiseTaskLists+0x16>
    3eee:	9802      	ldr	r0, [sp, #8]
    3ef0:	eb00 0180 	add.w	r1, r0, r0, lsl #2
    3ef4:	f640 20b0 	movw	r0, #2736	; 0xab0
    3ef8:	f2c2 0000 	movt	r0, #8192	; 0x2000
    3efc:	eb00 0081 	add.w	r0, r0, r1, lsl #2
    3f00:	f7fe fe28 	bl	2b54 <vListInitialise>
    3f04:	e7ff      	b.n	3f06 <prvInitialiseTaskLists+0x2e>
    3f06:	9802      	ldr	r0, [sp, #8]
    3f08:	3001      	adds	r0, #1
    3f0a:	9003      	str	r0, [sp, #12]
    3f0c:	e7ea      	b.n	3ee4 <prvInitialiseTaskLists+0xc>
    3f0e:	f640 3040 	movw	r0, #2880	; 0xb40
    3f12:	f2c2 0000 	movt	r0, #8192	; 0x2000
    3f16:	9000      	str	r0, [sp, #0]
    3f18:	f7fe fe1c 	bl	2b54 <vListInitialise>
    3f1c:	f640 3054 	movw	r0, #2900	; 0xb54
    3f20:	f2c2 0000 	movt	r0, #8192	; 0x2000
    3f24:	9001      	str	r0, [sp, #4]
    3f26:	f7fe fe15 	bl	2b54 <vListInitialise>
    3f2a:	f640 301c 	movw	r0, #2844	; 0xb1c
    3f2e:	f2c2 0000 	movt	r0, #8192	; 0x2000
    3f32:	f7fe fe0f 	bl	2b54 <vListInitialise>
    3f36:	f640 206c 	movw	r0, #2668	; 0xa6c
    3f3a:	f2c2 0000 	movt	r0, #8192	; 0x2000
    3f3e:	f7fe fe09 	bl	2b54 <vListInitialise>
    3f42:	f640 209c 	movw	r0, #2716	; 0xa9c
    3f46:	f2c2 0000 	movt	r0, #8192	; 0x2000
    3f4a:	f7fe fe03 	bl	2b54 <vListInitialise>
    3f4e:	9900      	ldr	r1, [sp, #0]
    3f50:	9801      	ldr	r0, [sp, #4]
    3f52:	f640 2294 	movw	r2, #2708	; 0xa94
    3f56:	f2c2 0200 	movt	r2, #8192	; 0x2000
    3f5a:	6011      	str	r1, [r2, #0]
    3f5c:	f640 2198 	movw	r1, #2712	; 0xa98
    3f60:	f2c2 0100 	movt	r1, #8192	; 0x2000
    3f64:	6008      	str	r0, [r1, #0]
    3f66:	b004      	add	sp, #16
    3f68:	bd80      	pop	{r7, pc}

00003f6a <prvCheckTasksWaitingTermination>:
    3f6a:	b580      	push	{r7, lr}
    3f6c:	466f      	mov	r7, sp
    3f6e:	b082      	sub	sp, #8
    3f70:	e7ff      	b.n	3f72 <prvCheckTasksWaitingTermination+0x8>
    3f72:	f640 2080 	movw	r0, #2688	; 0xa80
    3f76:	f2c2 0000 	movt	r0, #8192	; 0x2000
    3f7a:	6800      	ldr	r0, [r0, #0]
    3f7c:	b300      	cbz	r0, 3fc0 <prvCheckTasksWaitingTermination+0x56>
    3f7e:	e7ff      	b.n	3f80 <prvCheckTasksWaitingTermination+0x16>
    3f80:	f7fe fc6c 	bl	285c <vPortEnterCritical>
    3f84:	f640 206c 	movw	r0, #2668	; 0xa6c
    3f88:	f2c2 0000 	movt	r0, #8192	; 0x2000
    3f8c:	68c0      	ldr	r0, [r0, #12]
    3f8e:	68c0      	ldr	r0, [r0, #12]
    3f90:	9001      	str	r0, [sp, #4]
    3f92:	3004      	adds	r0, #4
    3f94:	f7fe fe1d 	bl	2bd2 <uxListRemove>
    3f98:	f640 2184 	movw	r1, #2692	; 0xa84
    3f9c:	f2c2 0100 	movt	r1, #8192	; 0x2000
    3fa0:	6808      	ldr	r0, [r1, #0]
    3fa2:	3801      	subs	r0, #1
    3fa4:	6008      	str	r0, [r1, #0]
    3fa6:	f640 2180 	movw	r1, #2688	; 0xa80
    3faa:	f2c2 0100 	movt	r1, #8192	; 0x2000
    3fae:	6808      	ldr	r0, [r1, #0]
    3fb0:	3801      	subs	r0, #1
    3fb2:	6008      	str	r0, [r1, #0]
    3fb4:	f7fe fc62 	bl	287c <vPortExitCritical>
    3fb8:	9801      	ldr	r0, [sp, #4]
    3fba:	f7ff fa72 	bl	34a2 <prvDeleteTCB>
    3fbe:	e7d8      	b.n	3f72 <prvCheckTasksWaitingTermination+0x8>
    3fc0:	b002      	add	sp, #8
    3fc2:	bd80      	pop	{r7, pc}

00003fc4 <xTimerCreateTimerTask>:
    3fc4:	b580      	push	{r7, lr}
    3fc6:	466f      	mov	r7, sp
    3fc8:	b084      	sub	sp, #16
    3fca:	f000 f82b 	bl	4024 <prvCheckForValidListAndQueue>
    3fce:	f640 3068 	movw	r0, #2920	; 0xb68
    3fd2:	f2c2 0000 	movt	r0, #8192	; 0x2000
    3fd6:	6800      	ldr	r0, [r0, #0]
    3fd8:	b1b0      	cbz	r0, 4008 <xTimerCreateTimerTask+0x44>
    3fda:	e7ff      	b.n	3fdc <xTimerCreateTimerTask+0x18>
    3fdc:	f640 306c 	movw	r0, #2924	; 0xb6c
    3fe0:	f2c2 0000 	movt	r0, #8192	; 0x2000
    3fe4:	4669      	mov	r1, sp
    3fe6:	6048      	str	r0, [r1, #4]
    3fe8:	2004      	movs	r0, #4
    3fea:	6008      	str	r0, [r1, #0]
    3fec:	f244 00b3 	movw	r0, #16563	; 0x40b3
    3ff0:	f2c0 0000 	movt	r0, #0
    3ff4:	f248 6169 	movw	r1, #34409	; 0x8669
    3ff8:	f2c0 0100 	movt	r1, #0
    3ffc:	2280      	movs	r2, #128	; 0x80
    3ffe:	2300      	movs	r3, #0
    4000:	f7ff f8bd 	bl	317e <xTaskCreate>
    4004:	9003      	str	r0, [sp, #12]
    4006:	e002      	b.n	400e <xTimerCreateTimerTask+0x4a>
    4008:	2000      	movs	r0, #0
    400a:	9003      	str	r0, [sp, #12]
    400c:	e7ff      	b.n	400e <xTimerCreateTimerTask+0x4a>
    400e:	9803      	ldr	r0, [sp, #12]
    4010:	9002      	str	r0, [sp, #8]
    4012:	b920      	cbnz	r0, 401e <xTimerCreateTimerTask+0x5a>
    4014:	e7ff      	b.n	4016 <xTimerCreateTimerTask+0x52>
    4016:	f7fe fd3d 	bl	2a94 <ulSetInterruptMask>
    401a:	e7ff      	b.n	401c <xTimerCreateTimerTask+0x58>
    401c:	e7fe      	b.n	401c <xTimerCreateTimerTask+0x58>
    401e:	9802      	ldr	r0, [sp, #8]
    4020:	b004      	add	sp, #16
    4022:	bd80      	pop	{r7, pc}

00004024 <prvCheckForValidListAndQueue>:
    4024:	b580      	push	{r7, lr}
    4026:	466f      	mov	r7, sp
    4028:	b082      	sub	sp, #8
    402a:	f7fe fc17 	bl	285c <vPortEnterCritical>
    402e:	f640 3068 	movw	r0, #2920	; 0xb68
    4032:	f2c2 0000 	movt	r0, #8192	; 0x2000
    4036:	6800      	ldr	r0, [r0, #0]
    4038:	bbb0      	cbnz	r0, 40a8 <prvCheckForValidListAndQueue+0x84>
    403a:	e7ff      	b.n	403c <prvCheckForValidListAndQueue+0x18>
    403c:	f640 307c 	movw	r0, #2940	; 0xb7c
    4040:	f2c2 0000 	movt	r0, #8192	; 0x2000
    4044:	9000      	str	r0, [sp, #0]
    4046:	f7fe fd85 	bl	2b54 <vListInitialise>
    404a:	f640 3090 	movw	r0, #2960	; 0xb90
    404e:	f2c2 0000 	movt	r0, #8192	; 0x2000
    4052:	9001      	str	r0, [sp, #4]
    4054:	f7fe fd7e 	bl	2b54 <vListInitialise>
    4058:	9900      	ldr	r1, [sp, #0]
    405a:	9801      	ldr	r0, [sp, #4]
    405c:	f640 3270 	movw	r2, #2928	; 0xb70
    4060:	f2c2 0200 	movt	r2, #8192	; 0x2000
    4064:	6011      	str	r1, [r2, #0]
    4066:	f640 3174 	movw	r1, #2932	; 0xb74
    406a:	f2c2 0100 	movt	r1, #8192	; 0x2000
    406e:	6008      	str	r0, [r1, #0]
    4070:	200a      	movs	r0, #10
    4072:	2110      	movs	r1, #16
    4074:	2200      	movs	r2, #0
    4076:	f7fe fe34 	bl	2ce2 <xQueueGenericCreate>
    407a:	4601      	mov	r1, r0
    407c:	f640 3068 	movw	r0, #2920	; 0xb68
    4080:	f2c2 0000 	movt	r0, #8192	; 0x2000
    4084:	6001      	str	r1, [r0, #0]
    4086:	6800      	ldr	r0, [r0, #0]
    4088:	b160      	cbz	r0, 40a4 <prvCheckForValidListAndQueue+0x80>
    408a:	e7ff      	b.n	408c <prvCheckForValidListAndQueue+0x68>
    408c:	f640 3068 	movw	r0, #2920	; 0xb68
    4090:	f2c2 0000 	movt	r0, #8192	; 0x2000
    4094:	6800      	ldr	r0, [r0, #0]
    4096:	f248 6171 	movw	r1, #34417	; 0x8671
    409a:	f2c0 0100 	movt	r1, #0
    409e:	f7fe ffd9 	bl	3054 <vQueueAddToRegistry>
    40a2:	e000      	b.n	40a6 <prvCheckForValidListAndQueue+0x82>
    40a4:	e7ff      	b.n	40a6 <prvCheckForValidListAndQueue+0x82>
    40a6:	e000      	b.n	40aa <prvCheckForValidListAndQueue+0x86>
    40a8:	e7ff      	b.n	40aa <prvCheckForValidListAndQueue+0x86>
    40aa:	f7fe fbe7 	bl	287c <vPortExitCritical>
    40ae:	b002      	add	sp, #8
    40b0:	bd80      	pop	{r7, pc}

000040b2 <prvTimerTask>:
    40b2:	b580      	push	{r7, lr}
    40b4:	466f      	mov	r7, sp
    40b6:	b082      	sub	sp, #8
    40b8:	e7ff      	b.n	40ba <prvTimerTask+0x8>
    40ba:	a801      	add	r0, sp, #4
    40bc:	f000 f806 	bl	40cc <prvGetNextExpireTime>
    40c0:	9901      	ldr	r1, [sp, #4]
    40c2:	f000 f820 	bl	4106 <prvProcessTimerOrBlockTask>
    40c6:	f000 f865 	bl	4194 <prvProcessReceivedCommands>
    40ca:	e7f6      	b.n	40ba <prvTimerTask+0x8>

000040cc <prvGetNextExpireTime>:
    40cc:	b081      	sub	sp, #4
    40ce:	f640 3170 	movw	r1, #2928	; 0xb70
    40d2:	f2c2 0100 	movt	r1, #8192	; 0x2000
    40d6:	6809      	ldr	r1, [r1, #0]
    40d8:	6809      	ldr	r1, [r1, #0]
    40da:	fab1 f181 	clz	r1, r1
    40de:	0949      	lsrs	r1, r1, #5
    40e0:	6001      	str	r1, [r0, #0]
    40e2:	6800      	ldr	r0, [r0, #0]
    40e4:	b948      	cbnz	r0, 40fa <prvGetNextExpireTime+0x2e>
    40e6:	e7ff      	b.n	40e8 <prvGetNextExpireTime+0x1c>
    40e8:	f640 3070 	movw	r0, #2928	; 0xb70
    40ec:	f2c2 0000 	movt	r0, #8192	; 0x2000
    40f0:	6800      	ldr	r0, [r0, #0]
    40f2:	68c0      	ldr	r0, [r0, #12]
    40f4:	6800      	ldr	r0, [r0, #0]
    40f6:	9000      	str	r0, [sp, #0]
    40f8:	e002      	b.n	4100 <prvGetNextExpireTime+0x34>
    40fa:	2000      	movs	r0, #0
    40fc:	9000      	str	r0, [sp, #0]
    40fe:	e7ff      	b.n	4100 <prvGetNextExpireTime+0x34>
    4100:	9800      	ldr	r0, [sp, #0]
    4102:	b001      	add	sp, #4
    4104:	4770      	bx	lr

00004106 <prvProcessTimerOrBlockTask>:
    4106:	b580      	push	{r7, lr}
    4108:	466f      	mov	r7, sp
    410a:	b086      	sub	sp, #24
    410c:	9102      	str	r1, [sp, #8]
    410e:	9003      	str	r0, [sp, #12]
    4110:	f7ff f9d3 	bl	34ba <vTaskSuspendAll>
    4114:	a805      	add	r0, sp, #20
    4116:	f000 f8eb 	bl	42f0 <prvSampleTimeNow>
    411a:	9004      	str	r0, [sp, #16]
    411c:	9805      	ldr	r0, [sp, #20]
    411e:	bb98      	cbnz	r0, 4188 <prvProcessTimerOrBlockTask+0x82>
    4120:	e7ff      	b.n	4122 <prvProcessTimerOrBlockTask+0x1c>
    4122:	9802      	ldr	r0, [sp, #8]
    4124:	b960      	cbnz	r0, 4140 <prvProcessTimerOrBlockTask+0x3a>
    4126:	e7ff      	b.n	4128 <prvProcessTimerOrBlockTask+0x22>
    4128:	9803      	ldr	r0, [sp, #12]
    412a:	9904      	ldr	r1, [sp, #16]
    412c:	4288      	cmp	r0, r1
    412e:	d807      	bhi.n	4140 <prvProcessTimerOrBlockTask+0x3a>
    4130:	e7ff      	b.n	4132 <prvProcessTimerOrBlockTask+0x2c>
    4132:	f7ff fa45 	bl	35c0 <xTaskResumeAll>
    4136:	9904      	ldr	r1, [sp, #16]
    4138:	9803      	ldr	r0, [sp, #12]
    413a:	f000 f8fb 	bl	4334 <prvProcessExpiredTimer>
    413e:	e022      	b.n	4186 <prvProcessTimerOrBlockTask+0x80>
    4140:	9802      	ldr	r0, [sp, #8]
    4142:	9001      	str	r0, [sp, #4]
    4144:	b158      	cbz	r0, 415e <prvProcessTimerOrBlockTask+0x58>
    4146:	e7ff      	b.n	4148 <prvProcessTimerOrBlockTask+0x42>
    4148:	f640 3074 	movw	r0, #2932	; 0xb74
    414c:	f2c2 0000 	movt	r0, #8192	; 0x2000
    4150:	6800      	ldr	r0, [r0, #0]
    4152:	6800      	ldr	r0, [r0, #0]
    4154:	fab0 f080 	clz	r0, r0
    4158:	0940      	lsrs	r0, r0, #5
    415a:	9001      	str	r0, [sp, #4]
    415c:	e7ff      	b.n	415e <prvProcessTimerOrBlockTask+0x58>
    415e:	9903      	ldr	r1, [sp, #12]
    4160:	9b04      	ldr	r3, [sp, #16]
    4162:	9a01      	ldr	r2, [sp, #4]
    4164:	f640 3068 	movw	r0, #2920	; 0xb68
    4168:	f2c2 0000 	movt	r0, #8192	; 0x2000
    416c:	6800      	ldr	r0, [r0, #0]
    416e:	1ac9      	subs	r1, r1, r3
    4170:	f7fe ffd4 	bl	311c <vQueueWaitForMessageRestricted>
    4174:	f7ff fa24 	bl	35c0 <xTaskResumeAll>
    4178:	b918      	cbnz	r0, 4182 <prvProcessTimerOrBlockTask+0x7c>
    417a:	e7ff      	b.n	417c <prvProcessTimerOrBlockTask+0x76>
    417c:	f7fe fb62 	bl	2844 <vPortYield>
    4180:	e000      	b.n	4184 <prvProcessTimerOrBlockTask+0x7e>
    4182:	e7ff      	b.n	4184 <prvProcessTimerOrBlockTask+0x7e>
    4184:	e7ff      	b.n	4186 <prvProcessTimerOrBlockTask+0x80>
    4186:	e002      	b.n	418e <prvProcessTimerOrBlockTask+0x88>
    4188:	f7ff fa1a 	bl	35c0 <xTaskResumeAll>
    418c:	e7ff      	b.n	418e <prvProcessTimerOrBlockTask+0x88>
    418e:	b006      	add	sp, #24
    4190:	bd80      	pop	{r7, pc}
	...

00004194 <prvProcessReceivedCommands>:
    4194:	b580      	push	{r7, lr}
    4196:	466f      	mov	r7, sp
    4198:	b08a      	sub	sp, #40	; 0x28
    419a:	e7ff      	b.n	419c <prvProcessReceivedCommands+0x8>
    419c:	f640 3068 	movw	r0, #2920	; 0xb68
    41a0:	f2c2 0000 	movt	r0, #8192	; 0x2000
    41a4:	6800      	ldr	r0, [r0, #0]
    41a6:	a906      	add	r1, sp, #24
    41a8:	2200      	movs	r2, #0
    41aa:	f7fe fe51 	bl	2e50 <xQueueReceive>
    41ae:	2800      	cmp	r0, #0
    41b0:	f000 809c 	beq.w	42ec <prvProcessReceivedCommands+0x158>
    41b4:	e7ff      	b.n	41b6 <prvProcessReceivedCommands+0x22>
    41b6:	9806      	ldr	r0, [sp, #24]
    41b8:	f1b0 3fff 	cmp.w	r0, #4294967295	; 0xffffffff
    41bc:	dc10      	bgt.n	41e0 <prvProcessReceivedCommands+0x4c>
    41be:	e7ff      	b.n	41c0 <prvProcessReceivedCommands+0x2c>
    41c0:	a806      	add	r0, sp, #24
    41c2:	3004      	adds	r0, #4
    41c4:	4601      	mov	r1, r0
    41c6:	9104      	str	r1, [sp, #16]
    41c8:	b920      	cbnz	r0, 41d4 <prvProcessReceivedCommands+0x40>
    41ca:	e7ff      	b.n	41cc <prvProcessReceivedCommands+0x38>
    41cc:	f7fe fc62 	bl	2a94 <ulSetInterruptMask>
    41d0:	e7ff      	b.n	41d2 <prvProcessReceivedCommands+0x3e>
    41d2:	e7fe      	b.n	41d2 <prvProcessReceivedCommands+0x3e>
    41d4:	9904      	ldr	r1, [sp, #16]
    41d6:	680a      	ldr	r2, [r1, #0]
    41d8:	6848      	ldr	r0, [r1, #4]
    41da:	6889      	ldr	r1, [r1, #8]
    41dc:	4790      	blx	r2
    41de:	e000      	b.n	41e2 <prvProcessReceivedCommands+0x4e>
    41e0:	e7ff      	b.n	41e2 <prvProcessReceivedCommands+0x4e>
    41e2:	9806      	ldr	r0, [sp, #24]
    41e4:	2800      	cmp	r0, #0
    41e6:	f100 8080 	bmi.w	42ea <prvProcessReceivedCommands+0x156>
    41ea:	e7ff      	b.n	41ec <prvProcessReceivedCommands+0x58>
    41ec:	9808      	ldr	r0, [sp, #32]
    41ee:	9003      	str	r0, [sp, #12]
    41f0:	6940      	ldr	r0, [r0, #20]
    41f2:	b128      	cbz	r0, 4200 <prvProcessReceivedCommands+0x6c>
    41f4:	e7ff      	b.n	41f6 <prvProcessReceivedCommands+0x62>
    41f6:	9803      	ldr	r0, [sp, #12]
    41f8:	3004      	adds	r0, #4
    41fa:	f7fe fcea 	bl	2bd2 <uxListRemove>
    41fe:	e000      	b.n	4202 <prvProcessReceivedCommands+0x6e>
    4200:	e7ff      	b.n	4202 <prvProcessReceivedCommands+0x6e>
    4202:	a805      	add	r0, sp, #20
    4204:	f000 f874 	bl	42f0 <prvSampleTimeNow>
    4208:	9001      	str	r0, [sp, #4]
    420a:	9806      	ldr	r0, [sp, #24]
    420c:	3801      	subs	r0, #1
    420e:	4601      	mov	r1, r0
    4210:	9102      	str	r1, [sp, #8]
    4212:	2808      	cmp	r0, #8
    4214:	d867      	bhi.n	42e6 <prvProcessReceivedCommands+0x152>
    4216:	9902      	ldr	r1, [sp, #8]
    4218:	e8df f001 	tbb	[pc, r1]
    421c:	39310505 	.word	0x39310505
    4220:	31050551 	.word	0x31050551
    4224:	0039      	.short	0x0039
    4226:	9a01      	ldr	r2, [sp, #4]
    4228:	9803      	ldr	r0, [sp, #12]
    422a:	f890 1028 	ldrb.w	r1, [r0, #40]	; 0x28
    422e:	f041 0101 	orr.w	r1, r1, #1
    4232:	f880 1028 	strb.w	r1, [r0, #40]	; 0x28
    4236:	9b07      	ldr	r3, [sp, #28]
    4238:	6981      	ldr	r1, [r0, #24]
    423a:	4419      	add	r1, r3
    423c:	f000 f8e5 	bl	440a <prvInsertTimerInActiveList>
    4240:	b1d8      	cbz	r0, 427a <prvProcessReceivedCommands+0xe6>
    4242:	e7ff      	b.n	4244 <prvProcessReceivedCommands+0xb0>
    4244:	9803      	ldr	r0, [sp, #12]
    4246:	f890 0028 	ldrb.w	r0, [r0, #40]	; 0x28
    424a:	0740      	lsls	r0, r0, #29
    424c:	2800      	cmp	r0, #0
    424e:	d508      	bpl.n	4262 <prvProcessReceivedCommands+0xce>
    4250:	e7ff      	b.n	4252 <prvProcessReceivedCommands+0xbe>
    4252:	9a01      	ldr	r2, [sp, #4]
    4254:	9803      	ldr	r0, [sp, #12]
    4256:	9907      	ldr	r1, [sp, #28]
    4258:	6983      	ldr	r3, [r0, #24]
    425a:	4419      	add	r1, r3
    425c:	f000 f8b8 	bl	43d0 <prvReloadTimer>
    4260:	e007      	b.n	4272 <prvProcessReceivedCommands+0xde>
    4262:	9903      	ldr	r1, [sp, #12]
    4264:	f891 0028 	ldrb.w	r0, [r1, #40]	; 0x28
    4268:	f000 00fe 	and.w	r0, r0, #254	; 0xfe
    426c:	f881 0028 	strb.w	r0, [r1, #40]	; 0x28
    4270:	e7ff      	b.n	4272 <prvProcessReceivedCommands+0xde>
    4272:	9803      	ldr	r0, [sp, #12]
    4274:	6a01      	ldr	r1, [r0, #32]
    4276:	4788      	blx	r1
    4278:	e000      	b.n	427c <prvProcessReceivedCommands+0xe8>
    427a:	e7ff      	b.n	427c <prvProcessReceivedCommands+0xe8>
    427c:	e034      	b.n	42e8 <prvProcessReceivedCommands+0x154>
    427e:	9903      	ldr	r1, [sp, #12]
    4280:	f891 0028 	ldrb.w	r0, [r1, #40]	; 0x28
    4284:	f000 00fe 	and.w	r0, r0, #254	; 0xfe
    4288:	f881 0028 	strb.w	r0, [r1, #40]	; 0x28
    428c:	e02c      	b.n	42e8 <prvProcessReceivedCommands+0x154>
    428e:	9803      	ldr	r0, [sp, #12]
    4290:	f890 1028 	ldrb.w	r1, [r0, #40]	; 0x28
    4294:	f041 0101 	orr.w	r1, r1, #1
    4298:	f880 1028 	strb.w	r1, [r0, #40]	; 0x28
    429c:	9907      	ldr	r1, [sp, #28]
    429e:	6181      	str	r1, [r0, #24]
    42a0:	6980      	ldr	r0, [r0, #24]
    42a2:	b920      	cbnz	r0, 42ae <prvProcessReceivedCommands+0x11a>
    42a4:	e7ff      	b.n	42a6 <prvProcessReceivedCommands+0x112>
    42a6:	f7fe fbf5 	bl	2a94 <ulSetInterruptMask>
    42aa:	e7ff      	b.n	42ac <prvProcessReceivedCommands+0x118>
    42ac:	e7fe      	b.n	42ac <prvProcessReceivedCommands+0x118>
    42ae:	9b01      	ldr	r3, [sp, #4]
    42b0:	9803      	ldr	r0, [sp, #12]
    42b2:	6981      	ldr	r1, [r0, #24]
    42b4:	4419      	add	r1, r3
    42b6:	461a      	mov	r2, r3
    42b8:	f000 f8a7 	bl	440a <prvInsertTimerInActiveList>
    42bc:	e014      	b.n	42e8 <prvProcessReceivedCommands+0x154>
    42be:	9803      	ldr	r0, [sp, #12]
    42c0:	f890 0028 	ldrb.w	r0, [r0, #40]	; 0x28
    42c4:	0780      	lsls	r0, r0, #30
    42c6:	2800      	cmp	r0, #0
    42c8:	d404      	bmi.n	42d4 <prvProcessReceivedCommands+0x140>
    42ca:	e7ff      	b.n	42cc <prvProcessReceivedCommands+0x138>
    42cc:	9803      	ldr	r0, [sp, #12]
    42ce:	f000 fa66 	bl	479e <vPortFree>
    42d2:	e007      	b.n	42e4 <prvProcessReceivedCommands+0x150>
    42d4:	9903      	ldr	r1, [sp, #12]
    42d6:	f891 0028 	ldrb.w	r0, [r1, #40]	; 0x28
    42da:	f000 00fe 	and.w	r0, r0, #254	; 0xfe
    42de:	f881 0028 	strb.w	r0, [r1, #40]	; 0x28
    42e2:	e7ff      	b.n	42e4 <prvProcessReceivedCommands+0x150>
    42e4:	e000      	b.n	42e8 <prvProcessReceivedCommands+0x154>
    42e6:	e7ff      	b.n	42e8 <prvProcessReceivedCommands+0x154>
    42e8:	e7ff      	b.n	42ea <prvProcessReceivedCommands+0x156>
    42ea:	e757      	b.n	419c <prvProcessReceivedCommands+0x8>
    42ec:	b00a      	add	sp, #40	; 0x28
    42ee:	bd80      	pop	{r7, pc}

000042f0 <prvSampleTimeNow>:
    42f0:	b580      	push	{r7, lr}
    42f2:	466f      	mov	r7, sp
    42f4:	b082      	sub	sp, #8
    42f6:	9000      	str	r0, [sp, #0]
    42f8:	f7ff fc4a 	bl	3b90 <xTaskGetTickCount>
    42fc:	4601      	mov	r1, r0
    42fe:	9101      	str	r1, [sp, #4]
    4300:	f640 3178 	movw	r1, #2936	; 0xb78
    4304:	f2c2 0100 	movt	r1, #8192	; 0x2000
    4308:	6809      	ldr	r1, [r1, #0]
    430a:	4288      	cmp	r0, r1
    430c:	d206      	bcs.n	431c <prvSampleTimeNow+0x2c>
    430e:	e7ff      	b.n	4310 <prvSampleTimeNow+0x20>
    4310:	f000 f83a 	bl	4388 <prvSwitchTimerLists>
    4314:	9900      	ldr	r1, [sp, #0]
    4316:	2001      	movs	r0, #1
    4318:	6008      	str	r0, [r1, #0]
    431a:	e003      	b.n	4324 <prvSampleTimeNow+0x34>
    431c:	9900      	ldr	r1, [sp, #0]
    431e:	2000      	movs	r0, #0
    4320:	6008      	str	r0, [r1, #0]
    4322:	e7ff      	b.n	4324 <prvSampleTimeNow+0x34>
    4324:	9801      	ldr	r0, [sp, #4]
    4326:	f640 3178 	movw	r1, #2936	; 0xb78
    432a:	f2c2 0100 	movt	r1, #8192	; 0x2000
    432e:	6008      	str	r0, [r1, #0]
    4330:	b002      	add	sp, #8
    4332:	bd80      	pop	{r7, pc}

00004334 <prvProcessExpiredTimer>:
    4334:	b580      	push	{r7, lr}
    4336:	466f      	mov	r7, sp
    4338:	b084      	sub	sp, #16
    433a:	9101      	str	r1, [sp, #4]
    433c:	9002      	str	r0, [sp, #8]
    433e:	f640 3070 	movw	r0, #2928	; 0xb70
    4342:	f2c2 0000 	movt	r0, #8192	; 0x2000
    4346:	6800      	ldr	r0, [r0, #0]
    4348:	68c0      	ldr	r0, [r0, #12]
    434a:	68c0      	ldr	r0, [r0, #12]
    434c:	9003      	str	r0, [sp, #12]
    434e:	3004      	adds	r0, #4
    4350:	f7fe fc3f 	bl	2bd2 <uxListRemove>
    4354:	9803      	ldr	r0, [sp, #12]
    4356:	f890 0028 	ldrb.w	r0, [r0, #40]	; 0x28
    435a:	0740      	lsls	r0, r0, #29
    435c:	2800      	cmp	r0, #0
    435e:	d506      	bpl.n	436e <prvProcessExpiredTimer+0x3a>
    4360:	e7ff      	b.n	4362 <prvProcessExpiredTimer+0x2e>
    4362:	9a01      	ldr	r2, [sp, #4]
    4364:	9902      	ldr	r1, [sp, #8]
    4366:	9803      	ldr	r0, [sp, #12]
    4368:	f000 f832 	bl	43d0 <prvReloadTimer>
    436c:	e007      	b.n	437e <prvProcessExpiredTimer+0x4a>
    436e:	9903      	ldr	r1, [sp, #12]
    4370:	f891 0028 	ldrb.w	r0, [r1, #40]	; 0x28
    4374:	f000 00fe 	and.w	r0, r0, #254	; 0xfe
    4378:	f881 0028 	strb.w	r0, [r1, #40]	; 0x28
    437c:	e7ff      	b.n	437e <prvProcessExpiredTimer+0x4a>
    437e:	9803      	ldr	r0, [sp, #12]
    4380:	6a01      	ldr	r1, [r0, #32]
    4382:	4788      	blx	r1
    4384:	b004      	add	sp, #16
    4386:	bd80      	pop	{r7, pc}

00004388 <prvSwitchTimerLists>:
    4388:	b580      	push	{r7, lr}
    438a:	466f      	mov	r7, sp
    438c:	e7ff      	b.n	438e <prvSwitchTimerLists+0x6>
    438e:	f640 3070 	movw	r0, #2928	; 0xb70
    4392:	f2c2 0000 	movt	r0, #8192	; 0x2000
    4396:	6800      	ldr	r0, [r0, #0]
    4398:	6800      	ldr	r0, [r0, #0]
    439a:	b160      	cbz	r0, 43b6 <prvSwitchTimerLists+0x2e>
    439c:	e7ff      	b.n	439e <prvSwitchTimerLists+0x16>
    439e:	f640 3070 	movw	r0, #2928	; 0xb70
    43a2:	f2c2 0000 	movt	r0, #8192	; 0x2000
    43a6:	6800      	ldr	r0, [r0, #0]
    43a8:	68c0      	ldr	r0, [r0, #12]
    43aa:	6800      	ldr	r0, [r0, #0]
    43ac:	f04f 31ff 	mov.w	r1, #4294967295	; 0xffffffff
    43b0:	f7ff ffc0 	bl	4334 <prvProcessExpiredTimer>
    43b4:	e7eb      	b.n	438e <prvSwitchTimerLists+0x6>
    43b6:	f640 3370 	movw	r3, #2928	; 0xb70
    43ba:	f2c2 0300 	movt	r3, #8192	; 0x2000
    43be:	6818      	ldr	r0, [r3, #0]
    43c0:	f640 3174 	movw	r1, #2932	; 0xb74
    43c4:	f2c2 0100 	movt	r1, #8192	; 0x2000
    43c8:	680a      	ldr	r2, [r1, #0]
    43ca:	601a      	str	r2, [r3, #0]
    43cc:	6008      	str	r0, [r1, #0]
    43ce:	bd80      	pop	{r7, pc}

000043d0 <prvReloadTimer>:
    43d0:	b580      	push	{r7, lr}
    43d2:	466f      	mov	r7, sp
    43d4:	b086      	sub	sp, #24
    43d6:	9203      	str	r2, [sp, #12]
    43d8:	9004      	str	r0, [sp, #16]
    43da:	9105      	str	r1, [sp, #20]
    43dc:	e7ff      	b.n	43de <prvReloadTimer+0xe>
    43de:	9a03      	ldr	r2, [sp, #12]
    43e0:	9804      	ldr	r0, [sp, #16]
    43e2:	9b05      	ldr	r3, [sp, #20]
    43e4:	9302      	str	r3, [sp, #8]
    43e6:	6981      	ldr	r1, [r0, #24]
    43e8:	4419      	add	r1, r3
    43ea:	f000 f80e 	bl	440a <prvInsertTimerInActiveList>
    43ee:	b150      	cbz	r0, 4406 <prvReloadTimer+0x36>
    43f0:	e7ff      	b.n	43f2 <prvReloadTimer+0x22>
    43f2:	9804      	ldr	r0, [sp, #16]
    43f4:	9a02      	ldr	r2, [sp, #8]
    43f6:	6983      	ldr	r3, [r0, #24]
    43f8:	6a01      	ldr	r1, [r0, #32]
    43fa:	441a      	add	r2, r3
    43fc:	9201      	str	r2, [sp, #4]
    43fe:	4788      	blx	r1
    4400:	9801      	ldr	r0, [sp, #4]
    4402:	9005      	str	r0, [sp, #20]
    4404:	e7eb      	b.n	43de <prvReloadTimer+0xe>
    4406:	b006      	add	sp, #24
    4408:	bd80      	pop	{r7, pc}

0000440a <prvInsertTimerInActiveList>:
    440a:	b580      	push	{r7, lr}
    440c:	466f      	mov	r7, sp
    440e:	b088      	sub	sp, #32
    4410:	9304      	str	r3, [sp, #16]
    4412:	9205      	str	r2, [sp, #20]
    4414:	9106      	str	r1, [sp, #24]
    4416:	9007      	str	r0, [sp, #28]
    4418:	6041      	str	r1, [r0, #4]
    441a:	6100      	str	r0, [r0, #16]
    441c:	4291      	cmp	r1, r2
    441e:	d81a      	bhi.n	4456 <prvInsertTimerInActiveList+0x4c>
    4420:	e7ff      	b.n	4422 <prvInsertTimerInActiveList+0x18>
    4422:	9907      	ldr	r1, [sp, #28]
    4424:	9805      	ldr	r0, [sp, #20]
    4426:	9a04      	ldr	r2, [sp, #16]
    4428:	1a80      	subs	r0, r0, r2
    442a:	6989      	ldr	r1, [r1, #24]
    442c:	4288      	cmp	r0, r1
    442e:	d303      	bcc.n	4438 <prvInsertTimerInActiveList+0x2e>
    4430:	e7ff      	b.n	4432 <prvInsertTimerInActiveList+0x28>
    4432:	2001      	movs	r0, #1
    4434:	9003      	str	r0, [sp, #12]
    4436:	e00b      	b.n	4450 <prvInsertTimerInActiveList+0x46>
    4438:	9907      	ldr	r1, [sp, #28]
    443a:	f640 3074 	movw	r0, #2932	; 0xb74
    443e:	f2c2 0000 	movt	r0, #8192	; 0x2000
    4442:	6800      	ldr	r0, [r0, #0]
    4444:	3104      	adds	r1, #4
    4446:	f7fe fb95 	bl	2b74 <vListInsert>
    444a:	2000      	movs	r0, #0
    444c:	9003      	str	r0, [sp, #12]
    444e:	e7ff      	b.n	4450 <prvInsertTimerInActiveList+0x46>
    4450:	9803      	ldr	r0, [sp, #12]
    4452:	9002      	str	r0, [sp, #8]
    4454:	e01b      	b.n	448e <prvInsertTimerInActiveList+0x84>
    4456:	9805      	ldr	r0, [sp, #20]
    4458:	9904      	ldr	r1, [sp, #16]
    445a:	4288      	cmp	r0, r1
    445c:	d208      	bcs.n	4470 <prvInsertTimerInActiveList+0x66>
    445e:	e7ff      	b.n	4460 <prvInsertTimerInActiveList+0x56>
    4460:	9806      	ldr	r0, [sp, #24]
    4462:	9904      	ldr	r1, [sp, #16]
    4464:	4288      	cmp	r0, r1
    4466:	d303      	bcc.n	4470 <prvInsertTimerInActiveList+0x66>
    4468:	e7ff      	b.n	446a <prvInsertTimerInActiveList+0x60>
    446a:	2001      	movs	r0, #1
    446c:	9001      	str	r0, [sp, #4]
    446e:	e00b      	b.n	4488 <prvInsertTimerInActiveList+0x7e>
    4470:	9907      	ldr	r1, [sp, #28]
    4472:	f640 3070 	movw	r0, #2928	; 0xb70
    4476:	f2c2 0000 	movt	r0, #8192	; 0x2000
    447a:	6800      	ldr	r0, [r0, #0]
    447c:	3104      	adds	r1, #4
    447e:	f7fe fb79 	bl	2b74 <vListInsert>
    4482:	2000      	movs	r0, #0
    4484:	9001      	str	r0, [sp, #4]
    4486:	e7ff      	b.n	4488 <prvInsertTimerInActiveList+0x7e>
    4488:	9801      	ldr	r0, [sp, #4]
    448a:	9002      	str	r0, [sp, #8]
    448c:	e7ff      	b.n	448e <prvInsertTimerInActiveList+0x84>
    448e:	9802      	ldr	r0, [sp, #8]
    4490:	b008      	add	sp, #32
    4492:	bd80      	pop	{r7, pc}

00004494 <pvPortMalloc>:
    4494:	b580      	push	{r7, lr}
    4496:	466f      	mov	r7, sp
    4498:	b090      	sub	sp, #64	; 0x40
    449a:	900f      	str	r0, [sp, #60]	; 0x3c
    449c:	f7ff f80d 	bl	34ba <vTaskSuspendAll>
    44a0:	f640 30a4 	movw	r0, #2980	; 0xba4
    44a4:	f2c2 0000 	movt	r0, #8192	; 0x2000
    44a8:	6800      	ldr	r0, [r0, #0]
    44aa:	b918      	cbnz	r0, 44b4 <pvPortMalloc+0x20>
    44ac:	e7ff      	b.n	44ae <pvPortMalloc+0x1a>
    44ae:	f000 f8d1 	bl	4654 <prvHeapInit>
    44b2:	e000      	b.n	44b6 <pvPortMalloc+0x22>
    44b4:	e7ff      	b.n	44b6 <pvPortMalloc+0x22>
    44b6:	980f      	ldr	r0, [sp, #60]	; 0x3c
    44b8:	b1b0      	cbz	r0, 44e8 <pvPortMalloc+0x54>
    44ba:	e7ff      	b.n	44bc <pvPortMalloc+0x28>
    44bc:	980f      	ldr	r0, [sp, #60]	; 0x3c
    44be:	f000 0107 	and.w	r1, r0, #7
    44c2:	f1c1 0110 	rsb	r1, r1, #16
    44c6:	460a      	mov	r2, r1
    44c8:	920e      	str	r2, [sp, #56]	; 0x38
    44ca:	43c9      	mvns	r1, r1
    44cc:	4288      	cmp	r0, r1
    44ce:	d805      	bhi.n	44dc <pvPortMalloc+0x48>
    44d0:	e7ff      	b.n	44d2 <pvPortMalloc+0x3e>
    44d2:	980f      	ldr	r0, [sp, #60]	; 0x3c
    44d4:	990e      	ldr	r1, [sp, #56]	; 0x38
    44d6:	4408      	add	r0, r1
    44d8:	900d      	str	r0, [sp, #52]	; 0x34
    44da:	e002      	b.n	44e2 <pvPortMalloc+0x4e>
    44dc:	2000      	movs	r0, #0
    44de:	900d      	str	r0, [sp, #52]	; 0x34
    44e0:	e7ff      	b.n	44e2 <pvPortMalloc+0x4e>
    44e2:	980d      	ldr	r0, [sp, #52]	; 0x34
    44e4:	900c      	str	r0, [sp, #48]	; 0x30
    44e6:	e002      	b.n	44ee <pvPortMalloc+0x5a>
    44e8:	980f      	ldr	r0, [sp, #60]	; 0x3c
    44ea:	900c      	str	r0, [sp, #48]	; 0x30
    44ec:	e7ff      	b.n	44ee <pvPortMalloc+0x5a>
    44ee:	980c      	ldr	r0, [sp, #48]	; 0x30
    44f0:	900b      	str	r0, [sp, #44]	; 0x2c
    44f2:	0fc0      	lsrs	r0, r0, #31
    44f4:	2800      	cmp	r0, #0
    44f6:	f040 809b 	bne.w	4630 <pvPortMalloc+0x19c>
    44fa:	e7ff      	b.n	44fc <pvPortMalloc+0x68>
    44fc:	980b      	ldr	r0, [sp, #44]	; 0x2c
    44fe:	2800      	cmp	r0, #0
    4500:	f000 8090 	beq.w	4624 <pvPortMalloc+0x190>
    4504:	e7ff      	b.n	4506 <pvPortMalloc+0x72>
    4506:	980b      	ldr	r0, [sp, #44]	; 0x2c
    4508:	f640 31a8 	movw	r1, #2984	; 0xba8
    450c:	f2c2 0100 	movt	r1, #8192	; 0x2000
    4510:	6809      	ldr	r1, [r1, #0]
    4512:	4288      	cmp	r0, r1
    4514:	f200 8086 	bhi.w	4624 <pvPortMalloc+0x190>
    4518:	e7ff      	b.n	451a <pvPortMalloc+0x86>
    451a:	f640 31ac 	movw	r1, #2988	; 0xbac
    451e:	f2c2 0100 	movt	r1, #8192	; 0x2000
    4522:	6808      	ldr	r0, [r1, #0]
    4524:	9109      	str	r1, [sp, #36]	; 0x24
    4526:	900a      	str	r0, [sp, #40]	; 0x28
    4528:	e7ff      	b.n	452a <pvPortMalloc+0x96>
    452a:	9a0b      	ldr	r2, [sp, #44]	; 0x2c
    452c:	9909      	ldr	r1, [sp, #36]	; 0x24
    452e:	980a      	ldr	r0, [sp, #40]	; 0x28
    4530:	9006      	str	r0, [sp, #24]
    4532:	9107      	str	r1, [sp, #28]
    4534:	6841      	ldr	r1, [r0, #4]
    4536:	2000      	movs	r0, #0
    4538:	4291      	cmp	r1, r2
    453a:	9008      	str	r0, [sp, #32]
    453c:	d207      	bcs.n	454e <pvPortMalloc+0xba>
    453e:	e7ff      	b.n	4540 <pvPortMalloc+0xac>
    4540:	9806      	ldr	r0, [sp, #24]
    4542:	6800      	ldr	r0, [r0, #0]
    4544:	2800      	cmp	r0, #0
    4546:	bf18      	it	ne
    4548:	2001      	movne	r0, #1
    454a:	9008      	str	r0, [sp, #32]
    454c:	e7ff      	b.n	454e <pvPortMalloc+0xba>
    454e:	9808      	ldr	r0, [sp, #32]
    4550:	07c0      	lsls	r0, r0, #31
    4552:	b128      	cbz	r0, 4560 <pvPortMalloc+0xcc>
    4554:	e7ff      	b.n	4556 <pvPortMalloc+0xc2>
    4556:	9906      	ldr	r1, [sp, #24]
    4558:	6808      	ldr	r0, [r1, #0]
    455a:	9109      	str	r1, [sp, #36]	; 0x24
    455c:	900a      	str	r0, [sp, #40]	; 0x28
    455e:	e7e4      	b.n	452a <pvPortMalloc+0x96>
    4560:	9806      	ldr	r0, [sp, #24]
    4562:	f640 31a4 	movw	r1, #2980	; 0xba4
    4566:	f2c2 0100 	movt	r1, #8192	; 0x2000
    456a:	6809      	ldr	r1, [r1, #0]
    456c:	4288      	cmp	r0, r1
    456e:	d053      	beq.n	4618 <pvPortMalloc+0x184>
    4570:	e7ff      	b.n	4572 <pvPortMalloc+0xde>
    4572:	990b      	ldr	r1, [sp, #44]	; 0x2c
    4574:	9806      	ldr	r0, [sp, #24]
    4576:	9b07      	ldr	r3, [sp, #28]
    4578:	681a      	ldr	r2, [r3, #0]
    457a:	3208      	adds	r2, #8
    457c:	9205      	str	r2, [sp, #20]
    457e:	6802      	ldr	r2, [r0, #0]
    4580:	601a      	str	r2, [r3, #0]
    4582:	6840      	ldr	r0, [r0, #4]
    4584:	1a40      	subs	r0, r0, r1
    4586:	2811      	cmp	r0, #17
    4588:	d316      	bcc.n	45b8 <pvPortMalloc+0x124>
    458a:	e7ff      	b.n	458c <pvPortMalloc+0xf8>
    458c:	9806      	ldr	r0, [sp, #24]
    458e:	990b      	ldr	r1, [sp, #44]	; 0x2c
    4590:	4408      	add	r0, r1
    4592:	4601      	mov	r1, r0
    4594:	9104      	str	r1, [sp, #16]
    4596:	0740      	lsls	r0, r0, #29
    4598:	b120      	cbz	r0, 45a4 <pvPortMalloc+0x110>
    459a:	e7ff      	b.n	459c <pvPortMalloc+0x108>
    459c:	f7fe fa7a 	bl	2a94 <ulSetInterruptMask>
    45a0:	e7ff      	b.n	45a2 <pvPortMalloc+0x10e>
    45a2:	e7fe      	b.n	45a2 <pvPortMalloc+0x10e>
    45a4:	9804      	ldr	r0, [sp, #16]
    45a6:	990b      	ldr	r1, [sp, #44]	; 0x2c
    45a8:	9a06      	ldr	r2, [sp, #24]
    45aa:	6853      	ldr	r3, [r2, #4]
    45ac:	1a5b      	subs	r3, r3, r1
    45ae:	6043      	str	r3, [r0, #4]
    45b0:	6051      	str	r1, [r2, #4]
    45b2:	f000 f896 	bl	46e2 <prvInsertBlockIntoFreeList>
    45b6:	e000      	b.n	45ba <pvPortMalloc+0x126>
    45b8:	e7ff      	b.n	45ba <pvPortMalloc+0x126>
    45ba:	9806      	ldr	r0, [sp, #24]
    45bc:	6842      	ldr	r2, [r0, #4]
    45be:	f640 30a8 	movw	r0, #2984	; 0xba8
    45c2:	f2c2 0000 	movt	r0, #8192	; 0x2000
    45c6:	6801      	ldr	r1, [r0, #0]
    45c8:	1a89      	subs	r1, r1, r2
    45ca:	6001      	str	r1, [r0, #0]
    45cc:	6800      	ldr	r0, [r0, #0]
    45ce:	f640 31b4 	movw	r1, #2996	; 0xbb4
    45d2:	f2c2 0100 	movt	r1, #8192	; 0x2000
    45d6:	6809      	ldr	r1, [r1, #0]
    45d8:	4288      	cmp	r0, r1
    45da:	d20b      	bcs.n	45f4 <pvPortMalloc+0x160>
    45dc:	e7ff      	b.n	45de <pvPortMalloc+0x14a>
    45de:	f640 30a8 	movw	r0, #2984	; 0xba8
    45e2:	f2c2 0000 	movt	r0, #8192	; 0x2000
    45e6:	6800      	ldr	r0, [r0, #0]
    45e8:	f640 31b4 	movw	r1, #2996	; 0xbb4
    45ec:	f2c2 0100 	movt	r1, #8192	; 0x2000
    45f0:	6008      	str	r0, [r1, #0]
    45f2:	e000      	b.n	45f6 <pvPortMalloc+0x162>
    45f4:	e7ff      	b.n	45f6 <pvPortMalloc+0x162>
    45f6:	9805      	ldr	r0, [sp, #20]
    45f8:	9a06      	ldr	r2, [sp, #24]
    45fa:	6851      	ldr	r1, [r2, #4]
    45fc:	f041 4100 	orr.w	r1, r1, #2147483648	; 0x80000000
    4600:	6051      	str	r1, [r2, #4]
    4602:	2100      	movs	r1, #0
    4604:	6011      	str	r1, [r2, #0]
    4606:	f640 32b8 	movw	r2, #3000	; 0xbb8
    460a:	f2c2 0200 	movt	r2, #8192	; 0x2000
    460e:	6811      	ldr	r1, [r2, #0]
    4610:	3101      	adds	r1, #1
    4612:	6011      	str	r1, [r2, #0]
    4614:	9003      	str	r0, [sp, #12]
    4616:	e002      	b.n	461e <pvPortMalloc+0x18a>
    4618:	2000      	movs	r0, #0
    461a:	9003      	str	r0, [sp, #12]
    461c:	e7ff      	b.n	461e <pvPortMalloc+0x18a>
    461e:	9803      	ldr	r0, [sp, #12]
    4620:	9002      	str	r0, [sp, #8]
    4622:	e002      	b.n	462a <pvPortMalloc+0x196>
    4624:	2000      	movs	r0, #0
    4626:	9002      	str	r0, [sp, #8]
    4628:	e7ff      	b.n	462a <pvPortMalloc+0x196>
    462a:	9802      	ldr	r0, [sp, #8]
    462c:	9001      	str	r0, [sp, #4]
    462e:	e002      	b.n	4636 <pvPortMalloc+0x1a2>
    4630:	2000      	movs	r0, #0
    4632:	9001      	str	r0, [sp, #4]
    4634:	e7ff      	b.n	4636 <pvPortMalloc+0x1a2>
    4636:	9801      	ldr	r0, [sp, #4]
    4638:	9000      	str	r0, [sp, #0]
    463a:	f7fe ffc1 	bl	35c0 <xTaskResumeAll>
    463e:	9800      	ldr	r0, [sp, #0]
    4640:	0740      	lsls	r0, r0, #29
    4642:	b120      	cbz	r0, 464e <pvPortMalloc+0x1ba>
    4644:	e7ff      	b.n	4646 <pvPortMalloc+0x1b2>
    4646:	f7fe fa25 	bl	2a94 <ulSetInterruptMask>
    464a:	e7ff      	b.n	464c <pvPortMalloc+0x1b8>
    464c:	e7fe      	b.n	464c <pvPortMalloc+0x1b8>
    464e:	9800      	ldr	r0, [sp, #0]
    4650:	b010      	add	sp, #64	; 0x40
    4652:	bd80      	pop	{r7, pc}

00004654 <prvHeapInit>:
    4654:	b082      	sub	sp, #8
    4656:	f640 32c0 	movw	r2, #3008	; 0xbc0
    465a:	f2c2 0200 	movt	r2, #8192	; 0x2000
    465e:	f44f 5020 	mov.w	r0, #10240	; 0x2800
    4662:	4611      	mov	r1, r2
    4664:	0752      	lsls	r2, r2, #29
    4666:	9100      	str	r1, [sp, #0]
    4668:	9001      	str	r0, [sp, #4]
    466a:	b172      	cbz	r2, 468a <prvHeapInit+0x36>
    466c:	e7ff      	b.n	466e <prvHeapInit+0x1a>
    466e:	f640 30c0 	movw	r0, #3008	; 0xbc0
    4672:	f2c2 0000 	movt	r0, #8192	; 0x2000
    4676:	1dc1      	adds	r1, r0, #7
    4678:	f021 0207 	bic.w	r2, r1, #7
    467c:	4611      	mov	r1, r2
    467e:	1a80      	subs	r0, r0, r2
    4680:	f500 5020 	add.w	r0, r0, #10240	; 0x2800
    4684:	9100      	str	r1, [sp, #0]
    4686:	9001      	str	r0, [sp, #4]
    4688:	e7ff      	b.n	468a <prvHeapInit+0x36>
    468a:	9800      	ldr	r0, [sp, #0]
    468c:	9901      	ldr	r1, [sp, #4]
    468e:	f640 32ac 	movw	r2, #2988	; 0xbac
    4692:	f2c2 0200 	movt	r2, #8192	; 0x2000
    4696:	6010      	str	r0, [r2, #0]
    4698:	2300      	movs	r3, #0
    469a:	6053      	str	r3, [r2, #4]
    469c:	4401      	add	r1, r0
    469e:	3908      	subs	r1, #8
    46a0:	f021 0207 	bic.w	r2, r1, #7
    46a4:	f640 31a4 	movw	r1, #2980	; 0xba4
    46a8:	f2c2 0100 	movt	r1, #8192	; 0x2000
    46ac:	600a      	str	r2, [r1, #0]
    46ae:	f8d1 c000 	ldr.w	ip, [r1]
    46b2:	f8cc 3004 	str.w	r3, [ip, #4]
    46b6:	f8d1 c000 	ldr.w	ip, [r1]
    46ba:	f8cc 3000 	str.w	r3, [ip]
    46be:	1a12      	subs	r2, r2, r0
    46c0:	6042      	str	r2, [r0, #4]
    46c2:	6809      	ldr	r1, [r1, #0]
    46c4:	6001      	str	r1, [r0, #0]
    46c6:	6841      	ldr	r1, [r0, #4]
    46c8:	f640 32b4 	movw	r2, #2996	; 0xbb4
    46cc:	f2c2 0200 	movt	r2, #8192	; 0x2000
    46d0:	6011      	str	r1, [r2, #0]
    46d2:	6840      	ldr	r0, [r0, #4]
    46d4:	f640 31a8 	movw	r1, #2984	; 0xba8
    46d8:	f2c2 0100 	movt	r1, #8192	; 0x2000
    46dc:	6008      	str	r0, [r1, #0]
    46de:	b002      	add	sp, #8
    46e0:	4770      	bx	lr

000046e2 <prvInsertBlockIntoFreeList>:
    46e2:	b085      	sub	sp, #20
    46e4:	9003      	str	r0, [sp, #12]
    46e6:	f640 30ac 	movw	r0, #2988	; 0xbac
    46ea:	f2c2 0000 	movt	r0, #8192	; 0x2000
    46ee:	9004      	str	r0, [sp, #16]
    46f0:	e7ff      	b.n	46f2 <prvInsertBlockIntoFreeList+0x10>
    46f2:	9903      	ldr	r1, [sp, #12]
    46f4:	9804      	ldr	r0, [sp, #16]
    46f6:	9002      	str	r0, [sp, #8]
    46f8:	6800      	ldr	r0, [r0, #0]
    46fa:	4288      	cmp	r0, r1
    46fc:	d205      	bcs.n	470a <prvInsertBlockIntoFreeList+0x28>
    46fe:	e7ff      	b.n	4700 <prvInsertBlockIntoFreeList+0x1e>
    4700:	e7ff      	b.n	4702 <prvInsertBlockIntoFreeList+0x20>
    4702:	9802      	ldr	r0, [sp, #8]
    4704:	6800      	ldr	r0, [r0, #0]
    4706:	9004      	str	r0, [sp, #16]
    4708:	e7f3      	b.n	46f2 <prvInsertBlockIntoFreeList+0x10>
    470a:	9903      	ldr	r1, [sp, #12]
    470c:	9802      	ldr	r0, [sp, #8]
    470e:	6842      	ldr	r2, [r0, #4]
    4710:	4410      	add	r0, r2
    4712:	4288      	cmp	r0, r1
    4714:	d108      	bne.n	4728 <prvInsertBlockIntoFreeList+0x46>
    4716:	e7ff      	b.n	4718 <prvInsertBlockIntoFreeList+0x36>
    4718:	9802      	ldr	r0, [sp, #8]
    471a:	9903      	ldr	r1, [sp, #12]
    471c:	684a      	ldr	r2, [r1, #4]
    471e:	6841      	ldr	r1, [r0, #4]
    4720:	4411      	add	r1, r2
    4722:	6041      	str	r1, [r0, #4]
    4724:	9001      	str	r0, [sp, #4]
    4726:	e002      	b.n	472e <prvInsertBlockIntoFreeList+0x4c>
    4728:	9803      	ldr	r0, [sp, #12]
    472a:	9001      	str	r0, [sp, #4]
    472c:	e7ff      	b.n	472e <prvInsertBlockIntoFreeList+0x4c>
    472e:	9902      	ldr	r1, [sp, #8]
    4730:	9801      	ldr	r0, [sp, #4]
    4732:	9000      	str	r0, [sp, #0]
    4734:	6842      	ldr	r2, [r0, #4]
    4736:	4410      	add	r0, r2
    4738:	6809      	ldr	r1, [r1, #0]
    473a:	4288      	cmp	r0, r1
    473c:	d11e      	bne.n	477c <prvInsertBlockIntoFreeList+0x9a>
    473e:	e7ff      	b.n	4740 <prvInsertBlockIntoFreeList+0x5e>
    4740:	9802      	ldr	r0, [sp, #8]
    4742:	6800      	ldr	r0, [r0, #0]
    4744:	f640 31a4 	movw	r1, #2980	; 0xba4
    4748:	f2c2 0100 	movt	r1, #8192	; 0x2000
    474c:	6809      	ldr	r1, [r1, #0]
    474e:	4288      	cmp	r0, r1
    4750:	d00b      	beq.n	476a <prvInsertBlockIntoFreeList+0x88>
    4752:	e7ff      	b.n	4754 <prvInsertBlockIntoFreeList+0x72>
    4754:	9900      	ldr	r1, [sp, #0]
    4756:	9802      	ldr	r0, [sp, #8]
    4758:	6802      	ldr	r2, [r0, #0]
    475a:	6853      	ldr	r3, [r2, #4]
    475c:	684a      	ldr	r2, [r1, #4]
    475e:	441a      	add	r2, r3
    4760:	604a      	str	r2, [r1, #4]
    4762:	6800      	ldr	r0, [r0, #0]
    4764:	6800      	ldr	r0, [r0, #0]
    4766:	6008      	str	r0, [r1, #0]
    4768:	e007      	b.n	477a <prvInsertBlockIntoFreeList+0x98>
    476a:	9900      	ldr	r1, [sp, #0]
    476c:	f640 30a4 	movw	r0, #2980	; 0xba4
    4770:	f2c2 0000 	movt	r0, #8192	; 0x2000
    4774:	6800      	ldr	r0, [r0, #0]
    4776:	6008      	str	r0, [r1, #0]
    4778:	e7ff      	b.n	477a <prvInsertBlockIntoFreeList+0x98>
    477a:	e004      	b.n	4786 <prvInsertBlockIntoFreeList+0xa4>
    477c:	9900      	ldr	r1, [sp, #0]
    477e:	9802      	ldr	r0, [sp, #8]
    4780:	6800      	ldr	r0, [r0, #0]
    4782:	6008      	str	r0, [r1, #0]
    4784:	e7ff      	b.n	4786 <prvInsertBlockIntoFreeList+0xa4>
    4786:	9802      	ldr	r0, [sp, #8]
    4788:	9900      	ldr	r1, [sp, #0]
    478a:	4288      	cmp	r0, r1
    478c:	d004      	beq.n	4798 <prvInsertBlockIntoFreeList+0xb6>
    478e:	e7ff      	b.n	4790 <prvInsertBlockIntoFreeList+0xae>
    4790:	9800      	ldr	r0, [sp, #0]
    4792:	9902      	ldr	r1, [sp, #8]
    4794:	6008      	str	r0, [r1, #0]
    4796:	e000      	b.n	479a <prvInsertBlockIntoFreeList+0xb8>
    4798:	e7ff      	b.n	479a <prvInsertBlockIntoFreeList+0xb8>
    479a:	b005      	add	sp, #20
    479c:	4770      	bx	lr

0000479e <vPortFree>:
    479e:	b580      	push	{r7, lr}
    47a0:	466f      	mov	r7, sp
    47a2:	b082      	sub	sp, #8
    47a4:	9001      	str	r0, [sp, #4]
    47a6:	2800      	cmp	r0, #0
    47a8:	d042      	beq.n	4830 <vPortFree+0x92>
    47aa:	e7ff      	b.n	47ac <vPortFree+0xe>
    47ac:	9801      	ldr	r0, [sp, #4]
    47ae:	f1a0 0108 	sub.w	r1, r0, #8
    47b2:	9100      	str	r1, [sp, #0]
    47b4:	f810 1c01 	ldrb.w	r1, [r0, #-1]
    47b8:	2000      	movs	r0, #0
    47ba:	ebb0 1fd1 	cmp.w	r0, r1, lsr #7
    47be:	d104      	bne.n	47ca <vPortFree+0x2c>
    47c0:	e7ff      	b.n	47c2 <vPortFree+0x24>
    47c2:	f7fe f967 	bl	2a94 <ulSetInterruptMask>
    47c6:	e7ff      	b.n	47c8 <vPortFree+0x2a>
    47c8:	e7fe      	b.n	47c8 <vPortFree+0x2a>
    47ca:	9800      	ldr	r0, [sp, #0]
    47cc:	6800      	ldr	r0, [r0, #0]
    47ce:	b120      	cbz	r0, 47da <vPortFree+0x3c>
    47d0:	e7ff      	b.n	47d2 <vPortFree+0x34>
    47d2:	f7fe f95f 	bl	2a94 <ulSetInterruptMask>
    47d6:	e7ff      	b.n	47d8 <vPortFree+0x3a>
    47d8:	e7fe      	b.n	47d8 <vPortFree+0x3a>
    47da:	9800      	ldr	r0, [sp, #0]
    47dc:	79c1      	ldrb	r1, [r0, #7]
    47de:	2000      	movs	r0, #0
    47e0:	ebb0 1fd1 	cmp.w	r0, r1, lsr #7
    47e4:	d022      	beq.n	482c <vPortFree+0x8e>
    47e6:	e7ff      	b.n	47e8 <vPortFree+0x4a>
    47e8:	9800      	ldr	r0, [sp, #0]
    47ea:	6800      	ldr	r0, [r0, #0]
    47ec:	b9e0      	cbnz	r0, 4828 <vPortFree+0x8a>
    47ee:	e7ff      	b.n	47f0 <vPortFree+0x52>
    47f0:	9900      	ldr	r1, [sp, #0]
    47f2:	6848      	ldr	r0, [r1, #4]
    47f4:	f020 4000 	bic.w	r0, r0, #2147483648	; 0x80000000
    47f8:	6048      	str	r0, [r1, #4]
    47fa:	f7fe fe5e 	bl	34ba <vTaskSuspendAll>
    47fe:	9800      	ldr	r0, [sp, #0]
    4800:	6843      	ldr	r3, [r0, #4]
    4802:	f640 32a8 	movw	r2, #2984	; 0xba8
    4806:	f2c2 0200 	movt	r2, #8192	; 0x2000
    480a:	6811      	ldr	r1, [r2, #0]
    480c:	4419      	add	r1, r3
    480e:	6011      	str	r1, [r2, #0]
    4810:	f7ff ff67 	bl	46e2 <prvInsertBlockIntoFreeList>
    4814:	f640 31bc 	movw	r1, #3004	; 0xbbc
    4818:	f2c2 0100 	movt	r1, #8192	; 0x2000
    481c:	6808      	ldr	r0, [r1, #0]
    481e:	3001      	adds	r0, #1
    4820:	6008      	str	r0, [r1, #0]
    4822:	f7fe fecd 	bl	35c0 <xTaskResumeAll>
    4826:	e000      	b.n	482a <vPortFree+0x8c>
    4828:	e7ff      	b.n	482a <vPortFree+0x8c>
    482a:	e000      	b.n	482e <vPortFree+0x90>
    482c:	e7ff      	b.n	482e <vPortFree+0x90>
    482e:	e7ff      	b.n	4830 <vPortFree+0x92>
    4830:	b002      	add	sp, #8
    4832:	bd80      	pop	{r7, pc}

00004834 <BOARD_InitBootClocks>:
    4834:	b580      	push	{r7, lr}
    4836:	466f      	mov	r7, sp
    4838:	f000 f801 	bl	483e <BOARD_BootClockPLL150M>
    483c:	bd80      	pop	{r7, pc}

0000483e <BOARD_BootClockPLL150M>:
    483e:	b5d0      	push	{r4, r6, r7, lr}
    4840:	af02      	add	r7, sp, #8
    4842:	b08e      	sub	sp, #56	; 0x38
    4844:	2020      	movs	r0, #32
    4846:	9001      	str	r0, [sp, #4]
    4848:	f000 f879 	bl	493e <POWER_DisablePD>
    484c:	f641 3000 	movw	r0, #6912	; 0x1b00
    4850:	f2c0 00b7 	movt	r0, #183	; 0xb7
    4854:	f7fc f983 	bl	b5e <CLOCK_SetupFROClocking>
    4858:	f249 1008 	movw	r0, #37128	; 0x9108
    485c:	f2c0 0010 	movt	r0, #16
    4860:	f7fc f8eb 	bl	a3a <CLOCK_AttachClk>
    4864:	f44f 7080 	mov.w	r0, #256	; 0x100
    4868:	f000 f869 	bl	493e <POWER_DisablePD>
    486c:	f44f 1080 	mov.w	r0, #1048576	; 0x100000
    4870:	f000 f865 	bl	493e <POWER_DisablePD>
    4874:	f242 4000 	movw	r0, #9216	; 0x2400
    4878:	f2c0 00f4 	movt	r0, #244	; 0xf4
    487c:	f7fc faaa 	bl	dd4 <CLOCK_SetupExtClocking>
    4880:	f640 2118 	movw	r1, #2584	; 0xa18
    4884:	f2c4 0100 	movt	r1, #16384	; 0x4000
    4888:	6808      	ldr	r0, [r1, #0]
    488a:	f040 0020 	orr.w	r0, r0, #32
    488e:	6008      	str	r0, [r1, #0]
    4890:	f243 0120 	movw	r1, #12320	; 0x3020
    4894:	f2c4 0101 	movt	r1, #16385	; 0x4001
    4898:	6808      	ldr	r0, [r1, #0]
    489a:	f040 7080 	orr.w	r0, r0, #16777216	; 0x1000000
    489e:	6008      	str	r0, [r1, #0]
    48a0:	f24d 1080 	movw	r0, #53632	; 0xd180
    48a4:	f6c0 00f0 	movt	r0, #2288	; 0x8f0
    48a8:	9005      	str	r0, [sp, #20]
    48aa:	f7fc fc22 	bl	10f2 <POWER_SetVoltageForFreq>
    48ae:	9805      	ldr	r0, [sp, #20]
    48b0:	f7fc f9a7 	bl	c02 <CLOCK_SetFLASHAccessCyclesForFreq>
    48b4:	f44f 7003 	mov.w	r0, #524	; 0x20c
    48b8:	f7fc f8bf 	bl	a3a <CLOCK_AttachClk>
    48bc:	f44f 7000 	mov.w	r0, #512	; 0x200
    48c0:	f000 f83d 	bl	493e <POWER_DisablePD>
    48c4:	f44f 0000 	mov.w	r0, #8388608	; 0x800000
    48c8:	f000 f839 	bl	493e <POWER_DisablePD>
    48cc:	f248 6278 	movw	r2, #34424	; 0x8678
    48d0:	f2c0 0200 	movt	r2, #0
    48d4:	a806      	add	r0, sp, #24
    48d6:	4601      	mov	r1, r0
    48d8:	e8b2 5018 	ldmia.w	r2!, {r3, r4, ip, lr}
    48dc:	e8a1 5018 	stmia.w	r1!, {r3, r4, ip, lr}
    48e0:	e892 5018 	ldmia.w	r2, {r3, r4, ip, lr}
    48e4:	e881 5018 	stmia.w	r1, {r3, r4, ip, lr}
    48e8:	f7fc fb57 	bl	f9a <CLOCK_SetPLL0Freq>
    48ec:	2008      	movs	r0, #8
    48ee:	2190      	movs	r1, #144	; 0x90
    48f0:	2200      	movs	r2, #0
    48f2:	9204      	str	r2, [sp, #16]
    48f4:	f7fc f8ee 	bl	ad4 <CLOCK_SetClkDiv>
    48f8:	9801      	ldr	r0, [sp, #4]
    48fa:	9a04      	ldr	r2, [sp, #16]
    48fc:	2101      	movs	r1, #1
    48fe:	9102      	str	r1, [sp, #8]
    4900:	f7fc f8e8 	bl	ad4 <CLOCK_SetClkDiv>
    4904:	9a02      	ldr	r2, [sp, #8]
    4906:	9904      	ldr	r1, [sp, #16]
    4908:	2031      	movs	r0, #49	; 0x31
    490a:	9003      	str	r0, [sp, #12]
    490c:	f7fc f8e2 	bl	ad4 <CLOCK_SetClkDiv>
    4910:	9803      	ldr	r0, [sp, #12]
    4912:	9a04      	ldr	r2, [sp, #16]
    4914:	2102      	movs	r1, #2
    4916:	f7fc f8dd 	bl	ad4 <CLOCK_SetClkDiv>
    491a:	f249 1008 	movw	r0, #37128	; 0x9108
    491e:	f2c0 0020 	movt	r0, #32
    4922:	f7fc f88a 	bl	a3a <CLOCK_AttachClk>
    4926:	f44f 7005 	mov.w	r0, #532	; 0x214
    492a:	f7fc f886 	bl	a3a <CLOCK_AttachClk>
    492e:	9805      	ldr	r0, [sp, #20]
    4930:	f240 0100 	movw	r1, #0
    4934:	f2c2 0100 	movt	r1, #8192	; 0x2000
    4938:	6008      	str	r0, [r1, #0]
    493a:	b00e      	add	sp, #56	; 0x38
    493c:	bdd0      	pop	{r4, r6, r7, pc}

0000493e <POWER_DisablePD>:
    493e:	21c8      	movs	r1, #200	; 0xc8
    4940:	f2c4 0102 	movt	r1, #16386	; 0x4002
    4944:	6008      	str	r0, [r1, #0]
    4946:	4770      	bx	lr

00004948 <BOARD_InitPeripherals_cm33_core0>:
    4948:	b580      	push	{r7, lr}
    494a:	466f      	mov	r7, sp
    494c:	f000 f801 	bl	4952 <DEBUG_USART_init>
    4950:	bd80      	pop	{r7, pc}

00004952 <DEBUG_USART_init>:
    4952:	b580      	push	{r7, lr}
    4954:	466f      	mov	r7, sp
    4956:	b082      	sub	sp, #8
    4958:	f248 6198 	movw	r1, #34456	; 0x8698
    495c:	f2c0 0100 	movt	r1, #0
    4960:	f246 0000 	movw	r0, #24576	; 0x6000
    4964:	f2c4 0008 	movt	r0, #16392	; 0x4008
    4968:	9001      	str	r0, [sp, #4]
    496a:	f646 4200 	movw	r2, #27648	; 0x6c00
    496e:	f2c0 22dc 	movt	r2, #732	; 0x2dc
    4972:	f7fd f9a5 	bl	1cc0 <USART_Init>
    4976:	9801      	ldr	r0, [sp, #4]
    4978:	2108      	movs	r1, #8
    497a:	f000 f80a 	bl	4992 <USART_EnableInterrupts>
    497e:	200e      	movs	r0, #14
    4980:	f000 f818 	bl	49b4 <EnableIRQ>
    4984:	b002      	add	sp, #8
    4986:	bd80      	pop	{r7, pc}

00004988 <BOARD_InitBootPeripherals>:
    4988:	b580      	push	{r7, lr}
    498a:	466f      	mov	r7, sp
    498c:	f7ff ffdc 	bl	4948 <BOARD_InitPeripherals_cm33_core0>
    4990:	bd80      	pop	{r7, pc}

00004992 <USART_EnableInterrupts>:
    4992:	b081      	sub	sp, #4
    4994:	9100      	str	r1, [sp, #0]
    4996:	4601      	mov	r1, r0
    4998:	9800      	ldr	r0, [sp, #0]
    499a:	f400 32fc 	and.w	r2, r0, #129024	; 0x1f800
    499e:	f400 1324 	and.w	r3, r0, #2686976	; 0x290000
    49a2:	ea42 4213 	orr.w	r2, r2, r3, lsr #16
    49a6:	60ca      	str	r2, [r1, #12]
    49a8:	f000 000f 	and.w	r0, r0, #15
    49ac:	f8c1 0e10 	str.w	r0, [r1, #3600]	; 0xe10
    49b0:	b001      	add	sp, #4
    49b2:	4770      	bx	lr

000049b4 <EnableIRQ>:
    49b4:	b580      	push	{r7, lr}
    49b6:	466f      	mov	r7, sp
    49b8:	b082      	sub	sp, #8
    49ba:	4601      	mov	r1, r0
    49bc:	9101      	str	r1, [sp, #4]
    49be:	3080      	adds	r0, #128	; 0x80
    49c0:	b918      	cbnz	r0, 49ca <EnableIRQ+0x16>
    49c2:	e7ff      	b.n	49c4 <EnableIRQ+0x10>
    49c4:	2001      	movs	r0, #1
    49c6:	9000      	str	r0, [sp, #0]
    49c8:	e006      	b.n	49d8 <EnableIRQ+0x24>
    49ca:	9801      	ldr	r0, [sp, #4]
    49cc:	b240      	sxtb	r0, r0
    49ce:	f000 f806 	bl	49de <__NVIC_EnableIRQ>
    49d2:	2000      	movs	r0, #0
    49d4:	9000      	str	r0, [sp, #0]
    49d6:	e7ff      	b.n	49d8 <EnableIRQ+0x24>
    49d8:	9800      	ldr	r0, [sp, #0]
    49da:	b002      	add	sp, #8
    49dc:	bd80      	pop	{r7, pc}

000049de <__NVIC_EnableIRQ>:
    49de:	b081      	sub	sp, #4
    49e0:	4601      	mov	r1, r0
    49e2:	9100      	str	r1, [sp, #0]
    49e4:	2800      	cmp	r0, #0
    49e6:	d40e      	bmi.n	4a06 <__NVIC_EnableIRQ+0x28>
    49e8:	e7ff      	b.n	49ea <__NVIC_EnableIRQ+0xc>
    49ea:	9800      	ldr	r0, [sp, #0]
    49ec:	b241      	sxtb	r1, r0
    49ee:	f001 021f 	and.w	r2, r1, #31
    49f2:	2001      	movs	r0, #1
    49f4:	4090      	lsls	r0, r2
    49f6:	094a      	lsrs	r2, r1, #5
    49f8:	f24e 1100 	movw	r1, #57600	; 0xe100
    49fc:	f2ce 0100 	movt	r1, #57344	; 0xe000
    4a00:	f841 0022 	str.w	r0, [r1, r2, lsl #2]
    4a04:	e7ff      	b.n	4a06 <__NVIC_EnableIRQ+0x28>
    4a06:	b001      	add	sp, #4
    4a08:	4770      	bx	lr

00004a0a <BOARD_InitBootPins>:
    4a0a:	b580      	push	{r7, lr}
    4a0c:	466f      	mov	r7, sp
    4a0e:	f000 f805 	bl	4a1c <BOARD_InitDEBUG_UARTPins>
    4a12:	f000 f81e 	bl	4a52 <BOARD_InitLEDsPins>
    4a16:	f000 f877 	bl	4b08 <BOARD_InitPins_Core0>
    4a1a:	bd80      	pop	{r7, pc}

00004a1c <BOARD_InitDEBUG_UARTPins>:
    4a1c:	b580      	push	{r7, lr}
    4a1e:	466f      	mov	r7, sp
    4a20:	b084      	sub	sp, #16
    4a22:	200d      	movs	r0, #13
    4a24:	f000 f871 	bl	4b0a <CLOCK_EnableClock>
    4a28:	f241 0000 	movw	r0, #4096	; 0x1000
    4a2c:	f2c4 0000 	movt	r0, #16384	; 0x4000
    4a30:	9001      	str	r0, [sp, #4]
    4a32:	2100      	movs	r1, #0
    4a34:	9102      	str	r1, [sp, #8]
    4a36:	221d      	movs	r2, #29
    4a38:	f240 1301 	movw	r3, #257	; 0x101
    4a3c:	9303      	str	r3, [sp, #12]
    4a3e:	f000 f86f 	bl	4b20 <IOCON_PinMuxSet>
    4a42:	9801      	ldr	r0, [sp, #4]
    4a44:	9902      	ldr	r1, [sp, #8]
    4a46:	9b03      	ldr	r3, [sp, #12]
    4a48:	221e      	movs	r2, #30
    4a4a:	f000 f869 	bl	4b20 <IOCON_PinMuxSet>
    4a4e:	b004      	add	sp, #16
    4a50:	bd80      	pop	{r7, pc}

00004a52 <BOARD_InitLEDsPins>:
    4a52:	b580      	push	{r7, lr}
    4a54:	466f      	mov	r7, sp
    4a56:	b08a      	sub	sp, #40	; 0x28
    4a58:	200d      	movs	r0, #13
    4a5a:	f000 f856 	bl	4b0a <CLOCK_EnableClock>
    4a5e:	200f      	movs	r0, #15
    4a60:	f000 f853 	bl	4b0a <CLOCK_EnableClock>
    4a64:	f248 61ac 	movw	r1, #34476	; 0x86ac
    4a68:	f2c0 0100 	movt	r1, #0
    4a6c:	7808      	ldrb	r0, [r1, #0]
    4a6e:	7849      	ldrb	r1, [r1, #1]
    4a70:	ea40 2001 	orr.w	r0, r0, r1, lsl #8
    4a74:	f8ad 0024 	strh.w	r0, [sp, #36]	; 0x24
    4a78:	f24c 0000 	movw	r0, #49152	; 0xc000
    4a7c:	f2c4 0008 	movt	r0, #16392	; 0x4008
    4a80:	9000      	str	r0, [sp, #0]
    4a82:	2101      	movs	r1, #1
    4a84:	9104      	str	r1, [sp, #16]
    4a86:	2204      	movs	r2, #4
    4a88:	9201      	str	r2, [sp, #4]
    4a8a:	ab09      	add	r3, sp, #36	; 0x24
    4a8c:	f7fc fdf4 	bl	1678 <GPIO_PinInit>
    4a90:	9800      	ldr	r0, [sp, #0]
    4a92:	9904      	ldr	r1, [sp, #16]
    4a94:	f248 63ae 	movw	r3, #34478	; 0x86ae
    4a98:	f2c0 0300 	movt	r3, #0
    4a9c:	781a      	ldrb	r2, [r3, #0]
    4a9e:	785b      	ldrb	r3, [r3, #1]
    4aa0:	ea42 2203 	orr.w	r2, r2, r3, lsl #8
    4aa4:	f8ad 2020 	strh.w	r2, [sp, #32]
    4aa8:	2206      	movs	r2, #6
    4aaa:	9202      	str	r2, [sp, #8]
    4aac:	ab08      	add	r3, sp, #32
    4aae:	f7fc fde3 	bl	1678 <GPIO_PinInit>
    4ab2:	9800      	ldr	r0, [sp, #0]
    4ab4:	9904      	ldr	r1, [sp, #16]
    4ab6:	f248 63b0 	movw	r3, #34480	; 0x86b0
    4aba:	f2c0 0300 	movt	r3, #0
    4abe:	781a      	ldrb	r2, [r3, #0]
    4ac0:	785b      	ldrb	r3, [r3, #1]
    4ac2:	ea42 2203 	orr.w	r2, r2, r3, lsl #8
    4ac6:	f8ad 201c 	strh.w	r2, [sp, #28]
    4aca:	2207      	movs	r2, #7
    4acc:	9205      	str	r2, [sp, #20]
    4ace:	ab07      	add	r3, sp, #28
    4ad0:	f7fc fdd2 	bl	1678 <GPIO_PinInit>
    4ad4:	9a01      	ldr	r2, [sp, #4]
    4ad6:	9904      	ldr	r1, [sp, #16]
    4ad8:	f241 0000 	movw	r0, #4096	; 0x1000
    4adc:	f2c4 0000 	movt	r0, #16384	; 0x4000
    4ae0:	9003      	str	r0, [sp, #12]
    4ae2:	f44f 7390 	mov.w	r3, #288	; 0x120
    4ae6:	9306      	str	r3, [sp, #24]
    4ae8:	f000 f81a 	bl	4b20 <IOCON_PinMuxSet>
    4aec:	9a02      	ldr	r2, [sp, #8]
    4aee:	9803      	ldr	r0, [sp, #12]
    4af0:	9904      	ldr	r1, [sp, #16]
    4af2:	9b06      	ldr	r3, [sp, #24]
    4af4:	f000 f814 	bl	4b20 <IOCON_PinMuxSet>
    4af8:	9803      	ldr	r0, [sp, #12]
    4afa:	9904      	ldr	r1, [sp, #16]
    4afc:	9a05      	ldr	r2, [sp, #20]
    4afe:	9b06      	ldr	r3, [sp, #24]
    4b00:	f000 f80e 	bl	4b20 <IOCON_PinMuxSet>
    4b04:	b00a      	add	sp, #40	; 0x28
    4b06:	bd80      	pop	{r7, pc}

00004b08 <BOARD_InitPins_Core0>:
    4b08:	4770      	bx	lr

00004b0a <CLOCK_EnableClock>:
    4b0a:	0a02      	lsrs	r2, r0, #8
    4b0c:	b2c1      	uxtb	r1, r0
    4b0e:	2001      	movs	r0, #1
    4b10:	4088      	lsls	r0, r1
    4b12:	f240 2120 	movw	r1, #544	; 0x220
    4b16:	f2c4 0100 	movt	r1, #16384	; 0x4000
    4b1a:	f841 0022 	str.w	r0, [r1, r2, lsl #2]
    4b1e:	4770      	bx	lr

00004b20 <IOCON_PinMuxSet>:
    4b20:	eb00 10c1 	add.w	r0, r0, r1, lsl #7
    4b24:	f840 3022 	str.w	r3, [r0, r2, lsl #2]
    4b28:	4770      	bx	lr

00004b2a <lock>:
    4b2a:	b580      	push	{r7, lr}
    4b2c:	466f      	mov	r7, sp
    4b2e:	b082      	sub	sp, #8
    4b30:	f24c 0000 	movw	r0, #49152	; 0xc000
    4b34:	f2c4 0008 	movt	r0, #16392	; 0x4008
    4b38:	9000      	str	r0, [sp, #0]
    4b3a:	2101      	movs	r1, #1
    4b3c:	9101      	str	r1, [sp, #4]
    4b3e:	2206      	movs	r2, #6
    4b40:	2300      	movs	r3, #0
    4b42:	f000 f808 	bl	4b56 <GPIO_PinWrite>
    4b46:	9800      	ldr	r0, [sp, #0]
    4b48:	9b01      	ldr	r3, [sp, #4]
    4b4a:	2207      	movs	r2, #7
    4b4c:	4619      	mov	r1, r3
    4b4e:	f000 f802 	bl	4b56 <GPIO_PinWrite>
    4b52:	b002      	add	sp, #8
    4b54:	bd80      	pop	{r7, pc}

00004b56 <GPIO_PinWrite>:
    4b56:	eb00 1041 	add.w	r0, r0, r1, lsl #5
    4b5a:	5483      	strb	r3, [r0, r2]
    4b5c:	4770      	bx	lr

00004b5e <unlock>:
    4b5e:	b580      	push	{r7, lr}
    4b60:	466f      	mov	r7, sp
    4b62:	b082      	sub	sp, #8
    4b64:	f24c 0000 	movw	r0, #49152	; 0xc000
    4b68:	f2c4 0008 	movt	r0, #16392	; 0x4008
    4b6c:	9000      	str	r0, [sp, #0]
    4b6e:	2206      	movs	r2, #6
    4b70:	2301      	movs	r3, #1
    4b72:	9301      	str	r3, [sp, #4]
    4b74:	4619      	mov	r1, r3
    4b76:	f7ff ffee 	bl	4b56 <GPIO_PinWrite>
    4b7a:	9800      	ldr	r0, [sp, #0]
    4b7c:	9901      	ldr	r1, [sp, #4]
    4b7e:	2207      	movs	r2, #7
    4b80:	2300      	movs	r3, #0
    4b82:	f7ff ffe8 	bl	4b56 <GPIO_PinWrite>
    4b86:	b002      	add	sp, #8
    4b88:	bd80      	pop	{r7, pc}

00004b8a <clear_buffer>:
    4b8a:	b580      	push	{r7, lr}
    4b8c:	466f      	mov	r7, sp
    4b8e:	f243 4000 	movw	r0, #13312	; 0x3400
    4b92:	f2c2 0000 	movt	r0, #8192	; 0x2000
    4b96:	2100      	movs	r1, #0
    4b98:	6001      	str	r1, [r0, #0]
    4b9a:	f243 30c0 	movw	r0, #13248	; 0x33c0
    4b9e:	f2c2 0000 	movt	r0, #8192	; 0x2000
    4ba2:	223f      	movs	r2, #63	; 0x3f
    4ba4:	f000 fcaa 	bl	54fc <memset>
    4ba8:	bd80      	pop	{r7, pc}

00004baa <match>:
    4baa:	b580      	push	{r7, lr}
    4bac:	466f      	mov	r7, sp
    4bae:	b082      	sub	sp, #8
    4bb0:	f248 61b2 	movw	r1, #34482	; 0x86b2
    4bb4:	f2c0 0100 	movt	r1, #0
    4bb8:	2220      	movs	r2, #32
    4bba:	f000 fc71 	bl	54a0 <memcmp>
    4bbe:	b918      	cbnz	r0, 4bc8 <match+0x1e>
    4bc0:	e7ff      	b.n	4bc2 <match+0x18>
    4bc2:	2001      	movs	r0, #1
    4bc4:	9001      	str	r0, [sp, #4]
    4bc6:	e002      	b.n	4bce <match+0x24>
    4bc8:	2000      	movs	r0, #0
    4bca:	9001      	str	r0, [sp, #4]
    4bcc:	e7ff      	b.n	4bce <match+0x24>
    4bce:	9801      	ldr	r0, [sp, #4]
    4bd0:	f000 0001 	and.w	r0, r0, #1
    4bd4:	b002      	add	sp, #8
    4bd6:	bd80      	pop	{r7, pc}

00004bd8 <check>:
    4bd8:	b580      	push	{r7, lr}
    4bda:	466f      	mov	r7, sp
    4bdc:	b08c      	sub	sp, #48	; 0x30
    4bde:	f243 4004 	movw	r0, #13316	; 0x3404
    4be2:	f2c2 0000 	movt	r0, #8192	; 0x2000
    4be6:	7800      	ldrb	r0, [r0, #0]
    4be8:	07c0      	lsls	r0, r0, #31
    4bea:	b908      	cbnz	r0, 4bf0 <check+0x18>
    4bec:	e7ff      	b.n	4bee <check+0x16>
    4bee:	e05d      	b.n	4cac <check+0xd4>
    4bf0:	200e      	movs	r0, #14
    4bf2:	f000 f85d 	bl	4cb0 <DisableIRQ>
    4bf6:	f243 4000 	movw	r0, #13312	; 0x3400
    4bfa:	f2c2 0000 	movt	r0, #8192	; 0x2000
    4bfe:	6803      	ldr	r3, [r0, #0]
    4c00:	4669      	mov	r1, sp
    4c02:	a803      	add	r0, sp, #12
    4c04:	6048      	str	r0, [r1, #4]
    4c06:	a804      	add	r0, sp, #16
    4c08:	6008      	str	r0, [r1, #0]
    4c0a:	f243 32c0 	movw	r2, #13248	; 0x33c0
    4c0e:	f2c2 0200 	movt	r2, #8192	; 0x2000
    4c12:	f244 0000 	movw	r0, #16384	; 0x4000
    4c16:	f2c4 000a 	movt	r0, #16394	; 0x400a
    4c1a:	2102      	movs	r1, #2
    4c1c:	f7fd fa40 	bl	20a0 <HASHCRYPT_SHA>
    4c20:	b908      	cbnz	r0, 4c26 <check+0x4e>
    4c22:	e7ff      	b.n	4c24 <check+0x4c>
    4c24:	e00e      	b.n	4c44 <check+0x6c>
    4c26:	f248 60d2 	movw	r0, #34514	; 0x86d2
    4c2a:	f2c0 0000 	movt	r0, #0
    4c2e:	f248 62e0 	movw	r2, #34528	; 0x86e0
    4c32:	f2c0 0200 	movt	r2, #0
    4c36:	f248 63e6 	movw	r3, #34534	; 0x86e6
    4c3a:	f2c0 0300 	movt	r3, #0
    4c3e:	2163      	movs	r1, #99	; 0x63
    4c40:	f000 f908 	bl	4e54 <__assert_func>
    4c44:	9803      	ldr	r0, [sp, #12]
    4c46:	2820      	cmp	r0, #32
    4c48:	d101      	bne.n	4c4e <check+0x76>
    4c4a:	e7ff      	b.n	4c4c <check+0x74>
    4c4c:	e00e      	b.n	4c6c <check+0x94>
    4c4e:	f248 60d2 	movw	r0, #34514	; 0x86d2
    4c52:	f2c0 0000 	movt	r0, #0
    4c56:	f248 62e0 	movw	r2, #34528	; 0x86e0
    4c5a:	f2c0 0200 	movt	r2, #0
    4c5e:	f248 7300 	movw	r3, #34560	; 0x8700
    4c62:	f2c0 0300 	movt	r3, #0
    4c66:	2164      	movs	r1, #100	; 0x64
    4c68:	f000 f8f4 	bl	4e54 <__assert_func>
    4c6c:	a804      	add	r0, sp, #16
    4c6e:	f7ff ff9c 	bl	4baa <match>
    4c72:	b178      	cbz	r0, 4c94 <check+0xbc>
    4c74:	e7ff      	b.n	4c76 <check+0x9e>
    4c76:	f7ff ff72 	bl	4b5e <unlock>
    4c7a:	f24c 60c0 	movw	r0, #50880	; 0xc6c0
    4c7e:	f2c0 002d 	movt	r0, #45	; 0x2d
    4c82:	f24d 1180 	movw	r1, #53632	; 0xd180
    4c86:	f6c0 01f0 	movt	r1, #2288	; 0x8f0
    4c8a:	f7fb fe9f 	bl	9cc <SDK_DelayAtLeastUs>
    4c8e:	f7ff ff4c 	bl	4b2a <lock>
    4c92:	e7ff      	b.n	4c94 <check+0xbc>
    4c94:	200e      	movs	r0, #14
    4c96:	f000 f820 	bl	4cda <EnableIRQ>
    4c9a:	f7ff ff76 	bl	4b8a <clear_buffer>
    4c9e:	f243 4104 	movw	r1, #13316	; 0x3404
    4ca2:	f2c2 0100 	movt	r1, #8192	; 0x2000
    4ca6:	2000      	movs	r0, #0
    4ca8:	7008      	strb	r0, [r1, #0]
    4caa:	e7ff      	b.n	4cac <check+0xd4>
    4cac:	b00c      	add	sp, #48	; 0x30
    4cae:	bd80      	pop	{r7, pc}

00004cb0 <DisableIRQ>:
    4cb0:	b580      	push	{r7, lr}
    4cb2:	466f      	mov	r7, sp
    4cb4:	b082      	sub	sp, #8
    4cb6:	4601      	mov	r1, r0
    4cb8:	9101      	str	r1, [sp, #4]
    4cba:	3080      	adds	r0, #128	; 0x80
    4cbc:	b918      	cbnz	r0, 4cc6 <DisableIRQ+0x16>
    4cbe:	e7ff      	b.n	4cc0 <DisableIRQ+0x10>
    4cc0:	2001      	movs	r0, #1
    4cc2:	9000      	str	r0, [sp, #0]
    4cc4:	e006      	b.n	4cd4 <DisableIRQ+0x24>
    4cc6:	9801      	ldr	r0, [sp, #4]
    4cc8:	b240      	sxtb	r0, r0
    4cca:	f000 f893 	bl	4df4 <__NVIC_DisableIRQ>
    4cce:	2000      	movs	r0, #0
    4cd0:	9000      	str	r0, [sp, #0]
    4cd2:	e7ff      	b.n	4cd4 <DisableIRQ+0x24>
    4cd4:	9800      	ldr	r0, [sp, #0]
    4cd6:	b002      	add	sp, #8
    4cd8:	bd80      	pop	{r7, pc}

00004cda <EnableIRQ>:
    4cda:	b580      	push	{r7, lr}
    4cdc:	466f      	mov	r7, sp
    4cde:	b082      	sub	sp, #8
    4ce0:	4601      	mov	r1, r0
    4ce2:	9101      	str	r1, [sp, #4]
    4ce4:	3080      	adds	r0, #128	; 0x80
    4ce6:	b918      	cbnz	r0, 4cf0 <EnableIRQ+0x16>
    4ce8:	e7ff      	b.n	4cea <EnableIRQ+0x10>
    4cea:	2001      	movs	r0, #1
    4cec:	9000      	str	r0, [sp, #0]
    4cee:	e006      	b.n	4cfe <EnableIRQ+0x24>
    4cf0:	9801      	ldr	r0, [sp, #4]
    4cf2:	b240      	sxtb	r0, r0
    4cf4:	f000 f898 	bl	4e28 <__NVIC_EnableIRQ>
    4cf8:	2000      	movs	r0, #0
    4cfa:	9000      	str	r0, [sp, #0]
    4cfc:	e7ff      	b.n	4cfe <EnableIRQ+0x24>
    4cfe:	9800      	ldr	r0, [sp, #0]
    4d00:	b002      	add	sp, #8
    4d02:	bd80      	pop	{r7, pc}

00004d04 <check_task>:
    4d04:	b580      	push	{r7, lr}
    4d06:	466f      	mov	r7, sp
    4d08:	e7ff      	b.n	4d0a <check_task+0x6>
    4d0a:	f7ff ff65 	bl	4bd8 <check>
    4d0e:	e7fc      	b.n	4d0a <check_task+0x6>

00004d10 <main>:
    4d10:	b580      	push	{r7, lr}
    4d12:	466f      	mov	r7, sp
    4d14:	b082      	sub	sp, #8
    4d16:	f7ff fe78 	bl	4a0a <BOARD_InitBootPins>
    4d1a:	f7ff fd8b 	bl	4834 <BOARD_InitBootClocks>
    4d1e:	f7ff fe33 	bl	4988 <BOARD_InitBootPeripherals>
    4d22:	f7ff ff02 	bl	4b2a <lock>
    4d26:	4669      	mov	r1, sp
    4d28:	2300      	movs	r3, #0
    4d2a:	604b      	str	r3, [r1, #4]
    4d2c:	2004      	movs	r0, #4
    4d2e:	6008      	str	r0, [r1, #0]
    4d30:	f644 5005 	movw	r0, #19717	; 0x4d05
    4d34:	f2c0 0000 	movt	r0, #0
    4d38:	f248 7113 	movw	r1, #34579	; 0x8713
    4d3c:	f2c0 0100 	movt	r1, #0
    4d40:	2280      	movs	r2, #128	; 0x80
    4d42:	f7fe fa1c 	bl	317e <xTaskCreate>
    4d46:	2801      	cmp	r0, #1
    4d48:	d002      	beq.n	4d50 <main+0x40>
    4d4a:	e7ff      	b.n	4d4c <main+0x3c>
    4d4c:	e7ff      	b.n	4d4e <main+0x3e>
    4d4e:	e7fe      	b.n	4d4e <main+0x3e>
    4d50:	f7fe fda0 	bl	3894 <vTaskStartScheduler>
    4d54:	e7ff      	b.n	4d56 <main+0x46>
    4d56:	e7fe      	b.n	4d56 <main+0x46>

00004d58 <FLEXCOMM0_IRQHandler>:
    4d58:	b580      	push	{r7, lr}
    4d5a:	466f      	mov	r7, sp
    4d5c:	b082      	sub	sp, #8
    4d5e:	f246 0000 	movw	r0, #24576	; 0x6000
    4d62:	f2c4 0008 	movt	r0, #16392	; 0x4008
    4d66:	f000 f830 	bl	4dca <USART_GetStatusFlags>
    4d6a:	0640      	lsls	r0, r0, #25
    4d6c:	2800      	cmp	r0, #0
    4d6e:	d52a      	bpl.n	4dc6 <FLEXCOMM0_IRQHandler+0x6e>
    4d70:	e7ff      	b.n	4d72 <FLEXCOMM0_IRQHandler+0x1a>
    4d72:	f246 0000 	movw	r0, #24576	; 0x6000
    4d76:	f2c4 0008 	movt	r0, #16392	; 0x4008
    4d7a:	f000 f837 	bl	4dec <USART_ReadByte>
    4d7e:	4601      	mov	r1, r0
    4d80:	9101      	str	r1, [sp, #4]
    4d82:	280d      	cmp	r0, #13
    4d84:	d107      	bne.n	4d96 <FLEXCOMM0_IRQHandler+0x3e>
    4d86:	e7ff      	b.n	4d88 <FLEXCOMM0_IRQHandler+0x30>
    4d88:	f243 4104 	movw	r1, #13316	; 0x3404
    4d8c:	f2c2 0100 	movt	r1, #8192	; 0x2000
    4d90:	2001      	movs	r0, #1
    4d92:	7008      	strb	r0, [r1, #0]
    4d94:	e017      	b.n	4dc6 <FLEXCOMM0_IRQHandler+0x6e>
    4d96:	f243 4000 	movw	r0, #13312	; 0x3400
    4d9a:	f2c2 0000 	movt	r0, #8192	; 0x2000
    4d9e:	6800      	ldr	r0, [r0, #0]
    4da0:	283e      	cmp	r0, #62	; 0x3e
    4da2:	d80f      	bhi.n	4dc4 <FLEXCOMM0_IRQHandler+0x6c>
    4da4:	e7ff      	b.n	4da6 <FLEXCOMM0_IRQHandler+0x4e>
    4da6:	9801      	ldr	r0, [sp, #4]
    4da8:	f243 4100 	movw	r1, #13312	; 0x3400
    4dac:	f2c2 0100 	movt	r1, #8192	; 0x2000
    4db0:	680b      	ldr	r3, [r1, #0]
    4db2:	f243 32c0 	movw	r2, #13248	; 0x33c0
    4db6:	f2c2 0200 	movt	r2, #8192	; 0x2000
    4dba:	54d0      	strb	r0, [r2, r3]
    4dbc:	6808      	ldr	r0, [r1, #0]
    4dbe:	3001      	adds	r0, #1
    4dc0:	6008      	str	r0, [r1, #0]
    4dc2:	e7ff      	b.n	4dc4 <FLEXCOMM0_IRQHandler+0x6c>
    4dc4:	e7ff      	b.n	4dc6 <FLEXCOMM0_IRQHandler+0x6e>
    4dc6:	b002      	add	sp, #8
    4dc8:	bd80      	pop	{r7, pc}

00004dca <USART_GetStatusFlags>:
    4dca:	4601      	mov	r1, r0
    4dcc:	f8d1 0e04 	ldr.w	r0, [r1, #3588]	; 0xe04
    4dd0:	f36f 2017 	bfc	r0, #8, #16
    4dd4:	688a      	ldr	r2, [r1, #8]
    4dd6:	b2d2      	uxtb	r2, r2
    4dd8:	ea40 4002 	orr.w	r0, r0, r2, lsl #16
    4ddc:	6889      	ldr	r1, [r1, #8]
    4dde:	f64f 7200 	movw	r2, #65280	; 0xff00
    4de2:	f2c0 02ff 	movt	r2, #255	; 0xff
    4de6:	4011      	ands	r1, r2
    4de8:	4308      	orrs	r0, r1
    4dea:	4770      	bx	lr

00004dec <USART_ReadByte>:
    4dec:	f8d0 0e30 	ldr.w	r0, [r0, #3632]	; 0xe30
    4df0:	b2c0      	uxtb	r0, r0
    4df2:	4770      	bx	lr

00004df4 <__NVIC_DisableIRQ>:
    4df4:	b081      	sub	sp, #4
    4df6:	4601      	mov	r1, r0
    4df8:	9100      	str	r1, [sp, #0]
    4dfa:	2800      	cmp	r0, #0
    4dfc:	d412      	bmi.n	4e24 <__NVIC_DisableIRQ+0x30>
    4dfe:	e7ff      	b.n	4e00 <__NVIC_DisableIRQ+0xc>
    4e00:	9800      	ldr	r0, [sp, #0]
    4e02:	b241      	sxtb	r1, r0
    4e04:	f001 021f 	and.w	r2, r1, #31
    4e08:	2001      	movs	r0, #1
    4e0a:	4090      	lsls	r0, r2
    4e0c:	094a      	lsrs	r2, r1, #5
    4e0e:	f24e 1180 	movw	r1, #57728	; 0xe180
    4e12:	f2ce 0100 	movt	r1, #57344	; 0xe000
    4e16:	f841 0022 	str.w	r0, [r1, r2, lsl #2]
    4e1a:	f3bf 8f4f 	dsb	sy
    4e1e:	f3bf 8f6f 	isb	sy
    4e22:	e7ff      	b.n	4e24 <__NVIC_DisableIRQ+0x30>
    4e24:	b001      	add	sp, #4
    4e26:	4770      	bx	lr

00004e28 <__NVIC_EnableIRQ>:
    4e28:	b081      	sub	sp, #4
    4e2a:	4601      	mov	r1, r0
    4e2c:	9100      	str	r1, [sp, #0]
    4e2e:	2800      	cmp	r0, #0
    4e30:	d40e      	bmi.n	4e50 <__NVIC_EnableIRQ+0x28>
    4e32:	e7ff      	b.n	4e34 <__NVIC_EnableIRQ+0xc>
    4e34:	9800      	ldr	r0, [sp, #0]
    4e36:	b241      	sxtb	r1, r0
    4e38:	f001 021f 	and.w	r2, r1, #31
    4e3c:	2001      	movs	r0, #1
    4e3e:	4090      	lsls	r0, r2
    4e40:	094a      	lsrs	r2, r1, #5
    4e42:	f24e 1100 	movw	r1, #57600	; 0xe100
    4e46:	f2ce 0100 	movt	r1, #57344	; 0xe000
    4e4a:	f841 0022 	str.w	r0, [r1, r2, lsl #2]
    4e4e:	e7ff      	b.n	4e50 <__NVIC_EnableIRQ+0x28>
    4e50:	b001      	add	sp, #4
    4e52:	4770      	bx	lr

00004e54 <__assert_func>:
    4e54:	4d0a      	ldr	r5, [pc, #40]	; (4e80 <__assert_func+0x2c>)
    4e56:	4614      	mov	r4, r2
    4e58:	461a      	mov	r2, r3
    4e5a:	4603      	mov	r3, r0
    4e5c:	682e      	ldr	r6, [r5, #0]
    4e5e:	460d      	mov	r5, r1
    4e60:	b500      	push	{lr}
    4e62:	68f0      	ldr	r0, [r6, #12]
    4e64:	b085      	sub	sp, #20
    4e66:	b144      	cbz	r4, 4e7a <__assert_func+0x26>
    4e68:	4906      	ldr	r1, [pc, #24]	; (4e84 <__assert_func+0x30>)
    4e6a:	9500      	str	r5, [sp, #0]
    4e6c:	e9cd 1401 	strd	r1, r4, [sp, #4]
    4e70:	4905      	ldr	r1, [pc, #20]	; (4e88 <__assert_func+0x34>)
    4e72:	f000 f81d 	bl	4eb0 <fiprintf>
    4e76:	f001 fcad 	bl	67d4 <abort>
    4e7a:	4904      	ldr	r1, [pc, #16]	; (4e8c <__assert_func+0x38>)
    4e7c:	460c      	mov	r4, r1
    4e7e:	e7f4      	b.n	4e6a <__assert_func+0x16>
    4e80:	2000000c 	.word	0x2000000c
    4e84:	00008720 	.word	0x00008720
    4e88:	00008730 	.word	0x00008730
    4e8c:	0000872c 	.word	0x0000872c

00004e90 <exit>:
    4e90:	b508      	push	{r3, lr}
    4e92:	2100      	movs	r1, #0
    4e94:	4604      	mov	r4, r0
    4e96:	f001 fc3f 	bl	6718 <__call_exitprocs>
    4e9a:	4b04      	ldr	r3, [pc, #16]	; (4eac <exit+0x1c>)
    4e9c:	6818      	ldr	r0, [r3, #0]
    4e9e:	6bc3      	ldr	r3, [r0, #60]	; 0x3c
    4ea0:	b103      	cbz	r3, 4ea4 <exit+0x14>
    4ea2:	4798      	blx	r3
    4ea4:	4620      	mov	r0, r4
    4ea6:	f003 f83f 	bl	7f28 <_exit>
    4eaa:	bf00      	nop
    4eac:	00008760 	.word	0x00008760

00004eb0 <fiprintf>:
    4eb0:	b40e      	push	{r1, r2, r3}
    4eb2:	b510      	push	{r4, lr}
    4eb4:	b083      	sub	sp, #12
    4eb6:	4c07      	ldr	r4, [pc, #28]	; (4ed4 <fiprintf+0x24>)
    4eb8:	4601      	mov	r1, r0
    4eba:	ab05      	add	r3, sp, #20
    4ebc:	6820      	ldr	r0, [r4, #0]
    4ebe:	f853 2b04 	ldr.w	r2, [r3], #4
    4ec2:	9301      	str	r3, [sp, #4]
    4ec4:	f000 fbc4 	bl	5650 <_vfiprintf_r>
    4ec8:	b003      	add	sp, #12
    4eca:	e8bd 4010 	ldmia.w	sp!, {r4, lr}
    4ece:	b003      	add	sp, #12
    4ed0:	4770      	bx	lr
    4ed2:	bf00      	nop
    4ed4:	2000000c 	.word	0x2000000c

00004ed8 <__libc_init_array>:
    4ed8:	b570      	push	{r4, r5, r6, lr}
    4eda:	4e0d      	ldr	r6, [pc, #52]	; (4f10 <__libc_init_array+0x38>)
    4edc:	4d0d      	ldr	r5, [pc, #52]	; (4f14 <__libc_init_array+0x3c>)
    4ede:	1b76      	subs	r6, r6, r5
    4ee0:	10b6      	asrs	r6, r6, #2
    4ee2:	d006      	beq.n	4ef2 <__libc_init_array+0x1a>
    4ee4:	2400      	movs	r4, #0
    4ee6:	3401      	adds	r4, #1
    4ee8:	f855 3b04 	ldr.w	r3, [r5], #4
    4eec:	4798      	blx	r3
    4eee:	42a6      	cmp	r6, r4
    4ef0:	d1f9      	bne.n	4ee6 <__libc_init_array+0xe>
    4ef2:	4e09      	ldr	r6, [pc, #36]	; (4f18 <__libc_init_array+0x40>)
    4ef4:	f003 fd04 	bl	8900 <_init>
    4ef8:	4d08      	ldr	r5, [pc, #32]	; (4f1c <__libc_init_array+0x44>)
    4efa:	1b76      	subs	r6, r6, r5
    4efc:	10b6      	asrs	r6, r6, #2
    4efe:	d006      	beq.n	4f0e <__libc_init_array+0x36>
    4f00:	2400      	movs	r4, #0
    4f02:	3401      	adds	r4, #1
    4f04:	f855 3b04 	ldr.w	r3, [r5], #4
    4f08:	4798      	blx	r3
    4f0a:	42a6      	cmp	r6, r4
    4f0c:	d1f9      	bne.n	4f02 <__libc_init_array+0x2a>
    4f0e:	bd70      	pop	{r4, r5, r6, pc}
    4f10:	00008920 	.word	0x00008920
    4f14:	00008920 	.word	0x00008920
    4f18:	00008928 	.word	0x00008928
    4f1c:	00008920 	.word	0x00008920

00004f20 <_malloc_r>:
    4f20:	f101 030b 	add.w	r3, r1, #11
    4f24:	2b16      	cmp	r3, #22
    4f26:	e92d 4ff0 	stmdb	sp!, {r4, r5, r6, r7, r8, r9, sl, fp, lr}
    4f2a:	4605      	mov	r5, r0
    4f2c:	b083      	sub	sp, #12
    4f2e:	d824      	bhi.n	4f7a <_malloc_r+0x5a>
    4f30:	2910      	cmp	r1, #16
    4f32:	f200 80f6 	bhi.w	5122 <_malloc_r+0x202>
    4f36:	f000 fb33 	bl	55a0 <__malloc_lock>
    4f3a:	2410      	movs	r4, #16
    4f3c:	2218      	movs	r2, #24
    4f3e:	2002      	movs	r0, #2
    4f40:	4ebb      	ldr	r6, [pc, #748]	; (5230 <_malloc_r+0x310>)
    4f42:	4432      	add	r2, r6
    4f44:	6853      	ldr	r3, [r2, #4]
    4f46:	f1a2 0108 	sub.w	r1, r2, #8
    4f4a:	428b      	cmp	r3, r1
    4f4c:	f000 80f0 	beq.w	5130 <_malloc_r+0x210>
    4f50:	685a      	ldr	r2, [r3, #4]
    4f52:	4628      	mov	r0, r5
    4f54:	f022 0203 	bic.w	r2, r2, #3
    4f58:	e9d3 4102 	ldrd	r4, r1, [r3, #8]
    4f5c:	441a      	add	r2, r3
    4f5e:	60e1      	str	r1, [r4, #12]
    4f60:	608c      	str	r4, [r1, #8]
    4f62:	f103 0408 	add.w	r4, r3, #8
    4f66:	6853      	ldr	r3, [r2, #4]
    4f68:	f043 0301 	orr.w	r3, r3, #1
    4f6c:	6053      	str	r3, [r2, #4]
    4f6e:	f000 fb1d 	bl	55ac <__malloc_unlock>
    4f72:	4620      	mov	r0, r4
    4f74:	b003      	add	sp, #12
    4f76:	e8bd 8ff0 	ldmia.w	sp!, {r4, r5, r6, r7, r8, r9, sl, fp, pc}
    4f7a:	2b00      	cmp	r3, #0
    4f7c:	f023 0407 	bic.w	r4, r3, #7
    4f80:	f2c0 80cf 	blt.w	5122 <_malloc_r+0x202>
    4f84:	42a1      	cmp	r1, r4
    4f86:	f200 80cc 	bhi.w	5122 <_malloc_r+0x202>
    4f8a:	f000 fb09 	bl	55a0 <__malloc_lock>
    4f8e:	f5b4 7ffc 	cmp.w	r4, #504	; 0x1f8
    4f92:	f0c0 81c4 	bcc.w	531e <_malloc_r+0x3fe>
    4f96:	0a63      	lsrs	r3, r4, #9
    4f98:	f000 8129 	beq.w	51ee <_malloc_r+0x2ce>
    4f9c:	2b04      	cmp	r3, #4
    4f9e:	f200 818e 	bhi.w	52be <_malloc_r+0x39e>
    4fa2:	09a3      	lsrs	r3, r4, #6
    4fa4:	f103 0039 	add.w	r0, r3, #57	; 0x39
    4fa8:	f103 0738 	add.w	r7, r3, #56	; 0x38
    4fac:	00c3      	lsls	r3, r0, #3
    4fae:	4ea0      	ldr	r6, [pc, #640]	; (5230 <_malloc_r+0x310>)
    4fb0:	4433      	add	r3, r6
    4fb2:	f1a3 0c08 	sub.w	ip, r3, #8
    4fb6:	685b      	ldr	r3, [r3, #4]
    4fb8:	459c      	cmp	ip, r3
    4fba:	d107      	bne.n	4fcc <_malloc_r+0xac>
    4fbc:	e0bd      	b.n	513a <_malloc_r+0x21a>
    4fbe:	2900      	cmp	r1, #0
    4fc0:	f280 8146 	bge.w	5250 <_malloc_r+0x330>
    4fc4:	68db      	ldr	r3, [r3, #12]
    4fc6:	459c      	cmp	ip, r3
    4fc8:	f000 80b7 	beq.w	513a <_malloc_r+0x21a>
    4fcc:	685a      	ldr	r2, [r3, #4]
    4fce:	f022 0203 	bic.w	r2, r2, #3
    4fd2:	1b11      	subs	r1, r2, r4
    4fd4:	290f      	cmp	r1, #15
    4fd6:	ddf2      	ble.n	4fbe <_malloc_r+0x9e>
    4fd8:	6933      	ldr	r3, [r6, #16]
    4fda:	4638      	mov	r0, r7
    4fdc:	f8df c268 	ldr.w	ip, [pc, #616]	; 5248 <_malloc_r+0x328>
    4fe0:	4563      	cmp	r3, ip
    4fe2:	f040 80b0 	bne.w	5146 <_malloc_r+0x226>
    4fe6:	1083      	asrs	r3, r0, #2
    4fe8:	f04f 0801 	mov.w	r8, #1
    4fec:	6871      	ldr	r1, [r6, #4]
    4fee:	fa08 f803 	lsl.w	r8, r8, r3
    4ff2:	4588      	cmp	r8, r1
    4ff4:	f240 80d2 	bls.w	519c <_malloc_r+0x27c>
    4ff8:	68b7      	ldr	r7, [r6, #8]
    4ffa:	687b      	ldr	r3, [r7, #4]
    4ffc:	f023 0903 	bic.w	r9, r3, #3
    5000:	eba9 0304 	sub.w	r3, r9, r4
    5004:	2b0f      	cmp	r3, #15
    5006:	dd02      	ble.n	500e <_malloc_r+0xee>
    5008:	454c      	cmp	r4, r9
    500a:	f240 8100 	bls.w	520e <_malloc_r+0x2ee>
    500e:	4b89      	ldr	r3, [pc, #548]	; (5234 <_malloc_r+0x314>)
    5010:	eb07 0b09 	add.w	fp, r7, r9
    5014:	681b      	ldr	r3, [r3, #0]
    5016:	eb04 0803 	add.w	r8, r4, r3
    501a:	4b87      	ldr	r3, [pc, #540]	; (5238 <_malloc_r+0x318>)
    501c:	681a      	ldr	r2, [r3, #0]
    501e:	3201      	adds	r2, #1
    5020:	f000 81ce 	beq.w	53c0 <_malloc_r+0x4a0>
    5024:	f241 020f 	movw	r2, #4111	; 0x100f
    5028:	4442      	add	r2, r8
    502a:	f8df 8220 	ldr.w	r8, [pc, #544]	; 524c <_malloc_r+0x32c>
    502e:	ea02 0808 	and.w	r8, r2, r8
    5032:	4641      	mov	r1, r8
    5034:	4628      	mov	r0, r5
    5036:	f000 fabf 	bl	55b8 <_sbrk_r>
    503a:	f1b0 3fff 	cmp.w	r0, #4294967295	; 0xffffffff
    503e:	4682      	mov	sl, r0
    5040:	4b7d      	ldr	r3, [pc, #500]	; (5238 <_malloc_r+0x318>)
    5042:	f000 81ac 	beq.w	539e <_malloc_r+0x47e>
    5046:	42b7      	cmp	r7, r6
    5048:	d002      	beq.n	5050 <_malloc_r+0x130>
    504a:	4583      	cmp	fp, r0
    504c:	f200 81a7 	bhi.w	539e <_malloc_r+0x47e>
    5050:	4a7a      	ldr	r2, [pc, #488]	; (523c <_malloc_r+0x31c>)
    5052:	45d3      	cmp	fp, sl
    5054:	6811      	ldr	r1, [r2, #0]
    5056:	4441      	add	r1, r8
    5058:	6011      	str	r1, [r2, #0]
    505a:	f000 81a3 	beq.w	53a4 <_malloc_r+0x484>
    505e:	6818      	ldr	r0, [r3, #0]
    5060:	3001      	adds	r0, #1
    5062:	f000 81aa 	beq.w	53ba <_malloc_r+0x49a>
    5066:	ebaa 030b 	sub.w	r3, sl, fp
    506a:	440b      	add	r3, r1
    506c:	6013      	str	r3, [r2, #0]
    506e:	f01a 0307 	ands.w	r3, sl, #7
    5072:	f000 81b0 	beq.w	53d6 <_malloc_r+0x4b6>
    5076:	f1c3 0108 	rsb	r1, r3, #8
    507a:	4628      	mov	r0, r5
    507c:	9301      	str	r3, [sp, #4]
    507e:	448a      	add	sl, r1
    5080:	f241 0108 	movw	r1, #4104	; 0x1008
    5084:	44d0      	add	r8, sl
    5086:	1ac9      	subs	r1, r1, r3
    5088:	eba1 0108 	sub.w	r1, r1, r8
    508c:	f3c1 0b0b 	ubfx	fp, r1, #0, #12
    5090:	4659      	mov	r1, fp
    5092:	f000 fa91 	bl	55b8 <_sbrk_r>
    5096:	1c42      	adds	r2, r0, #1
    5098:	9b01      	ldr	r3, [sp, #4]
    509a:	4a68      	ldr	r2, [pc, #416]	; (523c <_malloc_r+0x31c>)
    509c:	f000 81e2 	beq.w	5464 <_malloc_r+0x544>
    50a0:	eba0 000a 	sub.w	r0, r0, sl
    50a4:	eb00 080b 	add.w	r8, r0, fp
    50a8:	6810      	ldr	r0, [r2, #0]
    50aa:	f048 0301 	orr.w	r3, r8, #1
    50ae:	42b7      	cmp	r7, r6
    50b0:	f8c6 a008 	str.w	sl, [r6, #8]
    50b4:	eb0b 0100 	add.w	r1, fp, r0
    50b8:	f8ca 3004 	str.w	r3, [sl, #4]
    50bc:	6011      	str	r1, [r2, #0]
    50be:	f000 81ad 	beq.w	541c <_malloc_r+0x4fc>
    50c2:	f1b9 0f0f 	cmp.w	r9, #15
    50c6:	f240 81ab 	bls.w	5420 <_malloc_r+0x500>
    50ca:	687b      	ldr	r3, [r7, #4]
    50cc:	f1a9 000c 	sub.w	r0, r9, #12
    50d0:	f04f 0c05 	mov.w	ip, #5
    50d4:	f020 0007 	bic.w	r0, r0, #7
    50d8:	f003 0301 	and.w	r3, r3, #1
    50dc:	4303      	orrs	r3, r0
    50de:	280f      	cmp	r0, #15
    50e0:	607b      	str	r3, [r7, #4]
    50e2:	eb07 0300 	add.w	r3, r7, r0
    50e6:	e9c3 cc01 	strd	ip, ip, [r3, #4]
    50ea:	f200 81b1 	bhi.w	5450 <_malloc_r+0x530>
    50ee:	f8da 3004 	ldr.w	r3, [sl, #4]
    50f2:	4657      	mov	r7, sl
    50f4:	4a52      	ldr	r2, [pc, #328]	; (5240 <_malloc_r+0x320>)
    50f6:	6810      	ldr	r0, [r2, #0]
    50f8:	4288      	cmp	r0, r1
    50fa:	bf38      	it	cc
    50fc:	6011      	strcc	r1, [r2, #0]
    50fe:	4a51      	ldr	r2, [pc, #324]	; (5244 <_malloc_r+0x324>)
    5100:	6810      	ldr	r0, [r2, #0]
    5102:	4288      	cmp	r0, r1
    5104:	bf38      	it	cc
    5106:	6011      	strcc	r1, [r2, #0]
    5108:	f023 0803 	bic.w	r8, r3, #3
    510c:	4544      	cmp	r4, r8
    510e:	eba8 0304 	sub.w	r3, r8, r4
    5112:	d801      	bhi.n	5118 <_malloc_r+0x1f8>
    5114:	2b0f      	cmp	r3, #15
    5116:	dc7a      	bgt.n	520e <_malloc_r+0x2ee>
    5118:	4628      	mov	r0, r5
    511a:	2400      	movs	r4, #0
    511c:	f000 fa46 	bl	55ac <__malloc_unlock>
    5120:	e727      	b.n	4f72 <_malloc_r+0x52>
    5122:	2400      	movs	r4, #0
    5124:	230c      	movs	r3, #12
    5126:	4620      	mov	r0, r4
    5128:	602b      	str	r3, [r5, #0]
    512a:	b003      	add	sp, #12
    512c:	e8bd 8ff0 	ldmia.w	sp!, {r4, r5, r6, r7, r8, r9, sl, fp, pc}
    5130:	68d3      	ldr	r3, [r2, #12]
    5132:	429a      	cmp	r2, r3
    5134:	f47f af0c 	bne.w	4f50 <_malloc_r+0x30>
    5138:	3002      	adds	r0, #2
    513a:	6933      	ldr	r3, [r6, #16]
    513c:	f8df c108 	ldr.w	ip, [pc, #264]	; 5248 <_malloc_r+0x328>
    5140:	4563      	cmp	r3, ip
    5142:	f43f af50 	beq.w	4fe6 <_malloc_r+0xc6>
    5146:	685f      	ldr	r7, [r3, #4]
    5148:	f027 0703 	bic.w	r7, r7, #3
    514c:	1b3a      	subs	r2, r7, r4
    514e:	2a0f      	cmp	r2, #15
    5150:	f300 80e9 	bgt.w	5326 <_malloc_r+0x406>
    5154:	2a00      	cmp	r2, #0
    5156:	e9c6 cc04 	strd	ip, ip, [r6, #16]
    515a:	da4d      	bge.n	51f8 <_malloc_r+0x2d8>
    515c:	f5b7 7f00 	cmp.w	r7, #512	; 0x200
    5160:	f080 8088 	bcs.w	5274 <_malloc_r+0x354>
    5164:	ea4f 0ed7 	mov.w	lr, r7, lsr #3
    5168:	2101      	movs	r1, #1
    516a:	097f      	lsrs	r7, r7, #5
    516c:	6872      	ldr	r2, [r6, #4]
    516e:	f10e 0e01 	add.w	lr, lr, #1
    5172:	40b9      	lsls	r1, r7
    5174:	f856 703e 	ldr.w	r7, [r6, lr, lsl #3]
    5178:	4311      	orrs	r1, r2
    517a:	eb06 02ce 	add.w	r2, r6, lr, lsl #3
    517e:	3a08      	subs	r2, #8
    5180:	6071      	str	r1, [r6, #4]
    5182:	e9c3 7202 	strd	r7, r2, [r3, #8]
    5186:	f846 303e 	str.w	r3, [r6, lr, lsl #3]
    518a:	60fb      	str	r3, [r7, #12]
    518c:	1083      	asrs	r3, r0, #2
    518e:	f04f 0801 	mov.w	r8, #1
    5192:	fa08 f803 	lsl.w	r8, r8, r3
    5196:	4588      	cmp	r8, r1
    5198:	f63f af2e 	bhi.w	4ff8 <_malloc_r+0xd8>
    519c:	ea18 0f01 	tst.w	r8, r1
    51a0:	d107      	bne.n	51b2 <_malloc_r+0x292>
    51a2:	f020 0003 	bic.w	r0, r0, #3
    51a6:	ea4f 0848 	mov.w	r8, r8, lsl #1
    51aa:	3004      	adds	r0, #4
    51ac:	ea18 0f01 	tst.w	r8, r1
    51b0:	d0f9      	beq.n	51a6 <_malloc_r+0x286>
    51b2:	eb06 0ac0 	add.w	sl, r6, r0, lsl #3
    51b6:	4681      	mov	r9, r0
    51b8:	4651      	mov	r1, sl
    51ba:	68cf      	ldr	r7, [r1, #12]
    51bc:	e00e      	b.n	51dc <_malloc_r+0x2bc>
    51be:	687a      	ldr	r2, [r7, #4]
    51c0:	463b      	mov	r3, r7
    51c2:	68ff      	ldr	r7, [r7, #12]
    51c4:	f022 0203 	bic.w	r2, r2, #3
    51c8:	eba2 0e04 	sub.w	lr, r2, r4
    51cc:	f1be 0f0f 	cmp.w	lr, #15
    51d0:	f300 8081 	bgt.w	52d6 <_malloc_r+0x3b6>
    51d4:	f1be 0f00 	cmp.w	lr, #0
    51d8:	f280 8093 	bge.w	5302 <_malloc_r+0x3e2>
    51dc:	42b9      	cmp	r1, r7
    51de:	d1ee      	bne.n	51be <_malloc_r+0x29e>
    51e0:	f109 0901 	add.w	r9, r9, #1
    51e4:	3108      	adds	r1, #8
    51e6:	f019 0f03 	tst.w	r9, #3
    51ea:	d1e6      	bne.n	51ba <_malloc_r+0x29a>
    51ec:	e0be      	b.n	536c <_malloc_r+0x44c>
    51ee:	f44f 7300 	mov.w	r3, #512	; 0x200
    51f2:	2040      	movs	r0, #64	; 0x40
    51f4:	273f      	movs	r7, #63	; 0x3f
    51f6:	e6da      	b.n	4fae <_malloc_r+0x8e>
    51f8:	441f      	add	r7, r3
    51fa:	f103 0408 	add.w	r4, r3, #8
    51fe:	4628      	mov	r0, r5
    5200:	687b      	ldr	r3, [r7, #4]
    5202:	f043 0301 	orr.w	r3, r3, #1
    5206:	607b      	str	r3, [r7, #4]
    5208:	f000 f9d0 	bl	55ac <__malloc_unlock>
    520c:	e6b1      	b.n	4f72 <_malloc_r+0x52>
    520e:	193a      	adds	r2, r7, r4
    5210:	f044 0401 	orr.w	r4, r4, #1
    5214:	f043 0301 	orr.w	r3, r3, #1
    5218:	4628      	mov	r0, r5
    521a:	607c      	str	r4, [r7, #4]
    521c:	f107 0408 	add.w	r4, r7, #8
    5220:	60b2      	str	r2, [r6, #8]
    5222:	6053      	str	r3, [r2, #4]
    5224:	f000 f9c2 	bl	55ac <__malloc_unlock>
    5228:	4620      	mov	r0, r4
    522a:	b003      	add	sp, #12
    522c:	e8bd 8ff0 	ldmia.w	sp!, {r4, r5, r6, r7, r8, r9, sl, fp, pc}
    5230:	20000438 	.word	0x20000438
    5234:	20003438 	.word	0x20003438
    5238:	20000840 	.word	0x20000840
    523c:	20003408 	.word	0x20003408
    5240:	20003430 	.word	0x20003430
    5244:	20003434 	.word	0x20003434
    5248:	20000440 	.word	0x20000440
    524c:	fffff000 	.word	0xfffff000
    5250:	441a      	add	r2, r3
    5252:	f103 0408 	add.w	r4, r3, #8
    5256:	4628      	mov	r0, r5
    5258:	e9d3 6102 	ldrd	r6, r1, [r3, #8]
    525c:	6853      	ldr	r3, [r2, #4]
    525e:	60f1      	str	r1, [r6, #12]
    5260:	f043 0301 	orr.w	r3, r3, #1
    5264:	608e      	str	r6, [r1, #8]
    5266:	6053      	str	r3, [r2, #4]
    5268:	f000 f9a0 	bl	55ac <__malloc_unlock>
    526c:	4620      	mov	r0, r4
    526e:	b003      	add	sp, #12
    5270:	e8bd 8ff0 	ldmia.w	sp!, {r4, r5, r6, r7, r8, r9, sl, fp, pc}
    5274:	f5b7 6f20 	cmp.w	r7, #2560	; 0xa00
    5278:	ea4f 2157 	mov.w	r1, r7, lsr #9
    527c:	d365      	bcc.n	534a <_malloc_r+0x42a>
    527e:	2914      	cmp	r1, #20
    5280:	f200 80ba 	bhi.w	53f8 <_malloc_r+0x4d8>
    5284:	f101 025c 	add.w	r2, r1, #92	; 0x5c
    5288:	315b      	adds	r1, #91	; 0x5b
    528a:	00d2      	lsls	r2, r2, #3
    528c:	eb06 0e02 	add.w	lr, r6, r2
    5290:	58b2      	ldr	r2, [r6, r2]
    5292:	f1ae 0e08 	sub.w	lr, lr, #8
    5296:	4596      	cmp	lr, r2
    5298:	f000 8095 	beq.w	53c6 <_malloc_r+0x4a6>
    529c:	6851      	ldr	r1, [r2, #4]
    529e:	f021 0103 	bic.w	r1, r1, #3
    52a2:	42b9      	cmp	r1, r7
    52a4:	d902      	bls.n	52ac <_malloc_r+0x38c>
    52a6:	6892      	ldr	r2, [r2, #8]
    52a8:	4596      	cmp	lr, r2
    52aa:	d1f7      	bne.n	529c <_malloc_r+0x37c>
    52ac:	f8d2 e00c 	ldr.w	lr, [r2, #12]
    52b0:	6871      	ldr	r1, [r6, #4]
    52b2:	e9c3 2e02 	strd	r2, lr, [r3, #8]
    52b6:	f8ce 3008 	str.w	r3, [lr, #8]
    52ba:	60d3      	str	r3, [r2, #12]
    52bc:	e766      	b.n	518c <_malloc_r+0x26c>
    52be:	2b14      	cmp	r3, #20
    52c0:	d949      	bls.n	5356 <_malloc_r+0x436>
    52c2:	2b54      	cmp	r3, #84	; 0x54
    52c4:	f200 80a0 	bhi.w	5408 <_malloc_r+0x4e8>
    52c8:	0b23      	lsrs	r3, r4, #12
    52ca:	f103 006f 	add.w	r0, r3, #111	; 0x6f
    52ce:	f103 076e 	add.w	r7, r3, #110	; 0x6e
    52d2:	00c3      	lsls	r3, r0, #3
    52d4:	e66b      	b.n	4fae <_malloc_r+0x8e>
    52d6:	1919      	adds	r1, r3, r4
    52d8:	f044 0401 	orr.w	r4, r4, #1
    52dc:	4628      	mov	r0, r5
    52de:	689d      	ldr	r5, [r3, #8]
    52e0:	605c      	str	r4, [r3, #4]
    52e2:	f04e 0401 	orr.w	r4, lr, #1
    52e6:	60ef      	str	r7, [r5, #12]
    52e8:	60bd      	str	r5, [r7, #8]
    52ea:	e9c6 1104 	strd	r1, r1, [r6, #16]
    52ee:	604c      	str	r4, [r1, #4]
    52f0:	f103 0408 	add.w	r4, r3, #8
    52f4:	e9c1 cc02 	strd	ip, ip, [r1, #8]
    52f8:	f843 e002 	str.w	lr, [r3, r2]
    52fc:	f000 f956 	bl	55ac <__malloc_unlock>
    5300:	e637      	b.n	4f72 <_malloc_r+0x52>
    5302:	441a      	add	r2, r3
    5304:	461c      	mov	r4, r3
    5306:	4628      	mov	r0, r5
    5308:	6853      	ldr	r3, [r2, #4]
    530a:	f043 0301 	orr.w	r3, r3, #1
    530e:	6053      	str	r3, [r2, #4]
    5310:	f854 3f08 	ldr.w	r3, [r4, #8]!
    5314:	60df      	str	r7, [r3, #12]
    5316:	60bb      	str	r3, [r7, #8]
    5318:	f000 f948 	bl	55ac <__malloc_unlock>
    531c:	e629      	b.n	4f72 <_malloc_r+0x52>
    531e:	08e0      	lsrs	r0, r4, #3
    5320:	f104 0208 	add.w	r2, r4, #8
    5324:	e60c      	b.n	4f40 <_malloc_r+0x20>
    5326:	1919      	adds	r1, r3, r4
    5328:	f044 0401 	orr.w	r4, r4, #1
    532c:	4628      	mov	r0, r5
    532e:	605c      	str	r4, [r3, #4]
    5330:	f042 0401 	orr.w	r4, r2, #1
    5334:	e9c6 1104 	strd	r1, r1, [r6, #16]
    5338:	604c      	str	r4, [r1, #4]
    533a:	f103 0408 	add.w	r4, r3, #8
    533e:	e9c1 cc02 	strd	ip, ip, [r1, #8]
    5342:	51da      	str	r2, [r3, r7]
    5344:	f000 f932 	bl	55ac <__malloc_unlock>
    5348:	e613      	b.n	4f72 <_malloc_r+0x52>
    534a:	09b9      	lsrs	r1, r7, #6
    534c:	f101 0239 	add.w	r2, r1, #57	; 0x39
    5350:	3138      	adds	r1, #56	; 0x38
    5352:	00d2      	lsls	r2, r2, #3
    5354:	e79a      	b.n	528c <_malloc_r+0x36c>
    5356:	f103 005c 	add.w	r0, r3, #92	; 0x5c
    535a:	f103 075b 	add.w	r7, r3, #91	; 0x5b
    535e:	00c3      	lsls	r3, r0, #3
    5360:	e625      	b.n	4fae <_malloc_r+0x8e>
    5362:	f85a 3908 	ldr.w	r3, [sl], #-8
    5366:	4553      	cmp	r3, sl
    5368:	f040 8096 	bne.w	5498 <_malloc_r+0x578>
    536c:	f010 0f03 	tst.w	r0, #3
    5370:	f100 30ff 	add.w	r0, r0, #4294967295	; 0xffffffff
    5374:	d1f5      	bne.n	5362 <_malloc_r+0x442>
    5376:	6873      	ldr	r3, [r6, #4]
    5378:	ea23 0308 	bic.w	r3, r3, r8
    537c:	6073      	str	r3, [r6, #4]
    537e:	ea4f 0848 	mov.w	r8, r8, lsl #1
    5382:	f108 32ff 	add.w	r2, r8, #4294967295	; 0xffffffff
    5386:	429a      	cmp	r2, r3
    5388:	d304      	bcc.n	5394 <_malloc_r+0x474>
    538a:	e635      	b.n	4ff8 <_malloc_r+0xd8>
    538c:	ea4f 0848 	mov.w	r8, r8, lsl #1
    5390:	f109 0904 	add.w	r9, r9, #4
    5394:	ea18 0f03 	tst.w	r8, r3
    5398:	d0f8      	beq.n	538c <_malloc_r+0x46c>
    539a:	4648      	mov	r0, r9
    539c:	e709      	b.n	51b2 <_malloc_r+0x292>
    539e:	68b7      	ldr	r7, [r6, #8]
    53a0:	687b      	ldr	r3, [r7, #4]
    53a2:	e6b1      	b.n	5108 <_malloc_r+0x1e8>
    53a4:	f3cb 000b 	ubfx	r0, fp, #0, #12
    53a8:	2800      	cmp	r0, #0
    53aa:	f47f ae58 	bne.w	505e <_malloc_r+0x13e>
    53ae:	44c8      	add	r8, r9
    53b0:	68b7      	ldr	r7, [r6, #8]
    53b2:	f048 0301 	orr.w	r3, r8, #1
    53b6:	607b      	str	r3, [r7, #4]
    53b8:	e69c      	b.n	50f4 <_malloc_r+0x1d4>
    53ba:	f8c3 a000 	str.w	sl, [r3]
    53be:	e656      	b.n	506e <_malloc_r+0x14e>
    53c0:	f108 0810 	add.w	r8, r8, #16
    53c4:	e635      	b.n	5032 <_malloc_r+0x112>
    53c6:	2701      	movs	r7, #1
    53c8:	1089      	asrs	r1, r1, #2
    53ca:	fa07 f101 	lsl.w	r1, r7, r1
    53ce:	6877      	ldr	r7, [r6, #4]
    53d0:	4339      	orrs	r1, r7
    53d2:	6071      	str	r1, [r6, #4]
    53d4:	e76d      	b.n	52b2 <_malloc_r+0x392>
    53d6:	eb0a 0108 	add.w	r1, sl, r8
    53da:	4628      	mov	r0, r5
    53dc:	9301      	str	r3, [sp, #4]
    53de:	4249      	negs	r1, r1
    53e0:	f3c1 0b0b 	ubfx	fp, r1, #0, #12
    53e4:	4659      	mov	r1, fp
    53e6:	f000 f8e7 	bl	55b8 <_sbrk_r>
    53ea:	1c43      	adds	r3, r0, #1
    53ec:	4a2b      	ldr	r2, [pc, #172]	; (549c <_malloc_r+0x57c>)
    53ee:	9b01      	ldr	r3, [sp, #4]
    53f0:	f47f ae56 	bne.w	50a0 <_malloc_r+0x180>
    53f4:	469b      	mov	fp, r3
    53f6:	e657      	b.n	50a8 <_malloc_r+0x188>
    53f8:	2954      	cmp	r1, #84	; 0x54
    53fa:	d815      	bhi.n	5428 <_malloc_r+0x508>
    53fc:	0b39      	lsrs	r1, r7, #12
    53fe:	f101 026f 	add.w	r2, r1, #111	; 0x6f
    5402:	316e      	adds	r1, #110	; 0x6e
    5404:	00d2      	lsls	r2, r2, #3
    5406:	e741      	b.n	528c <_malloc_r+0x36c>
    5408:	f5b3 7faa 	cmp.w	r3, #340	; 0x154
    540c:	d815      	bhi.n	543a <_malloc_r+0x51a>
    540e:	0be3      	lsrs	r3, r4, #15
    5410:	f103 0078 	add.w	r0, r3, #120	; 0x78
    5414:	f103 0777 	add.w	r7, r3, #119	; 0x77
    5418:	00c3      	lsls	r3, r0, #3
    541a:	e5c8      	b.n	4fae <_malloc_r+0x8e>
    541c:	4657      	mov	r7, sl
    541e:	e669      	b.n	50f4 <_malloc_r+0x1d4>
    5420:	2301      	movs	r3, #1
    5422:	f8ca 3004 	str.w	r3, [sl, #4]
    5426:	e677      	b.n	5118 <_malloc_r+0x1f8>
    5428:	f5b1 7faa 	cmp.w	r1, #340	; 0x154
    542c:	d821      	bhi.n	5472 <_malloc_r+0x552>
    542e:	0bf9      	lsrs	r1, r7, #15
    5430:	f101 0278 	add.w	r2, r1, #120	; 0x78
    5434:	3177      	adds	r1, #119	; 0x77
    5436:	00d2      	lsls	r2, r2, #3
    5438:	e728      	b.n	528c <_malloc_r+0x36c>
    543a:	f240 5254 	movw	r2, #1364	; 0x554
    543e:	4293      	cmp	r3, r2
    5440:	d821      	bhi.n	5486 <_malloc_r+0x566>
    5442:	0ca3      	lsrs	r3, r4, #18
    5444:	f103 007d 	add.w	r0, r3, #125	; 0x7d
    5448:	f103 077c 	add.w	r7, r3, #124	; 0x7c
    544c:	00c3      	lsls	r3, r0, #3
    544e:	e5ae      	b.n	4fae <_malloc_r+0x8e>
    5450:	f107 0108 	add.w	r1, r7, #8
    5454:	4628      	mov	r0, r5
    5456:	f001 fc21 	bl	6c9c <_free_r>
    545a:	68b7      	ldr	r7, [r6, #8]
    545c:	4a0f      	ldr	r2, [pc, #60]	; (549c <_malloc_r+0x57c>)
    545e:	687b      	ldr	r3, [r7, #4]
    5460:	6811      	ldr	r1, [r2, #0]
    5462:	e647      	b.n	50f4 <_malloc_r+0x1d4>
    5464:	3b08      	subs	r3, #8
    5466:	f04f 0b00 	mov.w	fp, #0
    546a:	4498      	add	r8, r3
    546c:	eba8 080a 	sub.w	r8, r8, sl
    5470:	e61a      	b.n	50a8 <_malloc_r+0x188>
    5472:	f240 5254 	movw	r2, #1364	; 0x554
    5476:	4291      	cmp	r1, r2
    5478:	d80a      	bhi.n	5490 <_malloc_r+0x570>
    547a:	0cb9      	lsrs	r1, r7, #18
    547c:	f101 027d 	add.w	r2, r1, #125	; 0x7d
    5480:	317c      	adds	r1, #124	; 0x7c
    5482:	00d2      	lsls	r2, r2, #3
    5484:	e702      	b.n	528c <_malloc_r+0x36c>
    5486:	f44f 737e 	mov.w	r3, #1016	; 0x3f8
    548a:	207f      	movs	r0, #127	; 0x7f
    548c:	277e      	movs	r7, #126	; 0x7e
    548e:	e58e      	b.n	4fae <_malloc_r+0x8e>
    5490:	f44f 727e 	mov.w	r2, #1016	; 0x3f8
    5494:	217e      	movs	r1, #126	; 0x7e
    5496:	e6f9      	b.n	528c <_malloc_r+0x36c>
    5498:	6873      	ldr	r3, [r6, #4]
    549a:	e770      	b.n	537e <_malloc_r+0x45e>
    549c:	20003408 	.word	0x20003408

000054a0 <memcmp>:
    54a0:	2a03      	cmp	r2, #3
    54a2:	b570      	push	{r4, r5, r6, lr}
    54a4:	d912      	bls.n	54cc <memcmp+0x2c>
    54a6:	ea40 0301 	orr.w	r3, r0, r1
    54aa:	079b      	lsls	r3, r3, #30
    54ac:	d11f      	bne.n	54ee <memcmp+0x4e>
    54ae:	4604      	mov	r4, r0
    54b0:	460b      	mov	r3, r1
    54b2:	4619      	mov	r1, r3
    54b4:	4620      	mov	r0, r4
    54b6:	3304      	adds	r3, #4
    54b8:	3404      	adds	r4, #4
    54ba:	6805      	ldr	r5, [r0, #0]
    54bc:	680e      	ldr	r6, [r1, #0]
    54be:	42b5      	cmp	r5, r6
    54c0:	d115      	bne.n	54ee <memcmp+0x4e>
    54c2:	3a04      	subs	r2, #4
    54c4:	4620      	mov	r0, r4
    54c6:	4619      	mov	r1, r3
    54c8:	2a03      	cmp	r2, #3
    54ca:	d8f2      	bhi.n	54b2 <memcmp+0x12>
    54cc:	1e54      	subs	r4, r2, #1
    54ce:	b192      	cbz	r2, 54f6 <memcmp+0x56>
    54d0:	1e42      	subs	r2, r0, #1
    54d2:	3901      	subs	r1, #1
    54d4:	e001      	b.n	54da <memcmp+0x3a>
    54d6:	18c3      	adds	r3, r0, r3
    54d8:	d00b      	beq.n	54f2 <memcmp+0x52>
    54da:	f812 ef01 	ldrb.w	lr, [r2, #1]!
    54de:	f811 cf01 	ldrb.w	ip, [r1, #1]!
    54e2:	1aa3      	subs	r3, r4, r2
    54e4:	45e6      	cmp	lr, ip
    54e6:	d0f6      	beq.n	54d6 <memcmp+0x36>
    54e8:	ebae 000c 	sub.w	r0, lr, ip
    54ec:	bd70      	pop	{r4, r5, r6, pc}
    54ee:	1e54      	subs	r4, r2, #1
    54f0:	e7ee      	b.n	54d0 <memcmp+0x30>
    54f2:	4618      	mov	r0, r3
    54f4:	bd70      	pop	{r4, r5, r6, pc}
    54f6:	4610      	mov	r0, r2
    54f8:	bd70      	pop	{r4, r5, r6, pc}
    54fa:	bf00      	nop

000054fc <memset>:
    54fc:	b570      	push	{r4, r5, r6, lr}
    54fe:	0786      	lsls	r6, r0, #30
    5500:	d048      	beq.n	5594 <memset+0x98>
    5502:	1e54      	subs	r4, r2, #1
    5504:	2a00      	cmp	r2, #0
    5506:	d03f      	beq.n	5588 <memset+0x8c>
    5508:	b2ca      	uxtb	r2, r1
    550a:	4603      	mov	r3, r0
    550c:	e001      	b.n	5512 <memset+0x16>
    550e:	3c01      	subs	r4, #1
    5510:	d33a      	bcc.n	5588 <memset+0x8c>
    5512:	f803 2b01 	strb.w	r2, [r3], #1
    5516:	079d      	lsls	r5, r3, #30
    5518:	d1f9      	bne.n	550e <memset+0x12>
    551a:	2c03      	cmp	r4, #3
    551c:	d92d      	bls.n	557a <memset+0x7e>
    551e:	b2cd      	uxtb	r5, r1
    5520:	2c0f      	cmp	r4, #15
    5522:	ea45 2505 	orr.w	r5, r5, r5, lsl #8
    5526:	ea45 4505 	orr.w	r5, r5, r5, lsl #16
    552a:	d936      	bls.n	559a <memset+0x9e>
    552c:	f1a4 0c10 	sub.w	ip, r4, #16
    5530:	f103 0e20 	add.w	lr, r3, #32
    5534:	f103 0210 	add.w	r2, r3, #16
    5538:	f02c 060f 	bic.w	r6, ip, #15
    553c:	ea4f 1c1c 	mov.w	ip, ip, lsr #4
    5540:	44b6      	add	lr, r6
    5542:	e942 5504 	strd	r5, r5, [r2, #-16]
    5546:	e942 5502 	strd	r5, r5, [r2, #-8]
    554a:	3210      	adds	r2, #16
    554c:	4572      	cmp	r2, lr
    554e:	d1f8      	bne.n	5542 <memset+0x46>
    5550:	f10c 0201 	add.w	r2, ip, #1
    5554:	f014 0f0c 	tst.w	r4, #12
    5558:	f004 0c0f 	and.w	ip, r4, #15
    555c:	eb03 1202 	add.w	r2, r3, r2, lsl #4
    5560:	d013      	beq.n	558a <memset+0x8e>
    5562:	f1ac 0304 	sub.w	r3, ip, #4
    5566:	f023 0303 	bic.w	r3, r3, #3
    556a:	3304      	adds	r3, #4
    556c:	4413      	add	r3, r2
    556e:	f842 5b04 	str.w	r5, [r2], #4
    5572:	4293      	cmp	r3, r2
    5574:	d1fb      	bne.n	556e <memset+0x72>
    5576:	f00c 0403 	and.w	r4, ip, #3
    557a:	b12c      	cbz	r4, 5588 <memset+0x8c>
    557c:	b2c9      	uxtb	r1, r1
    557e:	441c      	add	r4, r3
    5580:	f803 1b01 	strb.w	r1, [r3], #1
    5584:	429c      	cmp	r4, r3
    5586:	d1fb      	bne.n	5580 <memset+0x84>
    5588:	bd70      	pop	{r4, r5, r6, pc}
    558a:	4664      	mov	r4, ip
    558c:	4613      	mov	r3, r2
    558e:	2c00      	cmp	r4, #0
    5590:	d1f4      	bne.n	557c <memset+0x80>
    5592:	e7f9      	b.n	5588 <memset+0x8c>
    5594:	4603      	mov	r3, r0
    5596:	4614      	mov	r4, r2
    5598:	e7bf      	b.n	551a <memset+0x1e>
    559a:	461a      	mov	r2, r3
    559c:	46a4      	mov	ip, r4
    559e:	e7e0      	b.n	5562 <memset+0x66>

000055a0 <__malloc_lock>:
    55a0:	4801      	ldr	r0, [pc, #4]	; (55a8 <__malloc_lock+0x8>)
    55a2:	f001 be31 	b.w	7208 <__retarget_lock_acquire_recursive>
    55a6:	bf00      	nop
    55a8:	20003440 	.word	0x20003440

000055ac <__malloc_unlock>:
    55ac:	4801      	ldr	r0, [pc, #4]	; (55b4 <__malloc_unlock+0x8>)
    55ae:	f001 be2d 	b.w	720c <__retarget_lock_release_recursive>
    55b2:	bf00      	nop
    55b4:	20003440 	.word	0x20003440

000055b8 <_sbrk_r>:
    55b8:	b538      	push	{r3, r4, r5, lr}
    55ba:	2200      	movs	r2, #0
    55bc:	4d06      	ldr	r5, [pc, #24]	; (55d8 <_sbrk_r+0x20>)
    55be:	4604      	mov	r4, r0
    55c0:	4608      	mov	r0, r1
    55c2:	602a      	str	r2, [r5, #0]
    55c4:	f002 fc98 	bl	7ef8 <_sbrk>
    55c8:	1c43      	adds	r3, r0, #1
    55ca:	d000      	beq.n	55ce <_sbrk_r+0x16>
    55cc:	bd38      	pop	{r3, r4, r5, pc}
    55ce:	682b      	ldr	r3, [r5, #0]
    55d0:	2b00      	cmp	r3, #0
    55d2:	d0fb      	beq.n	55cc <_sbrk_r+0x14>
    55d4:	6023      	str	r3, [r4, #0]
    55d6:	bd38      	pop	{r3, r4, r5, pc}
    55d8:	2000344c 	.word	0x2000344c

000055dc <__sprint_r.part.0>:
    55dc:	e92d 4ff8 	stmdb	sp!, {r3, r4, r5, r6, r7, r8, r9, sl, fp, lr}
    55e0:	6e4b      	ldr	r3, [r1, #100]	; 0x64
    55e2:	4690      	mov	r8, r2
    55e4:	049c      	lsls	r4, r3, #18
    55e6:	d52c      	bpl.n	5642 <__sprint_r.part.0+0x66>
    55e8:	6893      	ldr	r3, [r2, #8]
    55ea:	6812      	ldr	r2, [r2, #0]
    55ec:	b33b      	cbz	r3, 563e <__sprint_r.part.0+0x62>
    55ee:	468b      	mov	fp, r1
    55f0:	4606      	mov	r6, r0
    55f2:	f102 0908 	add.w	r9, r2, #8
    55f6:	e959 5a02 	ldrd	r5, sl, [r9, #-8]
    55fa:	ea5f 079a 	movs.w	r7, sl, lsr #2
    55fe:	d014      	beq.n	562a <__sprint_r.part.0+0x4e>
    5600:	3d04      	subs	r5, #4
    5602:	2400      	movs	r4, #0
    5604:	e001      	b.n	560a <__sprint_r.part.0+0x2e>
    5606:	42a7      	cmp	r7, r4
    5608:	d00d      	beq.n	5626 <__sprint_r.part.0+0x4a>
    560a:	465a      	mov	r2, fp
    560c:	f855 1f04 	ldr.w	r1, [r5, #4]!
    5610:	4630      	mov	r0, r6
    5612:	3401      	adds	r4, #1
    5614:	f001 fac0 	bl	6b98 <_fputwc_r>
    5618:	1c43      	adds	r3, r0, #1
    561a:	d1f4      	bne.n	5606 <__sprint_r.part.0+0x2a>
    561c:	2300      	movs	r3, #0
    561e:	e9c8 3301 	strd	r3, r3, [r8, #4]
    5622:	e8bd 8ff8 	ldmia.w	sp!, {r3, r4, r5, r6, r7, r8, r9, sl, fp, pc}
    5626:	f8d8 3008 	ldr.w	r3, [r8, #8]
    562a:	f02a 0a03 	bic.w	sl, sl, #3
    562e:	f109 0908 	add.w	r9, r9, #8
    5632:	eba3 030a 	sub.w	r3, r3, sl
    5636:	f8c8 3008 	str.w	r3, [r8, #8]
    563a:	2b00      	cmp	r3, #0
    563c:	d1db      	bne.n	55f6 <__sprint_r.part.0+0x1a>
    563e:	2000      	movs	r0, #0
    5640:	e7ec      	b.n	561c <__sprint_r.part.0+0x40>
    5642:	f001 fc27 	bl	6e94 <__sfvwrite_r>
    5646:	2300      	movs	r3, #0
    5648:	e9c8 3301 	strd	r3, r3, [r8, #4]
    564c:	e8bd 8ff8 	ldmia.w	sp!, {r3, r4, r5, r6, r7, r8, r9, sl, fp, pc}

00005650 <_vfiprintf_r>:
    5650:	e92d 4ff0 	stmdb	sp!, {r4, r5, r6, r7, r8, r9, sl, fp, lr}
    5654:	ed2d 8b02 	vpush	{d8}
    5658:	b0c5      	sub	sp, #276	; 0x114
    565a:	4683      	mov	fp, r0
    565c:	468a      	mov	sl, r1
    565e:	4615      	mov	r5, r2
    5660:	f10d 0950 	add.w	r9, sp, #80	; 0x50
    5664:	2208      	movs	r2, #8
    5666:	2100      	movs	r1, #0
    5668:	461c      	mov	r4, r3
    566a:	4648      	mov	r0, r9
    566c:	9307      	str	r3, [sp, #28]
    566e:	f7ff ff45 	bl	54fc <memset>
    5672:	f1bb 0f00 	cmp.w	fp, #0
    5676:	d004      	beq.n	5682 <_vfiprintf_r+0x32>
    5678:	f8db 3038 	ldr.w	r3, [fp, #56]	; 0x38
    567c:	2b00      	cmp	r3, #0
    567e:	f000 82d4 	beq.w	5c2a <_vfiprintf_r+0x5da>
    5682:	f8da 3064 	ldr.w	r3, [sl, #100]	; 0x64
    5686:	f9ba 100c 	ldrsh.w	r1, [sl, #12]
    568a:	07d8      	lsls	r0, r3, #31
    568c:	b28a      	uxth	r2, r1
    568e:	d402      	bmi.n	5696 <_vfiprintf_r+0x46>
    5690:	0593      	lsls	r3, r2, #22
    5692:	f140 8543 	bpl.w	611c <_vfiprintf_r+0xacc>
    5696:	0497      	lsls	r7, r2, #18
    5698:	d40a      	bmi.n	56b0 <_vfiprintf_r+0x60>
    569a:	f441 5100 	orr.w	r1, r1, #8192	; 0x2000
    569e:	f8da 3064 	ldr.w	r3, [sl, #100]	; 0x64
    56a2:	b28a      	uxth	r2, r1
    56a4:	f423 5300 	bic.w	r3, r3, #8192	; 0x2000
    56a8:	f8aa 100c 	strh.w	r1, [sl, #12]
    56ac:	f8ca 3064 	str.w	r3, [sl, #100]	; 0x64
    56b0:	0716      	lsls	r6, r2, #28
    56b2:	f140 80f4 	bpl.w	589e <_vfiprintf_r+0x24e>
    56b6:	f8da 3010 	ldr.w	r3, [sl, #16]
    56ba:	2b00      	cmp	r3, #0
    56bc:	f000 80ef 	beq.w	589e <_vfiprintf_r+0x24e>
    56c0:	f002 031a 	and.w	r3, r2, #26
    56c4:	2b0a      	cmp	r3, #10
    56c6:	f000 80f8 	beq.w	58ba <_vfiprintf_r+0x26a>
    56ca:	aa1b      	add	r2, sp, #108	; 0x6c
    56cc:	2300      	movs	r3, #0
    56ce:	46a8      	mov	r8, r5
    56d0:	4617      	mov	r7, r2
    56d2:	930b      	str	r3, [sp, #44]	; 0x2c
    56d4:	9218      	str	r2, [sp, #96]	; 0x60
    56d6:	930c      	str	r3, [sp, #48]	; 0x30
    56d8:	9305      	str	r3, [sp, #20]
    56da:	e9cd 3319 	strd	r3, r3, [sp, #100]	; 0x64
    56de:	e9cd 330d 	strd	r3, r3, [sp, #52]	; 0x34
    56e2:	4644      	mov	r4, r8
    56e4:	4ba4      	ldr	r3, [pc, #656]	; (5978 <_vfiprintf_r+0x328>)
    56e6:	f8d3 50e4 	ldr.w	r5, [r3, #228]	; 0xe4
    56ea:	f001 fd7f 	bl	71ec <__locale_mb_cur_max>
    56ee:	4622      	mov	r2, r4
    56f0:	4603      	mov	r3, r0
    56f2:	a912      	add	r1, sp, #72	; 0x48
    56f4:	4658      	mov	r0, fp
    56f6:	f8cd 9000 	str.w	r9, [sp]
    56fa:	47a8      	blx	r5
    56fc:	2800      	cmp	r0, #0
    56fe:	4603      	mov	r3, r0
    5700:	f000 8144 	beq.w	598c <_vfiprintf_r+0x33c>
    5704:	f2c0 813a 	blt.w	597c <_vfiprintf_r+0x32c>
    5708:	9a12      	ldr	r2, [sp, #72]	; 0x48
    570a:	2a25      	cmp	r2, #37	; 0x25
    570c:	d001      	beq.n	5712 <_vfiprintf_r+0xc2>
    570e:	441c      	add	r4, r3
    5710:	e7e8      	b.n	56e4 <_vfiprintf_r+0x94>
    5712:	ebb4 0608 	subs.w	r6, r4, r8
    5716:	4605      	mov	r5, r0
    5718:	f040 813c 	bne.w	5994 <_vfiprintf_r+0x344>
    571c:	2300      	movs	r3, #0
    571e:	f104 0801 	add.w	r8, r4, #1
    5722:	7861      	ldrb	r1, [r4, #1]
    5724:	f04f 32ff 	mov.w	r2, #4294967295	; 0xffffffff
    5728:	461e      	mov	r6, r3
    572a:	242b      	movs	r4, #43	; 0x2b
    572c:	f88d 3043 	strb.w	r3, [sp, #67]	; 0x43
    5730:	9306      	str	r3, [sp, #24]
    5732:	9203      	str	r2, [sp, #12]
    5734:	f108 0801 	add.w	r8, r8, #1
    5738:	f1a1 0320 	sub.w	r3, r1, #32
    573c:	2b5a      	cmp	r3, #90	; 0x5a
    573e:	f200 816d 	bhi.w	5a1c <_vfiprintf_r+0x3cc>
    5742:	e8df f013 	tbh	[pc, r3, lsl #1]
    5746:	02ae      	.short	0x02ae
    5748:	016b016b 	.word	0x016b016b
    574c:	016b02a9 	.word	0x016b02a9
    5750:	016b016b 	.word	0x016b016b
    5754:	016b006a 	.word	0x016b006a
    5758:	0276016b 	.word	0x0276016b
    575c:	016b0286 	.word	0x016b0286
    5760:	02900281 	.word	0x02900281
    5764:	028b016b 	.word	0x028b016b
    5768:	005b005b 	.word	0x005b005b
    576c:	005b005b 	.word	0x005b005b
    5770:	005b005b 	.word	0x005b005b
    5774:	005b005b 	.word	0x005b005b
    5778:	016b005b 	.word	0x016b005b
    577c:	016b016b 	.word	0x016b016b
    5780:	016b016b 	.word	0x016b016b
    5784:	016b016b 	.word	0x016b016b
    5788:	016b016b 	.word	0x016b016b
    578c:	0085024f 	.word	0x0085024f
    5790:	016b016b 	.word	0x016b016b
    5794:	016b016b 	.word	0x016b016b
    5798:	016b016b 	.word	0x016b016b
    579c:	016b016b 	.word	0x016b016b
    57a0:	016b016b 	.word	0x016b016b
    57a4:	016b00d3 	.word	0x016b00d3
    57a8:	016b016b 	.word	0x016b016b
    57ac:	016b0225 	.word	0x016b0225
    57b0:	016b02c9 	.word	0x016b02c9
    57b4:	053c016b 	.word	0x053c016b
    57b8:	016b016b 	.word	0x016b016b
    57bc:	016b016b 	.word	0x016b016b
    57c0:	016b016b 	.word	0x016b016b
    57c4:	016b016b 	.word	0x016b016b
    57c8:	016b016b 	.word	0x016b016b
    57cc:	0087024f 	.word	0x0087024f
    57d0:	016b016b 	.word	0x016b016b
    57d4:	02c1016b 	.word	0x02c1016b
    57d8:	00800087 	.word	0x00800087
    57dc:	02b9016b 	.word	0x02b9016b
    57e0:	02ec016b 	.word	0x02ec016b
    57e4:	02dc00d5 	.word	0x02dc00d5
    57e8:	016b0080 	.word	0x016b0080
    57ec:	007d0225 	.word	0x007d0225
    57f0:	016b051a 	.word	0x016b051a
    57f4:	051c016b 	.word	0x051c016b
    57f8:	007d016b 	.word	0x007d016b
    57fc:	f1a1 0330 	sub.w	r3, r1, #48	; 0x30
    5800:	2200      	movs	r2, #0
    5802:	eb02 0282 	add.w	r2, r2, r2, lsl #2
    5806:	f818 1b01 	ldrb.w	r1, [r8], #1
    580a:	eb03 0242 	add.w	r2, r3, r2, lsl #1
    580e:	f1a1 0330 	sub.w	r3, r1, #48	; 0x30
    5812:	2b09      	cmp	r3, #9
    5814:	d9f5      	bls.n	5802 <_vfiprintf_r+0x1b2>
    5816:	9206      	str	r2, [sp, #24]
    5818:	e78e      	b.n	5738 <_vfiprintf_r+0xe8>
    581a:	4658      	mov	r0, fp
    581c:	f001 fcec 	bl	71f8 <_localeconv_r>
    5820:	6843      	ldr	r3, [r0, #4]
    5822:	4618      	mov	r0, r3
    5824:	930d      	str	r3, [sp, #52]	; 0x34
    5826:	f002 f8ab 	bl	7980 <strlen>
    582a:	900e      	str	r0, [sp, #56]	; 0x38
    582c:	4605      	mov	r5, r0
    582e:	4658      	mov	r0, fp
    5830:	f001 fce2 	bl	71f8 <_localeconv_r>
    5834:	6883      	ldr	r3, [r0, #8]
    5836:	930c      	str	r3, [sp, #48]	; 0x30
    5838:	b115      	cbz	r5, 5840 <_vfiprintf_r+0x1f0>
    583a:	2b00      	cmp	r3, #0
    583c:	f040 8482 	bne.w	6144 <_vfiprintf_r+0xaf4>
    5840:	f898 1000 	ldrb.w	r1, [r8]
    5844:	e776      	b.n	5734 <_vfiprintf_r+0xe4>
    5846:	f046 0620 	orr.w	r6, r6, #32
    584a:	f898 1000 	ldrb.w	r1, [r8]
    584e:	e771      	b.n	5734 <_vfiprintf_r+0xe4>
    5850:	f046 0610 	orr.w	r6, r6, #16
    5854:	06b3      	lsls	r3, r6, #26
    5856:	f140 817d 	bpl.w	5b54 <_vfiprintf_r+0x504>
    585a:	9b07      	ldr	r3, [sp, #28]
    585c:	3307      	adds	r3, #7
    585e:	f023 0307 	bic.w	r3, r3, #7
    5862:	461a      	mov	r2, r3
    5864:	6859      	ldr	r1, [r3, #4]
    5866:	f852 3b08 	ldr.w	r3, [r2], #8
    586a:	9207      	str	r2, [sp, #28]
    586c:	460a      	mov	r2, r1
    586e:	2900      	cmp	r1, #0
    5870:	f2c0 8436 	blt.w	60e0 <_vfiprintf_r+0xa90>
    5874:	9903      	ldr	r1, [sp, #12]
    5876:	3101      	adds	r1, #1
    5878:	f000 83e9 	beq.w	604e <_vfiprintf_r+0x9fe>
    587c:	ea53 0102 	orrs.w	r1, r3, r2
    5880:	f026 0680 	bic.w	r6, r6, #128	; 0x80
    5884:	f040 83e3 	bne.w	604e <_vfiprintf_r+0x9fe>
    5888:	9803      	ldr	r0, [sp, #12]
    588a:	1e01      	subs	r1, r0, #0
    588c:	bf18      	it	ne
    588e:	2101      	movne	r1, #1
    5890:	2800      	cmp	r0, #0
    5892:	f040 83dc 	bne.w	604e <_vfiprintf_r+0x9fe>
    5896:	ac44      	add	r4, sp, #272	; 0x110
    5898:	9103      	str	r1, [sp, #12]
    589a:	9104      	str	r1, [sp, #16]
    589c:	e05c      	b.n	5958 <_vfiprintf_r+0x308>
    589e:	4651      	mov	r1, sl
    58a0:	4658      	mov	r0, fp
    58a2:	f000 fec5 	bl	6630 <__swsetup_r>
    58a6:	2800      	cmp	r0, #0
    58a8:	f040 8632 	bne.w	6510 <_vfiprintf_r+0xec0>
    58ac:	f8ba 200c 	ldrh.w	r2, [sl, #12]
    58b0:	f002 031a 	and.w	r3, r2, #26
    58b4:	2b0a      	cmp	r3, #10
    58b6:	f47f af08 	bne.w	56ca <_vfiprintf_r+0x7a>
    58ba:	f9ba 300e 	ldrsh.w	r3, [sl, #14]
    58be:	2b00      	cmp	r3, #0
    58c0:	f6ff af03 	blt.w	56ca <_vfiprintf_r+0x7a>
    58c4:	f8da 3064 	ldr.w	r3, [sl, #100]	; 0x64
    58c8:	07d8      	lsls	r0, r3, #31
    58ca:	d402      	bmi.n	58d2 <_vfiprintf_r+0x282>
    58cc:	0591      	lsls	r1, r2, #22
    58ce:	f140 85bf 	bpl.w	6450 <_vfiprintf_r+0xe00>
    58d2:	4623      	mov	r3, r4
    58d4:	462a      	mov	r2, r5
    58d6:	4651      	mov	r1, sl
    58d8:	4658      	mov	r0, fp
    58da:	f000 fe37 	bl	654c <__sbprintf>
    58de:	9005      	str	r0, [sp, #20]
    58e0:	9805      	ldr	r0, [sp, #20]
    58e2:	b045      	add	sp, #276	; 0x114
    58e4:	ecbd 8b02 	vpop	{d8}
    58e8:	e8bd 8ff0 	ldmia.w	sp!, {r4, r5, r6, r7, r8, r9, sl, fp, pc}
    58ec:	f046 0610 	orr.w	r6, r6, #16
    58f0:	f016 0220 	ands.w	r2, r6, #32
    58f4:	f000 813d 	beq.w	5b72 <_vfiprintf_r+0x522>
    58f8:	9b07      	ldr	r3, [sp, #28]
    58fa:	3307      	adds	r3, #7
    58fc:	f023 0307 	bic.w	r3, r3, #7
    5900:	4619      	mov	r1, r3
    5902:	685a      	ldr	r2, [r3, #4]
    5904:	f851 3b08 	ldr.w	r3, [r1], #8
    5908:	9107      	str	r1, [sp, #28]
    590a:	f426 6180 	bic.w	r1, r6, #1024	; 0x400
    590e:	9102      	str	r1, [sp, #8]
    5910:	2100      	movs	r1, #0
    5912:	2000      	movs	r0, #0
    5914:	9c03      	ldr	r4, [sp, #12]
    5916:	f88d 0043 	strb.w	r0, [sp, #67]	; 0x43
    591a:	1c66      	adds	r6, r4, #1
    591c:	f000 8220 	beq.w	5d60 <_vfiprintf_r+0x710>
    5920:	9802      	ldr	r0, [sp, #8]
    5922:	f020 0680 	bic.w	r6, r0, #128	; 0x80
    5926:	ea53 0002 	orrs.w	r0, r3, r2
    592a:	f040 8218 	bne.w	5d5e <_vfiprintf_r+0x70e>
    592e:	1e20      	subs	r0, r4, #0
    5930:	bf18      	it	ne
    5932:	2001      	movne	r0, #1
    5934:	2c00      	cmp	r4, #0
    5936:	f040 8212 	bne.w	5d5e <_vfiprintf_r+0x70e>
    593a:	2900      	cmp	r1, #0
    593c:	f040 8383 	bne.w	6046 <_vfiprintf_r+0x9f6>
    5940:	9b02      	ldr	r3, [sp, #8]
    5942:	f013 0301 	ands.w	r3, r3, #1
    5946:	e9cd 1303 	strd	r1, r3, [sp, #12]
    594a:	f000 83a4 	beq.w	6096 <_vfiprintf_r+0xa46>
    594e:	2330      	movs	r3, #48	; 0x30
    5950:	f20d 140f 	addw	r4, sp, #271	; 0x10f
    5954:	f88d 310f 	strb.w	r3, [sp, #271]	; 0x10f
    5958:	e9dd 3203 	ldrd	r3, r2, [sp, #12]
    595c:	4293      	cmp	r3, r2
    595e:	bfb8      	it	lt
    5960:	4613      	movlt	r3, r2
    5962:	9302      	str	r3, [sp, #8]
    5964:	2300      	movs	r3, #0
    5966:	9308      	str	r3, [sp, #32]
    5968:	f89d 3043 	ldrb.w	r3, [sp, #67]	; 0x43
    596c:	2b00      	cmp	r3, #0
    596e:	d063      	beq.n	5a38 <_vfiprintf_r+0x3e8>
    5970:	9b02      	ldr	r3, [sp, #8]
    5972:	3301      	adds	r3, #1
    5974:	9302      	str	r3, [sp, #8]
    5976:	e05f      	b.n	5a38 <_vfiprintf_r+0x3e8>
    5978:	2000084c 	.word	0x2000084c
    597c:	2208      	movs	r2, #8
    597e:	2100      	movs	r1, #0
    5980:	4648      	mov	r0, r9
    5982:	f7ff fdbb 	bl	54fc <memset>
    5986:	2301      	movs	r3, #1
    5988:	441c      	add	r4, r3
    598a:	e6ab      	b.n	56e4 <_vfiprintf_r+0x94>
    598c:	ebb4 0608 	subs.w	r6, r4, r8
    5990:	4605      	mov	r5, r0
    5992:	d019      	beq.n	59c8 <_vfiprintf_r+0x378>
    5994:	9b19      	ldr	r3, [sp, #100]	; 0x64
    5996:	9a1a      	ldr	r2, [sp, #104]	; 0x68
    5998:	3301      	adds	r3, #1
    599a:	4432      	add	r2, r6
    599c:	2b07      	cmp	r3, #7
    599e:	9319      	str	r3, [sp, #100]	; 0x64
    59a0:	921a      	str	r2, [sp, #104]	; 0x68
    59a2:	e9c7 8600 	strd	r8, r6, [r7]
    59a6:	dd18      	ble.n	59da <_vfiprintf_r+0x38a>
    59a8:	2a00      	cmp	r2, #0
    59aa:	f000 8371 	beq.w	6090 <_vfiprintf_r+0xa40>
    59ae:	aa18      	add	r2, sp, #96	; 0x60
    59b0:	4651      	mov	r1, sl
    59b2:	4658      	mov	r0, fp
    59b4:	f7ff fe12 	bl	55dc <__sprint_r.part.0>
    59b8:	b9f8      	cbnz	r0, 59fa <_vfiprintf_r+0x3aa>
    59ba:	af1b      	add	r7, sp, #108	; 0x6c
    59bc:	9b05      	ldr	r3, [sp, #20]
    59be:	4433      	add	r3, r6
    59c0:	9305      	str	r3, [sp, #20]
    59c2:	2d00      	cmp	r5, #0
    59c4:	f47f aeaa 	bne.w	571c <_vfiprintf_r+0xcc>
    59c8:	9b1a      	ldr	r3, [sp, #104]	; 0x68
    59ca:	2b00      	cmp	r3, #0
    59cc:	f040 8571 	bne.w	64b2 <_vfiprintf_r+0xe62>
    59d0:	2200      	movs	r2, #0
    59d2:	f9ba 300c 	ldrsh.w	r3, [sl, #12]
    59d6:	9219      	str	r2, [sp, #100]	; 0x64
    59d8:	e011      	b.n	59fe <_vfiprintf_r+0x3ae>
    59da:	3708      	adds	r7, #8
    59dc:	e7ee      	b.n	59bc <_vfiprintf_r+0x36c>
    59de:	aa18      	add	r2, sp, #96	; 0x60
    59e0:	4651      	mov	r1, sl
    59e2:	4658      	mov	r0, fp
    59e4:	f7ff fdfa 	bl	55dc <__sprint_r.part.0>
    59e8:	2800      	cmp	r0, #0
    59ea:	f000 809e 	beq.w	5b2a <_vfiprintf_r+0x4da>
    59ee:	9b08      	ldr	r3, [sp, #32]
    59f0:	b11b      	cbz	r3, 59fa <_vfiprintf_r+0x3aa>
    59f2:	9908      	ldr	r1, [sp, #32]
    59f4:	4658      	mov	r0, fp
    59f6:	f001 f951 	bl	6c9c <_free_r>
    59fa:	f9ba 300c 	ldrsh.w	r3, [sl, #12]
    59fe:	f8da 2064 	ldr.w	r2, [sl, #100]	; 0x64
    5a02:	b29b      	uxth	r3, r3
    5a04:	07d1      	lsls	r1, r2, #31
    5a06:	f140 809b 	bpl.w	5b40 <_vfiprintf_r+0x4f0>
    5a0a:	065b      	lsls	r3, r3, #25
    5a0c:	f100 855f 	bmi.w	64ce <_vfiprintf_r+0xe7e>
    5a10:	9805      	ldr	r0, [sp, #20]
    5a12:	b045      	add	sp, #276	; 0x114
    5a14:	ecbd 8b02 	vpop	{d8}
    5a18:	e8bd 8ff0 	ldmia.w	sp!, {r4, r5, r6, r7, r8, r9, sl, fp, pc}
    5a1c:	2900      	cmp	r1, #0
    5a1e:	d0d3      	beq.n	59c8 <_vfiprintf_r+0x378>
    5a20:	2300      	movs	r3, #0
    5a22:	ac2b      	add	r4, sp, #172	; 0xac
    5a24:	f88d 10ac 	strb.w	r1, [sp, #172]	; 0xac
    5a28:	f88d 3043 	strb.w	r3, [sp, #67]	; 0x43
    5a2c:	2301      	movs	r3, #1
    5a2e:	9302      	str	r3, [sp, #8]
    5a30:	9304      	str	r3, [sp, #16]
    5a32:	2300      	movs	r3, #0
    5a34:	9308      	str	r3, [sp, #32]
    5a36:	9303      	str	r3, [sp, #12]
    5a38:	f016 0302 	ands.w	r3, r6, #2
    5a3c:	9309      	str	r3, [sp, #36]	; 0x24
    5a3e:	d002      	beq.n	5a46 <_vfiprintf_r+0x3f6>
    5a40:	9b02      	ldr	r3, [sp, #8]
    5a42:	3302      	adds	r3, #2
    5a44:	9302      	str	r3, [sp, #8]
    5a46:	f016 0384 	ands.w	r3, r6, #132	; 0x84
    5a4a:	e9dd 2c19 	ldrd	r2, ip, [sp, #100]	; 0x64
    5a4e:	930a      	str	r3, [sp, #40]	; 0x28
    5a50:	f102 0001 	add.w	r0, r2, #1
    5a54:	4601      	mov	r1, r0
    5a56:	d105      	bne.n	5a64 <_vfiprintf_r+0x414>
    5a58:	9b06      	ldr	r3, [sp, #24]
    5a5a:	9d02      	ldr	r5, [sp, #8]
    5a5c:	1b5d      	subs	r5, r3, r5
    5a5e:	2d00      	cmp	r5, #0
    5a60:	f300 8259 	bgt.w	5f16 <_vfiprintf_r+0x8c6>
    5a64:	f89d 0043 	ldrb.w	r0, [sp, #67]	; 0x43
    5a68:	b170      	cbz	r0, 5a88 <_vfiprintf_r+0x438>
    5a6a:	f10c 0c01 	add.w	ip, ip, #1
    5a6e:	2301      	movs	r3, #1
    5a70:	f10d 0243 	add.w	r2, sp, #67	; 0x43
    5a74:	2907      	cmp	r1, #7
    5a76:	607b      	str	r3, [r7, #4]
    5a78:	603a      	str	r2, [r7, #0]
    5a7a:	e9cd 1c19 	strd	r1, ip, [sp, #100]	; 0x64
    5a7e:	f300 822e 	bgt.w	5ede <_vfiprintf_r+0x88e>
    5a82:	460a      	mov	r2, r1
    5a84:	3708      	adds	r7, #8
    5a86:	3101      	adds	r1, #1
    5a88:	9b09      	ldr	r3, [sp, #36]	; 0x24
    5a8a:	b1d3      	cbz	r3, 5ac2 <_vfiprintf_r+0x472>
    5a8c:	ab11      	add	r3, sp, #68	; 0x44
    5a8e:	f10c 0c02 	add.w	ip, ip, #2
    5a92:	2907      	cmp	r1, #7
    5a94:	603b      	str	r3, [r7, #0]
    5a96:	f04f 0302 	mov.w	r3, #2
    5a9a:	e9cd 1c19 	strd	r1, ip, [sp, #100]	; 0x64
    5a9e:	607b      	str	r3, [r7, #4]
    5aa0:	f340 8235 	ble.w	5f0e <_vfiprintf_r+0x8be>
    5aa4:	f1bc 0f00 	cmp.w	ip, #0
    5aa8:	f000 8316 	beq.w	60d8 <_vfiprintf_r+0xa88>
    5aac:	aa18      	add	r2, sp, #96	; 0x60
    5aae:	4651      	mov	r1, sl
    5ab0:	4658      	mov	r0, fp
    5ab2:	f7ff fd93 	bl	55dc <__sprint_r.part.0>
    5ab6:	2800      	cmp	r0, #0
    5ab8:	d199      	bne.n	59ee <_vfiprintf_r+0x39e>
    5aba:	af1b      	add	r7, sp, #108	; 0x6c
    5abc:	e9dd 2c19 	ldrd	r2, ip, [sp, #100]	; 0x64
    5ac0:	1c51      	adds	r1, r2, #1
    5ac2:	9b0a      	ldr	r3, [sp, #40]	; 0x28
    5ac4:	2b80      	cmp	r3, #128	; 0x80
    5ac6:	f000 817f 	beq.w	5dc8 <_vfiprintf_r+0x778>
    5aca:	e9dd 3003 	ldrd	r3, r0, [sp, #12]
    5ace:	1a1d      	subs	r5, r3, r0
    5ad0:	2d00      	cmp	r5, #0
    5ad2:	f300 81cc 	bgt.w	5e6e <_vfiprintf_r+0x81e>
    5ad6:	9a04      	ldr	r2, [sp, #16]
    5ad8:	2907      	cmp	r1, #7
    5ada:	603c      	str	r4, [r7, #0]
    5adc:	eb02 030c 	add.w	r3, r2, ip
    5ae0:	607a      	str	r2, [r7, #4]
    5ae2:	e9cd 1319 	strd	r1, r3, [sp, #100]	; 0x64
    5ae6:	f340 8136 	ble.w	5d56 <_vfiprintf_r+0x706>
    5aea:	2b00      	cmp	r3, #0
    5aec:	f000 8254 	beq.w	5f98 <_vfiprintf_r+0x948>
    5af0:	aa18      	add	r2, sp, #96	; 0x60
    5af2:	4651      	mov	r1, sl
    5af4:	4658      	mov	r0, fp
    5af6:	f7ff fd71 	bl	55dc <__sprint_r.part.0>
    5afa:	2800      	cmp	r0, #0
    5afc:	f47f af77 	bne.w	59ee <_vfiprintf_r+0x39e>
    5b00:	9b1a      	ldr	r3, [sp, #104]	; 0x68
    5b02:	af1b      	add	r7, sp, #108	; 0x6c
    5b04:	0770      	lsls	r0, r6, #29
    5b06:	d505      	bpl.n	5b14 <_vfiprintf_r+0x4c4>
    5b08:	9a06      	ldr	r2, [sp, #24]
    5b0a:	9902      	ldr	r1, [sp, #8]
    5b0c:	1a54      	subs	r4, r2, r1
    5b0e:	2c00      	cmp	r4, #0
    5b10:	f300 824b 	bgt.w	5faa <_vfiprintf_r+0x95a>
    5b14:	9802      	ldr	r0, [sp, #8]
    5b16:	e9dd 2105 	ldrd	r2, r1, [sp, #20]
    5b1a:	4281      	cmp	r1, r0
    5b1c:	bfac      	ite	ge
    5b1e:	1852      	addge	r2, r2, r1
    5b20:	1812      	addlt	r2, r2, r0
    5b22:	9205      	str	r2, [sp, #20]
    5b24:	2b00      	cmp	r3, #0
    5b26:	f47f af5a 	bne.w	59de <_vfiprintf_r+0x38e>
    5b2a:	2300      	movs	r3, #0
    5b2c:	9908      	ldr	r1, [sp, #32]
    5b2e:	9319      	str	r3, [sp, #100]	; 0x64
    5b30:	2900      	cmp	r1, #0
    5b32:	f000 8112 	beq.w	5d5a <_vfiprintf_r+0x70a>
    5b36:	4658      	mov	r0, fp
    5b38:	af1b      	add	r7, sp, #108	; 0x6c
    5b3a:	f001 f8af 	bl	6c9c <_free_r>
    5b3e:	e5d0      	b.n	56e2 <_vfiprintf_r+0x92>
    5b40:	059a      	lsls	r2, r3, #22
    5b42:	f53f af62 	bmi.w	5a0a <_vfiprintf_r+0x3ba>
    5b46:	f8da 0058 	ldr.w	r0, [sl, #88]	; 0x58
    5b4a:	f001 fb5f 	bl	720c <__retarget_lock_release_recursive>
    5b4e:	f8ba 300c 	ldrh.w	r3, [sl, #12]
    5b52:	e75a      	b.n	5a0a <_vfiprintf_r+0x3ba>
    5b54:	9a07      	ldr	r2, [sp, #28]
    5b56:	06f5      	lsls	r5, r6, #27
    5b58:	f852 3b04 	ldr.w	r3, [r2], #4
    5b5c:	9207      	str	r2, [sp, #28]
    5b5e:	f100 82ed 	bmi.w	613c <_vfiprintf_r+0xaec>
    5b62:	0674      	lsls	r4, r6, #25
    5b64:	f140 82e7 	bpl.w	6136 <_vfiprintf_r+0xae6>
    5b68:	f343 32c0 	sbfx	r2, r3, #15, #1
    5b6c:	b21b      	sxth	r3, r3
    5b6e:	4611      	mov	r1, r2
    5b70:	e67d      	b.n	586e <_vfiprintf_r+0x21e>
    5b72:	9907      	ldr	r1, [sp, #28]
    5b74:	f851 3b04 	ldr.w	r3, [r1], #4
    5b78:	9107      	str	r1, [sp, #28]
    5b7a:	f016 0110 	ands.w	r1, r6, #16
    5b7e:	f47f aec4 	bne.w	590a <_vfiprintf_r+0x2ba>
    5b82:	f016 0040 	ands.w	r0, r6, #64	; 0x40
    5b86:	f000 83fd 	beq.w	6384 <_vfiprintf_r+0xd34>
    5b8a:	b29b      	uxth	r3, r3
    5b8c:	460a      	mov	r2, r1
    5b8e:	e6bc      	b.n	590a <_vfiprintf_r+0x2ba>
    5b90:	9b07      	ldr	r3, [sp, #28]
    5b92:	461a      	mov	r2, r3
    5b94:	2300      	movs	r3, #0
    5b96:	f88d 3043 	strb.w	r3, [sp, #67]	; 0x43
    5b9a:	4613      	mov	r3, r2
    5b9c:	f853 4b04 	ldr.w	r4, [r3], #4
    5ba0:	9302      	str	r3, [sp, #8]
    5ba2:	2c00      	cmp	r4, #0
    5ba4:	f000 83dc 	beq.w	6360 <_vfiprintf_r+0xd10>
    5ba8:	2953      	cmp	r1, #83	; 0x53
    5baa:	f000 8321 	beq.w	61f0 <_vfiprintf_r+0xba0>
    5bae:	f016 0510 	ands.w	r5, r6, #16
    5bb2:	f040 831d 	bne.w	61f0 <_vfiprintf_r+0xba0>
    5bb6:	9b03      	ldr	r3, [sp, #12]
    5bb8:	1c5a      	adds	r2, r3, #1
    5bba:	f000 8467 	beq.w	648c <_vfiprintf_r+0xe3c>
    5bbe:	461a      	mov	r2, r3
    5bc0:	4629      	mov	r1, r5
    5bc2:	4620      	mov	r0, r4
    5bc4:	f001 fbaa 	bl	731c <memchr>
    5bc8:	9008      	str	r0, [sp, #32]
    5bca:	2800      	cmp	r0, #0
    5bcc:	f000 8446 	beq.w	645c <_vfiprintf_r+0xe0c>
    5bd0:	1b03      	subs	r3, r0, r4
    5bd2:	9a02      	ldr	r2, [sp, #8]
    5bd4:	9508      	str	r5, [sp, #32]
    5bd6:	9207      	str	r2, [sp, #28]
    5bd8:	e9cd 5303 	strd	r5, r3, [sp, #12]
    5bdc:	ea23 73e3 	bic.w	r3, r3, r3, asr #31
    5be0:	9302      	str	r3, [sp, #8]
    5be2:	e6c1      	b.n	5968 <_vfiprintf_r+0x318>
    5be4:	9b07      	ldr	r3, [sp, #28]
    5be6:	2943      	cmp	r1, #67	; 0x43
    5be8:	f103 0504 	add.w	r5, r3, #4
    5bec:	d002      	beq.n	5bf4 <_vfiprintf_r+0x5a4>
    5bee:	06f2      	lsls	r2, r6, #27
    5bf0:	f140 82e8 	bpl.w	61c4 <_vfiprintf_r+0xb74>
    5bf4:	2208      	movs	r2, #8
    5bf6:	2100      	movs	r1, #0
    5bf8:	a816      	add	r0, sp, #88	; 0x58
    5bfa:	ac2b      	add	r4, sp, #172	; 0xac
    5bfc:	f7ff fc7e 	bl	54fc <memset>
    5c00:	9a07      	ldr	r2, [sp, #28]
    5c02:	ab16      	add	r3, sp, #88	; 0x58
    5c04:	4621      	mov	r1, r4
    5c06:	6812      	ldr	r2, [r2, #0]
    5c08:	4658      	mov	r0, fp
    5c0a:	f000 fcdf 	bl	65cc <_wcrtomb_r>
    5c0e:	4603      	mov	r3, r0
    5c10:	9004      	str	r0, [sp, #16]
    5c12:	3301      	adds	r3, #1
    5c14:	f000 8460 	beq.w	64d8 <_vfiprintf_r+0xe88>
    5c18:	9b04      	ldr	r3, [sp, #16]
    5c1a:	ea23 73e3 	bic.w	r3, r3, r3, asr #31
    5c1e:	9302      	str	r3, [sp, #8]
    5c20:	2300      	movs	r3, #0
    5c22:	9507      	str	r5, [sp, #28]
    5c24:	f88d 3043 	strb.w	r3, [sp, #67]	; 0x43
    5c28:	e703      	b.n	5a32 <_vfiprintf_r+0x3e2>
    5c2a:	4658      	mov	r0, fp
    5c2c:	f000 feba 	bl	69a4 <__sinit>
    5c30:	e527      	b.n	5682 <_vfiprintf_r+0x32>
    5c32:	9b07      	ldr	r3, [sp, #28]
    5c34:	f853 2b04 	ldr.w	r2, [r3], #4
    5c38:	2a00      	cmp	r2, #0
    5c3a:	9206      	str	r2, [sp, #24]
    5c3c:	f280 8269 	bge.w	6112 <_vfiprintf_r+0xac2>
    5c40:	9a06      	ldr	r2, [sp, #24]
    5c42:	4252      	negs	r2, r2
    5c44:	e9cd 2306 	strd	r2, r3, [sp, #24]
    5c48:	f046 0604 	orr.w	r6, r6, #4
    5c4c:	f898 1000 	ldrb.w	r1, [r8]
    5c50:	e570      	b.n	5734 <_vfiprintf_r+0xe4>
    5c52:	f898 1000 	ldrb.w	r1, [r8]
    5c56:	f88d 4043 	strb.w	r4, [sp, #67]	; 0x43
    5c5a:	e56b      	b.n	5734 <_vfiprintf_r+0xe4>
    5c5c:	f046 0680 	orr.w	r6, r6, #128	; 0x80
    5c60:	f898 1000 	ldrb.w	r1, [r8]
    5c64:	e566      	b.n	5734 <_vfiprintf_r+0xe4>
    5c66:	4642      	mov	r2, r8
    5c68:	f812 1b01 	ldrb.w	r1, [r2], #1
    5c6c:	292a      	cmp	r1, #42	; 0x2a
    5c6e:	f000 8443 	beq.w	64f8 <_vfiprintf_r+0xea8>
    5c72:	f1a1 0330 	sub.w	r3, r1, #48	; 0x30
    5c76:	4690      	mov	r8, r2
    5c78:	2b09      	cmp	r3, #9
    5c7a:	f200 8414 	bhi.w	64a6 <_vfiprintf_r+0xe56>
    5c7e:	2200      	movs	r2, #0
    5c80:	eb02 0282 	add.w	r2, r2, r2, lsl #2
    5c84:	f818 1b01 	ldrb.w	r1, [r8], #1
    5c88:	eb03 0242 	add.w	r2, r3, r2, lsl #1
    5c8c:	f1a1 0330 	sub.w	r3, r1, #48	; 0x30
    5c90:	2b09      	cmp	r3, #9
    5c92:	d9f5      	bls.n	5c80 <_vfiprintf_r+0x630>
    5c94:	9203      	str	r2, [sp, #12]
    5c96:	e54f      	b.n	5738 <_vfiprintf_r+0xe8>
    5c98:	f046 0601 	orr.w	r6, r6, #1
    5c9c:	f898 1000 	ldrb.w	r1, [r8]
    5ca0:	e548      	b.n	5734 <_vfiprintf_r+0xe4>
    5ca2:	f89d 3043 	ldrb.w	r3, [sp, #67]	; 0x43
    5ca6:	f898 1000 	ldrb.w	r1, [r8]
    5caa:	2b00      	cmp	r3, #0
    5cac:	f47f ad42 	bne.w	5734 <_vfiprintf_r+0xe4>
    5cb0:	2320      	movs	r3, #32
    5cb2:	f88d 3043 	strb.w	r3, [sp, #67]	; 0x43
    5cb6:	e53d      	b.n	5734 <_vfiprintf_r+0xe4>
    5cb8:	f898 1000 	ldrb.w	r1, [r8]
    5cbc:	296c      	cmp	r1, #108	; 0x6c
    5cbe:	f000 8340 	beq.w	6342 <_vfiprintf_r+0xcf2>
    5cc2:	f046 0610 	orr.w	r6, r6, #16
    5cc6:	e535      	b.n	5734 <_vfiprintf_r+0xe4>
    5cc8:	f898 1000 	ldrb.w	r1, [r8]
    5ccc:	2968      	cmp	r1, #104	; 0x68
    5cce:	f000 8330 	beq.w	6332 <_vfiprintf_r+0xce2>
    5cd2:	f046 0640 	orr.w	r6, r6, #64	; 0x40
    5cd6:	e52d      	b.n	5734 <_vfiprintf_r+0xe4>
    5cd8:	f046 0310 	orr.w	r3, r6, #16
    5cdc:	9302      	str	r3, [sp, #8]
    5cde:	9b02      	ldr	r3, [sp, #8]
    5ce0:	f013 0220 	ands.w	r2, r3, #32
    5ce4:	f000 81d9 	beq.w	609a <_vfiprintf_r+0xa4a>
    5ce8:	9b07      	ldr	r3, [sp, #28]
    5cea:	2101      	movs	r1, #1
    5cec:	3307      	adds	r3, #7
    5cee:	f023 0307 	bic.w	r3, r3, #7
    5cf2:	4618      	mov	r0, r3
    5cf4:	685a      	ldr	r2, [r3, #4]
    5cf6:	f850 3b08 	ldr.w	r3, [r0], #8
    5cfa:	9007      	str	r0, [sp, #28]
    5cfc:	e609      	b.n	5912 <_vfiprintf_r+0x2c2>
    5cfe:	f046 0302 	orr.w	r3, r6, #2
    5d02:	9a07      	ldr	r2, [sp, #28]
    5d04:	49ac      	ldr	r1, [pc, #688]	; (5fb8 <_vfiprintf_r+0x968>)
    5d06:	9302      	str	r3, [sp, #8]
    5d08:	f647 0330 	movw	r3, #30768	; 0x7830
    5d0c:	910b      	str	r1, [sp, #44]	; 0x2c
    5d0e:	2102      	movs	r1, #2
    5d10:	f8ad 3044 	strh.w	r3, [sp, #68]	; 0x44
    5d14:	f852 3b04 	ldr.w	r3, [r2], #4
    5d18:	9207      	str	r2, [sp, #28]
    5d1a:	2200      	movs	r2, #0
    5d1c:	e5f9      	b.n	5912 <_vfiprintf_r+0x2c2>
    5d1e:	9a07      	ldr	r2, [sp, #28]
    5d20:	06b1      	lsls	r1, r6, #26
    5d22:	f102 0304 	add.w	r3, r2, #4
    5d26:	f100 8218 	bmi.w	615a <_vfiprintf_r+0xb0a>
    5d2a:	06f2      	lsls	r2, r6, #27
    5d2c:	f100 8311 	bmi.w	6352 <_vfiprintf_r+0xd02>
    5d30:	0675      	lsls	r5, r6, #25
    5d32:	f100 837d 	bmi.w	6430 <_vfiprintf_r+0xde0>
    5d36:	05b4      	lsls	r4, r6, #22
    5d38:	f140 830b 	bpl.w	6352 <_vfiprintf_r+0xd02>
    5d3c:	9a07      	ldr	r2, [sp, #28]
    5d3e:	9905      	ldr	r1, [sp, #20]
    5d40:	6812      	ldr	r2, [r2, #0]
    5d42:	9307      	str	r3, [sp, #28]
    5d44:	7011      	strb	r1, [r2, #0]
    5d46:	e4cc      	b.n	56e2 <_vfiprintf_r+0x92>
    5d48:	9b04      	ldr	r3, [sp, #16]
    5d4a:	2201      	movs	r2, #1
    5d4c:	af1b      	add	r7, sp, #108	; 0x6c
    5d4e:	941b      	str	r4, [sp, #108]	; 0x6c
    5d50:	9219      	str	r2, [sp, #100]	; 0x64
    5d52:	931c      	str	r3, [sp, #112]	; 0x70
    5d54:	931a      	str	r3, [sp, #104]	; 0x68
    5d56:	3708      	adds	r7, #8
    5d58:	e6d4      	b.n	5b04 <_vfiprintf_r+0x4b4>
    5d5a:	af1b      	add	r7, sp, #108	; 0x6c
    5d5c:	e4c1      	b.n	56e2 <_vfiprintf_r+0x92>
    5d5e:	9602      	str	r6, [sp, #8]
    5d60:	2901      	cmp	r1, #1
    5d62:	f000 8175 	beq.w	6050 <_vfiprintf_r+0xa00>
    5d66:	2902      	cmp	r1, #2
    5d68:	ac44      	add	r4, sp, #272	; 0x110
    5d6a:	d111      	bne.n	5d90 <_vfiprintf_r+0x740>
    5d6c:	980b      	ldr	r0, [sp, #44]	; 0x2c
    5d6e:	f003 010f 	and.w	r1, r3, #15
    5d72:	091b      	lsrs	r3, r3, #4
    5d74:	5c41      	ldrb	r1, [r0, r1]
    5d76:	ea43 7302 	orr.w	r3, r3, r2, lsl #28
    5d7a:	0912      	lsrs	r2, r2, #4
    5d7c:	f804 1d01 	strb.w	r1, [r4, #-1]!
    5d80:	ea53 0102 	orrs.w	r1, r3, r2
    5d84:	d1f3      	bne.n	5d6e <_vfiprintf_r+0x71e>
    5d86:	ab44      	add	r3, sp, #272	; 0x110
    5d88:	9e02      	ldr	r6, [sp, #8]
    5d8a:	1b1b      	subs	r3, r3, r4
    5d8c:	9304      	str	r3, [sp, #16]
    5d8e:	e5e3      	b.n	5958 <_vfiprintf_r+0x308>
    5d90:	f003 0107 	and.w	r1, r3, #7
    5d94:	08db      	lsrs	r3, r3, #3
    5d96:	4620      	mov	r0, r4
    5d98:	ea43 7342 	orr.w	r3, r3, r2, lsl #29
    5d9c:	3130      	adds	r1, #48	; 0x30
    5d9e:	08d2      	lsrs	r2, r2, #3
    5da0:	f804 1d01 	strb.w	r1, [r4, #-1]!
    5da4:	ea53 0502 	orrs.w	r5, r3, r2
    5da8:	d1f2      	bne.n	5d90 <_vfiprintf_r+0x740>
    5daa:	2930      	cmp	r1, #48	; 0x30
    5dac:	d0eb      	beq.n	5d86 <_vfiprintf_r+0x736>
    5dae:	9b02      	ldr	r3, [sp, #8]
    5db0:	07dd      	lsls	r5, r3, #31
    5db2:	d5e8      	bpl.n	5d86 <_vfiprintf_r+0x736>
    5db4:	2330      	movs	r3, #48	; 0x30
    5db6:	3802      	subs	r0, #2
    5db8:	9e02      	ldr	r6, [sp, #8]
    5dba:	f804 3c01 	strb.w	r3, [r4, #-1]
    5dbe:	ab44      	add	r3, sp, #272	; 0x110
    5dc0:	4604      	mov	r4, r0
    5dc2:	1a1b      	subs	r3, r3, r0
    5dc4:	9304      	str	r3, [sp, #16]
    5dc6:	e5c7      	b.n	5958 <_vfiprintf_r+0x308>
    5dc8:	9b06      	ldr	r3, [sp, #24]
    5dca:	9802      	ldr	r0, [sp, #8]
    5dcc:	1a1d      	subs	r5, r3, r0
    5dce:	2d00      	cmp	r5, #0
    5dd0:	f77f ae7b 	ble.w	5aca <_vfiprintf_r+0x47a>
    5dd4:	2d10      	cmp	r5, #16
    5dd6:	f340 8378 	ble.w	64ca <_vfiprintf_r+0xe7a>
    5dda:	4660      	mov	r0, ip
    5ddc:	e00c      	b.n	5df8 <_vfiprintf_r+0x7a8>
    5dde:	4651      	mov	r1, sl
    5de0:	4658      	mov	r0, fp
    5de2:	f7ff fbfb 	bl	55dc <__sprint_r.part.0>
    5de6:	2800      	cmp	r0, #0
    5de8:	f47f ae01 	bne.w	59ee <_vfiprintf_r+0x39e>
    5dec:	e9dd 2019 	ldrd	r2, r0, [sp, #100]	; 0x64
    5df0:	1c51      	adds	r1, r2, #1
    5df2:	3d10      	subs	r5, #16
    5df4:	2d10      	cmp	r5, #16
    5df6:	dd19      	ble.n	5e2c <_vfiprintf_r+0x7dc>
    5df8:	1c53      	adds	r3, r2, #1
    5dfa:	4970      	ldr	r1, [pc, #448]	; (5fbc <_vfiprintf_r+0x96c>)
    5dfc:	3010      	adds	r0, #16
    5dfe:	3708      	adds	r7, #8
    5e00:	f847 1c08 	str.w	r1, [r7, #-8]
    5e04:	2b07      	cmp	r3, #7
    5e06:	f04f 0110 	mov.w	r1, #16
    5e0a:	e9cd 3019 	strd	r3, r0, [sp, #100]	; 0x64
    5e0e:	f847 1c04 	str.w	r1, [r7, #-4]
    5e12:	f102 0102 	add.w	r1, r2, #2
    5e16:	461a      	mov	r2, r3
    5e18:	ddeb      	ble.n	5df2 <_vfiprintf_r+0x7a2>
    5e1a:	aa18      	add	r2, sp, #96	; 0x60
    5e1c:	af1b      	add	r7, sp, #108	; 0x6c
    5e1e:	2800      	cmp	r0, #0
    5e20:	d1dd      	bne.n	5dde <_vfiprintf_r+0x78e>
    5e22:	3d10      	subs	r5, #16
    5e24:	2101      	movs	r1, #1
    5e26:	4602      	mov	r2, r0
    5e28:	2d10      	cmp	r5, #16
    5e2a:	dce5      	bgt.n	5df8 <_vfiprintf_r+0x7a8>
    5e2c:	4684      	mov	ip, r0
    5e2e:	4608      	mov	r0, r1
    5e30:	44ac      	add	ip, r5
    5e32:	4b62      	ldr	r3, [pc, #392]	; (5fbc <_vfiprintf_r+0x96c>)
    5e34:	2807      	cmp	r0, #7
    5e36:	607d      	str	r5, [r7, #4]
    5e38:	603b      	str	r3, [r7, #0]
    5e3a:	e9cd 0c19 	strd	r0, ip, [sp, #100]	; 0x64
    5e3e:	f340 8176 	ble.w	612e <_vfiprintf_r+0xade>
    5e42:	f1bc 0f00 	cmp.w	ip, #0
    5e46:	f000 82de 	beq.w	6406 <_vfiprintf_r+0xdb6>
    5e4a:	aa18      	add	r2, sp, #96	; 0x60
    5e4c:	4651      	mov	r1, sl
    5e4e:	4658      	mov	r0, fp
    5e50:	f7ff fbc4 	bl	55dc <__sprint_r.part.0>
    5e54:	2800      	cmp	r0, #0
    5e56:	f47f adca 	bne.w	59ee <_vfiprintf_r+0x39e>
    5e5a:	af1b      	add	r7, sp, #108	; 0x6c
    5e5c:	e9dd 3003 	ldrd	r3, r0, [sp, #12]
    5e60:	e9dd 2c19 	ldrd	r2, ip, [sp, #100]	; 0x64
    5e64:	1a1d      	subs	r5, r3, r0
    5e66:	1c51      	adds	r1, r2, #1
    5e68:	2d00      	cmp	r5, #0
    5e6a:	f77f ae34 	ble.w	5ad6 <_vfiprintf_r+0x486>
    5e6e:	2d10      	cmp	r5, #16
    5e70:	dd29      	ble.n	5ec6 <_vfiprintf_r+0x876>
    5e72:	4660      	mov	r0, ip
    5e74:	e00b      	b.n	5e8e <_vfiprintf_r+0x83e>
    5e76:	4658      	mov	r0, fp
    5e78:	f7ff fbb0 	bl	55dc <__sprint_r.part.0>
    5e7c:	2800      	cmp	r0, #0
    5e7e:	f47f adb6 	bne.w	59ee <_vfiprintf_r+0x39e>
    5e82:	e9dd 2019 	ldrd	r2, r0, [sp, #100]	; 0x64
    5e86:	1c51      	adds	r1, r2, #1
    5e88:	3d10      	subs	r5, #16
    5e8a:	2d10      	cmp	r5, #16
    5e8c:	dd1a      	ble.n	5ec4 <_vfiprintf_r+0x874>
    5e8e:	1c53      	adds	r3, r2, #1
    5e90:	494a      	ldr	r1, [pc, #296]	; (5fbc <_vfiprintf_r+0x96c>)
    5e92:	3010      	adds	r0, #16
    5e94:	3708      	adds	r7, #8
    5e96:	f847 1c08 	str.w	r1, [r7, #-8]
    5e9a:	2b07      	cmp	r3, #7
    5e9c:	f04f 0110 	mov.w	r1, #16
    5ea0:	e9cd 3019 	strd	r3, r0, [sp, #100]	; 0x64
    5ea4:	f847 1c04 	str.w	r1, [r7, #-4]
    5ea8:	f102 0102 	add.w	r1, r2, #2
    5eac:	461a      	mov	r2, r3
    5eae:	ddeb      	ble.n	5e88 <_vfiprintf_r+0x838>
    5eb0:	aa18      	add	r2, sp, #96	; 0x60
    5eb2:	4651      	mov	r1, sl
    5eb4:	af1b      	add	r7, sp, #108	; 0x6c
    5eb6:	2800      	cmp	r0, #0
    5eb8:	d1dd      	bne.n	5e76 <_vfiprintf_r+0x826>
    5eba:	3d10      	subs	r5, #16
    5ebc:	2101      	movs	r1, #1
    5ebe:	4602      	mov	r2, r0
    5ec0:	2d10      	cmp	r5, #16
    5ec2:	dce4      	bgt.n	5e8e <_vfiprintf_r+0x83e>
    5ec4:	4684      	mov	ip, r0
    5ec6:	44ac      	add	ip, r5
    5ec8:	4b3c      	ldr	r3, [pc, #240]	; (5fbc <_vfiprintf_r+0x96c>)
    5eca:	2907      	cmp	r1, #7
    5ecc:	607d      	str	r5, [r7, #4]
    5ece:	603b      	str	r3, [r7, #0]
    5ed0:	e9cd 1c19 	strd	r1, ip, [sp, #100]	; 0x64
    5ed4:	f300 80ca 	bgt.w	606c <_vfiprintf_r+0xa1c>
    5ed8:	3708      	adds	r7, #8
    5eda:	3101      	adds	r1, #1
    5edc:	e5fb      	b.n	5ad6 <_vfiprintf_r+0x486>
    5ede:	f1bc 0f00 	cmp.w	ip, #0
    5ee2:	f000 80f2 	beq.w	60ca <_vfiprintf_r+0xa7a>
    5ee6:	aa18      	add	r2, sp, #96	; 0x60
    5ee8:	4651      	mov	r1, sl
    5eea:	4658      	mov	r0, fp
    5eec:	f7ff fb76 	bl	55dc <__sprint_r.part.0>
    5ef0:	2800      	cmp	r0, #0
    5ef2:	f47f ad7c 	bne.w	59ee <_vfiprintf_r+0x39e>
    5ef6:	af1b      	add	r7, sp, #108	; 0x6c
    5ef8:	e9dd 2c19 	ldrd	r2, ip, [sp, #100]	; 0x64
    5efc:	1c51      	adds	r1, r2, #1
    5efe:	e5c3      	b.n	5a88 <_vfiprintf_r+0x438>
    5f00:	2302      	movs	r3, #2
    5f02:	2101      	movs	r1, #1
    5f04:	af1b      	add	r7, sp, #108	; 0x6c
    5f06:	469c      	mov	ip, r3
    5f08:	931c      	str	r3, [sp, #112]	; 0x70
    5f0a:	ab11      	add	r3, sp, #68	; 0x44
    5f0c:	931b      	str	r3, [sp, #108]	; 0x6c
    5f0e:	460a      	mov	r2, r1
    5f10:	3708      	adds	r7, #8
    5f12:	1c51      	adds	r1, r2, #1
    5f14:	e5d5      	b.n	5ac2 <_vfiprintf_r+0x472>
    5f16:	2d10      	cmp	r5, #16
    5f18:	f340 82c9 	ble.w	64ae <_vfiprintf_r+0xe5e>
    5f1c:	940f      	str	r4, [sp, #60]	; 0x3c
    5f1e:	2310      	movs	r3, #16
    5f20:	4664      	mov	r4, ip
    5f22:	e004      	b.n	5f2e <_vfiprintf_r+0x8de>
    5f24:	4602      	mov	r2, r0
    5f26:	3d10      	subs	r5, #16
    5f28:	1c50      	adds	r0, r2, #1
    5f2a:	2d10      	cmp	r5, #16
    5f2c:	dd1f      	ble.n	5f6e <_vfiprintf_r+0x91e>
    5f2e:	3410      	adds	r4, #16
    5f30:	4923      	ldr	r1, [pc, #140]	; (5fc0 <_vfiprintf_r+0x970>)
    5f32:	2807      	cmp	r0, #7
    5f34:	f102 0e02 	add.w	lr, r2, #2
    5f38:	e9c7 1300 	strd	r1, r3, [r7]
    5f3c:	e9cd 0419 	strd	r0, r4, [sp, #100]	; 0x64
    5f40:	f107 0708 	add.w	r7, r7, #8
    5f44:	ddee      	ble.n	5f24 <_vfiprintf_r+0x8d4>
    5f46:	aa18      	add	r2, sp, #96	; 0x60
    5f48:	4651      	mov	r1, sl
    5f4a:	4658      	mov	r0, fp
    5f4c:	af1b      	add	r7, sp, #108	; 0x6c
    5f4e:	b1fc      	cbz	r4, 5f90 <_vfiprintf_r+0x940>
    5f50:	f7ff fb44 	bl	55dc <__sprint_r.part.0>
    5f54:	2800      	cmp	r0, #0
    5f56:	f47f ad4a 	bne.w	59ee <_vfiprintf_r+0x39e>
    5f5a:	3d10      	subs	r5, #16
    5f5c:	2310      	movs	r3, #16
    5f5e:	e9dd 2419 	ldrd	r2, r4, [sp, #100]	; 0x64
    5f62:	2d10      	cmp	r5, #16
    5f64:	f102 0e01 	add.w	lr, r2, #1
    5f68:	f102 0001 	add.w	r0, r2, #1
    5f6c:	dcdf      	bgt.n	5f2e <_vfiprintf_r+0x8de>
    5f6e:	46a4      	mov	ip, r4
    5f70:	9c0f      	ldr	r4, [sp, #60]	; 0x3c
    5f72:	44ac      	add	ip, r5
    5f74:	4b12      	ldr	r3, [pc, #72]	; (5fc0 <_vfiprintf_r+0x970>)
    5f76:	f1be 0f07 	cmp.w	lr, #7
    5f7a:	607d      	str	r5, [r7, #4]
    5f7c:	603b      	str	r3, [r7, #0]
    5f7e:	e9cd ec19 	strd	lr, ip, [sp, #100]	; 0x64
    5f82:	f300 80b6 	bgt.w	60f2 <_vfiprintf_r+0xaa2>
    5f86:	3708      	adds	r7, #8
    5f88:	f10e 0101 	add.w	r1, lr, #1
    5f8c:	4672      	mov	r2, lr
    5f8e:	e569      	b.n	5a64 <_vfiprintf_r+0x414>
    5f90:	4622      	mov	r2, r4
    5f92:	f04f 0e01 	mov.w	lr, #1
    5f96:	e7c6      	b.n	5f26 <_vfiprintf_r+0x8d6>
    5f98:	0774      	lsls	r4, r6, #29
    5f9a:	9319      	str	r3, [sp, #100]	; 0x64
    5f9c:	d54a      	bpl.n	6034 <_vfiprintf_r+0x9e4>
    5f9e:	9a06      	ldr	r2, [sp, #24]
    5fa0:	9902      	ldr	r1, [sp, #8]
    5fa2:	1a54      	subs	r4, r2, r1
    5fa4:	2c00      	cmp	r4, #0
    5fa6:	dd45      	ble.n	6034 <_vfiprintf_r+0x9e4>
    5fa8:	af1b      	add	r7, sp, #108	; 0x6c
    5faa:	2c10      	cmp	r4, #16
    5fac:	9919      	ldr	r1, [sp, #100]	; 0x64
    5fae:	f340 828a 	ble.w	64c6 <_vfiprintf_r+0xe76>
    5fb2:	2510      	movs	r5, #16
    5fb4:	460e      	mov	r6, r1
    5fb6:	e013      	b.n	5fe0 <_vfiprintf_r+0x990>
    5fb8:	00008778 	.word	0x00008778
    5fbc:	000087a4 	.word	0x000087a4
    5fc0:	00008794 	.word	0x00008794
    5fc4:	4651      	mov	r1, sl
    5fc6:	4658      	mov	r0, fp
    5fc8:	f7ff fb08 	bl	55dc <__sprint_r.part.0>
    5fcc:	2800      	cmp	r0, #0
    5fce:	f47f ad0e 	bne.w	59ee <_vfiprintf_r+0x39e>
    5fd2:	af1b      	add	r7, sp, #108	; 0x6c
    5fd4:	e9dd 6319 	ldrd	r6, r3, [sp, #100]	; 0x64
    5fd8:	1c70      	adds	r0, r6, #1
    5fda:	3c10      	subs	r4, #16
    5fdc:	2c10      	cmp	r4, #16
    5fde:	dd15      	ble.n	600c <_vfiprintf_r+0x9bc>
    5fe0:	1c72      	adds	r2, r6, #1
    5fe2:	3310      	adds	r3, #16
    5fe4:	49aa      	ldr	r1, [pc, #680]	; (6290 <_vfiprintf_r+0xc40>)
    5fe6:	1cb0      	adds	r0, r6, #2
    5fe8:	2a07      	cmp	r2, #7
    5fea:	4616      	mov	r6, r2
    5fec:	e9c7 1500 	strd	r1, r5, [r7]
    5ff0:	e9cd 2319 	strd	r2, r3, [sp, #100]	; 0x64
    5ff4:	f107 0708 	add.w	r7, r7, #8
    5ff8:	ddef      	ble.n	5fda <_vfiprintf_r+0x98a>
    5ffa:	aa18      	add	r2, sp, #96	; 0x60
    5ffc:	2b00      	cmp	r3, #0
    5ffe:	d1e1      	bne.n	5fc4 <_vfiprintf_r+0x974>
    6000:	3c10      	subs	r4, #16
    6002:	2001      	movs	r0, #1
    6004:	461e      	mov	r6, r3
    6006:	af1b      	add	r7, sp, #108	; 0x6c
    6008:	2c10      	cmp	r4, #16
    600a:	dce9      	bgt.n	5fe0 <_vfiprintf_r+0x990>
    600c:	4423      	add	r3, r4
    600e:	4aa0      	ldr	r2, [pc, #640]	; (6290 <_vfiprintf_r+0xc40>)
    6010:	2807      	cmp	r0, #7
    6012:	607c      	str	r4, [r7, #4]
    6014:	603a      	str	r2, [r7, #0]
    6016:	e9cd 0319 	strd	r0, r3, [sp, #100]	; 0x64
    601a:	f77f ad7b 	ble.w	5b14 <_vfiprintf_r+0x4c4>
    601e:	b14b      	cbz	r3, 6034 <_vfiprintf_r+0x9e4>
    6020:	aa18      	add	r2, sp, #96	; 0x60
    6022:	4651      	mov	r1, sl
    6024:	4658      	mov	r0, fp
    6026:	f7ff fad9 	bl	55dc <__sprint_r.part.0>
    602a:	2800      	cmp	r0, #0
    602c:	f47f acdf 	bne.w	59ee <_vfiprintf_r+0x39e>
    6030:	9b1a      	ldr	r3, [sp, #104]	; 0x68
    6032:	e56f      	b.n	5b14 <_vfiprintf_r+0x4c4>
    6034:	e9dd 3205 	ldrd	r3, r2, [sp, #20]
    6038:	9902      	ldr	r1, [sp, #8]
    603a:	428a      	cmp	r2, r1
    603c:	bfac      	ite	ge
    603e:	189b      	addge	r3, r3, r2
    6040:	185b      	addlt	r3, r3, r1
    6042:	9305      	str	r3, [sp, #20]
    6044:	e571      	b.n	5b2a <_vfiprintf_r+0x4da>
    6046:	ac44      	add	r4, sp, #272	; 0x110
    6048:	9003      	str	r0, [sp, #12]
    604a:	9004      	str	r0, [sp, #16]
    604c:	e484      	b.n	5958 <_vfiprintf_r+0x308>
    604e:	9602      	str	r6, [sp, #8]
    6050:	2b0a      	cmp	r3, #10
    6052:	f172 0100 	sbcs.w	r1, r2, #0
    6056:	f080 8106 	bcs.w	6266 <_vfiprintf_r+0xc16>
    605a:	3330      	adds	r3, #48	; 0x30
    605c:	9e02      	ldr	r6, [sp, #8]
    605e:	f20d 140f 	addw	r4, sp, #271	; 0x10f
    6062:	f88d 310f 	strb.w	r3, [sp, #271]	; 0x10f
    6066:	2301      	movs	r3, #1
    6068:	9304      	str	r3, [sp, #16]
    606a:	e475      	b.n	5958 <_vfiprintf_r+0x308>
    606c:	f1bc 0f00 	cmp.w	ip, #0
    6070:	f43f ae6a 	beq.w	5d48 <_vfiprintf_r+0x6f8>
    6074:	aa18      	add	r2, sp, #96	; 0x60
    6076:	4651      	mov	r1, sl
    6078:	4658      	mov	r0, fp
    607a:	f7ff faaf 	bl	55dc <__sprint_r.part.0>
    607e:	2800      	cmp	r0, #0
    6080:	f47f acb5 	bne.w	59ee <_vfiprintf_r+0x39e>
    6084:	9919      	ldr	r1, [sp, #100]	; 0x64
    6086:	af1b      	add	r7, sp, #108	; 0x6c
    6088:	f8dd c068 	ldr.w	ip, [sp, #104]	; 0x68
    608c:	3101      	adds	r1, #1
    608e:	e522      	b.n	5ad6 <_vfiprintf_r+0x486>
    6090:	af1b      	add	r7, sp, #108	; 0x6c
    6092:	9219      	str	r2, [sp, #100]	; 0x64
    6094:	e492      	b.n	59bc <_vfiprintf_r+0x36c>
    6096:	ac44      	add	r4, sp, #272	; 0x110
    6098:	e45e      	b.n	5958 <_vfiprintf_r+0x308>
    609a:	9907      	ldr	r1, [sp, #28]
    609c:	f851 3b04 	ldr.w	r3, [r1], #4
    60a0:	9107      	str	r1, [sp, #28]
    60a2:	9902      	ldr	r1, [sp, #8]
    60a4:	f011 0110 	ands.w	r1, r1, #16
    60a8:	d10d      	bne.n	60c6 <_vfiprintf_r+0xa76>
    60aa:	9a02      	ldr	r2, [sp, #8]
    60ac:	f012 0040 	ands.w	r0, r2, #64	; 0x40
    60b0:	d003      	beq.n	60ba <_vfiprintf_r+0xa6a>
    60b2:	460a      	mov	r2, r1
    60b4:	b29b      	uxth	r3, r3
    60b6:	2101      	movs	r1, #1
    60b8:	e42b      	b.n	5912 <_vfiprintf_r+0x2c2>
    60ba:	9a02      	ldr	r2, [sp, #8]
    60bc:	f412 7200 	ands.w	r2, r2, #512	; 0x200
    60c0:	d001      	beq.n	60c6 <_vfiprintf_r+0xa76>
    60c2:	b2db      	uxtb	r3, r3
    60c4:	4602      	mov	r2, r0
    60c6:	2101      	movs	r1, #1
    60c8:	e423      	b.n	5912 <_vfiprintf_r+0x2c2>
    60ca:	9b09      	ldr	r3, [sp, #36]	; 0x24
    60cc:	2b00      	cmp	r3, #0
    60ce:	d14c      	bne.n	616a <_vfiprintf_r+0xb1a>
    60d0:	4662      	mov	r2, ip
    60d2:	2101      	movs	r1, #1
    60d4:	af1b      	add	r7, sp, #108	; 0x6c
    60d6:	e4f4      	b.n	5ac2 <_vfiprintf_r+0x472>
    60d8:	2101      	movs	r1, #1
    60da:	4662      	mov	r2, ip
    60dc:	af1b      	add	r7, sp, #108	; 0x6c
    60de:	e4f0      	b.n	5ac2 <_vfiprintf_r+0x472>
    60e0:	425b      	negs	r3, r3
    60e2:	f04f 002d 	mov.w	r0, #45	; 0x2d
    60e6:	f04f 0101 	mov.w	r1, #1
    60ea:	9602      	str	r6, [sp, #8]
    60ec:	eb62 0242 	sbc.w	r2, r2, r2, lsl #1
    60f0:	e410      	b.n	5914 <_vfiprintf_r+0x2c4>
    60f2:	f1bc 0f00 	cmp.w	ip, #0
    60f6:	d06e      	beq.n	61d6 <_vfiprintf_r+0xb86>
    60f8:	aa18      	add	r2, sp, #96	; 0x60
    60fa:	4651      	mov	r1, sl
    60fc:	4658      	mov	r0, fp
    60fe:	f7ff fa6d 	bl	55dc <__sprint_r.part.0>
    6102:	2800      	cmp	r0, #0
    6104:	f47f ac73 	bne.w	59ee <_vfiprintf_r+0x39e>
    6108:	af1b      	add	r7, sp, #108	; 0x6c
    610a:	e9dd 2c19 	ldrd	r2, ip, [sp, #100]	; 0x64
    610e:	1c51      	adds	r1, r2, #1
    6110:	e4a8      	b.n	5a64 <_vfiprintf_r+0x414>
    6112:	f898 1000 	ldrb.w	r1, [r8]
    6116:	9307      	str	r3, [sp, #28]
    6118:	f7ff bb0c 	b.w	5734 <_vfiprintf_r+0xe4>
    611c:	f8da 0058 	ldr.w	r0, [sl, #88]	; 0x58
    6120:	f001 f872 	bl	7208 <__retarget_lock_acquire_recursive>
    6124:	f9ba 100c 	ldrsh.w	r1, [sl, #12]
    6128:	b28a      	uxth	r2, r1
    612a:	f7ff bab4 	b.w	5696 <_vfiprintf_r+0x46>
    612e:	3708      	adds	r7, #8
    6130:	1c41      	adds	r1, r0, #1
    6132:	4602      	mov	r2, r0
    6134:	e4c9      	b.n	5aca <_vfiprintf_r+0x47a>
    6136:	05b0      	lsls	r0, r6, #22
    6138:	f100 816a 	bmi.w	6410 <_vfiprintf_r+0xdc0>
    613c:	17da      	asrs	r2, r3, #31
    613e:	4611      	mov	r1, r2
    6140:	f7ff bb95 	b.w	586e <_vfiprintf_r+0x21e>
    6144:	9b0c      	ldr	r3, [sp, #48]	; 0x30
    6146:	f898 1000 	ldrb.w	r1, [r8]
    614a:	781b      	ldrb	r3, [r3, #0]
    614c:	2b00      	cmp	r3, #0
    614e:	f43f aaf1 	beq.w	5734 <_vfiprintf_r+0xe4>
    6152:	f446 6680 	orr.w	r6, r6, #1024	; 0x400
    6156:	f7ff baed 	b.w	5734 <_vfiprintf_r+0xe4>
    615a:	6812      	ldr	r2, [r2, #0]
    615c:	9307      	str	r3, [sp, #28]
    615e:	9b05      	ldr	r3, [sp, #20]
    6160:	6013      	str	r3, [r2, #0]
    6162:	17db      	asrs	r3, r3, #31
    6164:	6053      	str	r3, [r2, #4]
    6166:	f7ff babc 	b.w	56e2 <_vfiprintf_r+0x92>
    616a:	2302      	movs	r3, #2
    616c:	2201      	movs	r2, #1
    616e:	af1b      	add	r7, sp, #108	; 0x6c
    6170:	469c      	mov	ip, r3
    6172:	931c      	str	r3, [sp, #112]	; 0x70
    6174:	ab11      	add	r3, sp, #68	; 0x44
    6176:	931b      	str	r3, [sp, #108]	; 0x6c
    6178:	e6ca      	b.n	5f10 <_vfiprintf_r+0x8c0>
    617a:	9602      	str	r6, [sp, #8]
    617c:	e5af      	b.n	5cde <_vfiprintf_r+0x68e>
    617e:	4b45      	ldr	r3, [pc, #276]	; (6294 <_vfiprintf_r+0xc44>)
    6180:	930b      	str	r3, [sp, #44]	; 0x2c
    6182:	f016 0220 	ands.w	r2, r6, #32
    6186:	d060      	beq.n	624a <_vfiprintf_r+0xbfa>
    6188:	9b07      	ldr	r3, [sp, #28]
    618a:	3307      	adds	r3, #7
    618c:	f023 0307 	bic.w	r3, r3, #7
    6190:	4618      	mov	r0, r3
    6192:	685a      	ldr	r2, [r3, #4]
    6194:	f850 3b08 	ldr.w	r3, [r0], #8
    6198:	9007      	str	r0, [sp, #28]
    619a:	ea53 0002 	orrs.w	r0, r3, r2
    619e:	d008      	beq.n	61b2 <_vfiprintf_r+0xb62>
    61a0:	07f0      	lsls	r0, r6, #31
    61a2:	d506      	bpl.n	61b2 <_vfiprintf_r+0xb62>
    61a4:	f88d 1045 	strb.w	r1, [sp, #69]	; 0x45
    61a8:	f046 0602 	orr.w	r6, r6, #2
    61ac:	2130      	movs	r1, #48	; 0x30
    61ae:	f88d 1044 	strb.w	r1, [sp, #68]	; 0x44
    61b2:	f426 6180 	bic.w	r1, r6, #1024	; 0x400
    61b6:	9102      	str	r1, [sp, #8]
    61b8:	2102      	movs	r1, #2
    61ba:	f7ff bbaa 	b.w	5912 <_vfiprintf_r+0x2c2>
    61be:	4b36      	ldr	r3, [pc, #216]	; (6298 <_vfiprintf_r+0xc48>)
    61c0:	930b      	str	r3, [sp, #44]	; 0x2c
    61c2:	e7de      	b.n	6182 <_vfiprintf_r+0xb32>
    61c4:	9b07      	ldr	r3, [sp, #28]
    61c6:	ac2b      	add	r4, sp, #172	; 0xac
    61c8:	681b      	ldr	r3, [r3, #0]
    61ca:	f88d 30ac 	strb.w	r3, [sp, #172]	; 0xac
    61ce:	2301      	movs	r3, #1
    61d0:	9302      	str	r3, [sp, #8]
    61d2:	9304      	str	r3, [sp, #16]
    61d4:	e524      	b.n	5c20 <_vfiprintf_r+0x5d0>
    61d6:	f89d 2043 	ldrb.w	r2, [sp, #67]	; 0x43
    61da:	2a00      	cmp	r2, #0
    61dc:	f040 811e 	bne.w	641c <_vfiprintf_r+0xdcc>
    61e0:	9b09      	ldr	r3, [sp, #36]	; 0x24
    61e2:	2b00      	cmp	r3, #0
    61e4:	f47f ae8c 	bne.w	5f00 <_vfiprintf_r+0x8b0>
    61e8:	4662      	mov	r2, ip
    61ea:	2101      	movs	r1, #1
    61ec:	af1b      	add	r7, sp, #108	; 0x6c
    61ee:	e46c      	b.n	5aca <_vfiprintf_r+0x47a>
    61f0:	2208      	movs	r2, #8
    61f2:	2100      	movs	r1, #0
    61f4:	a816      	add	r0, sp, #88	; 0x58
    61f6:	9413      	str	r4, [sp, #76]	; 0x4c
    61f8:	f7ff f980 	bl	54fc <memset>
    61fc:	9b03      	ldr	r3, [sp, #12]
    61fe:	1c58      	adds	r0, r3, #1
    6200:	f000 80c8 	beq.w	6394 <_vfiprintf_r+0xd44>
    6204:	2500      	movs	r5, #0
    6206:	9407      	str	r4, [sp, #28]
    6208:	f8cd 8020 	str.w	r8, [sp, #32]
    620c:	46b8      	mov	r8, r7
    620e:	462c      	mov	r4, r5
    6210:	4637      	mov	r7, r6
    6212:	461e      	mov	r6, r3
    6214:	e00c      	b.n	6230 <_vfiprintf_r+0xbe0>
    6216:	a92b      	add	r1, sp, #172	; 0xac
    6218:	4658      	mov	r0, fp
    621a:	f000 f9d7 	bl	65cc <_wcrtomb_r>
    621e:	1c41      	adds	r1, r0, #1
    6220:	4420      	add	r0, r4
    6222:	f000 8159 	beq.w	64d8 <_vfiprintf_r+0xe88>
    6226:	42b0      	cmp	r0, r6
    6228:	dc08      	bgt.n	623c <_vfiprintf_r+0xbec>
    622a:	f000 815d 	beq.w	64e8 <_vfiprintf_r+0xe98>
    622e:	4604      	mov	r4, r0
    6230:	9a13      	ldr	r2, [sp, #76]	; 0x4c
    6232:	ab16      	add	r3, sp, #88	; 0x58
    6234:	5952      	ldr	r2, [r2, r5]
    6236:	3504      	adds	r5, #4
    6238:	2a00      	cmp	r2, #0
    623a:	d1ec      	bne.n	6216 <_vfiprintf_r+0xbc6>
    623c:	463e      	mov	r6, r7
    623e:	9404      	str	r4, [sp, #16]
    6240:	4647      	mov	r7, r8
    6242:	9c07      	ldr	r4, [sp, #28]
    6244:	f8dd 8020 	ldr.w	r8, [sp, #32]
    6248:	e0b2      	b.n	63b0 <_vfiprintf_r+0xd60>
    624a:	9807      	ldr	r0, [sp, #28]
    624c:	f850 3b04 	ldr.w	r3, [r0], #4
    6250:	9007      	str	r0, [sp, #28]
    6252:	f016 0010 	ands.w	r0, r6, #16
    6256:	d1a0      	bne.n	619a <_vfiprintf_r+0xb4a>
    6258:	f016 0440 	ands.w	r4, r6, #64	; 0x40
    625c:	f000 808b 	beq.w	6376 <_vfiprintf_r+0xd26>
    6260:	b29b      	uxth	r3, r3
    6262:	4602      	mov	r2, r0
    6264:	e799      	b.n	619a <_vfiprintf_r+0xb4a>
    6266:	9902      	ldr	r1, [sp, #8]
    6268:	f04f 0e00 	mov.w	lr, #0
    626c:	f50d 7c88 	add.w	ip, sp, #272	; 0x110
    6270:	ee08 aa90 	vmov	s17, sl
    6274:	f401 6180 	and.w	r1, r1, #1024	; 0x400
    6278:	46f2      	mov	sl, lr
    627a:	f8cd 8010 	str.w	r8, [sp, #16]
    627e:	46e6      	mov	lr, ip
    6280:	46b8      	mov	r8, r7
    6282:	4694      	mov	ip, r2
    6284:	ee08 ba10 	vmov	s16, fp
    6288:	460f      	mov	r7, r1
    628a:	461a      	mov	r2, r3
    628c:	e00d      	b.n	62aa <_vfiprintf_r+0xc5a>
    628e:	bf00      	nop
    6290:	00008794 	.word	0x00008794
    6294:	00008778 	.word	0x00008778
    6298:	00008764 	.word	0x00008764
    629c:	2a0a      	cmp	r2, #10
    629e:	f17c 0c00 	sbcs.w	ip, ip, #0
    62a2:	d339      	bcc.n	6318 <_vfiprintf_r+0xcc8>
    62a4:	4632      	mov	r2, r6
    62a6:	46ac      	mov	ip, r5
    62a8:	46a6      	mov	lr, r4
    62aa:	eb12 000c 	adds.w	r0, r2, ip
    62ae:	49a5      	ldr	r1, [pc, #660]	; (6544 <_vfiprintf_r+0xef4>)
    62b0:	f10a 0a01 	add.w	sl, sl, #1
    62b4:	f10e 34ff 	add.w	r4, lr, #4294967295	; 0xffffffff
    62b8:	f140 0000 	adc.w	r0, r0, #0
    62bc:	460b      	mov	r3, r1
    62be:	fba1 1500 	umull	r1, r5, r1, r0
    62c2:	f025 0103 	bic.w	r1, r5, #3
    62c6:	eb01 0195 	add.w	r1, r1, r5, lsr #2
    62ca:	f04f 35cc 	mov.w	r5, #3435973836	; 0xcccccccc
    62ce:	1a40      	subs	r0, r0, r1
    62d0:	1a11      	subs	r1, r2, r0
    62d2:	f16c 0600 	sbc.w	r6, ip, #0
    62d6:	fb05 f501 	mul.w	r5, r5, r1
    62da:	fb03 5506 	mla	r5, r3, r6, r5
    62de:	fba1 6103 	umull	r6, r1, r1, r3
    62e2:	2305      	movs	r3, #5
    62e4:	440d      	add	r5, r1
    62e6:	f006 0101 	and.w	r1, r6, #1
    62ea:	0876      	lsrs	r6, r6, #1
    62ec:	fba1 1b03 	umull	r1, fp, r1, r3
    62f0:	ea46 76c5 	orr.w	r6, r6, r5, lsl #31
    62f4:	1809      	adds	r1, r1, r0
    62f6:	086d      	lsrs	r5, r5, #1
    62f8:	3130      	adds	r1, #48	; 0x30
    62fa:	f80e 1c01 	strb.w	r1, [lr, #-1]
    62fe:	2f00      	cmp	r7, #0
    6300:	d0cc      	beq.n	629c <_vfiprintf_r+0xc4c>
    6302:	9b0c      	ldr	r3, [sp, #48]	; 0x30
    6304:	7819      	ldrb	r1, [r3, #0]
    6306:	29ff      	cmp	r1, #255	; 0xff
    6308:	d0c8      	beq.n	629c <_vfiprintf_r+0xc4c>
    630a:	4551      	cmp	r1, sl
    630c:	d1c6      	bne.n	629c <_vfiprintf_r+0xc4c>
    630e:	2a0a      	cmp	r2, #10
    6310:	f17c 0c00 	sbcs.w	ip, ip, #0
    6314:	f080 80ab 	bcs.w	646e <_vfiprintf_r+0xe1e>
    6318:	ab44      	add	r3, sp, #272	; 0x110
    631a:	4647      	mov	r7, r8
    631c:	ee18 ba10 	vmov	fp, s16
    6320:	f8dd 8010 	ldr.w	r8, [sp, #16]
    6324:	1b1b      	subs	r3, r3, r4
    6326:	ee18 aa90 	vmov	sl, s17
    632a:	9e02      	ldr	r6, [sp, #8]
    632c:	9304      	str	r3, [sp, #16]
    632e:	f7ff bb13 	b.w	5958 <_vfiprintf_r+0x308>
    6332:	f898 1001 	ldrb.w	r1, [r8, #1]
    6336:	f446 7600 	orr.w	r6, r6, #512	; 0x200
    633a:	f108 0801 	add.w	r8, r8, #1
    633e:	f7ff b9f9 	b.w	5734 <_vfiprintf_r+0xe4>
    6342:	f898 1001 	ldrb.w	r1, [r8, #1]
    6346:	f046 0620 	orr.w	r6, r6, #32
    634a:	f108 0801 	add.w	r8, r8, #1
    634e:	f7ff b9f1 	b.w	5734 <_vfiprintf_r+0xe4>
    6352:	9a07      	ldr	r2, [sp, #28]
    6354:	9905      	ldr	r1, [sp, #20]
    6356:	6812      	ldr	r2, [r2, #0]
    6358:	6011      	str	r1, [r2, #0]
    635a:	9307      	str	r3, [sp, #28]
    635c:	f7ff b9c1 	b.w	56e2 <_vfiprintf_r+0x92>
    6360:	9b03      	ldr	r3, [sp, #12]
    6362:	9a02      	ldr	r2, [sp, #8]
    6364:	2b06      	cmp	r3, #6
    6366:	4c78      	ldr	r4, [pc, #480]	; (6548 <_vfiprintf_r+0xef8>)
    6368:	9207      	str	r2, [sp, #28]
    636a:	bf28      	it	cs
    636c:	2306      	movcs	r3, #6
    636e:	9304      	str	r3, [sp, #16]
    6370:	9302      	str	r3, [sp, #8]
    6372:	f7ff bb5e 	b.w	5a32 <_vfiprintf_r+0x3e2>
    6376:	f416 7200 	ands.w	r2, r6, #512	; 0x200
    637a:	f43f af0e 	beq.w	619a <_vfiprintf_r+0xb4a>
    637e:	b2db      	uxtb	r3, r3
    6380:	4622      	mov	r2, r4
    6382:	e70a      	b.n	619a <_vfiprintf_r+0xb4a>
    6384:	f416 7200 	ands.w	r2, r6, #512	; 0x200
    6388:	f43f aabf 	beq.w	590a <_vfiprintf_r+0x2ba>
    638c:	b2db      	uxtb	r3, r3
    638e:	4602      	mov	r2, r0
    6390:	f7ff babb 	b.w	590a <_vfiprintf_r+0x2ba>
    6394:	ab16      	add	r3, sp, #88	; 0x58
    6396:	aa13      	add	r2, sp, #76	; 0x4c
    6398:	4658      	mov	r0, fp
    639a:	9300      	str	r3, [sp, #0]
    639c:	2300      	movs	r3, #0
    639e:	4619      	mov	r1, r3
    63a0:	f000 f93a 	bl	6618 <_wcsrtombs_r>
    63a4:	4603      	mov	r3, r0
    63a6:	9004      	str	r0, [sp, #16]
    63a8:	3301      	adds	r3, #1
    63aa:	f000 8095 	beq.w	64d8 <_vfiprintf_r+0xe88>
    63ae:	9413      	str	r4, [sp, #76]	; 0x4c
    63b0:	9b04      	ldr	r3, [sp, #16]
    63b2:	b303      	cbz	r3, 63f6 <_vfiprintf_r+0xda6>
    63b4:	2b63      	cmp	r3, #99	; 0x63
    63b6:	dc42      	bgt.n	643e <_vfiprintf_r+0xdee>
    63b8:	2300      	movs	r3, #0
    63ba:	ac2b      	add	r4, sp, #172	; 0xac
    63bc:	9308      	str	r3, [sp, #32]
    63be:	2208      	movs	r2, #8
    63c0:	2100      	movs	r1, #0
    63c2:	a816      	add	r0, sp, #88	; 0x58
    63c4:	f7ff f89a 	bl	54fc <memset>
    63c8:	9d04      	ldr	r5, [sp, #16]
    63ca:	ab16      	add	r3, sp, #88	; 0x58
    63cc:	aa13      	add	r2, sp, #76	; 0x4c
    63ce:	4621      	mov	r1, r4
    63d0:	4658      	mov	r0, fp
    63d2:	9300      	str	r3, [sp, #0]
    63d4:	462b      	mov	r3, r5
    63d6:	f000 f91f 	bl	6618 <_wcsrtombs_r>
    63da:	4285      	cmp	r5, r0
    63dc:	f040 80a9 	bne.w	6532 <_vfiprintf_r+0xee2>
    63e0:	9b02      	ldr	r3, [sp, #8]
    63e2:	9a04      	ldr	r2, [sp, #16]
    63e4:	9307      	str	r3, [sp, #28]
    63e6:	2300      	movs	r3, #0
    63e8:	54a3      	strb	r3, [r4, r2]
    63ea:	9303      	str	r3, [sp, #12]
    63ec:	ea22 73e2 	bic.w	r3, r2, r2, asr #31
    63f0:	9302      	str	r3, [sp, #8]
    63f2:	f7ff bab9 	b.w	5968 <_vfiprintf_r+0x318>
    63f6:	9b02      	ldr	r3, [sp, #8]
    63f8:	9307      	str	r3, [sp, #28]
    63fa:	9b04      	ldr	r3, [sp, #16]
    63fc:	e9cd 3302 	strd	r3, r3, [sp, #8]
    6400:	9308      	str	r3, [sp, #32]
    6402:	f7ff bab1 	b.w	5968 <_vfiprintf_r+0x318>
    6406:	2101      	movs	r1, #1
    6408:	4662      	mov	r2, ip
    640a:	af1b      	add	r7, sp, #108	; 0x6c
    640c:	f7ff bb5d 	b.w	5aca <_vfiprintf_r+0x47a>
    6410:	f343 12c0 	sbfx	r2, r3, #7, #1
    6414:	b25b      	sxtb	r3, r3
    6416:	4611      	mov	r1, r2
    6418:	f7ff ba29 	b.w	586e <_vfiprintf_r+0x21e>
    641c:	2301      	movs	r3, #1
    641e:	f10d 0243 	add.w	r2, sp, #67	; 0x43
    6422:	af1b      	add	r7, sp, #108	; 0x6c
    6424:	4619      	mov	r1, r3
    6426:	469c      	mov	ip, r3
    6428:	931c      	str	r3, [sp, #112]	; 0x70
    642a:	921b      	str	r2, [sp, #108]	; 0x6c
    642c:	f7ff bb29 	b.w	5a82 <_vfiprintf_r+0x432>
    6430:	9a07      	ldr	r2, [sp, #28]
    6432:	9905      	ldr	r1, [sp, #20]
    6434:	6812      	ldr	r2, [r2, #0]
    6436:	9307      	str	r3, [sp, #28]
    6438:	8011      	strh	r1, [r2, #0]
    643a:	f7ff b952 	b.w	56e2 <_vfiprintf_r+0x92>
    643e:	1c59      	adds	r1, r3, #1
    6440:	4658      	mov	r0, fp
    6442:	f7fe fd6d 	bl	4f20 <_malloc_r>
    6446:	4604      	mov	r4, r0
    6448:	2800      	cmp	r0, #0
    644a:	d045      	beq.n	64d8 <_vfiprintf_r+0xe88>
    644c:	9008      	str	r0, [sp, #32]
    644e:	e7b6      	b.n	63be <_vfiprintf_r+0xd6e>
    6450:	f8da 0058 	ldr.w	r0, [sl, #88]	; 0x58
    6454:	f000 feda 	bl	720c <__retarget_lock_release_recursive>
    6458:	f7ff ba3b 	b.w	58d2 <_vfiprintf_r+0x282>
    645c:	9b02      	ldr	r3, [sp, #8]
    645e:	9307      	str	r3, [sp, #28]
    6460:	9b03      	ldr	r3, [sp, #12]
    6462:	9302      	str	r3, [sp, #8]
    6464:	9304      	str	r3, [sp, #16]
    6466:	9b08      	ldr	r3, [sp, #32]
    6468:	9303      	str	r3, [sp, #12]
    646a:	f7ff ba7d 	b.w	5968 <_vfiprintf_r+0x318>
    646e:	9b0e      	ldr	r3, [sp, #56]	; 0x38
    6470:	990d      	ldr	r1, [sp, #52]	; 0x34
    6472:	1ae4      	subs	r4, r4, r3
    6474:	461a      	mov	r2, r3
    6476:	4620      	mov	r0, r4
    6478:	f001 fab0 	bl	79dc <strncpy>
    647c:	9b0c      	ldr	r3, [sp, #48]	; 0x30
    647e:	785a      	ldrb	r2, [r3, #1]
    6480:	b10a      	cbz	r2, 6486 <_vfiprintf_r+0xe36>
    6482:	3301      	adds	r3, #1
    6484:	930c      	str	r3, [sp, #48]	; 0x30
    6486:	f04f 0a00 	mov.w	sl, #0
    648a:	e70b      	b.n	62a4 <_vfiprintf_r+0xc54>
    648c:	9b02      	ldr	r3, [sp, #8]
    648e:	4620      	mov	r0, r4
    6490:	9503      	str	r5, [sp, #12]
    6492:	9307      	str	r3, [sp, #28]
    6494:	f001 fa74 	bl	7980 <strlen>
    6498:	ea20 73e0 	bic.w	r3, r0, r0, asr #31
    649c:	9004      	str	r0, [sp, #16]
    649e:	9508      	str	r5, [sp, #32]
    64a0:	9302      	str	r3, [sp, #8]
    64a2:	f7ff ba61 	b.w	5968 <_vfiprintf_r+0x318>
    64a6:	2300      	movs	r3, #0
    64a8:	9303      	str	r3, [sp, #12]
    64aa:	f7ff b945 	b.w	5738 <_vfiprintf_r+0xe8>
    64ae:	4686      	mov	lr, r0
    64b0:	e55f      	b.n	5f72 <_vfiprintf_r+0x922>
    64b2:	aa18      	add	r2, sp, #96	; 0x60
    64b4:	4651      	mov	r1, sl
    64b6:	4658      	mov	r0, fp
    64b8:	f7ff f890 	bl	55dc <__sprint_r.part.0>
    64bc:	2800      	cmp	r0, #0
    64be:	f43f aa87 	beq.w	59d0 <_vfiprintf_r+0x380>
    64c2:	f7ff ba9a 	b.w	59fa <_vfiprintf_r+0x3aa>
    64c6:	1c48      	adds	r0, r1, #1
    64c8:	e5a0      	b.n	600c <_vfiprintf_r+0x9bc>
    64ca:	4608      	mov	r0, r1
    64cc:	e4b0      	b.n	5e30 <_vfiprintf_r+0x7e0>
    64ce:	f04f 33ff 	mov.w	r3, #4294967295	; 0xffffffff
    64d2:	9305      	str	r3, [sp, #20]
    64d4:	f7ff ba9c 	b.w	5a10 <_vfiprintf_r+0x3c0>
    64d8:	f9ba 300c 	ldrsh.w	r3, [sl, #12]
    64dc:	f043 0340 	orr.w	r3, r3, #64	; 0x40
    64e0:	f8aa 300c 	strh.w	r3, [sl, #12]
    64e4:	f7ff ba8b 	b.w	59fe <_vfiprintf_r+0x3ae>
    64e8:	9b03      	ldr	r3, [sp, #12]
    64ea:	463e      	mov	r6, r7
    64ec:	9c07      	ldr	r4, [sp, #28]
    64ee:	4647      	mov	r7, r8
    64f0:	9304      	str	r3, [sp, #16]
    64f2:	f8dd 8020 	ldr.w	r8, [sp, #32]
    64f6:	e75b      	b.n	63b0 <_vfiprintf_r+0xd60>
    64f8:	9b07      	ldr	r3, [sp, #28]
    64fa:	f898 1001 	ldrb.w	r1, [r8, #1]
    64fe:	4690      	mov	r8, r2
    6500:	f853 2b04 	ldr.w	r2, [r3], #4
    6504:	ea42 72e2 	orr.w	r2, r2, r2, asr #31
    6508:	9307      	str	r3, [sp, #28]
    650a:	9203      	str	r2, [sp, #12]
    650c:	f7ff b912 	b.w	5734 <_vfiprintf_r+0xe4>
    6510:	f8da 3064 	ldr.w	r3, [sl, #100]	; 0x64
    6514:	07dd      	lsls	r5, r3, #31
    6516:	d4da      	bmi.n	64ce <_vfiprintf_r+0xe7e>
    6518:	f8ba 300c 	ldrh.w	r3, [sl, #12]
    651c:	059c      	lsls	r4, r3, #22
    651e:	d4d6      	bmi.n	64ce <_vfiprintf_r+0xe7e>
    6520:	f04f 33ff 	mov.w	r3, #4294967295	; 0xffffffff
    6524:	f8da 0058 	ldr.w	r0, [sl, #88]	; 0x58
    6528:	9305      	str	r3, [sp, #20]
    652a:	f000 fe6f 	bl	720c <__retarget_lock_release_recursive>
    652e:	f7ff ba6f 	b.w	5a10 <_vfiprintf_r+0x3c0>
    6532:	f8ba 300c 	ldrh.w	r3, [sl, #12]
    6536:	f043 0340 	orr.w	r3, r3, #64	; 0x40
    653a:	f8aa 300c 	strh.w	r3, [sl, #12]
    653e:	f7ff ba56 	b.w	59ee <_vfiprintf_r+0x39e>
    6542:	bf00      	nop
    6544:	cccccccd 	.word	0xcccccccd
    6548:	0000878c 	.word	0x0000878c

0000654c <__sbprintf>:
    654c:	b570      	push	{r4, r5, r6, lr}
    654e:	460c      	mov	r4, r1
    6550:	8989      	ldrh	r1, [r1, #12]
    6552:	f5ad 6d8e 	sub.w	sp, sp, #1136	; 0x470
    6556:	4606      	mov	r6, r0
    6558:	f021 0102 	bic.w	r1, r1, #2
    655c:	a818      	add	r0, sp, #96	; 0x60
    655e:	f8ad 1014 	strh.w	r1, [sp, #20]
    6562:	6e61      	ldr	r1, [r4, #100]	; 0x64
    6564:	911b      	str	r1, [sp, #108]	; 0x6c
    6566:	89e1      	ldrh	r1, [r4, #14]
    6568:	f8ad 1016 	strh.w	r1, [sp, #22]
    656c:	69e1      	ldr	r1, [r4, #28]
    656e:	9109      	str	r1, [sp, #36]	; 0x24
    6570:	6a61      	ldr	r1, [r4, #36]	; 0x24
    6572:	910b      	str	r1, [sp, #44]	; 0x2c
    6574:	a91c      	add	r1, sp, #112	; 0x70
    6576:	9102      	str	r1, [sp, #8]
    6578:	9106      	str	r1, [sp, #24]
    657a:	f44f 6180 	mov.w	r1, #1024	; 0x400
    657e:	9104      	str	r1, [sp, #16]
    6580:	9107      	str	r1, [sp, #28]
    6582:	2100      	movs	r1, #0
    6584:	e9cd 3200 	strd	r3, r2, [sp]
    6588:	9108      	str	r1, [sp, #32]
    658a:	f000 fe39 	bl	7200 <__retarget_lock_init_recursive>
    658e:	a902      	add	r1, sp, #8
    6590:	4630      	mov	r0, r6
    6592:	e9dd 3200 	ldrd	r3, r2, [sp]
    6596:	f7ff f85b 	bl	5650 <_vfiprintf_r>
    659a:	1e05      	subs	r5, r0, #0
    659c:	db07      	blt.n	65ae <__sbprintf+0x62>
    659e:	a902      	add	r1, sp, #8
    65a0:	4630      	mov	r0, r6
    65a2:	f000 f9cb 	bl	693c <_fflush_r>
    65a6:	2800      	cmp	r0, #0
    65a8:	bf18      	it	ne
    65aa:	f04f 35ff 	movne.w	r5, #4294967295	; 0xffffffff
    65ae:	f8bd 3014 	ldrh.w	r3, [sp, #20]
    65b2:	065b      	lsls	r3, r3, #25
    65b4:	d503      	bpl.n	65be <__sbprintf+0x72>
    65b6:	89a3      	ldrh	r3, [r4, #12]
    65b8:	f043 0340 	orr.w	r3, r3, #64	; 0x40
    65bc:	81a3      	strh	r3, [r4, #12]
    65be:	9818      	ldr	r0, [sp, #96]	; 0x60
    65c0:	f000 fe20 	bl	7204 <__retarget_lock_close_recursive>
    65c4:	4628      	mov	r0, r5
    65c6:	f50d 6d8e 	add.w	sp, sp, #1136	; 0x470
    65ca:	bd70      	pop	{r4, r5, r6, pc}

000065cc <_wcrtomb_r>:
    65cc:	b570      	push	{r4, r5, r6, lr}
    65ce:	4605      	mov	r5, r0
    65d0:	b084      	sub	sp, #16
    65d2:	b15b      	cbz	r3, 65ec <_wcrtomb_r+0x20>
    65d4:	461c      	mov	r4, r3
    65d6:	4b0f      	ldr	r3, [pc, #60]	; (6614 <_wcrtomb_r+0x48>)
    65d8:	f8d3 60e0 	ldr.w	r6, [r3, #224]	; 0xe0
    65dc:	4623      	mov	r3, r4
    65de:	b169      	cbz	r1, 65fc <_wcrtomb_r+0x30>
    65e0:	4628      	mov	r0, r5
    65e2:	47b0      	blx	r6
    65e4:	1c43      	adds	r3, r0, #1
    65e6:	d00f      	beq.n	6608 <_wcrtomb_r+0x3c>
    65e8:	b004      	add	sp, #16
    65ea:	bd70      	pop	{r4, r5, r6, pc}
    65ec:	4b09      	ldr	r3, [pc, #36]	; (6614 <_wcrtomb_r+0x48>)
    65ee:	f500 748a 	add.w	r4, r0, #276	; 0x114
    65f2:	f8d3 60e0 	ldr.w	r6, [r3, #224]	; 0xe0
    65f6:	4623      	mov	r3, r4
    65f8:	2900      	cmp	r1, #0
    65fa:	d1f1      	bne.n	65e0 <_wcrtomb_r+0x14>
    65fc:	460a      	mov	r2, r1
    65fe:	4628      	mov	r0, r5
    6600:	a901      	add	r1, sp, #4
    6602:	47b0      	blx	r6
    6604:	1c43      	adds	r3, r0, #1
    6606:	d1ef      	bne.n	65e8 <_wcrtomb_r+0x1c>
    6608:	2200      	movs	r2, #0
    660a:	238a      	movs	r3, #138	; 0x8a
    660c:	6022      	str	r2, [r4, #0]
    660e:	602b      	str	r3, [r5, #0]
    6610:	b004      	add	sp, #16
    6612:	bd70      	pop	{r4, r5, r6, pc}
    6614:	2000084c 	.word	0x2000084c

00006618 <_wcsrtombs_r>:
    6618:	b510      	push	{r4, lr}
    661a:	b082      	sub	sp, #8
    661c:	9c04      	ldr	r4, [sp, #16]
    661e:	9300      	str	r3, [sp, #0]
    6620:	f04f 33ff 	mov.w	r3, #4294967295	; 0xffffffff
    6624:	9401      	str	r4, [sp, #4]
    6626:	f001 fae7 	bl	7bf8 <_wcsnrtombs_r>
    662a:	b002      	add	sp, #8
    662c:	bd10      	pop	{r4, pc}
    662e:	bf00      	nop

00006630 <__swsetup_r>:
    6630:	b538      	push	{r3, r4, r5, lr}
    6632:	4b33      	ldr	r3, [pc, #204]	; (6700 <__swsetup_r+0xd0>)
    6634:	4605      	mov	r5, r0
    6636:	460c      	mov	r4, r1
    6638:	681b      	ldr	r3, [r3, #0]
    663a:	b10b      	cbz	r3, 6640 <__swsetup_r+0x10>
    663c:	6b9a      	ldr	r2, [r3, #56]	; 0x38
    663e:	b1da      	cbz	r2, 6678 <__swsetup_r+0x48>
    6640:	f9b4 300c 	ldrsh.w	r3, [r4, #12]
    6644:	0718      	lsls	r0, r3, #28
    6646:	b29a      	uxth	r2, r3
    6648:	d51e      	bpl.n	6688 <__swsetup_r+0x58>
    664a:	6921      	ldr	r1, [r4, #16]
    664c:	b339      	cbz	r1, 669e <__swsetup_r+0x6e>
    664e:	f012 0001 	ands.w	r0, r2, #1
    6652:	d007      	beq.n	6664 <__swsetup_r+0x34>
    6654:	2000      	movs	r0, #0
    6656:	60a0      	str	r0, [r4, #8]
    6658:	6960      	ldr	r0, [r4, #20]
    665a:	4240      	negs	r0, r0
    665c:	61a0      	str	r0, [r4, #24]
    665e:	b139      	cbz	r1, 6670 <__swsetup_r+0x40>
    6660:	2000      	movs	r0, #0
    6662:	bd38      	pop	{r3, r4, r5, pc}
    6664:	0795      	lsls	r5, r2, #30
    6666:	bf58      	it	pl
    6668:	6960      	ldrpl	r0, [r4, #20]
    666a:	60a0      	str	r0, [r4, #8]
    666c:	2900      	cmp	r1, #0
    666e:	d1f7      	bne.n	6660 <__swsetup_r+0x30>
    6670:	0612      	lsls	r2, r2, #24
    6672:	d43e      	bmi.n	66f2 <__swsetup_r+0xc2>
    6674:	4608      	mov	r0, r1
    6676:	bd38      	pop	{r3, r4, r5, pc}
    6678:	4618      	mov	r0, r3
    667a:	f000 f993 	bl	69a4 <__sinit>
    667e:	f9b4 300c 	ldrsh.w	r3, [r4, #12]
    6682:	0718      	lsls	r0, r3, #28
    6684:	b29a      	uxth	r2, r3
    6686:	d4e0      	bmi.n	664a <__swsetup_r+0x1a>
    6688:	06d1      	lsls	r1, r2, #27
    668a:	d52a      	bpl.n	66e2 <__swsetup_r+0xb2>
    668c:	0752      	lsls	r2, r2, #29
    668e:	d414      	bmi.n	66ba <__swsetup_r+0x8a>
    6690:	6921      	ldr	r1, [r4, #16]
    6692:	f043 0308 	orr.w	r3, r3, #8
    6696:	b29a      	uxth	r2, r3
    6698:	81a3      	strh	r3, [r4, #12]
    669a:	2900      	cmp	r1, #0
    669c:	d1d7      	bne.n	664e <__swsetup_r+0x1e>
    669e:	f402 7020 	and.w	r0, r2, #640	; 0x280
    66a2:	f5b0 7f00 	cmp.w	r0, #512	; 0x200
    66a6:	d0d2      	beq.n	664e <__swsetup_r+0x1e>
    66a8:	4621      	mov	r1, r4
    66aa:	4628      	mov	r0, r5
    66ac:	f000 fdb0 	bl	7210 <__smakebuf_r>
    66b0:	f9b4 300c 	ldrsh.w	r3, [r4, #12]
    66b4:	6921      	ldr	r1, [r4, #16]
    66b6:	b29a      	uxth	r2, r3
    66b8:	e7c9      	b.n	664e <__swsetup_r+0x1e>
    66ba:	6b21      	ldr	r1, [r4, #48]	; 0x30
    66bc:	b151      	cbz	r1, 66d4 <__swsetup_r+0xa4>
    66be:	f104 0240 	add.w	r2, r4, #64	; 0x40
    66c2:	4291      	cmp	r1, r2
    66c4:	d004      	beq.n	66d0 <__swsetup_r+0xa0>
    66c6:	4628      	mov	r0, r5
    66c8:	f000 fae8 	bl	6c9c <_free_r>
    66cc:	f9b4 300c 	ldrsh.w	r3, [r4, #12]
    66d0:	2200      	movs	r2, #0
    66d2:	6322      	str	r2, [r4, #48]	; 0x30
    66d4:	2200      	movs	r2, #0
    66d6:	6921      	ldr	r1, [r4, #16]
    66d8:	f023 0324 	bic.w	r3, r3, #36	; 0x24
    66dc:	e9c4 1200 	strd	r1, r2, [r4]
    66e0:	e7d7      	b.n	6692 <__swsetup_r+0x62>
    66e2:	2209      	movs	r2, #9
    66e4:	f043 0340 	orr.w	r3, r3, #64	; 0x40
    66e8:	f04f 30ff 	mov.w	r0, #4294967295	; 0xffffffff
    66ec:	602a      	str	r2, [r5, #0]
    66ee:	81a3      	strh	r3, [r4, #12]
    66f0:	bd38      	pop	{r3, r4, r5, pc}
    66f2:	f043 0340 	orr.w	r3, r3, #64	; 0x40
    66f6:	f04f 30ff 	mov.w	r0, #4294967295	; 0xffffffff
    66fa:	81a3      	strh	r3, [r4, #12]
    66fc:	bd38      	pop	{r3, r4, r5, pc}
    66fe:	bf00      	nop
    6700:	2000000c 	.word	0x2000000c

00006704 <register_fini>:
    6704:	4b02      	ldr	r3, [pc, #8]	; (6710 <register_fini+0xc>)
    6706:	b113      	cbz	r3, 670e <register_fini+0xa>
    6708:	4802      	ldr	r0, [pc, #8]	; (6714 <register_fini+0x10>)
    670a:	f000 b86b 	b.w	67e4 <atexit>
    670e:	4770      	bx	lr
    6710:	00000000 	.word	0x00000000
    6714:	00006acd 	.word	0x00006acd

00006718 <__call_exitprocs>:
    6718:	e92d 4ff8 	stmdb	sp!, {r3, r4, r5, r6, r7, r8, r9, sl, fp, lr}
    671c:	4b2b      	ldr	r3, [pc, #172]	; (67cc <__call_exitprocs+0xb4>)
    671e:	4683      	mov	fp, r0
    6720:	460f      	mov	r7, r1
    6722:	6818      	ldr	r0, [r3, #0]
    6724:	ed2d 8b02 	vpush	{d8}
    6728:	f000 fd6e 	bl	7208 <__retarget_lock_acquire_recursive>
    672c:	4b28      	ldr	r3, [pc, #160]	; (67d0 <__call_exitprocs+0xb8>)
    672e:	f8d3 8000 	ldr.w	r8, [r3]
    6732:	f8d8 6148 	ldr.w	r6, [r8, #328]	; 0x148
    6736:	b1a6      	cbz	r6, 6762 <__call_exitprocs+0x4a>
    6738:	ee08 ba10 	vmov	s16, fp
    673c:	f04f 0901 	mov.w	r9, #1
    6740:	f04f 0a00 	mov.w	sl, #0
    6744:	6874      	ldr	r4, [r6, #4]
    6746:	1e65      	subs	r5, r4, #1
    6748:	d40b      	bmi.n	6762 <__call_exitprocs+0x4a>
    674a:	3401      	adds	r4, #1
    674c:	eb06 0484 	add.w	r4, r6, r4, lsl #2
    6750:	b17f      	cbz	r7, 6772 <__call_exitprocs+0x5a>
    6752:	f8d4 3100 	ldr.w	r3, [r4, #256]	; 0x100
    6756:	42bb      	cmp	r3, r7
    6758:	d00b      	beq.n	6772 <__call_exitprocs+0x5a>
    675a:	3d01      	subs	r5, #1
    675c:	3c04      	subs	r4, #4
    675e:	1c6b      	adds	r3, r5, #1
    6760:	d1f6      	bne.n	6750 <__call_exitprocs+0x38>
    6762:	4b1a      	ldr	r3, [pc, #104]	; (67cc <__call_exitprocs+0xb4>)
    6764:	ecbd 8b02 	vpop	{d8}
    6768:	6818      	ldr	r0, [r3, #0]
    676a:	e8bd 4ff8 	ldmia.w	sp!, {r3, r4, r5, r6, r7, r8, r9, sl, fp, lr}
    676e:	f000 bd4d 	b.w	720c <__retarget_lock_release_recursive>
    6772:	6873      	ldr	r3, [r6, #4]
    6774:	6822      	ldr	r2, [r4, #0]
    6776:	3b01      	subs	r3, #1
    6778:	42ab      	cmp	r3, r5
    677a:	bf0c      	ite	eq
    677c:	6075      	streq	r5, [r6, #4]
    677e:	f8c4 a000 	strne.w	sl, [r4]
    6782:	2a00      	cmp	r2, #0
    6784:	d0e9      	beq.n	675a <__call_exitprocs+0x42>
    6786:	fa09 fc05 	lsl.w	ip, r9, r5
    678a:	f8d6 1188 	ldr.w	r1, [r6, #392]	; 0x188
    678e:	f8d6 b004 	ldr.w	fp, [r6, #4]
    6792:	ea1c 0f01 	tst.w	ip, r1
    6796:	d10b      	bne.n	67b0 <__call_exitprocs+0x98>
    6798:	4790      	blx	r2
    679a:	6871      	ldr	r1, [r6, #4]
    679c:	f8d8 2148 	ldr.w	r2, [r8, #328]	; 0x148
    67a0:	4559      	cmp	r1, fp
    67a2:	d101      	bne.n	67a8 <__call_exitprocs+0x90>
    67a4:	42b2      	cmp	r2, r6
    67a6:	d0d8      	beq.n	675a <__call_exitprocs+0x42>
    67a8:	2a00      	cmp	r2, #0
    67aa:	d0da      	beq.n	6762 <__call_exitprocs+0x4a>
    67ac:	4616      	mov	r6, r2
    67ae:	e7c9      	b.n	6744 <__call_exitprocs+0x2c>
    67b0:	f8d6 318c 	ldr.w	r3, [r6, #396]	; 0x18c
    67b4:	f8d4 1080 	ldr.w	r1, [r4, #128]	; 0x80
    67b8:	ea1c 0f03 	tst.w	ip, r3
    67bc:	d103      	bne.n	67c6 <__call_exitprocs+0xae>
    67be:	ee18 0a10 	vmov	r0, s16
    67c2:	4790      	blx	r2
    67c4:	e7e9      	b.n	679a <__call_exitprocs+0x82>
    67c6:	4608      	mov	r0, r1
    67c8:	4790      	blx	r2
    67ca:	e7e6      	b.n	679a <__call_exitprocs+0x82>
    67cc:	20000848 	.word	0x20000848
    67d0:	00008760 	.word	0x00008760

000067d4 <abort>:
    67d4:	2006      	movs	r0, #6
    67d6:	b508      	push	{r3, lr}
    67d8:	f001 f844 	bl	7864 <raise>
    67dc:	2001      	movs	r0, #1
    67de:	f001 fba3 	bl	7f28 <_exit>
    67e2:	bf00      	nop

000067e4 <atexit>:
    67e4:	2300      	movs	r3, #0
    67e6:	4601      	mov	r1, r0
    67e8:	461a      	mov	r2, r3
    67ea:	4618      	mov	r0, r3
    67ec:	f001 ba3a 	b.w	7c64 <__register_exitproc>

000067f0 <__sflush_r>:
    67f0:	f9b1 200c 	ldrsh.w	r2, [r1, #12]
    67f4:	e92d 41f0 	stmdb	sp!, {r4, r5, r6, r7, r8, lr}
    67f8:	460c      	mov	r4, r1
    67fa:	0711      	lsls	r1, r2, #28
    67fc:	4680      	mov	r8, r0
    67fe:	d433      	bmi.n	6868 <__sflush_r+0x78>
    6800:	6863      	ldr	r3, [r4, #4]
    6802:	f442 6200 	orr.w	r2, r2, #2048	; 0x800
    6806:	2b00      	cmp	r3, #0
    6808:	81a2      	strh	r2, [r4, #12]
    680a:	dd4b      	ble.n	68a4 <__sflush_r+0xb4>
    680c:	6aa5      	ldr	r5, [r4, #40]	; 0x28
    680e:	2d00      	cmp	r5, #0
    6810:	d045      	beq.n	689e <__sflush_r+0xae>
    6812:	2300      	movs	r3, #0
    6814:	f8d8 6000 	ldr.w	r6, [r8]
    6818:	69e1      	ldr	r1, [r4, #28]
    681a:	f8c8 3000 	str.w	r3, [r8]
    681e:	b293      	uxth	r3, r2
    6820:	f412 5280 	ands.w	r2, r2, #4096	; 0x1000
    6824:	d142      	bne.n	68ac <__sflush_r+0xbc>
    6826:	2301      	movs	r3, #1
    6828:	4640      	mov	r0, r8
    682a:	47a8      	blx	r5
    682c:	1c43      	adds	r3, r0, #1
    682e:	d072      	beq.n	6916 <__sflush_r+0x126>
    6830:	89a3      	ldrh	r3, [r4, #12]
    6832:	6aa5      	ldr	r5, [r4, #40]	; 0x28
    6834:	69e1      	ldr	r1, [r4, #28]
    6836:	075f      	lsls	r7, r3, #29
    6838:	d505      	bpl.n	6846 <__sflush_r+0x56>
    683a:	6863      	ldr	r3, [r4, #4]
    683c:	1ac0      	subs	r0, r0, r3
    683e:	6b23      	ldr	r3, [r4, #48]	; 0x30
    6840:	b10b      	cbz	r3, 6846 <__sflush_r+0x56>
    6842:	6be3      	ldr	r3, [r4, #60]	; 0x3c
    6844:	1ac0      	subs	r0, r0, r3
    6846:	4602      	mov	r2, r0
    6848:	2300      	movs	r3, #0
    684a:	4640      	mov	r0, r8
    684c:	47a8      	blx	r5
    684e:	1c45      	adds	r5, r0, #1
    6850:	d132      	bne.n	68b8 <__sflush_r+0xc8>
    6852:	f8d8 1000 	ldr.w	r1, [r8]
    6856:	291d      	cmp	r1, #29
    6858:	d94b      	bls.n	68f2 <__sflush_r+0x102>
    685a:	f9b4 300c 	ldrsh.w	r3, [r4, #12]
    685e:	f043 0340 	orr.w	r3, r3, #64	; 0x40
    6862:	81a3      	strh	r3, [r4, #12]
    6864:	e8bd 81f0 	ldmia.w	sp!, {r4, r5, r6, r7, r8, pc}
    6868:	6926      	ldr	r6, [r4, #16]
    686a:	b1c6      	cbz	r6, 689e <__sflush_r+0xae>
    686c:	b293      	uxth	r3, r2
    686e:	6825      	ldr	r5, [r4, #0]
    6870:	6026      	str	r6, [r4, #0]
    6872:	0799      	lsls	r1, r3, #30
    6874:	eba5 0506 	sub.w	r5, r5, r6
    6878:	bf0c      	ite	eq
    687a:	6963      	ldreq	r3, [r4, #20]
    687c:	2300      	movne	r3, #0
    687e:	60a3      	str	r3, [r4, #8]
    6880:	e00b      	b.n	689a <__sflush_r+0xaa>
    6882:	462b      	mov	r3, r5
    6884:	4632      	mov	r2, r6
    6886:	69e1      	ldr	r1, [r4, #28]
    6888:	4640      	mov	r0, r8
    688a:	6a67      	ldr	r7, [r4, #36]	; 0x24
    688c:	47b8      	blx	r7
    688e:	f1b0 0c00 	subs.w	ip, r0, #0
    6892:	eba5 050c 	sub.w	r5, r5, ip
    6896:	4466      	add	r6, ip
    6898:	dd0a      	ble.n	68b0 <__sflush_r+0xc0>
    689a:	2d00      	cmp	r5, #0
    689c:	dcf1      	bgt.n	6882 <__sflush_r+0x92>
    689e:	2000      	movs	r0, #0
    68a0:	e8bd 81f0 	ldmia.w	sp!, {r4, r5, r6, r7, r8, pc}
    68a4:	6be3      	ldr	r3, [r4, #60]	; 0x3c
    68a6:	2b00      	cmp	r3, #0
    68a8:	dcb0      	bgt.n	680c <__sflush_r+0x1c>
    68aa:	e7f8      	b.n	689e <__sflush_r+0xae>
    68ac:	6d20      	ldr	r0, [r4, #80]	; 0x50
    68ae:	e7c2      	b.n	6836 <__sflush_r+0x46>
    68b0:	89a3      	ldrh	r3, [r4, #12]
    68b2:	f04f 30ff 	mov.w	r0, #4294967295	; 0xffffffff
    68b6:	e7d2      	b.n	685e <__sflush_r+0x6e>
    68b8:	f9b4 300c 	ldrsh.w	r3, [r4, #12]
    68bc:	2200      	movs	r2, #0
    68be:	f423 6300 	bic.w	r3, r3, #2048	; 0x800
    68c2:	6062      	str	r2, [r4, #4]
    68c4:	6922      	ldr	r2, [r4, #16]
    68c6:	81a3      	strh	r3, [r4, #12]
    68c8:	6022      	str	r2, [r4, #0]
    68ca:	04da      	lsls	r2, r3, #19
    68cc:	d500      	bpl.n	68d0 <__sflush_r+0xe0>
    68ce:	6520      	str	r0, [r4, #80]	; 0x50
    68d0:	6b21      	ldr	r1, [r4, #48]	; 0x30
    68d2:	f8c8 6000 	str.w	r6, [r8]
    68d6:	2900      	cmp	r1, #0
    68d8:	d0e1      	beq.n	689e <__sflush_r+0xae>
    68da:	f104 0340 	add.w	r3, r4, #64	; 0x40
    68de:	4299      	cmp	r1, r3
    68e0:	d002      	beq.n	68e8 <__sflush_r+0xf8>
    68e2:	4640      	mov	r0, r8
    68e4:	f000 f9da 	bl	6c9c <_free_r>
    68e8:	2300      	movs	r3, #0
    68ea:	4618      	mov	r0, r3
    68ec:	6323      	str	r3, [r4, #48]	; 0x30
    68ee:	e8bd 81f0 	ldmia.w	sp!, {r4, r5, r6, r7, r8, pc}
    68f2:	4a11      	ldr	r2, [pc, #68]	; (6938 <__sflush_r+0x148>)
    68f4:	f9b4 300c 	ldrsh.w	r3, [r4, #12]
    68f8:	410a      	asrs	r2, r1
    68fa:	f012 0201 	ands.w	r2, r2, #1
    68fe:	d1ae      	bne.n	685e <__sflush_r+0x6e>
    6900:	f423 6300 	bic.w	r3, r3, #2048	; 0x800
    6904:	6062      	str	r2, [r4, #4]
    6906:	6922      	ldr	r2, [r4, #16]
    6908:	81a3      	strh	r3, [r4, #12]
    690a:	04db      	lsls	r3, r3, #19
    690c:	6022      	str	r2, [r4, #0]
    690e:	d5df      	bpl.n	68d0 <__sflush_r+0xe0>
    6910:	2900      	cmp	r1, #0
    6912:	d1dd      	bne.n	68d0 <__sflush_r+0xe0>
    6914:	e7db      	b.n	68ce <__sflush_r+0xde>
    6916:	f8d8 3000 	ldr.w	r3, [r8]
    691a:	2b00      	cmp	r3, #0
    691c:	d088      	beq.n	6830 <__sflush_r+0x40>
    691e:	2b1d      	cmp	r3, #29
    6920:	d006      	beq.n	6930 <__sflush_r+0x140>
    6922:	2b16      	cmp	r3, #22
    6924:	d004      	beq.n	6930 <__sflush_r+0x140>
    6926:	89a3      	ldrh	r3, [r4, #12]
    6928:	f043 0340 	orr.w	r3, r3, #64	; 0x40
    692c:	81a3      	strh	r3, [r4, #12]
    692e:	e7b7      	b.n	68a0 <__sflush_r+0xb0>
    6930:	2000      	movs	r0, #0
    6932:	f8c8 6000 	str.w	r6, [r8]
    6936:	e7b3      	b.n	68a0 <__sflush_r+0xb0>
    6938:	dfbffffe 	.word	0xdfbffffe

0000693c <_fflush_r>:
    693c:	b538      	push	{r3, r4, r5, lr}
    693e:	4605      	mov	r5, r0
    6940:	460c      	mov	r4, r1
    6942:	b108      	cbz	r0, 6948 <_fflush_r+0xc>
    6944:	6b83      	ldr	r3, [r0, #56]	; 0x38
    6946:	b1a3      	cbz	r3, 6972 <_fflush_r+0x36>
    6948:	f9b4 000c 	ldrsh.w	r0, [r4, #12]
    694c:	b1b8      	cbz	r0, 697e <_fflush_r+0x42>
    694e:	6e63      	ldr	r3, [r4, #100]	; 0x64
    6950:	07db      	lsls	r3, r3, #31
    6952:	d401      	bmi.n	6958 <_fflush_r+0x1c>
    6954:	0581      	lsls	r1, r0, #22
    6956:	d515      	bpl.n	6984 <_fflush_r+0x48>
    6958:	4628      	mov	r0, r5
    695a:	4621      	mov	r1, r4
    695c:	f7ff ff48 	bl	67f0 <__sflush_r>
    6960:	6e63      	ldr	r3, [r4, #100]	; 0x64
    6962:	4605      	mov	r5, r0
    6964:	07da      	lsls	r2, r3, #31
    6966:	d402      	bmi.n	696e <_fflush_r+0x32>
    6968:	89a3      	ldrh	r3, [r4, #12]
    696a:	059b      	lsls	r3, r3, #22
    696c:	d50e      	bpl.n	698c <_fflush_r+0x50>
    696e:	4628      	mov	r0, r5
    6970:	bd38      	pop	{r3, r4, r5, pc}
    6972:	f000 f817 	bl	69a4 <__sinit>
    6976:	f9b4 000c 	ldrsh.w	r0, [r4, #12]
    697a:	2800      	cmp	r0, #0
    697c:	d1e7      	bne.n	694e <_fflush_r+0x12>
    697e:	4605      	mov	r5, r0
    6980:	4628      	mov	r0, r5
    6982:	bd38      	pop	{r3, r4, r5, pc}
    6984:	6da0      	ldr	r0, [r4, #88]	; 0x58
    6986:	f000 fc3f 	bl	7208 <__retarget_lock_acquire_recursive>
    698a:	e7e5      	b.n	6958 <_fflush_r+0x1c>
    698c:	6da0      	ldr	r0, [r4, #88]	; 0x58
    698e:	f000 fc3d 	bl	720c <__retarget_lock_release_recursive>
    6992:	4628      	mov	r0, r5
    6994:	bd38      	pop	{r3, r4, r5, pc}
    6996:	bf00      	nop

00006998 <_cleanup_r>:
    6998:	4901      	ldr	r1, [pc, #4]	; (69a0 <_cleanup_r+0x8>)
    699a:	f000 bc05 	b.w	71a8 <_fwalk_reent>
    699e:	bf00      	nop
    69a0:	00007d11 	.word	0x00007d11

000069a4 <__sinit>:
    69a4:	e92d 47f0 	stmdb	sp!, {r4, r5, r6, r7, r8, r9, sl, lr}
    69a8:	4682      	mov	sl, r0
    69aa:	483a      	ldr	r0, [pc, #232]	; (6a94 <__sinit+0xf0>)
    69ac:	f000 fc2c 	bl	7208 <__retarget_lock_acquire_recursive>
    69b0:	f8da 4038 	ldr.w	r4, [sl, #56]	; 0x38
    69b4:	2c00      	cmp	r4, #0
    69b6:	d168      	bne.n	6a8a <__sinit+0xe6>
    69b8:	4a37      	ldr	r2, [pc, #220]	; (6a98 <__sinit+0xf4>)
    69ba:	2303      	movs	r3, #3
    69bc:	f8da 5004 	ldr.w	r5, [sl, #4]
    69c0:	4621      	mov	r1, r4
    69c2:	f8ca 203c 	str.w	r2, [sl, #60]	; 0x3c
    69c6:	f50a 723b 	add.w	r2, sl, #748	; 0x2ec
    69ca:	f8ca 32e4 	str.w	r3, [sl, #740]	; 0x2e4
    69ce:	2304      	movs	r3, #4
    69d0:	f8df 90d8 	ldr.w	r9, [pc, #216]	; 6aac <__sinit+0x108>
    69d4:	f105 005c 	add.w	r0, r5, #92	; 0x5c
    69d8:	f8df 80d4 	ldr.w	r8, [pc, #212]	; 6ab0 <__sinit+0x10c>
    69dc:	4f2f      	ldr	r7, [pc, #188]	; (6a9c <__sinit+0xf8>)
    69de:	4e30      	ldr	r6, [pc, #192]	; (6aa0 <__sinit+0xfc>)
    69e0:	f8ca 22e8 	str.w	r2, [sl, #744]	; 0x2e8
    69e4:	2208      	movs	r2, #8
    69e6:	f8ca 42e0 	str.w	r4, [sl, #736]	; 0x2e0
    69ea:	666c      	str	r4, [r5, #100]	; 0x64
    69ec:	61ac      	str	r4, [r5, #24]
    69ee:	e9c5 4302 	strd	r4, r3, [r5, #8]
    69f2:	e9c5 4400 	strd	r4, r4, [r5]
    69f6:	e9c5 4404 	strd	r4, r4, [r5, #16]
    69fa:	f7fe fd7f 	bl	54fc <memset>
    69fe:	f105 0058 	add.w	r0, r5, #88	; 0x58
    6a02:	62ee      	str	r6, [r5, #44]	; 0x2c
    6a04:	e9c5 5907 	strd	r5, r9, [r5, #28]
    6a08:	e9c5 8709 	strd	r8, r7, [r5, #36]	; 0x24
    6a0c:	f000 fbf8 	bl	7200 <__retarget_lock_init_recursive>
    6a10:	f8da 5008 	ldr.w	r5, [sl, #8]
    6a14:	4b23      	ldr	r3, [pc, #140]	; (6aa4 <__sinit+0x100>)
    6a16:	4621      	mov	r1, r4
    6a18:	2208      	movs	r2, #8
    6a1a:	666c      	str	r4, [r5, #100]	; 0x64
    6a1c:	60eb      	str	r3, [r5, #12]
    6a1e:	f105 005c 	add.w	r0, r5, #92	; 0x5c
    6a22:	60ac      	str	r4, [r5, #8]
    6a24:	61ac      	str	r4, [r5, #24]
    6a26:	e9c5 4400 	strd	r4, r4, [r5]
    6a2a:	e9c5 4404 	strd	r4, r4, [r5, #16]
    6a2e:	f7fe fd65 	bl	54fc <memset>
    6a32:	f105 0058 	add.w	r0, r5, #88	; 0x58
    6a36:	62ee      	str	r6, [r5, #44]	; 0x2c
    6a38:	e9c5 5907 	strd	r5, r9, [r5, #28]
    6a3c:	e9c5 8709 	strd	r8, r7, [r5, #36]	; 0x24
    6a40:	f000 fbde 	bl	7200 <__retarget_lock_init_recursive>
    6a44:	f8da 500c 	ldr.w	r5, [sl, #12]
    6a48:	4b17      	ldr	r3, [pc, #92]	; (6aa8 <__sinit+0x104>)
    6a4a:	4621      	mov	r1, r4
    6a4c:	2208      	movs	r2, #8
    6a4e:	f105 005c 	add.w	r0, r5, #92	; 0x5c
    6a52:	60eb      	str	r3, [r5, #12]
    6a54:	666c      	str	r4, [r5, #100]	; 0x64
    6a56:	60ac      	str	r4, [r5, #8]
    6a58:	61ac      	str	r4, [r5, #24]
    6a5a:	e9c5 4400 	strd	r4, r4, [r5]
    6a5e:	e9c5 4404 	strd	r4, r4, [r5, #16]
    6a62:	f7fe fd4b 	bl	54fc <memset>
    6a66:	f105 0058 	add.w	r0, r5, #88	; 0x58
    6a6a:	f8c5 8024 	str.w	r8, [r5, #36]	; 0x24
    6a6e:	e9c5 5907 	strd	r5, r9, [r5, #28]
    6a72:	e9c5 760a 	strd	r7, r6, [r5, #40]	; 0x28
    6a76:	f000 fbc3 	bl	7200 <__retarget_lock_init_recursive>
    6a7a:	2301      	movs	r3, #1
    6a7c:	4805      	ldr	r0, [pc, #20]	; (6a94 <__sinit+0xf0>)
    6a7e:	f8ca 3038 	str.w	r3, [sl, #56]	; 0x38
    6a82:	e8bd 47f0 	ldmia.w	sp!, {r4, r5, r6, r7, r8, r9, sl, lr}
    6a86:	f000 bbc1 	b.w	720c <__retarget_lock_release_recursive>
    6a8a:	4802      	ldr	r0, [pc, #8]	; (6a94 <__sinit+0xf0>)
    6a8c:	e8bd 47f0 	ldmia.w	sp!, {r4, r5, r6, r7, r8, r9, sl, lr}
    6a90:	f000 bbbc 	b.w	720c <__retarget_lock_release_recursive>
    6a94:	20003448 	.word	0x20003448
    6a98:	00006999 	.word	0x00006999
    6a9c:	00007955 	.word	0x00007955
    6aa0:	00007979 	.word	0x00007979
    6aa4:	00010009 	.word	0x00010009
    6aa8:	00020012 	.word	0x00020012
    6aac:	000078f1 	.word	0x000078f1
    6ab0:	00007915 	.word	0x00007915

00006ab4 <__sfp_lock_acquire>:
    6ab4:	4801      	ldr	r0, [pc, #4]	; (6abc <__sfp_lock_acquire+0x8>)
    6ab6:	f000 bba7 	b.w	7208 <__retarget_lock_acquire_recursive>
    6aba:	bf00      	nop
    6abc:	20003444 	.word	0x20003444

00006ac0 <__sfp_lock_release>:
    6ac0:	4801      	ldr	r0, [pc, #4]	; (6ac8 <__sfp_lock_release+0x8>)
    6ac2:	f000 bba3 	b.w	720c <__retarget_lock_release_recursive>
    6ac6:	bf00      	nop
    6ac8:	20003444 	.word	0x20003444

00006acc <__libc_fini_array>:
    6acc:	b538      	push	{r3, r4, r5, lr}
    6ace:	4d07      	ldr	r5, [pc, #28]	; (6aec <__libc_fini_array+0x20>)
    6ad0:	4c07      	ldr	r4, [pc, #28]	; (6af0 <__libc_fini_array+0x24>)
    6ad2:	1b2c      	subs	r4, r5, r4
    6ad4:	10a4      	asrs	r4, r4, #2
    6ad6:	d005      	beq.n	6ae4 <__libc_fini_array+0x18>
    6ad8:	3c01      	subs	r4, #1
    6ada:	f855 3d04 	ldr.w	r3, [r5, #-4]!
    6ade:	4798      	blx	r3
    6ae0:	2c00      	cmp	r4, #0
    6ae2:	d1f9      	bne.n	6ad8 <__libc_fini_array+0xc>
    6ae4:	e8bd 4038 	ldmia.w	sp!, {r3, r4, r5, lr}
    6ae8:	f001 bf10 	b.w	890c <_fini>
    6aec:	0000892c 	.word	0x0000892c
    6af0:	00008928 	.word	0x00008928

00006af4 <__fputwc>:
    6af4:	e92d 47f0 	stmdb	sp!, {r4, r5, r6, r7, r8, r9, sl, lr}
    6af8:	b082      	sub	sp, #8
    6afa:	4682      	mov	sl, r0
    6afc:	4688      	mov	r8, r1
    6afe:	4614      	mov	r4, r2
    6b00:	f000 fb74 	bl	71ec <__locale_mb_cur_max>
    6b04:	2801      	cmp	r0, #1
    6b06:	d103      	bne.n	6b10 <__fputwc+0x1c>
    6b08:	f108 33ff 	add.w	r3, r8, #4294967295	; 0xffffffff
    6b0c:	2bfe      	cmp	r3, #254	; 0xfe
    6b0e:	d932      	bls.n	6b76 <__fputwc+0x82>
    6b10:	466d      	mov	r5, sp
    6b12:	4642      	mov	r2, r8
    6b14:	f104 035c 	add.w	r3, r4, #92	; 0x5c
    6b18:	4650      	mov	r0, sl
    6b1a:	4629      	mov	r1, r5
    6b1c:	f7ff fd56 	bl	65cc <_wcrtomb_r>
    6b20:	1c42      	adds	r2, r0, #1
    6b22:	4606      	mov	r6, r0
    6b24:	d033      	beq.n	6b8e <__fputwc+0x9a>
    6b26:	b368      	cbz	r0, 6b84 <__fputwc+0x90>
    6b28:	f89d c000 	ldrb.w	ip, [sp]
    6b2c:	f1c5 0901 	rsb	r9, r5, #1
    6b30:	e00d      	b.n	6b4e <__fputwc+0x5a>
    6b32:	f1bc 0f0a 	cmp.w	ip, #10
    6b36:	d015      	beq.n	6b64 <__fputwc+0x70>
    6b38:	6823      	ldr	r3, [r4, #0]
    6b3a:	1c5a      	adds	r2, r3, #1
    6b3c:	6022      	str	r2, [r4, #0]
    6b3e:	f883 c000 	strb.w	ip, [r3]
    6b42:	eb09 0305 	add.w	r3, r9, r5
    6b46:	429e      	cmp	r6, r3
    6b48:	d91c      	bls.n	6b84 <__fputwc+0x90>
    6b4a:	f815 cf01 	ldrb.w	ip, [r5, #1]!
    6b4e:	68a3      	ldr	r3, [r4, #8]
    6b50:	3b01      	subs	r3, #1
    6b52:	2b00      	cmp	r3, #0
    6b54:	60a3      	str	r3, [r4, #8]
    6b56:	daef      	bge.n	6b38 <__fputwc+0x44>
    6b58:	69a7      	ldr	r7, [r4, #24]
    6b5a:	4661      	mov	r1, ip
    6b5c:	4622      	mov	r2, r4
    6b5e:	4650      	mov	r0, sl
    6b60:	42bb      	cmp	r3, r7
    6b62:	dae6      	bge.n	6b32 <__fputwc+0x3e>
    6b64:	f000 ff6c 	bl	7a40 <__swbuf_r>
    6b68:	1c43      	adds	r3, r0, #1
    6b6a:	d1ea      	bne.n	6b42 <__fputwc+0x4e>
    6b6c:	4606      	mov	r6, r0
    6b6e:	4630      	mov	r0, r6
    6b70:	b002      	add	sp, #8
    6b72:	e8bd 87f0 	ldmia.w	sp!, {r4, r5, r6, r7, r8, r9, sl, pc}
    6b76:	fa5f fc88 	uxtb.w	ip, r8
    6b7a:	4606      	mov	r6, r0
    6b7c:	466d      	mov	r5, sp
    6b7e:	f88d c000 	strb.w	ip, [sp]
    6b82:	e7d3      	b.n	6b2c <__fputwc+0x38>
    6b84:	4646      	mov	r6, r8
    6b86:	4630      	mov	r0, r6
    6b88:	b002      	add	sp, #8
    6b8a:	e8bd 87f0 	ldmia.w	sp!, {r4, r5, r6, r7, r8, r9, sl, pc}
    6b8e:	89a3      	ldrh	r3, [r4, #12]
    6b90:	f043 0340 	orr.w	r3, r3, #64	; 0x40
    6b94:	81a3      	strh	r3, [r4, #12]
    6b96:	e7ea      	b.n	6b6e <__fputwc+0x7a>

00006b98 <_fputwc_r>:
    6b98:	b530      	push	{r4, r5, lr}
    6b9a:	4614      	mov	r4, r2
    6b9c:	4605      	mov	r5, r0
    6b9e:	f9b2 300c 	ldrsh.w	r3, [r2, #12]
    6ba2:	b083      	sub	sp, #12
    6ba4:	6e60      	ldr	r0, [r4, #100]	; 0x64
    6ba6:	b29a      	uxth	r2, r3
    6ba8:	07c0      	lsls	r0, r0, #31
    6baa:	d401      	bmi.n	6bb0 <_fputwc_r+0x18>
    6bac:	0590      	lsls	r0, r2, #22
    6bae:	d51c      	bpl.n	6bea <_fputwc_r+0x52>
    6bb0:	0490      	lsls	r0, r2, #18
    6bb2:	d406      	bmi.n	6bc2 <_fputwc_r+0x2a>
    6bb4:	6e62      	ldr	r2, [r4, #100]	; 0x64
    6bb6:	f443 5300 	orr.w	r3, r3, #8192	; 0x2000
    6bba:	f442 5200 	orr.w	r2, r2, #8192	; 0x2000
    6bbe:	81a3      	strh	r3, [r4, #12]
    6bc0:	6662      	str	r2, [r4, #100]	; 0x64
    6bc2:	4622      	mov	r2, r4
    6bc4:	4628      	mov	r0, r5
    6bc6:	f7ff ff95 	bl	6af4 <__fputwc>
    6bca:	6e63      	ldr	r3, [r4, #100]	; 0x64
    6bcc:	4605      	mov	r5, r0
    6bce:	07da      	lsls	r2, r3, #31
    6bd0:	d402      	bmi.n	6bd8 <_fputwc_r+0x40>
    6bd2:	89a3      	ldrh	r3, [r4, #12]
    6bd4:	059b      	lsls	r3, r3, #22
    6bd6:	d502      	bpl.n	6bde <_fputwc_r+0x46>
    6bd8:	4628      	mov	r0, r5
    6bda:	b003      	add	sp, #12
    6bdc:	bd30      	pop	{r4, r5, pc}
    6bde:	6da0      	ldr	r0, [r4, #88]	; 0x58
    6be0:	f000 fb14 	bl	720c <__retarget_lock_release_recursive>
    6be4:	4628      	mov	r0, r5
    6be6:	b003      	add	sp, #12
    6be8:	bd30      	pop	{r4, r5, pc}
    6bea:	6da0      	ldr	r0, [r4, #88]	; 0x58
    6bec:	9101      	str	r1, [sp, #4]
    6bee:	f000 fb0b 	bl	7208 <__retarget_lock_acquire_recursive>
    6bf2:	f9b4 300c 	ldrsh.w	r3, [r4, #12]
    6bf6:	9901      	ldr	r1, [sp, #4]
    6bf8:	b29a      	uxth	r2, r3
    6bfa:	e7d9      	b.n	6bb0 <_fputwc_r+0x18>

00006bfc <_malloc_trim_r>:
    6bfc:	b5f8      	push	{r3, r4, r5, r6, r7, lr}
    6bfe:	4f23      	ldr	r7, [pc, #140]	; (6c8c <_malloc_trim_r+0x90>)
    6c00:	460c      	mov	r4, r1
    6c02:	4606      	mov	r6, r0
    6c04:	f7fe fccc 	bl	55a0 <__malloc_lock>
    6c08:	68ba      	ldr	r2, [r7, #8]
    6c0a:	f640 73ef 	movw	r3, #4079	; 0xfef
    6c0e:	6855      	ldr	r5, [r2, #4]
    6c10:	1b1b      	subs	r3, r3, r4
    6c12:	4c1f      	ldr	r4, [pc, #124]	; (6c90 <_malloc_trim_r+0x94>)
    6c14:	f025 0503 	bic.w	r5, r5, #3
    6c18:	442b      	add	r3, r5
    6c1a:	401c      	ands	r4, r3
    6c1c:	f5a4 5480 	sub.w	r4, r4, #4096	; 0x1000
    6c20:	f5b4 5f80 	cmp.w	r4, #4096	; 0x1000
    6c24:	db07      	blt.n	6c36 <_malloc_trim_r+0x3a>
    6c26:	2100      	movs	r1, #0
    6c28:	4630      	mov	r0, r6
    6c2a:	f7fe fcc5 	bl	55b8 <_sbrk_r>
    6c2e:	68bb      	ldr	r3, [r7, #8]
    6c30:	442b      	add	r3, r5
    6c32:	4298      	cmp	r0, r3
    6c34:	d004      	beq.n	6c40 <_malloc_trim_r+0x44>
    6c36:	4630      	mov	r0, r6
    6c38:	f7fe fcb8 	bl	55ac <__malloc_unlock>
    6c3c:	2000      	movs	r0, #0
    6c3e:	bdf8      	pop	{r3, r4, r5, r6, r7, pc}
    6c40:	4261      	negs	r1, r4
    6c42:	4630      	mov	r0, r6
    6c44:	f7fe fcb8 	bl	55b8 <_sbrk_r>
    6c48:	3001      	adds	r0, #1
    6c4a:	d00d      	beq.n	6c68 <_malloc_trim_r+0x6c>
    6c4c:	1b2d      	subs	r5, r5, r4
    6c4e:	4a11      	ldr	r2, [pc, #68]	; (6c94 <_malloc_trim_r+0x98>)
    6c50:	68bb      	ldr	r3, [r7, #8]
    6c52:	4630      	mov	r0, r6
    6c54:	f045 0501 	orr.w	r5, r5, #1
    6c58:	605d      	str	r5, [r3, #4]
    6c5a:	6813      	ldr	r3, [r2, #0]
    6c5c:	1b1b      	subs	r3, r3, r4
    6c5e:	6013      	str	r3, [r2, #0]
    6c60:	f7fe fca4 	bl	55ac <__malloc_unlock>
    6c64:	2001      	movs	r0, #1
    6c66:	bdf8      	pop	{r3, r4, r5, r6, r7, pc}
    6c68:	2100      	movs	r1, #0
    6c6a:	4630      	mov	r0, r6
    6c6c:	f7fe fca4 	bl	55b8 <_sbrk_r>
    6c70:	68ba      	ldr	r2, [r7, #8]
    6c72:	1a83      	subs	r3, r0, r2
    6c74:	2b0f      	cmp	r3, #15
    6c76:	ddde      	ble.n	6c36 <_malloc_trim_r+0x3a>
    6c78:	f043 0301 	orr.w	r3, r3, #1
    6c7c:	4905      	ldr	r1, [pc, #20]	; (6c94 <_malloc_trim_r+0x98>)
    6c7e:	6053      	str	r3, [r2, #4]
    6c80:	4b05      	ldr	r3, [pc, #20]	; (6c98 <_malloc_trim_r+0x9c>)
    6c82:	681b      	ldr	r3, [r3, #0]
    6c84:	1ac0      	subs	r0, r0, r3
    6c86:	6008      	str	r0, [r1, #0]
    6c88:	e7d5      	b.n	6c36 <_malloc_trim_r+0x3a>
    6c8a:	bf00      	nop
    6c8c:	20000438 	.word	0x20000438
    6c90:	fffff000 	.word	0xfffff000
    6c94:	20003408 	.word	0x20003408
    6c98:	20000840 	.word	0x20000840

00006c9c <_free_r>:
    6c9c:	2900      	cmp	r1, #0
    6c9e:	d05f      	beq.n	6d60 <_free_r+0xc4>
    6ca0:	e92d 41f0 	stmdb	sp!, {r4, r5, r6, r7, r8, lr}
    6ca4:	460c      	mov	r4, r1
    6ca6:	4680      	mov	r8, r0
    6ca8:	f7fe fc7a 	bl	55a0 <__malloc_lock>
    6cac:	4f76      	ldr	r7, [pc, #472]	; (6e88 <_free_r+0x1ec>)
    6cae:	f854 3c04 	ldr.w	r3, [r4, #-4]
    6cb2:	f1a4 0508 	sub.w	r5, r4, #8
    6cb6:	68be      	ldr	r6, [r7, #8]
    6cb8:	f023 0101 	bic.w	r1, r3, #1
    6cbc:	186a      	adds	r2, r5, r1
    6cbe:	6850      	ldr	r0, [r2, #4]
    6cc0:	4296      	cmp	r6, r2
    6cc2:	f020 0003 	bic.w	r0, r0, #3
    6cc6:	f000 8086 	beq.w	6dd6 <_free_r+0x13a>
    6cca:	07de      	lsls	r6, r3, #31
    6ccc:	eb02 0c00 	add.w	ip, r2, r0
    6cd0:	6050      	str	r0, [r2, #4]
    6cd2:	d433      	bmi.n	6d3c <_free_r+0xa0>
    6cd4:	f854 4c08 	ldr.w	r4, [r4, #-8]
    6cd8:	f8dc 3004 	ldr.w	r3, [ip, #4]
    6cdc:	f107 0c08 	add.w	ip, r7, #8
    6ce0:	1b2d      	subs	r5, r5, r4
    6ce2:	4421      	add	r1, r4
    6ce4:	f003 0301 	and.w	r3, r3, #1
    6ce8:	68ac      	ldr	r4, [r5, #8]
    6cea:	4564      	cmp	r4, ip
    6cec:	d063      	beq.n	6db6 <_free_r+0x11a>
    6cee:	f8d5 e00c 	ldr.w	lr, [r5, #12]
    6cf2:	f8c4 e00c 	str.w	lr, [r4, #12]
    6cf6:	f8ce 4008 	str.w	r4, [lr, #8]
    6cfa:	2b00      	cmp	r3, #0
    6cfc:	f000 808f 	beq.w	6e1e <_free_r+0x182>
    6d00:	f041 0301 	orr.w	r3, r1, #1
    6d04:	606b      	str	r3, [r5, #4]
    6d06:	6011      	str	r1, [r2, #0]
    6d08:	f5b1 7f00 	cmp.w	r1, #512	; 0x200
    6d0c:	d231      	bcs.n	6d72 <_free_r+0xd6>
    6d0e:	08cb      	lsrs	r3, r1, #3
    6d10:	2201      	movs	r2, #1
    6d12:	0949      	lsrs	r1, r1, #5
    6d14:	3301      	adds	r3, #1
    6d16:	408a      	lsls	r2, r1
    6d18:	6879      	ldr	r1, [r7, #4]
    6d1a:	430a      	orrs	r2, r1
    6d1c:	f857 1033 	ldr.w	r1, [r7, r3, lsl #3]
    6d20:	607a      	str	r2, [r7, #4]
    6d22:	eb07 02c3 	add.w	r2, r7, r3, lsl #3
    6d26:	3a08      	subs	r2, #8
    6d28:	e9c5 1202 	strd	r1, r2, [r5, #8]
    6d2c:	f847 5033 	str.w	r5, [r7, r3, lsl #3]
    6d30:	60cd      	str	r5, [r1, #12]
    6d32:	4640      	mov	r0, r8
    6d34:	e8bd 41f0 	ldmia.w	sp!, {r4, r5, r6, r7, r8, lr}
    6d38:	f7fe bc38 	b.w	55ac <__malloc_unlock>
    6d3c:	f8dc 3004 	ldr.w	r3, [ip, #4]
    6d40:	07db      	lsls	r3, r3, #31
    6d42:	d40e      	bmi.n	6d62 <_free_r+0xc6>
    6d44:	4401      	add	r1, r0
    6d46:	f107 0c08 	add.w	ip, r7, #8
    6d4a:	6893      	ldr	r3, [r2, #8]
    6d4c:	f041 0001 	orr.w	r0, r1, #1
    6d50:	4563      	cmp	r3, ip
    6d52:	d06c      	beq.n	6e2e <_free_r+0x192>
    6d54:	68d2      	ldr	r2, [r2, #12]
    6d56:	60da      	str	r2, [r3, #12]
    6d58:	6093      	str	r3, [r2, #8]
    6d5a:	6068      	str	r0, [r5, #4]
    6d5c:	5069      	str	r1, [r5, r1]
    6d5e:	e7d3      	b.n	6d08 <_free_r+0x6c>
    6d60:	4770      	bx	lr
    6d62:	f041 0301 	orr.w	r3, r1, #1
    6d66:	f5b1 7f00 	cmp.w	r1, #512	; 0x200
    6d6a:	f844 3c04 	str.w	r3, [r4, #-4]
    6d6e:	6011      	str	r1, [r2, #0]
    6d70:	d3cd      	bcc.n	6d0e <_free_r+0x72>
    6d72:	f5b1 6f20 	cmp.w	r1, #2560	; 0xa00
    6d76:	ea4f 2351 	mov.w	r3, r1, lsr #9
    6d7a:	d245      	bcs.n	6e08 <_free_r+0x16c>
    6d7c:	098b      	lsrs	r3, r1, #6
    6d7e:	f103 0039 	add.w	r0, r3, #57	; 0x39
    6d82:	f103 0238 	add.w	r2, r3, #56	; 0x38
    6d86:	00c3      	lsls	r3, r0, #3
    6d88:	18f8      	adds	r0, r7, r3
    6d8a:	58fb      	ldr	r3, [r7, r3]
    6d8c:	3808      	subs	r0, #8
    6d8e:	4298      	cmp	r0, r3
    6d90:	d054      	beq.n	6e3c <_free_r+0x1a0>
    6d92:	685a      	ldr	r2, [r3, #4]
    6d94:	f022 0203 	bic.w	r2, r2, #3
    6d98:	428a      	cmp	r2, r1
    6d9a:	d902      	bls.n	6da2 <_free_r+0x106>
    6d9c:	689b      	ldr	r3, [r3, #8]
    6d9e:	4298      	cmp	r0, r3
    6da0:	d1f7      	bne.n	6d92 <_free_r+0xf6>
    6da2:	68d8      	ldr	r0, [r3, #12]
    6da4:	e9c5 3002 	strd	r3, r0, [r5, #8]
    6da8:	6085      	str	r5, [r0, #8]
    6daa:	4640      	mov	r0, r8
    6dac:	60dd      	str	r5, [r3, #12]
    6dae:	e8bd 41f0 	ldmia.w	sp!, {r4, r5, r6, r7, r8, lr}
    6db2:	f7fe bbfb 	b.w	55ac <__malloc_unlock>
    6db6:	2b00      	cmp	r3, #0
    6db8:	d161      	bne.n	6e7e <_free_r+0x1e2>
    6dba:	4408      	add	r0, r1
    6dbc:	e9d2 2302 	ldrd	r2, r3, [r2, #8]
    6dc0:	60d3      	str	r3, [r2, #12]
    6dc2:	609a      	str	r2, [r3, #8]
    6dc4:	f040 0301 	orr.w	r3, r0, #1
    6dc8:	606b      	str	r3, [r5, #4]
    6dca:	5028      	str	r0, [r5, r0]
    6dcc:	4640      	mov	r0, r8
    6dce:	e8bd 41f0 	ldmia.w	sp!, {r4, r5, r6, r7, r8, lr}
    6dd2:	f7fe bbeb 	b.w	55ac <__malloc_unlock>
    6dd6:	07db      	lsls	r3, r3, #31
    6dd8:	4408      	add	r0, r1
    6dda:	d407      	bmi.n	6dec <_free_r+0x150>
    6ddc:	f854 3c08 	ldr.w	r3, [r4, #-8]
    6de0:	1aed      	subs	r5, r5, r3
    6de2:	4418      	add	r0, r3
    6de4:	e9d5 2302 	ldrd	r2, r3, [r5, #8]
    6de8:	60d3      	str	r3, [r2, #12]
    6dea:	609a      	str	r2, [r3, #8]
    6dec:	f040 0301 	orr.w	r3, r0, #1
    6df0:	606b      	str	r3, [r5, #4]
    6df2:	4b26      	ldr	r3, [pc, #152]	; (6e8c <_free_r+0x1f0>)
    6df4:	60bd      	str	r5, [r7, #8]
    6df6:	681b      	ldr	r3, [r3, #0]
    6df8:	4283      	cmp	r3, r0
    6dfa:	d89a      	bhi.n	6d32 <_free_r+0x96>
    6dfc:	4b24      	ldr	r3, [pc, #144]	; (6e90 <_free_r+0x1f4>)
    6dfe:	4640      	mov	r0, r8
    6e00:	6819      	ldr	r1, [r3, #0]
    6e02:	f7ff fefb 	bl	6bfc <_malloc_trim_r>
    6e06:	e794      	b.n	6d32 <_free_r+0x96>
    6e08:	2b14      	cmp	r3, #20
    6e0a:	d90a      	bls.n	6e22 <_free_r+0x186>
    6e0c:	2b54      	cmp	r3, #84	; 0x54
    6e0e:	d81d      	bhi.n	6e4c <_free_r+0x1b0>
    6e10:	0b0b      	lsrs	r3, r1, #12
    6e12:	f103 006f 	add.w	r0, r3, #111	; 0x6f
    6e16:	f103 026e 	add.w	r2, r3, #110	; 0x6e
    6e1a:	00c3      	lsls	r3, r0, #3
    6e1c:	e7b4      	b.n	6d88 <_free_r+0xec>
    6e1e:	4401      	add	r1, r0
    6e20:	e793      	b.n	6d4a <_free_r+0xae>
    6e22:	f103 005c 	add.w	r0, r3, #92	; 0x5c
    6e26:	f103 025b 	add.w	r2, r3, #91	; 0x5b
    6e2a:	00c3      	lsls	r3, r0, #3
    6e2c:	e7ac      	b.n	6d88 <_free_r+0xec>
    6e2e:	e9c7 5504 	strd	r5, r5, [r7, #16]
    6e32:	e9c5 cc02 	strd	ip, ip, [r5, #8]
    6e36:	6068      	str	r0, [r5, #4]
    6e38:	5069      	str	r1, [r5, r1]
    6e3a:	e77a      	b.n	6d32 <_free_r+0x96>
    6e3c:	2101      	movs	r1, #1
    6e3e:	1092      	asrs	r2, r2, #2
    6e40:	fa01 f202 	lsl.w	r2, r1, r2
    6e44:	6879      	ldr	r1, [r7, #4]
    6e46:	430a      	orrs	r2, r1
    6e48:	607a      	str	r2, [r7, #4]
    6e4a:	e7ab      	b.n	6da4 <_free_r+0x108>
    6e4c:	f5b3 7faa 	cmp.w	r3, #340	; 0x154
    6e50:	d806      	bhi.n	6e60 <_free_r+0x1c4>
    6e52:	0bcb      	lsrs	r3, r1, #15
    6e54:	f103 0078 	add.w	r0, r3, #120	; 0x78
    6e58:	f103 0277 	add.w	r2, r3, #119	; 0x77
    6e5c:	00c3      	lsls	r3, r0, #3
    6e5e:	e793      	b.n	6d88 <_free_r+0xec>
    6e60:	f240 5254 	movw	r2, #1364	; 0x554
    6e64:	4293      	cmp	r3, r2
    6e66:	d806      	bhi.n	6e76 <_free_r+0x1da>
    6e68:	0c8b      	lsrs	r3, r1, #18
    6e6a:	f103 007d 	add.w	r0, r3, #125	; 0x7d
    6e6e:	f103 027c 	add.w	r2, r3, #124	; 0x7c
    6e72:	00c3      	lsls	r3, r0, #3
    6e74:	e788      	b.n	6d88 <_free_r+0xec>
    6e76:	f44f 737e 	mov.w	r3, #1016	; 0x3f8
    6e7a:	227e      	movs	r2, #126	; 0x7e
    6e7c:	e784      	b.n	6d88 <_free_r+0xec>
    6e7e:	f041 0301 	orr.w	r3, r1, #1
    6e82:	606b      	str	r3, [r5, #4]
    6e84:	6011      	str	r1, [r2, #0]
    6e86:	e754      	b.n	6d32 <_free_r+0x96>
    6e88:	20000438 	.word	0x20000438
    6e8c:	20000844 	.word	0x20000844
    6e90:	20003438 	.word	0x20003438

00006e94 <__sfvwrite_r>:
    6e94:	6893      	ldr	r3, [r2, #8]
    6e96:	2b00      	cmp	r3, #0
    6e98:	f000 80ff 	beq.w	709a <__sfvwrite_r+0x206>
    6e9c:	f9b1 300c 	ldrsh.w	r3, [r1, #12]
    6ea0:	fa1f fc83 	uxth.w	ip, r3
    6ea4:	071b      	lsls	r3, r3, #28
    6ea6:	e92d 4ff0 	stmdb	sp!, {r4, r5, r6, r7, r8, r9, sl, fp, lr}
    6eaa:	4690      	mov	r8, r2
    6eac:	b083      	sub	sp, #12
    6eae:	4681      	mov	r9, r0
    6eb0:	460c      	mov	r4, r1
    6eb2:	d531      	bpl.n	6f18 <__sfvwrite_r+0x84>
    6eb4:	690b      	ldr	r3, [r1, #16]
    6eb6:	b37b      	cbz	r3, 6f18 <__sfvwrite_r+0x84>
    6eb8:	f01c 0702 	ands.w	r7, ip, #2
    6ebc:	f8d8 6000 	ldr.w	r6, [r8]
    6ec0:	d03a      	beq.n	6f38 <__sfvwrite_r+0xa4>
    6ec2:	2700      	movs	r7, #0
    6ec4:	f8d4 b024 	ldr.w	fp, [r4, #36]	; 0x24
    6ec8:	69e1      	ldr	r1, [r4, #28]
    6eca:	f8df a2d8 	ldr.w	sl, [pc, #728]	; 71a4 <__sfvwrite_r+0x310>
    6ece:	463d      	mov	r5, r7
    6ed0:	4555      	cmp	r5, sl
    6ed2:	462b      	mov	r3, r5
    6ed4:	463a      	mov	r2, r7
    6ed6:	4648      	mov	r0, r9
    6ed8:	bf28      	it	cs
    6eda:	4653      	movcs	r3, sl
    6edc:	b1c5      	cbz	r5, 6f10 <__sfvwrite_r+0x7c>
    6ede:	47d8      	blx	fp
    6ee0:	2800      	cmp	r0, #0
    6ee2:	f340 80d0 	ble.w	7086 <__sfvwrite_r+0x1f2>
    6ee6:	f8d8 3008 	ldr.w	r3, [r8, #8]
    6eea:	4407      	add	r7, r0
    6eec:	1a2d      	subs	r5, r5, r0
    6eee:	1a1b      	subs	r3, r3, r0
    6ef0:	f8c8 3008 	str.w	r3, [r8, #8]
    6ef4:	2b00      	cmp	r3, #0
    6ef6:	f000 80bc 	beq.w	7072 <__sfvwrite_r+0x1de>
    6efa:	4555      	cmp	r5, sl
    6efc:	462b      	mov	r3, r5
    6efe:	f8d4 b024 	ldr.w	fp, [r4, #36]	; 0x24
    6f02:	463a      	mov	r2, r7
    6f04:	69e1      	ldr	r1, [r4, #28]
    6f06:	bf28      	it	cs
    6f08:	4653      	movcs	r3, sl
    6f0a:	4648      	mov	r0, r9
    6f0c:	2d00      	cmp	r5, #0
    6f0e:	d1e6      	bne.n	6ede <__sfvwrite_r+0x4a>
    6f10:	e9d6 7500 	ldrd	r7, r5, [r6]
    6f14:	3608      	adds	r6, #8
    6f16:	e7db      	b.n	6ed0 <__sfvwrite_r+0x3c>
    6f18:	4621      	mov	r1, r4
    6f1a:	4648      	mov	r0, r9
    6f1c:	f7ff fb88 	bl	6630 <__swsetup_r>
    6f20:	2800      	cmp	r0, #0
    6f22:	f040 813b 	bne.w	719c <__sfvwrite_r+0x308>
    6f26:	f9b4 300c 	ldrsh.w	r3, [r4, #12]
    6f2a:	f8d8 6000 	ldr.w	r6, [r8]
    6f2e:	fa1f fc83 	uxth.w	ip, r3
    6f32:	f01c 0702 	ands.w	r7, ip, #2
    6f36:	d1c4      	bne.n	6ec2 <__sfvwrite_r+0x2e>
    6f38:	f01c 0a01 	ands.w	sl, ip, #1
    6f3c:	d167      	bne.n	700e <__sfvwrite_r+0x17a>
    6f3e:	6823      	ldr	r3, [r4, #0]
    6f40:	4657      	mov	r7, sl
    6f42:	68a1      	ldr	r1, [r4, #8]
    6f44:	4618      	mov	r0, r3
    6f46:	468b      	mov	fp, r1
    6f48:	2f00      	cmp	r7, #0
    6f4a:	d05c      	beq.n	7006 <__sfvwrite_r+0x172>
    6f4c:	f41c 7f00 	tst.w	ip, #512	; 0x200
    6f50:	f000 80b9 	beq.w	70c6 <__sfvwrite_r+0x232>
    6f54:	42b9      	cmp	r1, r7
    6f56:	460a      	mov	r2, r1
    6f58:	f200 80e5 	bhi.w	7126 <__sfvwrite_r+0x292>
    6f5c:	f41c 6f90 	tst.w	ip, #1152	; 0x480
    6f60:	d031      	beq.n	6fc6 <__sfvwrite_r+0x132>
    6f62:	6921      	ldr	r1, [r4, #16]
    6f64:	6965      	ldr	r5, [r4, #20]
    6f66:	eba3 0b01 	sub.w	fp, r3, r1
    6f6a:	eb15 0545 	adds.w	r5, r5, r5, lsl #1
    6f6e:	f10b 0301 	add.w	r3, fp, #1
    6f72:	bf48      	it	mi
    6f74:	3501      	addmi	r5, #1
    6f76:	443b      	add	r3, r7
    6f78:	106d      	asrs	r5, r5, #1
    6f7a:	42ab      	cmp	r3, r5
    6f7c:	462a      	mov	r2, r5
    6f7e:	d901      	bls.n	6f84 <__sfvwrite_r+0xf0>
    6f80:	461d      	mov	r5, r3
    6f82:	461a      	mov	r2, r3
    6f84:	f41c 6f80 	tst.w	ip, #1024	; 0x400
    6f88:	f000 80ec 	beq.w	7164 <__sfvwrite_r+0x2d0>
    6f8c:	4611      	mov	r1, r2
    6f8e:	4648      	mov	r0, r9
    6f90:	f7fd ffc6 	bl	4f20 <_malloc_r>
    6f94:	2800      	cmp	r0, #0
    6f96:	f000 80fb 	beq.w	7190 <__sfvwrite_r+0x2fc>
    6f9a:	465a      	mov	r2, fp
    6f9c:	6921      	ldr	r1, [r4, #16]
    6f9e:	9000      	str	r0, [sp, #0]
    6fa0:	f7f9 fc6e 	bl	880 <memcpy>
    6fa4:	89a2      	ldrh	r2, [r4, #12]
    6fa6:	9b00      	ldr	r3, [sp, #0]
    6fa8:	f422 6290 	bic.w	r2, r2, #1152	; 0x480
    6fac:	f042 0280 	orr.w	r2, r2, #128	; 0x80
    6fb0:	81a2      	strh	r2, [r4, #12]
    6fb2:	eb03 000b 	add.w	r0, r3, fp
    6fb6:	6123      	str	r3, [r4, #16]
    6fb8:	463a      	mov	r2, r7
    6fba:	eba5 030b 	sub.w	r3, r5, fp
    6fbe:	46bb      	mov	fp, r7
    6fc0:	6165      	str	r5, [r4, #20]
    6fc2:	60a3      	str	r3, [r4, #8]
    6fc4:	6020      	str	r0, [r4, #0]
    6fc6:	4651      	mov	r1, sl
    6fc8:	9200      	str	r2, [sp, #0]
    6fca:	f000 f9e3 	bl	7394 <memmove>
    6fce:	68a1      	ldr	r1, [r4, #8]
    6fd0:	6823      	ldr	r3, [r4, #0]
    6fd2:	463d      	mov	r5, r7
    6fd4:	9a00      	ldr	r2, [sp, #0]
    6fd6:	eba1 010b 	sub.w	r1, r1, fp
    6fda:	2700      	movs	r7, #0
    6fdc:	441a      	add	r2, r3
    6fde:	60a1      	str	r1, [r4, #8]
    6fe0:	6022      	str	r2, [r4, #0]
    6fe2:	f8d8 3008 	ldr.w	r3, [r8, #8]
    6fe6:	44aa      	add	sl, r5
    6fe8:	1b5b      	subs	r3, r3, r5
    6fea:	f8c8 3008 	str.w	r3, [r8, #8]
    6fee:	2b00      	cmp	r3, #0
    6ff0:	d03f      	beq.n	7072 <__sfvwrite_r+0x1de>
    6ff2:	f9b4 c00c 	ldrsh.w	ip, [r4, #12]
    6ff6:	6823      	ldr	r3, [r4, #0]
    6ff8:	68a1      	ldr	r1, [r4, #8]
    6ffa:	fa1f fc8c 	uxth.w	ip, ip
    6ffe:	4618      	mov	r0, r3
    7000:	468b      	mov	fp, r1
    7002:	2f00      	cmp	r7, #0
    7004:	d1a2      	bne.n	6f4c <__sfvwrite_r+0xb8>
    7006:	e9d6 a700 	ldrd	sl, r7, [r6]
    700a:	3608      	adds	r6, #8
    700c:	e79a      	b.n	6f44 <__sfvwrite_r+0xb0>
    700e:	4638      	mov	r0, r7
    7010:	46bb      	mov	fp, r7
    7012:	463d      	mov	r5, r7
    7014:	9700      	str	r7, [sp, #0]
    7016:	2d00      	cmp	r5, #0
    7018:	d041      	beq.n	709e <__sfvwrite_r+0x20a>
    701a:	2800      	cmp	r0, #0
    701c:	d046      	beq.n	70ac <__sfvwrite_r+0x218>
    701e:	9a00      	ldr	r2, [sp, #0]
    7020:	68a1      	ldr	r1, [r4, #8]
    7022:	42aa      	cmp	r2, r5
    7024:	6963      	ldr	r3, [r4, #20]
    7026:	6820      	ldr	r0, [r4, #0]
    7028:	bf28      	it	cs
    702a:	462a      	movcs	r2, r5
    702c:	eb03 0a01 	add.w	sl, r3, r1
    7030:	6921      	ldr	r1, [r4, #16]
    7032:	4288      	cmp	r0, r1
    7034:	d902      	bls.n	703c <__sfvwrite_r+0x1a8>
    7036:	4552      	cmp	r2, sl
    7038:	f300 8085 	bgt.w	7146 <__sfvwrite_r+0x2b2>
    703c:	4293      	cmp	r3, r2
    703e:	dc75      	bgt.n	712c <__sfvwrite_r+0x298>
    7040:	465a      	mov	r2, fp
    7042:	69e1      	ldr	r1, [r4, #28]
    7044:	4648      	mov	r0, r9
    7046:	6a67      	ldr	r7, [r4, #36]	; 0x24
    7048:	47b8      	blx	r7
    704a:	f1b0 0a00 	subs.w	sl, r0, #0
    704e:	dd1a      	ble.n	7086 <__sfvwrite_r+0x1f2>
    7050:	9b00      	ldr	r3, [sp, #0]
    7052:	ebb3 030a 	subs.w	r3, r3, sl
    7056:	9300      	str	r3, [sp, #0]
    7058:	d00f      	beq.n	707a <__sfvwrite_r+0x1e6>
    705a:	2001      	movs	r0, #1
    705c:	f8d8 3008 	ldr.w	r3, [r8, #8]
    7060:	44d3      	add	fp, sl
    7062:	eba5 050a 	sub.w	r5, r5, sl
    7066:	eba3 030a 	sub.w	r3, r3, sl
    706a:	f8c8 3008 	str.w	r3, [r8, #8]
    706e:	2b00      	cmp	r3, #0
    7070:	d1d1      	bne.n	7016 <__sfvwrite_r+0x182>
    7072:	2000      	movs	r0, #0
    7074:	b003      	add	sp, #12
    7076:	e8bd 8ff0 	ldmia.w	sp!, {r4, r5, r6, r7, r8, r9, sl, fp, pc}
    707a:	4621      	mov	r1, r4
    707c:	4648      	mov	r0, r9
    707e:	f7ff fc5d 	bl	693c <_fflush_r>
    7082:	2800      	cmp	r0, #0
    7084:	d0ea      	beq.n	705c <__sfvwrite_r+0x1c8>
    7086:	f9b4 300c 	ldrsh.w	r3, [r4, #12]
    708a:	f043 0340 	orr.w	r3, r3, #64	; 0x40
    708e:	f04f 30ff 	mov.w	r0, #4294967295	; 0xffffffff
    7092:	81a3      	strh	r3, [r4, #12]
    7094:	b003      	add	sp, #12
    7096:	e8bd 8ff0 	ldmia.w	sp!, {r4, r5, r6, r7, r8, r9, sl, fp, pc}
    709a:	2000      	movs	r0, #0
    709c:	4770      	bx	lr
    709e:	6875      	ldr	r5, [r6, #4]
    70a0:	4633      	mov	r3, r6
    70a2:	3608      	adds	r6, #8
    70a4:	2d00      	cmp	r5, #0
    70a6:	d0fa      	beq.n	709e <__sfvwrite_r+0x20a>
    70a8:	f8d3 b000 	ldr.w	fp, [r3]
    70ac:	462a      	mov	r2, r5
    70ae:	210a      	movs	r1, #10
    70b0:	4658      	mov	r0, fp
    70b2:	f000 f933 	bl	731c <memchr>
    70b6:	2800      	cmp	r0, #0
    70b8:	d067      	beq.n	718a <__sfvwrite_r+0x2f6>
    70ba:	3001      	adds	r0, #1
    70bc:	eba0 030b 	sub.w	r3, r0, fp
    70c0:	461a      	mov	r2, r3
    70c2:	9300      	str	r3, [sp, #0]
    70c4:	e7ac      	b.n	7020 <__sfvwrite_r+0x18c>
    70c6:	6922      	ldr	r2, [r4, #16]
    70c8:	429a      	cmp	r2, r3
    70ca:	d314      	bcc.n	70f6 <__sfvwrite_r+0x262>
    70cc:	6962      	ldr	r2, [r4, #20]
    70ce:	42ba      	cmp	r2, r7
    70d0:	d811      	bhi.n	70f6 <__sfvwrite_r+0x262>
    70d2:	f06f 4300 	mvn.w	r3, #2147483648	; 0x80000000
    70d6:	6a65      	ldr	r5, [r4, #36]	; 0x24
    70d8:	69e1      	ldr	r1, [r4, #28]
    70da:	4648      	mov	r0, r9
    70dc:	42bb      	cmp	r3, r7
    70de:	bf28      	it	cs
    70e0:	463b      	movcs	r3, r7
    70e2:	fb93 f3f2 	sdiv	r3, r3, r2
    70e6:	fb02 f303 	mul.w	r3, r2, r3
    70ea:	4652      	mov	r2, sl
    70ec:	47a8      	blx	r5
    70ee:	1e05      	subs	r5, r0, #0
    70f0:	ddc9      	ble.n	7086 <__sfvwrite_r+0x1f2>
    70f2:	1b7f      	subs	r7, r7, r5
    70f4:	e775      	b.n	6fe2 <__sfvwrite_r+0x14e>
    70f6:	42b9      	cmp	r1, r7
    70f8:	4618      	mov	r0, r3
    70fa:	bf28      	it	cs
    70fc:	4639      	movcs	r1, r7
    70fe:	460d      	mov	r5, r1
    7100:	4651      	mov	r1, sl
    7102:	462a      	mov	r2, r5
    7104:	f000 f946 	bl	7394 <memmove>
    7108:	68a1      	ldr	r1, [r4, #8]
    710a:	6823      	ldr	r3, [r4, #0]
    710c:	1b49      	subs	r1, r1, r5
    710e:	442b      	add	r3, r5
    7110:	60a1      	str	r1, [r4, #8]
    7112:	6023      	str	r3, [r4, #0]
    7114:	2900      	cmp	r1, #0
    7116:	d1ec      	bne.n	70f2 <__sfvwrite_r+0x25e>
    7118:	4621      	mov	r1, r4
    711a:	4648      	mov	r0, r9
    711c:	f7ff fc0e 	bl	693c <_fflush_r>
    7120:	2800      	cmp	r0, #0
    7122:	d0e6      	beq.n	70f2 <__sfvwrite_r+0x25e>
    7124:	e7af      	b.n	7086 <__sfvwrite_r+0x1f2>
    7126:	46bb      	mov	fp, r7
    7128:	463a      	mov	r2, r7
    712a:	e74c      	b.n	6fc6 <__sfvwrite_r+0x132>
    712c:	4659      	mov	r1, fp
    712e:	9201      	str	r2, [sp, #4]
    7130:	f000 f930 	bl	7394 <memmove>
    7134:	9a01      	ldr	r2, [sp, #4]
    7136:	68a3      	ldr	r3, [r4, #8]
    7138:	4692      	mov	sl, r2
    713a:	1a9b      	subs	r3, r3, r2
    713c:	60a3      	str	r3, [r4, #8]
    713e:	6823      	ldr	r3, [r4, #0]
    7140:	4413      	add	r3, r2
    7142:	6023      	str	r3, [r4, #0]
    7144:	e784      	b.n	7050 <__sfvwrite_r+0x1bc>
    7146:	4659      	mov	r1, fp
    7148:	4652      	mov	r2, sl
    714a:	f000 f923 	bl	7394 <memmove>
    714e:	6823      	ldr	r3, [r4, #0]
    7150:	4621      	mov	r1, r4
    7152:	4648      	mov	r0, r9
    7154:	4453      	add	r3, sl
    7156:	6023      	str	r3, [r4, #0]
    7158:	f7ff fbf0 	bl	693c <_fflush_r>
    715c:	2800      	cmp	r0, #0
    715e:	f43f af77 	beq.w	7050 <__sfvwrite_r+0x1bc>
    7162:	e790      	b.n	7086 <__sfvwrite_r+0x1f2>
    7164:	4648      	mov	r0, r9
    7166:	f000 f991 	bl	748c <_realloc_r>
    716a:	4603      	mov	r3, r0
    716c:	2800      	cmp	r0, #0
    716e:	f47f af20 	bne.w	6fb2 <__sfvwrite_r+0x11e>
    7172:	6921      	ldr	r1, [r4, #16]
    7174:	4648      	mov	r0, r9
    7176:	f7ff fd91 	bl	6c9c <_free_r>
    717a:	f9b4 300c 	ldrsh.w	r3, [r4, #12]
    717e:	220c      	movs	r2, #12
    7180:	f023 0380 	bic.w	r3, r3, #128	; 0x80
    7184:	f8c9 2000 	str.w	r2, [r9]
    7188:	e77f      	b.n	708a <__sfvwrite_r+0x1f6>
    718a:	1c6a      	adds	r2, r5, #1
    718c:	9200      	str	r2, [sp, #0]
    718e:	e747      	b.n	7020 <__sfvwrite_r+0x18c>
    7190:	220c      	movs	r2, #12
    7192:	f9b4 300c 	ldrsh.w	r3, [r4, #12]
    7196:	f8c9 2000 	str.w	r2, [r9]
    719a:	e776      	b.n	708a <__sfvwrite_r+0x1f6>
    719c:	f04f 30ff 	mov.w	r0, #4294967295	; 0xffffffff
    71a0:	e768      	b.n	7074 <__sfvwrite_r+0x1e0>
    71a2:	bf00      	nop
    71a4:	7ffffc00 	.word	0x7ffffc00

000071a8 <_fwalk_reent>:
    71a8:	e92d 43f8 	stmdb	sp!, {r3, r4, r5, r6, r7, r8, r9, lr}
    71ac:	2600      	movs	r6, #0
    71ae:	4681      	mov	r9, r0
    71b0:	4688      	mov	r8, r1
    71b2:	f500 7738 	add.w	r7, r0, #736	; 0x2e0
    71b6:	e9d7 5401 	ldrd	r5, r4, [r7, #4]
    71ba:	3d01      	subs	r5, #1
    71bc:	d40f      	bmi.n	71de <_fwalk_reent+0x36>
    71be:	89a3      	ldrh	r3, [r4, #12]
    71c0:	3d01      	subs	r5, #1
    71c2:	2b01      	cmp	r3, #1
    71c4:	d907      	bls.n	71d6 <_fwalk_reent+0x2e>
    71c6:	f9b4 300e 	ldrsh.w	r3, [r4, #14]
    71ca:	4621      	mov	r1, r4
    71cc:	4648      	mov	r0, r9
    71ce:	3301      	adds	r3, #1
    71d0:	d001      	beq.n	71d6 <_fwalk_reent+0x2e>
    71d2:	47c0      	blx	r8
    71d4:	4306      	orrs	r6, r0
    71d6:	1c6b      	adds	r3, r5, #1
    71d8:	f104 0468 	add.w	r4, r4, #104	; 0x68
    71dc:	d1ef      	bne.n	71be <_fwalk_reent+0x16>
    71de:	683f      	ldr	r7, [r7, #0]
    71e0:	2f00      	cmp	r7, #0
    71e2:	d1e8      	bne.n	71b6 <_fwalk_reent+0xe>
    71e4:	4630      	mov	r0, r6
    71e6:	e8bd 83f8 	ldmia.w	sp!, {r3, r4, r5, r6, r7, r8, r9, pc}
    71ea:	bf00      	nop

000071ec <__locale_mb_cur_max>:
    71ec:	4b01      	ldr	r3, [pc, #4]	; (71f4 <__locale_mb_cur_max+0x8>)
    71ee:	f893 0128 	ldrb.w	r0, [r3, #296]	; 0x128
    71f2:	4770      	bx	lr
    71f4:	2000084c 	.word	0x2000084c

000071f8 <_localeconv_r>:
    71f8:	4800      	ldr	r0, [pc, #0]	; (71fc <_localeconv_r+0x4>)
    71fa:	4770      	bx	lr
    71fc:	2000093c 	.word	0x2000093c

00007200 <__retarget_lock_init_recursive>:
    7200:	4770      	bx	lr
    7202:	bf00      	nop

00007204 <__retarget_lock_close_recursive>:
    7204:	4770      	bx	lr
    7206:	bf00      	nop

00007208 <__retarget_lock_acquire_recursive>:
    7208:	4770      	bx	lr
    720a:	bf00      	nop

0000720c <__retarget_lock_release_recursive>:
    720c:	4770      	bx	lr
    720e:	bf00      	nop

00007210 <__smakebuf_r>:
    7210:	898b      	ldrh	r3, [r1, #12]
    7212:	e92d 41f0 	stmdb	sp!, {r4, r5, r6, r7, r8, lr}
    7216:	460c      	mov	r4, r1
    7218:	0799      	lsls	r1, r3, #30
    721a:	b096      	sub	sp, #88	; 0x58
    721c:	d508      	bpl.n	7230 <__smakebuf_r+0x20>
    721e:	f104 0343 	add.w	r3, r4, #67	; 0x43
    7222:	2201      	movs	r2, #1
    7224:	6023      	str	r3, [r4, #0]
    7226:	e9c4 3204 	strd	r3, r2, [r4, #16]
    722a:	b016      	add	sp, #88	; 0x58
    722c:	e8bd 81f0 	ldmia.w	sp!, {r4, r5, r6, r7, r8, pc}
    7230:	f9b4 100e 	ldrsh.w	r1, [r4, #14]
    7234:	4606      	mov	r6, r0
    7236:	2900      	cmp	r1, #0
    7238:	db27      	blt.n	728a <__smakebuf_r+0x7a>
    723a:	466a      	mov	r2, sp
    723c:	f000 fdd0 	bl	7de0 <_fstat_r>
    7240:	2800      	cmp	r0, #0
    7242:	db21      	blt.n	7288 <__smakebuf_r+0x78>
    7244:	9d01      	ldr	r5, [sp, #4]
    7246:	f44f 6880 	mov.w	r8, #1024	; 0x400
    724a:	f44f 6700 	mov.w	r7, #2048	; 0x800
    724e:	f405 4570 	and.w	r5, r5, #61440	; 0xf000
    7252:	f5a5 5500 	sub.w	r5, r5, #8192	; 0x2000
    7256:	fab5 f585 	clz	r5, r5
    725a:	096d      	lsrs	r5, r5, #5
    725c:	4641      	mov	r1, r8
    725e:	4630      	mov	r0, r6
    7260:	f7fd fe5e 	bl	4f20 <_malloc_r>
    7264:	f9b4 300c 	ldrsh.w	r3, [r4, #12]
    7268:	b1f0      	cbz	r0, 72a8 <__smakebuf_r+0x98>
    726a:	f043 0380 	orr.w	r3, r3, #128	; 0x80
    726e:	4a1f      	ldr	r2, [pc, #124]	; (72ec <__smakebuf_r+0xdc>)
    7270:	63f2      	str	r2, [r6, #60]	; 0x3c
    7272:	f8c4 8014 	str.w	r8, [r4, #20]
    7276:	81a3      	strh	r3, [r4, #12]
    7278:	6020      	str	r0, [r4, #0]
    727a:	6120      	str	r0, [r4, #16]
    727c:	bb35      	cbnz	r5, 72cc <__smakebuf_r+0xbc>
    727e:	433b      	orrs	r3, r7
    7280:	81a3      	strh	r3, [r4, #12]
    7282:	b016      	add	sp, #88	; 0x58
    7284:	e8bd 81f0 	ldmia.w	sp!, {r4, r5, r6, r7, r8, pc}
    7288:	89a3      	ldrh	r3, [r4, #12]
    728a:	f013 0580 	ands.w	r5, r3, #128	; 0x80
    728e:	d019      	beq.n	72c4 <__smakebuf_r+0xb4>
    7290:	f04f 0840 	mov.w	r8, #64	; 0x40
    7294:	2500      	movs	r5, #0
    7296:	4630      	mov	r0, r6
    7298:	4641      	mov	r1, r8
    729a:	462f      	mov	r7, r5
    729c:	f7fd fe40 	bl	4f20 <_malloc_r>
    72a0:	f9b4 300c 	ldrsh.w	r3, [r4, #12]
    72a4:	2800      	cmp	r0, #0
    72a6:	d1e0      	bne.n	726a <__smakebuf_r+0x5a>
    72a8:	059a      	lsls	r2, r3, #22
    72aa:	d4be      	bmi.n	722a <__smakebuf_r+0x1a>
    72ac:	f023 0303 	bic.w	r3, r3, #3
    72b0:	f104 0243 	add.w	r2, r4, #67	; 0x43
    72b4:	2101      	movs	r1, #1
    72b6:	f043 0302 	orr.w	r3, r3, #2
    72ba:	6022      	str	r2, [r4, #0]
    72bc:	e9c4 2104 	strd	r2, r1, [r4, #16]
    72c0:	81a3      	strh	r3, [r4, #12]
    72c2:	e7b2      	b.n	722a <__smakebuf_r+0x1a>
    72c4:	f44f 6880 	mov.w	r8, #1024	; 0x400
    72c8:	462f      	mov	r7, r5
    72ca:	e7c7      	b.n	725c <__smakebuf_r+0x4c>
    72cc:	f9b4 100e 	ldrsh.w	r1, [r4, #14]
    72d0:	4630      	mov	r0, r6
    72d2:	f000 fd9b 	bl	7e0c <_isatty_r>
    72d6:	b910      	cbnz	r0, 72de <__smakebuf_r+0xce>
    72d8:	f9b4 300c 	ldrsh.w	r3, [r4, #12]
    72dc:	e7cf      	b.n	727e <__smakebuf_r+0x6e>
    72de:	89a3      	ldrh	r3, [r4, #12]
    72e0:	f023 0303 	bic.w	r3, r3, #3
    72e4:	f043 0301 	orr.w	r3, r3, #1
    72e8:	b21b      	sxth	r3, r3
    72ea:	e7c8      	b.n	727e <__smakebuf_r+0x6e>
    72ec:	00006999 	.word	0x00006999

000072f0 <__ascii_mbtowc>:
    72f0:	b082      	sub	sp, #8
    72f2:	b149      	cbz	r1, 7308 <__ascii_mbtowc+0x18>
    72f4:	b15a      	cbz	r2, 730e <__ascii_mbtowc+0x1e>
    72f6:	b16b      	cbz	r3, 7314 <__ascii_mbtowc+0x24>
    72f8:	7813      	ldrb	r3, [r2, #0]
    72fa:	600b      	str	r3, [r1, #0]
    72fc:	7812      	ldrb	r2, [r2, #0]
    72fe:	1e10      	subs	r0, r2, #0
    7300:	bf18      	it	ne
    7302:	2001      	movne	r0, #1
    7304:	b002      	add	sp, #8
    7306:	4770      	bx	lr
    7308:	a901      	add	r1, sp, #4
    730a:	2a00      	cmp	r2, #0
    730c:	d1f3      	bne.n	72f6 <__ascii_mbtowc+0x6>
    730e:	4610      	mov	r0, r2
    7310:	b002      	add	sp, #8
    7312:	4770      	bx	lr
    7314:	f06f 0001 	mvn.w	r0, #1
    7318:	e7f4      	b.n	7304 <__ascii_mbtowc+0x14>
    731a:	bf00      	nop

0000731c <memchr>:
    731c:	b510      	push	{r4, lr}
    731e:	fa5f fe81 	uxtb.w	lr, r1
    7322:	0781      	lsls	r1, r0, #30
    7324:	d010      	beq.n	7348 <memchr+0x2c>
    7326:	4603      	mov	r3, r0
    7328:	1e51      	subs	r1, r2, #1
    732a:	b922      	cbnz	r2, 7336 <memchr+0x1a>
    732c:	e00a      	b.n	7344 <memchr+0x28>
    732e:	079a      	lsls	r2, r3, #30
    7330:	d00c      	beq.n	734c <memchr+0x30>
    7332:	3901      	subs	r1, #1
    7334:	d306      	bcc.n	7344 <memchr+0x28>
    7336:	4618      	mov	r0, r3
    7338:	f813 2b01 	ldrb.w	r2, [r3], #1
    733c:	4572      	cmp	r2, lr
    733e:	469c      	mov	ip, r3
    7340:	d1f5      	bne.n	732e <memchr+0x12>
    7342:	bd10      	pop	{r4, pc}
    7344:	2000      	movs	r0, #0
    7346:	bd10      	pop	{r4, pc}
    7348:	4684      	mov	ip, r0
    734a:	4611      	mov	r1, r2
    734c:	2903      	cmp	r1, #3
    734e:	d914      	bls.n	737a <memchr+0x5e>
    7350:	ea4e 240e 	orr.w	r4, lr, lr, lsl #8
    7354:	4662      	mov	r2, ip
    7356:	ea44 4404 	orr.w	r4, r4, r4, lsl #16
    735a:	4694      	mov	ip, r2
    735c:	3204      	adds	r2, #4
    735e:	f8dc 3000 	ldr.w	r3, [ip]
    7362:	4063      	eors	r3, r4
    7364:	f1a3 3001 	sub.w	r0, r3, #16843009	; 0x1010101
    7368:	ea20 0303 	bic.w	r3, r0, r3
    736c:	f013 3f80 	tst.w	r3, #2155905152	; 0x80808080
    7370:	d104      	bne.n	737c <memchr+0x60>
    7372:	3904      	subs	r1, #4
    7374:	4694      	mov	ip, r2
    7376:	2903      	cmp	r1, #3
    7378:	d8ef      	bhi.n	735a <memchr+0x3e>
    737a:	b149      	cbz	r1, 7390 <memchr+0x74>
    737c:	4461      	add	r1, ip
    737e:	e001      	b.n	7384 <memchr+0x68>
    7380:	458c      	cmp	ip, r1
    7382:	d0df      	beq.n	7344 <memchr+0x28>
    7384:	4660      	mov	r0, ip
    7386:	f81c 3b01 	ldrb.w	r3, [ip], #1
    738a:	4573      	cmp	r3, lr
    738c:	d1f8      	bne.n	7380 <memchr+0x64>
    738e:	bd10      	pop	{r4, pc}
    7390:	4608      	mov	r0, r1
    7392:	bd10      	pop	{r4, pc}

00007394 <memmove>:
    7394:	4288      	cmp	r0, r1
    7396:	d90d      	bls.n	73b4 <memmove+0x20>
    7398:	188b      	adds	r3, r1, r2
    739a:	4283      	cmp	r3, r0
    739c:	d90a      	bls.n	73b4 <memmove+0x20>
    739e:	eb00 0c02 	add.w	ip, r0, r2
    73a2:	b1ba      	cbz	r2, 73d4 <memmove+0x40>
    73a4:	4662      	mov	r2, ip
    73a6:	f813 cd01 	ldrb.w	ip, [r3, #-1]!
    73aa:	4299      	cmp	r1, r3
    73ac:	f802 cd01 	strb.w	ip, [r2, #-1]!
    73b0:	d1f9      	bne.n	73a6 <memmove+0x12>
    73b2:	4770      	bx	lr
    73b4:	2a0f      	cmp	r2, #15
    73b6:	d80e      	bhi.n	73d6 <memmove+0x42>
    73b8:	4603      	mov	r3, r0
    73ba:	f102 3cff 	add.w	ip, r2, #4294967295	; 0xffffffff
    73be:	b14a      	cbz	r2, 73d4 <memmove+0x40>
    73c0:	f10c 0c01 	add.w	ip, ip, #1
    73c4:	3b01      	subs	r3, #1
    73c6:	448c      	add	ip, r1
    73c8:	f811 2b01 	ldrb.w	r2, [r1], #1
    73cc:	4561      	cmp	r1, ip
    73ce:	f803 2f01 	strb.w	r2, [r3, #1]!
    73d2:	d1f9      	bne.n	73c8 <memmove+0x34>
    73d4:	4770      	bx	lr
    73d6:	ea40 0301 	orr.w	r3, r0, r1
    73da:	079b      	lsls	r3, r3, #30
    73dc:	d150      	bne.n	7480 <memmove+0xec>
    73de:	f1a2 0310 	sub.w	r3, r2, #16
    73e2:	f101 0c20 	add.w	ip, r1, #32
    73e6:	b570      	push	{r4, r5, r6, lr}
    73e8:	f023 050f 	bic.w	r5, r3, #15
    73ec:	f101 0e10 	add.w	lr, r1, #16
    73f0:	f100 0410 	add.w	r4, r0, #16
    73f4:	091b      	lsrs	r3, r3, #4
    73f6:	44ac      	add	ip, r5
    73f8:	f85e 5c10 	ldr.w	r5, [lr, #-16]
    73fc:	f10e 0e10 	add.w	lr, lr, #16
    7400:	3410      	adds	r4, #16
    7402:	f844 5c20 	str.w	r5, [r4, #-32]
    7406:	f85e 5c1c 	ldr.w	r5, [lr, #-28]
    740a:	f844 5c1c 	str.w	r5, [r4, #-28]
    740e:	f85e 5c18 	ldr.w	r5, [lr, #-24]
    7412:	f844 5c18 	str.w	r5, [r4, #-24]
    7416:	f85e 5c14 	ldr.w	r5, [lr, #-20]
    741a:	45e6      	cmp	lr, ip
    741c:	f844 5c14 	str.w	r5, [r4, #-20]
    7420:	d1ea      	bne.n	73f8 <memmove+0x64>
    7422:	3301      	adds	r3, #1
    7424:	f012 0f0c 	tst.w	r2, #12
    7428:	f002 0c0f 	and.w	ip, r2, #15
    742c:	eb01 1103 	add.w	r1, r1, r3, lsl #4
    7430:	eb00 1303 	add.w	r3, r0, r3, lsl #4
    7434:	d028      	beq.n	7488 <memmove+0xf4>
    7436:	f1ac 0c04 	sub.w	ip, ip, #4
    743a:	1f1c      	subs	r4, r3, #4
    743c:	468e      	mov	lr, r1
    743e:	f02c 0603 	bic.w	r6, ip, #3
    7442:	ea4f 0c9c 	mov.w	ip, ip, lsr #2
    7446:	441e      	add	r6, r3
    7448:	f85e 5b04 	ldr.w	r5, [lr], #4
    744c:	f844 5f04 	str.w	r5, [r4, #4]!
    7450:	42b4      	cmp	r4, r6
    7452:	d1f9      	bne.n	7448 <memmove+0xb4>
    7454:	f10c 0c01 	add.w	ip, ip, #1
    7458:	f002 0203 	and.w	r2, r2, #3
    745c:	eb03 038c 	add.w	r3, r3, ip, lsl #2
    7460:	eb01 018c 	add.w	r1, r1, ip, lsl #2
    7464:	f102 3cff 	add.w	ip, r2, #4294967295	; 0xffffffff
    7468:	b14a      	cbz	r2, 747e <memmove+0xea>
    746a:	f10c 0c01 	add.w	ip, ip, #1
    746e:	3b01      	subs	r3, #1
    7470:	448c      	add	ip, r1
    7472:	f811 2b01 	ldrb.w	r2, [r1], #1
    7476:	4561      	cmp	r1, ip
    7478:	f803 2f01 	strb.w	r2, [r3, #1]!
    747c:	d1f9      	bne.n	7472 <memmove+0xde>
    747e:	bd70      	pop	{r4, r5, r6, pc}
    7480:	f102 3cff 	add.w	ip, r2, #4294967295	; 0xffffffff
    7484:	4603      	mov	r3, r0
    7486:	e79b      	b.n	73c0 <memmove+0x2c>
    7488:	4662      	mov	r2, ip
    748a:	e7eb      	b.n	7464 <memmove+0xd0>

0000748c <_realloc_r>:
    748c:	e92d 4ff8 	stmdb	sp!, {r3, r4, r5, r6, r7, r8, r9, sl, fp, lr}
    7490:	4616      	mov	r6, r2
    7492:	2900      	cmp	r1, #0
    7494:	f000 8096 	beq.w	75c4 <_realloc_r+0x138>
    7498:	460c      	mov	r4, r1
    749a:	f106 050b 	add.w	r5, r6, #11
    749e:	4680      	mov	r8, r0
    74a0:	f7fe f87e 	bl	55a0 <__malloc_lock>
    74a4:	f854 0c04 	ldr.w	r0, [r4, #-4]
    74a8:	2d16      	cmp	r5, #22
    74aa:	f1a4 0908 	sub.w	r9, r4, #8
    74ae:	f020 0703 	bic.w	r7, r0, #3
    74b2:	d85b      	bhi.n	756c <_realloc_r+0xe0>
    74b4:	2210      	movs	r2, #16
    74b6:	2300      	movs	r3, #0
    74b8:	4615      	mov	r5, r2
    74ba:	42b5      	cmp	r5, r6
    74bc:	f0c0 8099 	bcc.w	75f2 <_realloc_r+0x166>
    74c0:	2b00      	cmp	r3, #0
    74c2:	f040 8096 	bne.w	75f2 <_realloc_r+0x166>
    74c6:	4297      	cmp	r7, r2
    74c8:	da5a      	bge.n	7580 <_realloc_r+0xf4>
    74ca:	4bbf      	ldr	r3, [pc, #764]	; (77c8 <_realloc_r+0x33c>)
    74cc:	eb09 0c07 	add.w	ip, r9, r7
    74d0:	6899      	ldr	r1, [r3, #8]
    74d2:	f8dc e004 	ldr.w	lr, [ip, #4]
    74d6:	4561      	cmp	r1, ip
    74d8:	f000 8092 	beq.w	7600 <_realloc_r+0x174>
    74dc:	f02e 0301 	bic.w	r3, lr, #1
    74e0:	4463      	add	r3, ip
    74e2:	685b      	ldr	r3, [r3, #4]
    74e4:	07d9      	lsls	r1, r3, #31
    74e6:	d462      	bmi.n	75ae <_realloc_r+0x122>
    74e8:	f02e 0a03 	bic.w	sl, lr, #3
    74ec:	eb07 030a 	add.w	r3, r7, sl
    74f0:	4293      	cmp	r3, r2
    74f2:	da40      	bge.n	7576 <_realloc_r+0xea>
    74f4:	07c0      	lsls	r0, r0, #31
    74f6:	d410      	bmi.n	751a <_realloc_r+0x8e>
    74f8:	f854 3c08 	ldr.w	r3, [r4, #-8]
    74fc:	eba9 0b03 	sub.w	fp, r9, r3
    7500:	f8db 3004 	ldr.w	r3, [fp, #4]
    7504:	f023 0103 	bic.w	r1, r3, #3
    7508:	448a      	add	sl, r1
    750a:	44ba      	add	sl, r7
    750c:	4592      	cmp	sl, r2
    750e:	f280 80f8 	bge.w	7702 <_realloc_r+0x276>
    7512:	187b      	adds	r3, r7, r1
    7514:	4293      	cmp	r3, r2
    7516:	f280 80cf 	bge.w	76b8 <_realloc_r+0x22c>
    751a:	4631      	mov	r1, r6
    751c:	4640      	mov	r0, r8
    751e:	f7fd fcff 	bl	4f20 <_malloc_r>
    7522:	4606      	mov	r6, r0
    7524:	b1e0      	cbz	r0, 7560 <_realloc_r+0xd4>
    7526:	f854 3c04 	ldr.w	r3, [r4, #-4]
    752a:	f1a0 0208 	sub.w	r2, r0, #8
    752e:	f023 0301 	bic.w	r3, r3, #1
    7532:	444b      	add	r3, r9
    7534:	4293      	cmp	r3, r2
    7536:	f000 80ae 	beq.w	7696 <_realloc_r+0x20a>
    753a:	1f3a      	subs	r2, r7, #4
    753c:	2a24      	cmp	r2, #36	; 0x24
    753e:	f200 80dc 	bhi.w	76fa <_realloc_r+0x26e>
    7542:	2a13      	cmp	r2, #19
    7544:	f200 80ad 	bhi.w	76a2 <_realloc_r+0x216>
    7548:	4603      	mov	r3, r0
    754a:	4622      	mov	r2, r4
    754c:	6811      	ldr	r1, [r2, #0]
    754e:	6019      	str	r1, [r3, #0]
    7550:	6851      	ldr	r1, [r2, #4]
    7552:	6059      	str	r1, [r3, #4]
    7554:	6892      	ldr	r2, [r2, #8]
    7556:	609a      	str	r2, [r3, #8]
    7558:	4621      	mov	r1, r4
    755a:	4640      	mov	r0, r8
    755c:	f7ff fb9e 	bl	6c9c <_free_r>
    7560:	4640      	mov	r0, r8
    7562:	f7fe f823 	bl	55ac <__malloc_unlock>
    7566:	4630      	mov	r0, r6
    7568:	e8bd 8ff8 	ldmia.w	sp!, {r3, r4, r5, r6, r7, r8, r9, sl, fp, pc}
    756c:	f025 0507 	bic.w	r5, r5, #7
    7570:	462a      	mov	r2, r5
    7572:	0feb      	lsrs	r3, r5, #31
    7574:	e7a1      	b.n	74ba <_realloc_r+0x2e>
    7576:	461f      	mov	r7, r3
    7578:	e9dc 2302 	ldrd	r2, r3, [ip, #8]
    757c:	60d3      	str	r3, [r2, #12]
    757e:	609a      	str	r2, [r3, #8]
    7580:	1b7a      	subs	r2, r7, r5
    7582:	f8d9 3004 	ldr.w	r3, [r9, #4]
    7586:	eb09 0007 	add.w	r0, r9, r7
    758a:	2a0f      	cmp	r2, #15
    758c:	f003 0301 	and.w	r3, r3, #1
    7590:	d81d      	bhi.n	75ce <_realloc_r+0x142>
    7592:	433b      	orrs	r3, r7
    7594:	f8c9 3004 	str.w	r3, [r9, #4]
    7598:	6843      	ldr	r3, [r0, #4]
    759a:	f043 0301 	orr.w	r3, r3, #1
    759e:	6043      	str	r3, [r0, #4]
    75a0:	4640      	mov	r0, r8
    75a2:	4626      	mov	r6, r4
    75a4:	f7fe f802 	bl	55ac <__malloc_unlock>
    75a8:	4630      	mov	r0, r6
    75aa:	e8bd 8ff8 	ldmia.w	sp!, {r3, r4, r5, r6, r7, r8, r9, sl, fp, pc}
    75ae:	07c3      	lsls	r3, r0, #31
    75b0:	d4b3      	bmi.n	751a <_realloc_r+0x8e>
    75b2:	f854 3c08 	ldr.w	r3, [r4, #-8]
    75b6:	eba9 0b03 	sub.w	fp, r9, r3
    75ba:	f8db 1004 	ldr.w	r1, [fp, #4]
    75be:	f021 0103 	bic.w	r1, r1, #3
    75c2:	e7a6      	b.n	7512 <_realloc_r+0x86>
    75c4:	4611      	mov	r1, r2
    75c6:	e8bd 4ff8 	ldmia.w	sp!, {r3, r4, r5, r6, r7, r8, r9, sl, fp, lr}
    75ca:	f7fd bca9 	b.w	4f20 <_malloc_r>
    75ce:	432b      	orrs	r3, r5
    75d0:	eb09 0105 	add.w	r1, r9, r5
    75d4:	f042 0201 	orr.w	r2, r2, #1
    75d8:	f8c9 3004 	str.w	r3, [r9, #4]
    75dc:	3108      	adds	r1, #8
    75de:	f841 2c04 	str.w	r2, [r1, #-4]
    75e2:	6843      	ldr	r3, [r0, #4]
    75e4:	f043 0301 	orr.w	r3, r3, #1
    75e8:	6043      	str	r3, [r0, #4]
    75ea:	4640      	mov	r0, r8
    75ec:	f7ff fb56 	bl	6c9c <_free_r>
    75f0:	e7d6      	b.n	75a0 <_realloc_r+0x114>
    75f2:	230c      	movs	r3, #12
    75f4:	2600      	movs	r6, #0
    75f6:	f8c8 3000 	str.w	r3, [r8]
    75fa:	4630      	mov	r0, r6
    75fc:	e8bd 8ff8 	ldmia.w	sp!, {r3, r4, r5, r6, r7, r8, r9, sl, fp, pc}
    7600:	f02e 0a03 	bic.w	sl, lr, #3
    7604:	f105 0c10 	add.w	ip, r5, #16
    7608:	eb07 010a 	add.w	r1, r7, sl
    760c:	4561      	cmp	r1, ip
    760e:	f280 80b2 	bge.w	7776 <_realloc_r+0x2ea>
    7612:	07c1      	lsls	r1, r0, #31
    7614:	d481      	bmi.n	751a <_realloc_r+0x8e>
    7616:	f854 1c08 	ldr.w	r1, [r4, #-8]
    761a:	eba9 0b01 	sub.w	fp, r9, r1
    761e:	f8db 1004 	ldr.w	r1, [fp, #4]
    7622:	f021 0103 	bic.w	r1, r1, #3
    7626:	448a      	add	sl, r1
    7628:	44ba      	add	sl, r7
    762a:	45d4      	cmp	ip, sl
    762c:	f73f af71 	bgt.w	7512 <_realloc_r+0x86>
    7630:	1f3a      	subs	r2, r7, #4
    7632:	465e      	mov	r6, fp
    7634:	f8db 100c 	ldr.w	r1, [fp, #12]
    7638:	f856 0f08 	ldr.w	r0, [r6, #8]!
    763c:	2a24      	cmp	r2, #36	; 0x24
    763e:	60c1      	str	r1, [r0, #12]
    7640:	6088      	str	r0, [r1, #8]
    7642:	f200 80da 	bhi.w	77fa <_realloc_r+0x36e>
    7646:	2a13      	cmp	r2, #19
    7648:	f240 80d5 	bls.w	77f6 <_realloc_r+0x36a>
    764c:	6821      	ldr	r1, [r4, #0]
    764e:	2a1b      	cmp	r2, #27
    7650:	f8cb 1008 	str.w	r1, [fp, #8]
    7654:	6861      	ldr	r1, [r4, #4]
    7656:	f8cb 100c 	str.w	r1, [fp, #12]
    765a:	f200 80df 	bhi.w	781c <_realloc_r+0x390>
    765e:	3408      	adds	r4, #8
    7660:	f10b 0210 	add.w	r2, fp, #16
    7664:	6821      	ldr	r1, [r4, #0]
    7666:	6011      	str	r1, [r2, #0]
    7668:	6861      	ldr	r1, [r4, #4]
    766a:	6051      	str	r1, [r2, #4]
    766c:	68a1      	ldr	r1, [r4, #8]
    766e:	6091      	str	r1, [r2, #8]
    7670:	ebaa 0205 	sub.w	r2, sl, r5
    7674:	eb0b 0105 	add.w	r1, fp, r5
    7678:	4640      	mov	r0, r8
    767a:	f042 0201 	orr.w	r2, r2, #1
    767e:	6099      	str	r1, [r3, #8]
    7680:	604a      	str	r2, [r1, #4]
    7682:	f8db 3004 	ldr.w	r3, [fp, #4]
    7686:	f003 0301 	and.w	r3, r3, #1
    768a:	432b      	orrs	r3, r5
    768c:	f8cb 3004 	str.w	r3, [fp, #4]
    7690:	f7fd ff8c 	bl	55ac <__malloc_unlock>
    7694:	e788      	b.n	75a8 <_realloc_r+0x11c>
    7696:	f850 3c04 	ldr.w	r3, [r0, #-4]
    769a:	f023 0303 	bic.w	r3, r3, #3
    769e:	441f      	add	r7, r3
    76a0:	e76e      	b.n	7580 <_realloc_r+0xf4>
    76a2:	6823      	ldr	r3, [r4, #0]
    76a4:	2a1b      	cmp	r2, #27
    76a6:	6003      	str	r3, [r0, #0]
    76a8:	6863      	ldr	r3, [r4, #4]
    76aa:	6043      	str	r3, [r0, #4]
    76ac:	d84e      	bhi.n	774c <_realloc_r+0x2c0>
    76ae:	f104 0208 	add.w	r2, r4, #8
    76b2:	f100 0308 	add.w	r3, r0, #8
    76b6:	e749      	b.n	754c <_realloc_r+0xc0>
    76b8:	1f3a      	subs	r2, r7, #4
    76ba:	465e      	mov	r6, fp
    76bc:	f8db 100c 	ldr.w	r1, [fp, #12]
    76c0:	f856 0f08 	ldr.w	r0, [r6, #8]!
    76c4:	2a24      	cmp	r2, #36	; 0x24
    76c6:	60c1      	str	r1, [r0, #12]
    76c8:	6088      	str	r0, [r1, #8]
    76ca:	d84c      	bhi.n	7766 <_realloc_r+0x2da>
    76cc:	2a13      	cmp	r2, #19
    76ce:	d948      	bls.n	7762 <_realloc_r+0x2d6>
    76d0:	6821      	ldr	r1, [r4, #0]
    76d2:	2a1b      	cmp	r2, #27
    76d4:	f8cb 1008 	str.w	r1, [fp, #8]
    76d8:	6861      	ldr	r1, [r4, #4]
    76da:	f8cb 100c 	str.w	r1, [fp, #12]
    76de:	d867      	bhi.n	77b0 <_realloc_r+0x324>
    76e0:	3408      	adds	r4, #8
    76e2:	f10b 0210 	add.w	r2, fp, #16
    76e6:	461f      	mov	r7, r3
    76e8:	6823      	ldr	r3, [r4, #0]
    76ea:	46d9      	mov	r9, fp
    76ec:	6013      	str	r3, [r2, #0]
    76ee:	6863      	ldr	r3, [r4, #4]
    76f0:	6053      	str	r3, [r2, #4]
    76f2:	68a3      	ldr	r3, [r4, #8]
    76f4:	4634      	mov	r4, r6
    76f6:	6093      	str	r3, [r2, #8]
    76f8:	e742      	b.n	7580 <_realloc_r+0xf4>
    76fa:	4621      	mov	r1, r4
    76fc:	f7ff fe4a 	bl	7394 <memmove>
    7700:	e72a      	b.n	7558 <_realloc_r+0xcc>
    7702:	e9dc 1302 	ldrd	r1, r3, [ip, #8]
    7706:	1f3a      	subs	r2, r7, #4
    7708:	465e      	mov	r6, fp
    770a:	60cb      	str	r3, [r1, #12]
    770c:	2a24      	cmp	r2, #36	; 0x24
    770e:	6099      	str	r1, [r3, #8]
    7710:	f8db 300c 	ldr.w	r3, [fp, #12]
    7714:	f856 1f08 	ldr.w	r1, [r6, #8]!
    7718:	60cb      	str	r3, [r1, #12]
    771a:	6099      	str	r1, [r3, #8]
    771c:	d840      	bhi.n	77a0 <_realloc_r+0x314>
    771e:	2a13      	cmp	r2, #19
    7720:	d93c      	bls.n	779c <_realloc_r+0x310>
    7722:	6823      	ldr	r3, [r4, #0]
    7724:	2a1b      	cmp	r2, #27
    7726:	f8cb 3008 	str.w	r3, [fp, #8]
    772a:	6863      	ldr	r3, [r4, #4]
    772c:	f8cb 300c 	str.w	r3, [fp, #12]
    7730:	d855      	bhi.n	77de <_realloc_r+0x352>
    7732:	3408      	adds	r4, #8
    7734:	f10b 0310 	add.w	r3, fp, #16
    7738:	6822      	ldr	r2, [r4, #0]
    773a:	4657      	mov	r7, sl
    773c:	46d9      	mov	r9, fp
    773e:	601a      	str	r2, [r3, #0]
    7740:	6862      	ldr	r2, [r4, #4]
    7742:	605a      	str	r2, [r3, #4]
    7744:	68a2      	ldr	r2, [r4, #8]
    7746:	4634      	mov	r4, r6
    7748:	609a      	str	r2, [r3, #8]
    774a:	e719      	b.n	7580 <_realloc_r+0xf4>
    774c:	68a3      	ldr	r3, [r4, #8]
    774e:	2a24      	cmp	r2, #36	; 0x24
    7750:	6083      	str	r3, [r0, #8]
    7752:	68e3      	ldr	r3, [r4, #12]
    7754:	60c3      	str	r3, [r0, #12]
    7756:	d039      	beq.n	77cc <_realloc_r+0x340>
    7758:	f104 0210 	add.w	r2, r4, #16
    775c:	f100 0310 	add.w	r3, r0, #16
    7760:	e6f4      	b.n	754c <_realloc_r+0xc0>
    7762:	4632      	mov	r2, r6
    7764:	e7bf      	b.n	76e6 <_realloc_r+0x25a>
    7766:	4621      	mov	r1, r4
    7768:	4630      	mov	r0, r6
    776a:	461f      	mov	r7, r3
    776c:	46d9      	mov	r9, fp
    776e:	4634      	mov	r4, r6
    7770:	f7ff fe10 	bl	7394 <memmove>
    7774:	e704      	b.n	7580 <_realloc_r+0xf4>
    7776:	1b49      	subs	r1, r1, r5
    7778:	eb09 0205 	add.w	r2, r9, r5
    777c:	4640      	mov	r0, r8
    777e:	4626      	mov	r6, r4
    7780:	f041 0101 	orr.w	r1, r1, #1
    7784:	609a      	str	r2, [r3, #8]
    7786:	6051      	str	r1, [r2, #4]
    7788:	f854 3c04 	ldr.w	r3, [r4, #-4]
    778c:	f003 0301 	and.w	r3, r3, #1
    7790:	432b      	orrs	r3, r5
    7792:	f844 3c04 	str.w	r3, [r4, #-4]
    7796:	f7fd ff09 	bl	55ac <__malloc_unlock>
    779a:	e705      	b.n	75a8 <_realloc_r+0x11c>
    779c:	4633      	mov	r3, r6
    779e:	e7cb      	b.n	7738 <_realloc_r+0x2ac>
    77a0:	4621      	mov	r1, r4
    77a2:	4630      	mov	r0, r6
    77a4:	4657      	mov	r7, sl
    77a6:	46d9      	mov	r9, fp
    77a8:	4634      	mov	r4, r6
    77aa:	f7ff fdf3 	bl	7394 <memmove>
    77ae:	e6e7      	b.n	7580 <_realloc_r+0xf4>
    77b0:	68a1      	ldr	r1, [r4, #8]
    77b2:	2a24      	cmp	r2, #36	; 0x24
    77b4:	f8cb 1010 	str.w	r1, [fp, #16]
    77b8:	68e1      	ldr	r1, [r4, #12]
    77ba:	f8cb 1014 	str.w	r1, [fp, #20]
    77be:	d022      	beq.n	7806 <_realloc_r+0x37a>
    77c0:	3410      	adds	r4, #16
    77c2:	f10b 0218 	add.w	r2, fp, #24
    77c6:	e78e      	b.n	76e6 <_realloc_r+0x25a>
    77c8:	20000438 	.word	0x20000438
    77cc:	6923      	ldr	r3, [r4, #16]
    77ce:	f104 0218 	add.w	r2, r4, #24
    77d2:	6103      	str	r3, [r0, #16]
    77d4:	6963      	ldr	r3, [r4, #20]
    77d6:	6143      	str	r3, [r0, #20]
    77d8:	f100 0318 	add.w	r3, r0, #24
    77dc:	e6b6      	b.n	754c <_realloc_r+0xc0>
    77de:	68a3      	ldr	r3, [r4, #8]
    77e0:	2a24      	cmp	r2, #36	; 0x24
    77e2:	f8cb 3010 	str.w	r3, [fp, #16]
    77e6:	68e3      	ldr	r3, [r4, #12]
    77e8:	f8cb 3014 	str.w	r3, [fp, #20]
    77ec:	d022      	beq.n	7834 <_realloc_r+0x3a8>
    77ee:	3410      	adds	r4, #16
    77f0:	f10b 0318 	add.w	r3, fp, #24
    77f4:	e7a0      	b.n	7738 <_realloc_r+0x2ac>
    77f6:	4632      	mov	r2, r6
    77f8:	e734      	b.n	7664 <_realloc_r+0x1d8>
    77fa:	4621      	mov	r1, r4
    77fc:	4630      	mov	r0, r6
    77fe:	f7ff fdc9 	bl	7394 <memmove>
    7802:	4b17      	ldr	r3, [pc, #92]	; (7860 <_realloc_r+0x3d4>)
    7804:	e734      	b.n	7670 <_realloc_r+0x1e4>
    7806:	6922      	ldr	r2, [r4, #16]
    7808:	3418      	adds	r4, #24
    780a:	f8cb 2018 	str.w	r2, [fp, #24]
    780e:	f854 2c04 	ldr.w	r2, [r4, #-4]
    7812:	f8cb 201c 	str.w	r2, [fp, #28]
    7816:	f10b 0220 	add.w	r2, fp, #32
    781a:	e764      	b.n	76e6 <_realloc_r+0x25a>
    781c:	68a1      	ldr	r1, [r4, #8]
    781e:	2a24      	cmp	r2, #36	; 0x24
    7820:	f8cb 1010 	str.w	r1, [fp, #16]
    7824:	68e1      	ldr	r1, [r4, #12]
    7826:	f8cb 1014 	str.w	r1, [fp, #20]
    782a:	d00e      	beq.n	784a <_realloc_r+0x3be>
    782c:	3410      	adds	r4, #16
    782e:	f10b 0218 	add.w	r2, fp, #24
    7832:	e717      	b.n	7664 <_realloc_r+0x1d8>
    7834:	6923      	ldr	r3, [r4, #16]
    7836:	3418      	adds	r4, #24
    7838:	f8cb 3018 	str.w	r3, [fp, #24]
    783c:	f854 3c04 	ldr.w	r3, [r4, #-4]
    7840:	f8cb 301c 	str.w	r3, [fp, #28]
    7844:	f10b 0320 	add.w	r3, fp, #32
    7848:	e776      	b.n	7738 <_realloc_r+0x2ac>
    784a:	6922      	ldr	r2, [r4, #16]
    784c:	3418      	adds	r4, #24
    784e:	f8cb 2018 	str.w	r2, [fp, #24]
    7852:	f854 2c04 	ldr.w	r2, [r4, #-4]
    7856:	f8cb 201c 	str.w	r2, [fp, #28]
    785a:	f10b 0220 	add.w	r2, fp, #32
    785e:	e701      	b.n	7664 <_realloc_r+0x1d8>
    7860:	20000438 	.word	0x20000438

00007864 <raise>:
    7864:	b538      	push	{r3, r4, r5, lr}
    7866:	281f      	cmp	r0, #31
    7868:	4b14      	ldr	r3, [pc, #80]	; (78bc <raise+0x58>)
    786a:	681d      	ldr	r5, [r3, #0]
    786c:	d820      	bhi.n	78b0 <raise+0x4c>
    786e:	f8d5 22dc 	ldr.w	r2, [r5, #732]	; 0x2dc
    7872:	4604      	mov	r4, r0
    7874:	b162      	cbz	r2, 7890 <raise+0x2c>
    7876:	f852 3020 	ldr.w	r3, [r2, r0, lsl #2]
    787a:	b14b      	cbz	r3, 7890 <raise+0x2c>
    787c:	2b01      	cmp	r3, #1
    787e:	d015      	beq.n	78ac <raise+0x48>
    7880:	1c59      	adds	r1, r3, #1
    7882:	d00f      	beq.n	78a4 <raise+0x40>
    7884:	2500      	movs	r5, #0
    7886:	f842 5020 	str.w	r5, [r2, r0, lsl #2]
    788a:	4798      	blx	r3
    788c:	4628      	mov	r0, r5
    788e:	bd38      	pop	{r3, r4, r5, pc}
    7890:	4628      	mov	r0, r5
    7892:	f000 f82b 	bl	78ec <_getpid_r>
    7896:	4622      	mov	r2, r4
    7898:	4601      	mov	r1, r0
    789a:	4628      	mov	r0, r5
    789c:	e8bd 4038 	ldmia.w	sp!, {r3, r4, r5, lr}
    78a0:	f000 b80e 	b.w	78c0 <_kill_r>
    78a4:	2316      	movs	r3, #22
    78a6:	2001      	movs	r0, #1
    78a8:	602b      	str	r3, [r5, #0]
    78aa:	bd38      	pop	{r3, r4, r5, pc}
    78ac:	2000      	movs	r0, #0
    78ae:	bd38      	pop	{r3, r4, r5, pc}
    78b0:	2316      	movs	r3, #22
    78b2:	f04f 30ff 	mov.w	r0, #4294967295	; 0xffffffff
    78b6:	602b      	str	r3, [r5, #0]
    78b8:	bd38      	pop	{r3, r4, r5, pc}
    78ba:	bf00      	nop
    78bc:	2000000c 	.word	0x2000000c

000078c0 <_kill_r>:
    78c0:	b570      	push	{r4, r5, r6, lr}
    78c2:	460c      	mov	r4, r1
    78c4:	4603      	mov	r3, r0
    78c6:	4d08      	ldr	r5, [pc, #32]	; (78e8 <_kill_r+0x28>)
    78c8:	2600      	movs	r6, #0
    78ca:	4620      	mov	r0, r4
    78cc:	4611      	mov	r1, r2
    78ce:	461c      	mov	r4, r3
    78d0:	602e      	str	r6, [r5, #0]
    78d2:	f000 faf9 	bl	7ec8 <_kill>
    78d6:	1c43      	adds	r3, r0, #1
    78d8:	d000      	beq.n	78dc <_kill_r+0x1c>
    78da:	bd70      	pop	{r4, r5, r6, pc}
    78dc:	682b      	ldr	r3, [r5, #0]
    78de:	2b00      	cmp	r3, #0
    78e0:	d0fb      	beq.n	78da <_kill_r+0x1a>
    78e2:	6023      	str	r3, [r4, #0]
    78e4:	bd70      	pop	{r4, r5, r6, pc}
    78e6:	bf00      	nop
    78e8:	2000344c 	.word	0x2000344c

000078ec <_getpid_r>:
    78ec:	f000 badc 	b.w	7ea8 <_getpid>

000078f0 <__sread>:
    78f0:	b510      	push	{r4, lr}
    78f2:	460c      	mov	r4, r1
    78f4:	f9b1 100e 	ldrsh.w	r1, [r1, #14]
    78f8:	f000 fab0 	bl	7e5c <_read_r>
    78fc:	2800      	cmp	r0, #0
    78fe:	db03      	blt.n	7908 <__sread+0x18>
    7900:	6d23      	ldr	r3, [r4, #80]	; 0x50
    7902:	4403      	add	r3, r0
    7904:	6523      	str	r3, [r4, #80]	; 0x50
    7906:	bd10      	pop	{r4, pc}
    7908:	89a3      	ldrh	r3, [r4, #12]
    790a:	f423 5380 	bic.w	r3, r3, #4096	; 0x1000
    790e:	81a3      	strh	r3, [r4, #12]
    7910:	bd10      	pop	{r4, pc}
    7912:	bf00      	nop

00007914 <__swrite>:
    7914:	e92d 41f0 	stmdb	sp!, {r4, r5, r6, r7, r8, lr}
    7918:	460c      	mov	r4, r1
    791a:	f9b1 100c 	ldrsh.w	r1, [r1, #12]
    791e:	461f      	mov	r7, r3
    7920:	4605      	mov	r5, r0
    7922:	05cb      	lsls	r3, r1, #23
    7924:	4616      	mov	r6, r2
    7926:	d40b      	bmi.n	7940 <__swrite+0x2c>
    7928:	f421 5180 	bic.w	r1, r1, #4096	; 0x1000
    792c:	463b      	mov	r3, r7
    792e:	4632      	mov	r2, r6
    7930:	4628      	mov	r0, r5
    7932:	81a1      	strh	r1, [r4, #12]
    7934:	f9b4 100e 	ldrsh.w	r1, [r4, #14]
    7938:	e8bd 41f0 	ldmia.w	sp!, {r4, r5, r6, r7, r8, lr}
    793c:	f000 b97c 	b.w	7c38 <_write_r>
    7940:	f9b4 100e 	ldrsh.w	r1, [r4, #14]
    7944:	2302      	movs	r3, #2
    7946:	2200      	movs	r2, #0
    7948:	f000 fa72 	bl	7e30 <_lseek_r>
    794c:	f9b4 100c 	ldrsh.w	r1, [r4, #12]
    7950:	e7ea      	b.n	7928 <__swrite+0x14>
    7952:	bf00      	nop

00007954 <__sseek>:
    7954:	b510      	push	{r4, lr}
    7956:	460c      	mov	r4, r1
    7958:	f9b1 100e 	ldrsh.w	r1, [r1, #14]
    795c:	f000 fa68 	bl	7e30 <_lseek_r>
    7960:	1c42      	adds	r2, r0, #1
    7962:	89a3      	ldrh	r3, [r4, #12]
    7964:	d004      	beq.n	7970 <__sseek+0x1c>
    7966:	f443 5380 	orr.w	r3, r3, #4096	; 0x1000
    796a:	6520      	str	r0, [r4, #80]	; 0x50
    796c:	81a3      	strh	r3, [r4, #12]
    796e:	bd10      	pop	{r4, pc}
    7970:	f423 5380 	bic.w	r3, r3, #4096	; 0x1000
    7974:	81a3      	strh	r3, [r4, #12]
    7976:	bd10      	pop	{r4, pc}

00007978 <__sclose>:
    7978:	f9b1 100e 	ldrsh.w	r1, [r1, #14]
    797c:	f000 b9b6 	b.w	7cec <_close_r>

00007980 <strlen>:
    7980:	f020 0103 	bic.w	r1, r0, #3
    7984:	f010 0003 	ands.w	r0, r0, #3
    7988:	f1c0 0000 	rsb	r0, r0, #0
    798c:	f851 3b04 	ldr.w	r3, [r1], #4
    7990:	f100 0c04 	add.w	ip, r0, #4
    7994:	ea4f 0ccc 	mov.w	ip, ip, lsl #3
    7998:	f06f 0200 	mvn.w	r2, #0
    799c:	bf1c      	itt	ne
    799e:	fa22 f20c 	lsrne.w	r2, r2, ip
    79a2:	4313      	orrne	r3, r2
    79a4:	f04f 0c01 	mov.w	ip, #1
    79a8:	ea4c 2c0c 	orr.w	ip, ip, ip, lsl #8
    79ac:	ea4c 4c0c 	orr.w	ip, ip, ip, lsl #16
    79b0:	eba3 020c 	sub.w	r2, r3, ip
    79b4:	ea22 0203 	bic.w	r2, r2, r3
    79b8:	ea12 12cc 	ands.w	r2, r2, ip, lsl #7
    79bc:	bf04      	itt	eq
    79be:	f851 3b04 	ldreq.w	r3, [r1], #4
    79c2:	3004      	addeq	r0, #4
    79c4:	d0f4      	beq.n	79b0 <strlen+0x30>
    79c6:	f1c2 0100 	rsb	r1, r2, #0
    79ca:	ea02 0201 	and.w	r2, r2, r1
    79ce:	fab2 f282 	clz	r2, r2
    79d2:	f1c2 021f 	rsb	r2, r2, #31
    79d6:	eb00 00d2 	add.w	r0, r0, r2, lsr #3
    79da:	4770      	bx	lr

000079dc <strncpy>:
    79dc:	ea40 0301 	orr.w	r3, r0, r1
    79e0:	079b      	lsls	r3, r3, #30
    79e2:	b530      	push	{r4, r5, lr}
    79e4:	d101      	bne.n	79ea <strncpy+0xe>
    79e6:	2a03      	cmp	r2, #3
    79e8:	d80f      	bhi.n	7a0a <strncpy+0x2e>
    79ea:	4684      	mov	ip, r0
    79ec:	f101 3eff 	add.w	lr, r1, #4294967295	; 0xffffffff
    79f0:	e007      	b.n	7a02 <strncpy+0x26>
    79f2:	f81e 1f01 	ldrb.w	r1, [lr, #1]!
    79f6:	1e54      	subs	r4, r2, #1
    79f8:	f803 1b01 	strb.w	r1, [r3], #1
    79fc:	b1c1      	cbz	r1, 7a30 <strncpy+0x54>
    79fe:	4622      	mov	r2, r4
    7a00:	469c      	mov	ip, r3
    7a02:	4663      	mov	r3, ip
    7a04:	2a00      	cmp	r2, #0
    7a06:	d1f4      	bne.n	79f2 <strncpy+0x16>
    7a08:	bd30      	pop	{r4, r5, pc}
    7a0a:	460b      	mov	r3, r1
    7a0c:	4684      	mov	ip, r0
    7a0e:	4619      	mov	r1, r3
    7a10:	f853 5b04 	ldr.w	r5, [r3], #4
    7a14:	f1a5 3401 	sub.w	r4, r5, #16843009	; 0x1010101
    7a18:	ea24 0405 	bic.w	r4, r4, r5
    7a1c:	f014 3f80 	tst.w	r4, #2155905152	; 0x80808080
    7a20:	d1e4      	bne.n	79ec <strncpy+0x10>
    7a22:	3a04      	subs	r2, #4
    7a24:	4619      	mov	r1, r3
    7a26:	f84c 5b04 	str.w	r5, [ip], #4
    7a2a:	2a03      	cmp	r2, #3
    7a2c:	d8ef      	bhi.n	7a0e <strncpy+0x32>
    7a2e:	e7dd      	b.n	79ec <strncpy+0x10>
    7a30:	2c00      	cmp	r4, #0
    7a32:	d0e9      	beq.n	7a08 <strncpy+0x2c>
    7a34:	4494      	add	ip, r2
    7a36:	f803 1b01 	strb.w	r1, [r3], #1
    7a3a:	4563      	cmp	r3, ip
    7a3c:	d1fb      	bne.n	7a36 <strncpy+0x5a>
    7a3e:	bd30      	pop	{r4, r5, pc}

00007a40 <__swbuf_r>:
    7a40:	b5f8      	push	{r3, r4, r5, r6, r7, lr}
    7a42:	460d      	mov	r5, r1
    7a44:	4606      	mov	r6, r0
    7a46:	4614      	mov	r4, r2
    7a48:	b110      	cbz	r0, 7a50 <__swbuf_r+0x10>
    7a4a:	6b83      	ldr	r3, [r0, #56]	; 0x38
    7a4c:	2b00      	cmp	r3, #0
    7a4e:	d043      	beq.n	7ad8 <__swbuf_r+0x98>
    7a50:	f9b4 200c 	ldrsh.w	r2, [r4, #12]
    7a54:	69a3      	ldr	r3, [r4, #24]
    7a56:	0717      	lsls	r7, r2, #28
    7a58:	b290      	uxth	r0, r2
    7a5a:	60a3      	str	r3, [r4, #8]
    7a5c:	d51b      	bpl.n	7a96 <__swbuf_r+0x56>
    7a5e:	6923      	ldr	r3, [r4, #16]
    7a60:	b1cb      	cbz	r3, 7a96 <__swbuf_r+0x56>
    7a62:	b2ed      	uxtb	r5, r5
    7a64:	0481      	lsls	r1, r0, #18
    7a66:	462f      	mov	r7, r5
    7a68:	d522      	bpl.n	7ab0 <__swbuf_r+0x70>
    7a6a:	6822      	ldr	r2, [r4, #0]
    7a6c:	6961      	ldr	r1, [r4, #20]
    7a6e:	1ad3      	subs	r3, r2, r3
    7a70:	4299      	cmp	r1, r3
    7a72:	dd29      	ble.n	7ac8 <__swbuf_r+0x88>
    7a74:	3301      	adds	r3, #1
    7a76:	68a1      	ldr	r1, [r4, #8]
    7a78:	3901      	subs	r1, #1
    7a7a:	60a1      	str	r1, [r4, #8]
    7a7c:	1c51      	adds	r1, r2, #1
    7a7e:	6021      	str	r1, [r4, #0]
    7a80:	7015      	strb	r5, [r2, #0]
    7a82:	6962      	ldr	r2, [r4, #20]
    7a84:	429a      	cmp	r2, r3
    7a86:	d02a      	beq.n	7ade <__swbuf_r+0x9e>
    7a88:	2d0a      	cmp	r5, #10
    7a8a:	d102      	bne.n	7a92 <__swbuf_r+0x52>
    7a8c:	89a3      	ldrh	r3, [r4, #12]
    7a8e:	07db      	lsls	r3, r3, #31
    7a90:	d425      	bmi.n	7ade <__swbuf_r+0x9e>
    7a92:	4638      	mov	r0, r7
    7a94:	bdf8      	pop	{r3, r4, r5, r6, r7, pc}
    7a96:	4621      	mov	r1, r4
    7a98:	4630      	mov	r0, r6
    7a9a:	f7fe fdc9 	bl	6630 <__swsetup_r>
    7a9e:	bb20      	cbnz	r0, 7aea <__swbuf_r+0xaa>
    7aa0:	f9b4 200c 	ldrsh.w	r2, [r4, #12]
    7aa4:	b2ed      	uxtb	r5, r5
    7aa6:	6923      	ldr	r3, [r4, #16]
    7aa8:	b290      	uxth	r0, r2
    7aaa:	462f      	mov	r7, r5
    7aac:	0481      	lsls	r1, r0, #18
    7aae:	d4dc      	bmi.n	7a6a <__swbuf_r+0x2a>
    7ab0:	f442 5200 	orr.w	r2, r2, #8192	; 0x2000
    7ab4:	6961      	ldr	r1, [r4, #20]
    7ab6:	81a2      	strh	r2, [r4, #12]
    7ab8:	6e62      	ldr	r2, [r4, #100]	; 0x64
    7aba:	f422 5200 	bic.w	r2, r2, #8192	; 0x2000
    7abe:	6662      	str	r2, [r4, #100]	; 0x64
    7ac0:	6822      	ldr	r2, [r4, #0]
    7ac2:	1ad3      	subs	r3, r2, r3
    7ac4:	4299      	cmp	r1, r3
    7ac6:	dcd5      	bgt.n	7a74 <__swbuf_r+0x34>
    7ac8:	4621      	mov	r1, r4
    7aca:	4630      	mov	r0, r6
    7acc:	f7fe ff36 	bl	693c <_fflush_r>
    7ad0:	b958      	cbnz	r0, 7aea <__swbuf_r+0xaa>
    7ad2:	6822      	ldr	r2, [r4, #0]
    7ad4:	2301      	movs	r3, #1
    7ad6:	e7ce      	b.n	7a76 <__swbuf_r+0x36>
    7ad8:	f7fe ff64 	bl	69a4 <__sinit>
    7adc:	e7b8      	b.n	7a50 <__swbuf_r+0x10>
    7ade:	4621      	mov	r1, r4
    7ae0:	4630      	mov	r0, r6
    7ae2:	f7fe ff2b 	bl	693c <_fflush_r>
    7ae6:	2800      	cmp	r0, #0
    7ae8:	d0d3      	beq.n	7a92 <__swbuf_r+0x52>
    7aea:	f04f 37ff 	mov.w	r7, #4294967295	; 0xffffffff
    7aee:	e7d0      	b.n	7a92 <__swbuf_r+0x52>

00007af0 <_wcsnrtombs_l>:
    7af0:	e92d 4ff0 	stmdb	sp!, {r4, r5, r6, r7, r8, r9, sl, fp, lr}
    7af4:	b08b      	sub	sp, #44	; 0x2c
    7af6:	4681      	mov	r9, r0
    7af8:	461e      	mov	r6, r3
    7afa:	f8dd a058 	ldr.w	sl, [sp, #88]	; 0x58
    7afe:	9103      	str	r1, [sp, #12]
    7b00:	9205      	str	r2, [sp, #20]
    7b02:	e9dd 7814 	ldrd	r7, r8, [sp, #80]	; 0x50
    7b06:	f1b8 0f00 	cmp.w	r8, #0
    7b0a:	d05c      	beq.n	7bc6 <_wcsnrtombs_l+0xd6>
    7b0c:	9b05      	ldr	r3, [sp, #20]
    7b0e:	681d      	ldr	r5, [r3, #0]
    7b10:	9b03      	ldr	r3, [sp, #12]
    7b12:	2b00      	cmp	r3, #0
    7b14:	d05e      	beq.n	7bd4 <_wcsnrtombs_l+0xe4>
    7b16:	2f00      	cmp	r7, #0
    7b18:	d06a      	beq.n	7bf0 <_wcsnrtombs_l+0x100>
    7b1a:	1e74      	subs	r4, r6, #1
    7b1c:	b34e      	cbz	r6, 7b72 <_wcsnrtombs_l+0x82>
    7b1e:	3d04      	subs	r5, #4
    7b20:	9b03      	ldr	r3, [sp, #12]
    7b22:	2600      	movs	r6, #0
    7b24:	9304      	str	r3, [sp, #16]
    7b26:	9501      	str	r5, [sp, #4]
    7b28:	e00b      	b.n	7b42 <_wcsnrtombs_l+0x52>
    7b2a:	9b03      	ldr	r3, [sp, #12]
    7b2c:	bb2b      	cbnz	r3, 7b7a <_wcsnrtombs_l+0x8a>
    7b2e:	9b01      	ldr	r3, [sp, #4]
    7b30:	681a      	ldr	r2, [r3, #0]
    7b32:	2a00      	cmp	r2, #0
    7b34:	d03a      	beq.n	7bac <_wcsnrtombs_l+0xbc>
    7b36:	45bc      	cmp	ip, r7
    7b38:	d25c      	bcs.n	7bf4 <_wcsnrtombs_l+0x104>
    7b3a:	3c01      	subs	r4, #1
    7b3c:	4666      	mov	r6, ip
    7b3e:	1c63      	adds	r3, r4, #1
    7b40:	d017      	beq.n	7b72 <_wcsnrtombs_l+0x82>
    7b42:	9901      	ldr	r1, [sp, #4]
    7b44:	4648      	mov	r0, r9
    7b46:	f8d8 3000 	ldr.w	r3, [r8]
    7b4a:	f851 2f04 	ldr.w	r2, [r1, #4]!
    7b4e:	9302      	str	r3, [sp, #8]
    7b50:	4643      	mov	r3, r8
    7b52:	9101      	str	r1, [sp, #4]
    7b54:	a907      	add	r1, sp, #28
    7b56:	f8da 50e0 	ldr.w	r5, [sl, #224]	; 0xe0
    7b5a:	f8d8 b004 	ldr.w	fp, [r8, #4]
    7b5e:	47a8      	blx	r5
    7b60:	1c42      	adds	r2, r0, #1
    7b62:	d03a      	beq.n	7bda <_wcsnrtombs_l+0xea>
    7b64:	eb00 0c06 	add.w	ip, r0, r6
    7b68:	45bc      	cmp	ip, r7
    7b6a:	d9de      	bls.n	7b2a <_wcsnrtombs_l+0x3a>
    7b6c:	9b02      	ldr	r3, [sp, #8]
    7b6e:	e9c8 3b00 	strd	r3, fp, [r8]
    7b72:	4630      	mov	r0, r6
    7b74:	b00b      	add	sp, #44	; 0x2c
    7b76:	e8bd 8ff0 	ldmia.w	sp!, {r4, r5, r6, r7, r8, r9, sl, fp, pc}
    7b7a:	2800      	cmp	r0, #0
    7b7c:	dd0e      	ble.n	7b9c <_wcsnrtombs_l+0xac>
    7b7e:	9b04      	ldr	r3, [sp, #16]
    7b80:	a907      	add	r1, sp, #28
    7b82:	9d01      	ldr	r5, [sp, #4]
    7b84:	4418      	add	r0, r3
    7b86:	1e5a      	subs	r2, r3, #1
    7b88:	f100 3eff 	add.w	lr, r0, #4294967295	; 0xffffffff
    7b8c:	f811 3b01 	ldrb.w	r3, [r1], #1
    7b90:	f802 3f01 	strb.w	r3, [r2, #1]!
    7b94:	4596      	cmp	lr, r2
    7b96:	d1f9      	bne.n	7b8c <_wcsnrtombs_l+0x9c>
    7b98:	9501      	str	r5, [sp, #4]
    7b9a:	9004      	str	r0, [sp, #16]
    7b9c:	9b05      	ldr	r3, [sp, #20]
    7b9e:	681a      	ldr	r2, [r3, #0]
    7ba0:	3204      	adds	r2, #4
    7ba2:	601a      	str	r2, [r3, #0]
    7ba4:	9b01      	ldr	r3, [sp, #4]
    7ba6:	681a      	ldr	r2, [r3, #0]
    7ba8:	2a00      	cmp	r2, #0
    7baa:	d1c4      	bne.n	7b36 <_wcsnrtombs_l+0x46>
    7bac:	9b03      	ldr	r3, [sp, #12]
    7bae:	b10b      	cbz	r3, 7bb4 <_wcsnrtombs_l+0xc4>
    7bb0:	9b05      	ldr	r3, [sp, #20]
    7bb2:	601a      	str	r2, [r3, #0]
    7bb4:	f10c 36ff 	add.w	r6, ip, #4294967295	; 0xffffffff
    7bb8:	2200      	movs	r2, #0
    7bba:	4630      	mov	r0, r6
    7bbc:	f8c8 2000 	str.w	r2, [r8]
    7bc0:	b00b      	add	sp, #44	; 0x2c
    7bc2:	e8bd 8ff0 	ldmia.w	sp!, {r4, r5, r6, r7, r8, r9, sl, fp, pc}
    7bc6:	9b05      	ldr	r3, [sp, #20]
    7bc8:	f500 788e 	add.w	r8, r0, #284	; 0x11c
    7bcc:	681d      	ldr	r5, [r3, #0]
    7bce:	9b03      	ldr	r3, [sp, #12]
    7bd0:	2b00      	cmp	r3, #0
    7bd2:	d1a0      	bne.n	7b16 <_wcsnrtombs_l+0x26>
    7bd4:	f04f 37ff 	mov.w	r7, #4294967295	; 0xffffffff
    7bd8:	e79f      	b.n	7b1a <_wcsnrtombs_l+0x2a>
    7bda:	4606      	mov	r6, r0
    7bdc:	218a      	movs	r1, #138	; 0x8a
    7bde:	2200      	movs	r2, #0
    7be0:	4630      	mov	r0, r6
    7be2:	f8c9 1000 	str.w	r1, [r9]
    7be6:	f8c8 2000 	str.w	r2, [r8]
    7bea:	b00b      	add	sp, #44	; 0x2c
    7bec:	e8bd 8ff0 	ldmia.w	sp!, {r4, r5, r6, r7, r8, r9, sl, fp, pc}
    7bf0:	463e      	mov	r6, r7
    7bf2:	e7be      	b.n	7b72 <_wcsnrtombs_l+0x82>
    7bf4:	4666      	mov	r6, ip
    7bf6:	e7bc      	b.n	7b72 <_wcsnrtombs_l+0x82>

00007bf8 <_wcsnrtombs_r>:
    7bf8:	b510      	push	{r4, lr}
    7bfa:	b084      	sub	sp, #16
    7bfc:	4c05      	ldr	r4, [pc, #20]	; (7c14 <_wcsnrtombs_r+0x1c>)
    7bfe:	9806      	ldr	r0, [sp, #24]
    7c00:	9000      	str	r0, [sp, #0]
    7c02:	9807      	ldr	r0, [sp, #28]
    7c04:	9001      	str	r0, [sp, #4]
    7c06:	4804      	ldr	r0, [pc, #16]	; (7c18 <_wcsnrtombs_r+0x20>)
    7c08:	6800      	ldr	r0, [r0, #0]
    7c0a:	9402      	str	r4, [sp, #8]
    7c0c:	f7ff ff70 	bl	7af0 <_wcsnrtombs_l>
    7c10:	b004      	add	sp, #16
    7c12:	bd10      	pop	{r4, pc}
    7c14:	2000084c 	.word	0x2000084c
    7c18:	2000000c 	.word	0x2000000c

00007c1c <__ascii_wctomb>:
    7c1c:	4603      	mov	r3, r0
    7c1e:	b149      	cbz	r1, 7c34 <__ascii_wctomb+0x18>
    7c20:	2aff      	cmp	r2, #255	; 0xff
    7c22:	d802      	bhi.n	7c2a <__ascii_wctomb+0xe>
    7c24:	2001      	movs	r0, #1
    7c26:	700a      	strb	r2, [r1, #0]
    7c28:	4770      	bx	lr
    7c2a:	228a      	movs	r2, #138	; 0x8a
    7c2c:	f04f 30ff 	mov.w	r0, #4294967295	; 0xffffffff
    7c30:	601a      	str	r2, [r3, #0]
    7c32:	4770      	bx	lr
    7c34:	4608      	mov	r0, r1
    7c36:	4770      	bx	lr

00007c38 <_write_r>:
    7c38:	b538      	push	{r3, r4, r5, lr}
    7c3a:	460c      	mov	r4, r1
    7c3c:	4684      	mov	ip, r0
    7c3e:	4611      	mov	r1, r2
    7c40:	4d07      	ldr	r5, [pc, #28]	; (7c60 <_write_r+0x28>)
    7c42:	461a      	mov	r2, r3
    7c44:	2300      	movs	r3, #0
    7c46:	4620      	mov	r0, r4
    7c48:	4664      	mov	r4, ip
    7c4a:	602b      	str	r3, [r5, #0]
    7c4c:	f000 f964 	bl	7f18 <_write>
    7c50:	1c43      	adds	r3, r0, #1
    7c52:	d000      	beq.n	7c56 <_write_r+0x1e>
    7c54:	bd38      	pop	{r3, r4, r5, pc}
    7c56:	682b      	ldr	r3, [r5, #0]
    7c58:	2b00      	cmp	r3, #0
    7c5a:	d0fb      	beq.n	7c54 <_write_r+0x1c>
    7c5c:	6023      	str	r3, [r4, #0]
    7c5e:	bd38      	pop	{r3, r4, r5, pc}
    7c60:	2000344c 	.word	0x2000344c

00007c64 <__register_exitproc>:
    7c64:	e92d 43f8 	stmdb	sp!, {r3, r4, r5, r6, r7, r8, r9, lr}
    7c68:	4d1e      	ldr	r5, [pc, #120]	; (7ce4 <__register_exitproc+0x80>)
    7c6a:	4606      	mov	r6, r0
    7c6c:	4698      	mov	r8, r3
    7c6e:	460f      	mov	r7, r1
    7c70:	6828      	ldr	r0, [r5, #0]
    7c72:	4691      	mov	r9, r2
    7c74:	f7ff fac8 	bl	7208 <__retarget_lock_acquire_recursive>
    7c78:	4b1b      	ldr	r3, [pc, #108]	; (7ce8 <__register_exitproc+0x84>)
    7c7a:	681b      	ldr	r3, [r3, #0]
    7c7c:	f8d3 4148 	ldr.w	r4, [r3, #328]	; 0x148
    7c80:	b32c      	cbz	r4, 7cce <__register_exitproc+0x6a>
    7c82:	6828      	ldr	r0, [r5, #0]
    7c84:	6865      	ldr	r5, [r4, #4]
    7c86:	2d1f      	cmp	r5, #31
    7c88:	dc26      	bgt.n	7cd8 <__register_exitproc+0x74>
    7c8a:	b94e      	cbnz	r6, 7ca0 <__register_exitproc+0x3c>
    7c8c:	1c6b      	adds	r3, r5, #1
    7c8e:	3502      	adds	r5, #2
    7c90:	6063      	str	r3, [r4, #4]
    7c92:	f844 7025 	str.w	r7, [r4, r5, lsl #2]
    7c96:	f7ff fab9 	bl	720c <__retarget_lock_release_recursive>
    7c9a:	2000      	movs	r0, #0
    7c9c:	e8bd 83f8 	ldmia.w	sp!, {r3, r4, r5, r6, r7, r8, r9, pc}
    7ca0:	eb04 0185 	add.w	r1, r4, r5, lsl #2
    7ca4:	2301      	movs	r3, #1
    7ca6:	2e02      	cmp	r6, #2
    7ca8:	f8c1 9088 	str.w	r9, [r1, #136]	; 0x88
    7cac:	fa03 f305 	lsl.w	r3, r3, r5
    7cb0:	f8d4 2188 	ldr.w	r2, [r4, #392]	; 0x188
    7cb4:	ea42 0203 	orr.w	r2, r2, r3
    7cb8:	f8c4 2188 	str.w	r2, [r4, #392]	; 0x188
    7cbc:	f8c1 8108 	str.w	r8, [r1, #264]	; 0x108
    7cc0:	d1e4      	bne.n	7c8c <__register_exitproc+0x28>
    7cc2:	f8d4 218c 	ldr.w	r2, [r4, #396]	; 0x18c
    7cc6:	431a      	orrs	r2, r3
    7cc8:	f8c4 218c 	str.w	r2, [r4, #396]	; 0x18c
    7ccc:	e7de      	b.n	7c8c <__register_exitproc+0x28>
    7cce:	f503 74a6 	add.w	r4, r3, #332	; 0x14c
    7cd2:	f8c3 4148 	str.w	r4, [r3, #328]	; 0x148
    7cd6:	e7d4      	b.n	7c82 <__register_exitproc+0x1e>
    7cd8:	f7ff fa98 	bl	720c <__retarget_lock_release_recursive>
    7cdc:	f04f 30ff 	mov.w	r0, #4294967295	; 0xffffffff
    7ce0:	e7dc      	b.n	7c9c <__register_exitproc+0x38>
    7ce2:	bf00      	nop
    7ce4:	20000848 	.word	0x20000848
    7ce8:	00008760 	.word	0x00008760

00007cec <_close_r>:
    7cec:	b538      	push	{r3, r4, r5, lr}
    7cee:	2200      	movs	r2, #0
    7cf0:	4d06      	ldr	r5, [pc, #24]	; (7d0c <_close_r+0x20>)
    7cf2:	4604      	mov	r4, r0
    7cf4:	4608      	mov	r0, r1
    7cf6:	602a      	str	r2, [r5, #0]
    7cf8:	f000 f8c6 	bl	7e88 <_close>
    7cfc:	1c43      	adds	r3, r0, #1
    7cfe:	d000      	beq.n	7d02 <_close_r+0x16>
    7d00:	bd38      	pop	{r3, r4, r5, pc}
    7d02:	682b      	ldr	r3, [r5, #0]
    7d04:	2b00      	cmp	r3, #0
    7d06:	d0fb      	beq.n	7d00 <_close_r+0x14>
    7d08:	6023      	str	r3, [r4, #0]
    7d0a:	bd38      	pop	{r3, r4, r5, pc}
    7d0c:	2000344c 	.word	0x2000344c

00007d10 <_fclose_r>:
    7d10:	b570      	push	{r4, r5, r6, lr}
    7d12:	2900      	cmp	r1, #0
    7d14:	d04a      	beq.n	7dac <_fclose_r+0x9c>
    7d16:	4605      	mov	r5, r0
    7d18:	460c      	mov	r4, r1
    7d1a:	b110      	cbz	r0, 7d22 <_fclose_r+0x12>
    7d1c:	6b83      	ldr	r3, [r0, #56]	; 0x38
    7d1e:	2b00      	cmp	r3, #0
    7d20:	d047      	beq.n	7db2 <_fclose_r+0xa2>
    7d22:	6e63      	ldr	r3, [r4, #100]	; 0x64
    7d24:	f9b4 200c 	ldrsh.w	r2, [r4, #12]
    7d28:	07d8      	lsls	r0, r3, #31
    7d2a:	d532      	bpl.n	7d92 <_fclose_r+0x82>
    7d2c:	2a00      	cmp	r2, #0
    7d2e:	d03d      	beq.n	7dac <_fclose_r+0x9c>
    7d30:	4621      	mov	r1, r4
    7d32:	4628      	mov	r0, r5
    7d34:	f7fe fd5c 	bl	67f0 <__sflush_r>
    7d38:	6ae3      	ldr	r3, [r4, #44]	; 0x2c
    7d3a:	4606      	mov	r6, r0
    7d3c:	b133      	cbz	r3, 7d4c <_fclose_r+0x3c>
    7d3e:	69e1      	ldr	r1, [r4, #28]
    7d40:	4628      	mov	r0, r5
    7d42:	4798      	blx	r3
    7d44:	2800      	cmp	r0, #0
    7d46:	bfb8      	it	lt
    7d48:	f04f 36ff 	movlt.w	r6, #4294967295	; 0xffffffff
    7d4c:	89a3      	ldrh	r3, [r4, #12]
    7d4e:	061a      	lsls	r2, r3, #24
    7d50:	d43c      	bmi.n	7dcc <_fclose_r+0xbc>
    7d52:	6b21      	ldr	r1, [r4, #48]	; 0x30
    7d54:	b141      	cbz	r1, 7d68 <_fclose_r+0x58>
    7d56:	f104 0340 	add.w	r3, r4, #64	; 0x40
    7d5a:	4299      	cmp	r1, r3
    7d5c:	d002      	beq.n	7d64 <_fclose_r+0x54>
    7d5e:	4628      	mov	r0, r5
    7d60:	f7fe ff9c 	bl	6c9c <_free_r>
    7d64:	2300      	movs	r3, #0
    7d66:	6323      	str	r3, [r4, #48]	; 0x30
    7d68:	6c61      	ldr	r1, [r4, #68]	; 0x44
    7d6a:	b121      	cbz	r1, 7d76 <_fclose_r+0x66>
    7d6c:	4628      	mov	r0, r5
    7d6e:	f7fe ff95 	bl	6c9c <_free_r>
    7d72:	2300      	movs	r3, #0
    7d74:	6463      	str	r3, [r4, #68]	; 0x44
    7d76:	f7fe fe9d 	bl	6ab4 <__sfp_lock_acquire>
    7d7a:	6e63      	ldr	r3, [r4, #100]	; 0x64
    7d7c:	2200      	movs	r2, #0
    7d7e:	07db      	lsls	r3, r3, #31
    7d80:	81a2      	strh	r2, [r4, #12]
    7d82:	d528      	bpl.n	7dd6 <_fclose_r+0xc6>
    7d84:	6da0      	ldr	r0, [r4, #88]	; 0x58
    7d86:	f7ff fa3d 	bl	7204 <__retarget_lock_close_recursive>
    7d8a:	f7fe fe99 	bl	6ac0 <__sfp_lock_release>
    7d8e:	4630      	mov	r0, r6
    7d90:	bd70      	pop	{r4, r5, r6, pc}
    7d92:	0591      	lsls	r1, r2, #22
    7d94:	d4cc      	bmi.n	7d30 <_fclose_r+0x20>
    7d96:	6da0      	ldr	r0, [r4, #88]	; 0x58
    7d98:	f7ff fa36 	bl	7208 <__retarget_lock_acquire_recursive>
    7d9c:	f9b4 300c 	ldrsh.w	r3, [r4, #12]
    7da0:	2b00      	cmp	r3, #0
    7da2:	d1c5      	bne.n	7d30 <_fclose_r+0x20>
    7da4:	6e66      	ldr	r6, [r4, #100]	; 0x64
    7da6:	f016 0601 	ands.w	r6, r6, #1
    7daa:	d00a      	beq.n	7dc2 <_fclose_r+0xb2>
    7dac:	2600      	movs	r6, #0
    7dae:	4630      	mov	r0, r6
    7db0:	bd70      	pop	{r4, r5, r6, pc}
    7db2:	f7fe fdf7 	bl	69a4 <__sinit>
    7db6:	6e63      	ldr	r3, [r4, #100]	; 0x64
    7db8:	f9b4 200c 	ldrsh.w	r2, [r4, #12]
    7dbc:	07d8      	lsls	r0, r3, #31
    7dbe:	d4b5      	bmi.n	7d2c <_fclose_r+0x1c>
    7dc0:	e7e7      	b.n	7d92 <_fclose_r+0x82>
    7dc2:	6da0      	ldr	r0, [r4, #88]	; 0x58
    7dc4:	f7ff fa22 	bl	720c <__retarget_lock_release_recursive>
    7dc8:	4630      	mov	r0, r6
    7dca:	bd70      	pop	{r4, r5, r6, pc}
    7dcc:	6921      	ldr	r1, [r4, #16]
    7dce:	4628      	mov	r0, r5
    7dd0:	f7fe ff64 	bl	6c9c <_free_r>
    7dd4:	e7bd      	b.n	7d52 <_fclose_r+0x42>
    7dd6:	6da0      	ldr	r0, [r4, #88]	; 0x58
    7dd8:	f7ff fa18 	bl	720c <__retarget_lock_release_recursive>
    7ddc:	e7d2      	b.n	7d84 <_fclose_r+0x74>
    7dde:	bf00      	nop

00007de0 <_fstat_r>:
    7de0:	b570      	push	{r4, r5, r6, lr}
    7de2:	460c      	mov	r4, r1
    7de4:	4603      	mov	r3, r0
    7de6:	4d08      	ldr	r5, [pc, #32]	; (7e08 <_fstat_r+0x28>)
    7de8:	2600      	movs	r6, #0
    7dea:	4620      	mov	r0, r4
    7dec:	4611      	mov	r1, r2
    7dee:	461c      	mov	r4, r3
    7df0:	602e      	str	r6, [r5, #0]
    7df2:	f000 f851 	bl	7e98 <_fstat>
    7df6:	1c43      	adds	r3, r0, #1
    7df8:	d000      	beq.n	7dfc <_fstat_r+0x1c>
    7dfa:	bd70      	pop	{r4, r5, r6, pc}
    7dfc:	682b      	ldr	r3, [r5, #0]
    7dfe:	2b00      	cmp	r3, #0
    7e00:	d0fb      	beq.n	7dfa <_fstat_r+0x1a>
    7e02:	6023      	str	r3, [r4, #0]
    7e04:	bd70      	pop	{r4, r5, r6, pc}
    7e06:	bf00      	nop
    7e08:	2000344c 	.word	0x2000344c

00007e0c <_isatty_r>:
    7e0c:	b538      	push	{r3, r4, r5, lr}
    7e0e:	2200      	movs	r2, #0
    7e10:	4d06      	ldr	r5, [pc, #24]	; (7e2c <_isatty_r+0x20>)
    7e12:	4604      	mov	r4, r0
    7e14:	4608      	mov	r0, r1
    7e16:	602a      	str	r2, [r5, #0]
    7e18:	f000 f84e 	bl	7eb8 <_isatty>
    7e1c:	1c43      	adds	r3, r0, #1
    7e1e:	d000      	beq.n	7e22 <_isatty_r+0x16>
    7e20:	bd38      	pop	{r3, r4, r5, pc}
    7e22:	682b      	ldr	r3, [r5, #0]
    7e24:	2b00      	cmp	r3, #0
    7e26:	d0fb      	beq.n	7e20 <_isatty_r+0x14>
    7e28:	6023      	str	r3, [r4, #0]
    7e2a:	bd38      	pop	{r3, r4, r5, pc}
    7e2c:	2000344c 	.word	0x2000344c

00007e30 <_lseek_r>:
    7e30:	b538      	push	{r3, r4, r5, lr}
    7e32:	460c      	mov	r4, r1
    7e34:	4684      	mov	ip, r0
    7e36:	4611      	mov	r1, r2
    7e38:	4d07      	ldr	r5, [pc, #28]	; (7e58 <_lseek_r+0x28>)
    7e3a:	461a      	mov	r2, r3
    7e3c:	2300      	movs	r3, #0
    7e3e:	4620      	mov	r0, r4
    7e40:	4664      	mov	r4, ip
    7e42:	602b      	str	r3, [r5, #0]
    7e44:	f000 f848 	bl	7ed8 <_lseek>
    7e48:	1c43      	adds	r3, r0, #1
    7e4a:	d000      	beq.n	7e4e <_lseek_r+0x1e>
    7e4c:	bd38      	pop	{r3, r4, r5, pc}
    7e4e:	682b      	ldr	r3, [r5, #0]
    7e50:	2b00      	cmp	r3, #0
    7e52:	d0fb      	beq.n	7e4c <_lseek_r+0x1c>
    7e54:	6023      	str	r3, [r4, #0]
    7e56:	bd38      	pop	{r3, r4, r5, pc}
    7e58:	2000344c 	.word	0x2000344c

00007e5c <_read_r>:
    7e5c:	b538      	push	{r3, r4, r5, lr}
    7e5e:	460c      	mov	r4, r1
    7e60:	4684      	mov	ip, r0
    7e62:	4611      	mov	r1, r2
    7e64:	4d07      	ldr	r5, [pc, #28]	; (7e84 <_read_r+0x28>)
    7e66:	461a      	mov	r2, r3
    7e68:	2300      	movs	r3, #0
    7e6a:	4620      	mov	r0, r4
    7e6c:	4664      	mov	r4, ip
    7e6e:	602b      	str	r3, [r5, #0]
    7e70:	f000 f83a 	bl	7ee8 <_read>
    7e74:	1c43      	adds	r3, r0, #1
    7e76:	d000      	beq.n	7e7a <_read_r+0x1e>
    7e78:	bd38      	pop	{r3, r4, r5, pc}
    7e7a:	682b      	ldr	r3, [r5, #0]
    7e7c:	2b00      	cmp	r3, #0
    7e7e:	d0fb      	beq.n	7e78 <_read_r+0x1c>
    7e80:	6023      	str	r3, [r4, #0]
    7e82:	bd38      	pop	{r3, r4, r5, pc}
    7e84:	2000344c 	.word	0x2000344c

00007e88 <_close>:
    7e88:	4b02      	ldr	r3, [pc, #8]	; (7e94 <_close+0xc>)
    7e8a:	2258      	movs	r2, #88	; 0x58
    7e8c:	f04f 30ff 	mov.w	r0, #4294967295	; 0xffffffff
    7e90:	601a      	str	r2, [r3, #0]
    7e92:	4770      	bx	lr
    7e94:	2000344c 	.word	0x2000344c

00007e98 <_fstat>:
    7e98:	4b02      	ldr	r3, [pc, #8]	; (7ea4 <_fstat+0xc>)
    7e9a:	2258      	movs	r2, #88	; 0x58
    7e9c:	f04f 30ff 	mov.w	r0, #4294967295	; 0xffffffff
    7ea0:	601a      	str	r2, [r3, #0]
    7ea2:	4770      	bx	lr
    7ea4:	2000344c 	.word	0x2000344c

00007ea8 <_getpid>:
    7ea8:	4b02      	ldr	r3, [pc, #8]	; (7eb4 <_getpid+0xc>)
    7eaa:	2258      	movs	r2, #88	; 0x58
    7eac:	f04f 30ff 	mov.w	r0, #4294967295	; 0xffffffff
    7eb0:	601a      	str	r2, [r3, #0]
    7eb2:	4770      	bx	lr
    7eb4:	2000344c 	.word	0x2000344c

00007eb8 <_isatty>:
    7eb8:	4b02      	ldr	r3, [pc, #8]	; (7ec4 <_isatty+0xc>)
    7eba:	2258      	movs	r2, #88	; 0x58
    7ebc:	2000      	movs	r0, #0
    7ebe:	601a      	str	r2, [r3, #0]
    7ec0:	4770      	bx	lr
    7ec2:	bf00      	nop
    7ec4:	2000344c 	.word	0x2000344c

00007ec8 <_kill>:
    7ec8:	4b02      	ldr	r3, [pc, #8]	; (7ed4 <_kill+0xc>)
    7eca:	2258      	movs	r2, #88	; 0x58
    7ecc:	f04f 30ff 	mov.w	r0, #4294967295	; 0xffffffff
    7ed0:	601a      	str	r2, [r3, #0]
    7ed2:	4770      	bx	lr
    7ed4:	2000344c 	.word	0x2000344c

00007ed8 <_lseek>:
    7ed8:	4b02      	ldr	r3, [pc, #8]	; (7ee4 <_lseek+0xc>)
    7eda:	2258      	movs	r2, #88	; 0x58
    7edc:	f04f 30ff 	mov.w	r0, #4294967295	; 0xffffffff
    7ee0:	601a      	str	r2, [r3, #0]
    7ee2:	4770      	bx	lr
    7ee4:	2000344c 	.word	0x2000344c

00007ee8 <_read>:
    7ee8:	4b02      	ldr	r3, [pc, #8]	; (7ef4 <_read+0xc>)
    7eea:	2258      	movs	r2, #88	; 0x58
    7eec:	f04f 30ff 	mov.w	r0, #4294967295	; 0xffffffff
    7ef0:	601a      	str	r2, [r3, #0]
    7ef2:	4770      	bx	lr
    7ef4:	2000344c 	.word	0x2000344c

00007ef8 <_sbrk>:
    7ef8:	4a05      	ldr	r2, [pc, #20]	; (7f10 <_sbrk+0x18>)
    7efa:	4603      	mov	r3, r0
    7efc:	6810      	ldr	r0, [r2, #0]
    7efe:	b110      	cbz	r0, 7f06 <_sbrk+0xe>
    7f00:	4403      	add	r3, r0
    7f02:	6013      	str	r3, [r2, #0]
    7f04:	4770      	bx	lr
    7f06:	4803      	ldr	r0, [pc, #12]	; (7f14 <_sbrk+0x1c>)
    7f08:	4403      	add	r3, r0
    7f0a:	6013      	str	r3, [r2, #0]
    7f0c:	4770      	bx	lr
    7f0e:	bf00      	nop
    7f10:	20003450 	.word	0x20003450
    7f14:	20003458 	.word	0x20003458

00007f18 <_write>:
    7f18:	4b02      	ldr	r3, [pc, #8]	; (7f24 <_write+0xc>)
    7f1a:	2258      	movs	r2, #88	; 0x58
    7f1c:	f04f 30ff 	mov.w	r0, #4294967295	; 0xffffffff
    7f20:	601a      	str	r2, [r3, #0]
    7f22:	4770      	bx	lr
    7f24:	2000344c 	.word	0x2000344c

00007f28 <_exit>:
    7f28:	e7fe      	b.n	7f28 <_exit>
    7f2a:	bf00      	nop
    7f2c:	76697264 	.word	0x76697264
    7f30:	2f737265 	.word	0x2f737265
    7f34:	5f6c7366 	.word	0x5f6c7366
    7f38:	6d6d6f63 	.word	0x6d6d6f63
    7f3c:	615f6e6f 	.word	0x615f6e6f
    7f40:	632e6d72 	.word	0x632e6d72
    7f44:	44534d00 	.word	0x44534d00
    7f48:	6e455f4b 	.word	0x6e455f4b
    7f4c:	656c6261 	.word	0x656c6261
    7f50:	43757043 	.word	0x43757043
    7f54:	656c6379 	.word	0x656c6379
    7f58:	6e756f43 	.word	0x6e756f43
    7f5c:	00726574 	.word	0x00726574
    7f60:	5f545744 	.word	0x5f545744
    7f64:	4c525443 	.word	0x4c525443
    7f68:	434f4e5f 	.word	0x434f4e5f
    7f6c:	4e434359 	.word	0x4e434359
    7f70:	734d5f54 	.word	0x734d5f54
    7f74:	3d21206b 	.word	0x3d21206b
    7f78:	57442820 	.word	0x57442820
    7f7c:	433e2d54 	.word	0x433e2d54
    7f80:	204c5254 	.word	0x204c5254
    7f84:	57442026 	.word	0x57442026
    7f88:	54435f54 	.word	0x54435f54
    7f8c:	4e5f4c52 	.word	0x4e5f4c52
    7f90:	4359434f 	.word	0x4359434f
    7f94:	5f544e43 	.word	0x5f544e43
    7f98:	296b734d 	.word	0x296b734d
    7f9c:	4b445300 	.word	0x4b445300
    7fa0:	6c65445f 	.word	0x6c65445f
    7fa4:	74417961 	.word	0x74417961
    7fa8:	7361654c 	.word	0x7361654c
    7fac:	00735574 	.word	0x00735574
    7fb0:	6e756f63 	.word	0x6e756f63
    7fb4:	3d3c2074 	.word	0x3d3c2074
    7fb8:	4e495520 	.word	0x4e495520
    7fbc:	5f323354 	.word	0x5f323354
    7fc0:	0058414d 	.word	0x0058414d
    7fc4:	76697264 	.word	0x76697264
    7fc8:	2f737265 	.word	0x2f737265
    7fcc:	5f6c7366 	.word	0x5f6c7366
    7fd0:	65736572 	.word	0x65736572
    7fd4:	00632e74 	.word	0x00632e74
    7fd8:	45534552 	.word	0x45534552
    7fdc:	65535f54 	.word	0x65535f54
    7fe0:	72655074 	.word	0x72655074
    7fe4:	65687069 	.word	0x65687069
    7fe8:	526c6172 	.word	0x526c6172
    7fec:	74657365 	.word	0x74657365
    7ff0:	74696200 	.word	0x74696200
    7ff4:	20736f50 	.word	0x20736f50
    7ff8:	3233203c 	.word	0x3233203c
    7ffc:	45520075 	.word	0x45520075
    8000:	5f544553 	.word	0x5f544553
    8004:	61656c43 	.word	0x61656c43
    8008:	72655072 	.word	0x72655072
    800c:	65687069 	.word	0x65687069
    8010:	526c6172 	.word	0x526c6172
    8014:	74657365 	.word	0x74657365
    8018:	00          	.byte	0x00
    8019:	64          	.byte	0x64
    801a:	6972      	.short	0x6972
    801c:	73726576 	.word	0x73726576
    8020:	6c73662f 	.word	0x6c73662f
    8024:	6970675f 	.word	0x6970675f
    8028:	00632e6f 	.word	0x00632e6f
    802c:	4f495047 	.word	0x4f495047
    8030:	616e455f 	.word	0x616e455f
    8034:	50656c62 	.word	0x50656c62
    8038:	4374726f 	.word	0x4374726f
    803c:	6b636f6c 	.word	0x6b636f6c
    8040:	726f7000 	.word	0x726f7000
    8044:	203c2074 	.word	0x203c2074
    8048:	41525241 	.word	0x41525241
    804c:	49535f59 	.word	0x49535f59
    8050:	7328455a 	.word	0x7328455a
    8054:	6970675f 	.word	0x6970675f
    8058:	6f6c436f 	.word	0x6f6c436f
    805c:	614e6b63 	.word	0x614e6b63
    8060:	0029656d 	.word	0x0029656d

00008064 <s_gpioClockName>:
    8064:	000f000e 00110010                       ........

0000806c <s_flexcommBaseAddrs>:
    806c:	40086000 40087000 40088000 40089000     .`.@.p.@...@...@
    807c:	4008a000 40096000 40097000 40098000     ...@.`.@.p.@...@
    808c:	4009f000 76697264 2f737265 5f6c7366     ...@drivers/fsl_
    809c:	78656c66 6d6d6f63 4600632e 4358454c     flexcomm.c.FLEXC
    80ac:	5f4d4d4f 49746547 6174736e 0065636e     OMM_GetInstance.
    80bc:	203c2069 6e697528 5f323374 53462974     i < (uint32_t)FS
    80cc:	45465f4c 52555441 4f535f45 4c465f43     L_FEATURE_SOC_FL
    80dc:	4f435845 435f4d4d 544e554f 454c4600     EXCOMM_COUNT.FLE
    80ec:	4d4f4358 445f304d 65766972 51524972     XCOMM0_DriverIRQ
    80fc:	646e6148 0072656c 6c665f73 6f637865     Handler.s_flexco
    810c:	72496d6d 6e614871 72656c64 736e695b     mmIrqHandler[ins
    811c:	636e6174 21205d65 554e203d 46004c4c     tance] != NULL.F
    812c:	4358454c 314d4d4f 6972445f 49726576     LEXCOMM1_DriverI
    813c:	61485152 656c646e 4c460072 4f435845     RQHandler.FLEXCO
    814c:	5f324d4d 76697244 52497265 6e614851     MM2_DriverIRQHan
    815c:	72656c64 454c4600 4d4f4358 445f334d     dler.FLEXCOMM3_D
    816c:	65766972 51524972 646e6148 0072656c     riverIRQHandler.
    817c:	58454c46 4d4d4f43 72445f34 72657669     FLEXCOMM4_Driver
    818c:	48515249 6c646e61 46007265 4358454c     IRQHandler.FLEXC
    819c:	354d4d4f 6972445f 49726576 61485152     OMM5_DriverIRQHa
    81ac:	656c646e 4c460072 4f435845 5f364d4d     ndler.FLEXCOMM6_
    81bc:	76697244 52497265 6e614851 72656c64     DriverIRQHandler
    81cc:	454c4600 4d4f4358 445f374d 65766972     .FLEXCOMM7_Drive
    81dc:	51524972 646e6148 0072656c 58454c46     rIRQHandler.FLEX
    81ec:	4d4d4f43 72445f38 72657669 48515249     COMM8_DriverIRQH
    81fc:	6c646e61 00007265                       andler..

00008204 <s_flexcommClocks>:
    8204:	010c010b 010e010d 0110010f 01120111     ................
    8214:	0000021c                                ....

00008218 <s_flexcommResets>:
    8218:	0001000b 0001000c 0001000d 0001000e     ................
    8228:	0001000f 00010010 00010011 00010012     ................
    8238:	0002001c 76697264 2f737265 5f6c7366     ....drivers/fsl_
    8248:	72617375 00632e74 52415355 65475f54     usart.c.USART_Ge
    8258:	736e4974 636e6174 20690065 7528203c     tInstance.i < (u
    8268:	33746e69 29745f32 5f4c5346 54414546     int32_t)FSL_FEAT
    8278:	5f455255 5f434f53 52415355 4f435f54     URE_SOC_USART_CO
    8288:	00544e55 52415355 72545f54 66736e61     UNT.USART_Transf
    8298:	65477265 52785274 42676e69 65666675     erGetRxRingBuffe
    82a8:	6e654c72 00687467 4c4c554e 203d2120     rLength.NULL != 
    82b8:	646e6168 5500656c 54524153 6172545f     handle.USART_Tra
    82c8:	6566736e 61745372 69527472 7542676e     nsferStartRingBu
    82d8:	72656666 4c554e00 3d21204c 73616220     ffer.NULL != bas
    82e8:	554e0065 21204c4c 6972203d 7542676e     e.NULL != ringBu
    82f8:	72656666 41535500 545f5452 736e6172     ffer.USART_Trans
    8308:	53726566 52706f74 42676e69 65666675     ferStopRingBuffe
    8318:	53550072 5f545241 74696e49 28282100     r.USART_Init.!((
    8328:	4c4c554e 203d3d20 65736162 7c7c2029     NULL == base) ||
    8338:	554e2820 3d204c4c 6f63203d 6769666e      (NULL == config
    8348:	7c7c2029 55302820 203d3d20 43637273     ) || (0U == srcC
    8358:	6b636f6c 297a485f 53550029 5f545241     lock_Hz)).USART_
    8368:	6e696544 55007469 54524153 7465475f     Deinit.USART_Get
    8378:	61666544 43746c75 69666e6f 554e0067     DefaultConfig.NU
    8388:	21204c4c 6f63203d 6769666e 41535500     LL != config.USA
    8398:	535f5452 61427465 61526475 21006574     RT_SetBaudRate.!
    83a8:	554e2828 3d204c4c 6162203d 20296573     ((NULL == base) 
    83b8:	28207c7c 3d205530 6162203d 61726475     || (0U == baudra
    83c8:	425f6574 20297370 28207c7c 3d205530     te_Bps) || (0U =
    83d8:	7273203d 6f6c4363 485f6b63 0029297a     = srcClock_Hz)).
    83e8:	52415355 6e455f54 656c6261 74696239     USART_Enable9bit
    83f8:	65646f4d 73616200 3d212065 4c554e20     Mode.base != NUL
    8408:	5355004c 5f545241 646e6553 72646441     L.USART_SendAddr
    8418:	00737365 52415355 72575f54 42657469     ess.USART_WriteB
    8428:	6b636f6c 00676e69 4e282821 204c4c55     locking.!((NULL 
    8438:	62203d3d 29657361 207c7c20 4c554e28     == base) || (NUL
    8448:	3d3d204c 74616420 00292961 52415355     L == data)).USAR
    8458:	65525f54 6c426461 696b636f 5500676e     T_ReadBlocking.U
    8468:	54524153 6172545f 6566736e 65724372     SART_TransferCre
    8478:	48657461 6c646e61 28210065 4c554e28     ateHandle.!((NUL
    8488:	3d3d204c 73616220 7c202965 4e28207c     L == base) || (N
    8498:	204c4c55 68203d3d 6c646e61 00292965     ULL == handle)).
    84a8:	52415355 72545f54 66736e61 65537265     USART_TransferSe
    84b8:	6f4e646e 6f6c426e 6e696b63 28210067     ndNonBlocking.!(
    84c8:	4c554e28 3d3d204c 73616220 7c202965     (NULL == base) |
    84d8:	4e28207c 204c4c55 68203d3d 6c646e61     | (NULL == handl
    84e8:	7c202965 4e28207c 204c4c55 78203d3d     e) || (NULL == x
    84f8:	29726566 28210029 20553028 78203d3d     fer)).!((0U == x
    8508:	2d726566 7461643e 7a695361 7c202965     fer->dataSize) |
    8518:	4e28207c 204c4c55 78203d3d 2d726566     | (NULL == xfer-
    8528:	4478743e 29617461 53550029 5f545241     >txData)).USART_
    8538:	6e617254 72656673 726f6241 6e655374     TransferAbortSen
    8548:	53550064 5f545241 6e617254 72656673     d.USART_Transfer
    8558:	53746547 43646e65 746e756f 4c554e00     GetSendCount.NUL
    8568:	3d21204c 756f6320 5500746e 54524153     L != count.USART
    8578:	6172545f 6566736e 63655272 65766965     _TransferReceive
    8588:	426e6f4e 6b636f6c 00676e69 30282821     NonBlocking.!((0
    8598:	3d3d2055 65667820 643e2d72 53617461     U == xfer->dataS
    85a8:	29657a69 207c7c20 4c554e28 3d3d204c     ize) || (NULL ==
    85b8:	65667820 723e2d72 74614478 00292961      xfer->rxData)).
    85c8:	52415355 72545f54 66736e61 62417265     USART_TransferAb
    85d8:	5274726f 69656365 55006576 54524153     ortReceive.USART
    85e8:	6172545f 6566736e 74654772 65636552     _TransferGetRece
    85f8:	43657669 746e756f 41535500 545f5452     iveCount.USART_T
    8608:	736e6172 48726566 6c646e61 51524965     ransferHandleIRQ
    8618:	554e2800 21204c4c 6162203d 20296573     .(NULL != base) 
    8628:	28202626 4c4c554e 203d2120 646e6168     && (NULL != hand
    8638:	0029656c 52415355 72545f54 66736e61     le).USART_Transf
    8648:	73497265 69527852 7542676e 72656666     erIsRxRingBuffer
    8658:	6c6c7546 00000000                       Full....

00008660 <uxTopUsedPriority>:
    8660:	00000004 454c4449 726d5400 63765320     ....IDLE.Tmr Svc
    8670:	726d5400 00000051 00207f50 00000008     .TmrQ...P. .....
    8680:	00000001 00000000 00000000 10025800     .............X..
    8690:	08f0d180 00000002                       ........

00008698 <DEBUG_USART_config>:
    8698:	0001c200 00010000 00000101 00000000     ................
    86a8:	00000000 01010101                        ..........

000086b2 <key_stored>:
    86b2:	ef9e968d c2d3ca6e 92623a9a cf86e680     ....n....:b.....
    86c2:	5a5d3f0c caf3af86 920c0212 926cdc3a     .?]Z........:.l.
    86d2:	72756f73 6d2f6563 2e6e6961 68630063     source/main.c.ch
    86e2:	006b6365 6174536b 5f737574 63637553     eck.kStatus_Succ
    86f2:	20737365 73203d3d 75746174 756f0073     ess == status.ou
    8702:	74757074 7a69735f 3d3d2065 75323320     tput_size == 32u
    8712:	65686300 745f6b63 006b7361 202c0000     .check_task..., 
    8722:	636e7566 6e6f6974 0000203a 73610000     function: ....as
    8732:	74726573 206e6f69 22732522 69616620     sertion "%s" fai
    8742:	3a64656c 6c696620 25222065 202c2273     led: file "%s", 
    8752:	656e696c 25642520 0a732573               line %d%s%s...

00008760 <_global_impure_ptr>:
    8760:	20000010 33323130 37363534 42413938     ... 0123456789AB
    8770:	46454443 00000000 33323130 37363534     CDEF....01234567
    8780:	62613938 66656463 00000000 6c756e28     89abcdef....(nul
    8790:	0000296c                                l)..

00008794 <blanks.1>:
    8794:	20202020 20202020 20202020 20202020                     

000087a4 <zeroes.0>:
    87a4:	30303030 30303030 30303030 30303030     0000000000000000
    87b4:	0000002e 435f434c 414c4c4f 00004554     ....LC_COLLATE..
    87c4:	435f434c 45505954 00000000 4d5f434c     LC_CTYPE....LC_M
    87d4:	54454e4f 00595241 4e5f434c 52454d55     ONETARY.LC_NUMER
    87e4:	00004349 545f434c 00454d49 4d5f434c     IC..LC_TIME.LC_M
    87f4:	41535345 00534547                       ESSAGES.

000087fc <_ctype_>:
    87fc:	20202000 20202020 28282020 20282828     .         ((((( 
    880c:	20202020 20202020 20202020 20202020                     
    881c:	10108820 10101010 10101010 10101010      ...............
    882c:	04040410 04040404 10040404 10101010     ................
    883c:	41411010 41414141 01010101 01010101     ..AAAAAA........
    884c:	01010101 01010101 01010101 10101010     ................
    885c:	42421010 42424242 02020202 02020202     ..BBBBBB........
    886c:	02020202 02020202 02020202 10101010     ................
    887c:	00000020 00000000 00000000 00000000      ...............
	...

00008900 <_init>:
    8900:	b5f8      	push	{r3, r4, r5, r6, r7, lr}
    8902:	bf00      	nop
    8904:	bcf8      	pop	{r3, r4, r5, r6, r7}
    8906:	bc08      	pop	{r3}
    8908:	469e      	mov	lr, r3
    890a:	4770      	bx	lr

0000890c <_fini>:
    890c:	b5f8      	push	{r3, r4, r5, r6, r7, lr}
    890e:	bf00      	nop
    8910:	bcf8      	pop	{r3, r4, r5, r6, r7}
    8912:	bc08      	pop	{r3}
    8914:	469e      	mov	lr, r3
    8916:	4770      	bx	lr
