
../lpc_firmware/freertos_adc/output/freertos_adc.elf:     file format elf32-littlearm


Disassembly of section .text:

00000200 <__do_global_dtors_aux>:
     200:	b510      	push	{r4, lr}
     202:	4c05      	ldr	r4, [pc, #20]	; (218 <__do_global_dtors_aux+0x18>)
     204:	7823      	ldrb	r3, [r4, #0]
     206:	b933      	cbnz	r3, 216 <__do_global_dtors_aux+0x16>
     208:	4b04      	ldr	r3, [pc, #16]	; (21c <__do_global_dtors_aux+0x1c>)
     20a:	b113      	cbz	r3, 212 <__do_global_dtors_aux+0x12>
     20c:	4804      	ldr	r0, [pc, #16]	; (220 <__do_global_dtors_aux+0x20>)
     20e:	f3af 8000 	nop.w
     212:	2301      	movs	r3, #1
     214:	7023      	strb	r3, [r4, #0]
     216:	bd10      	pop	{r4, pc}
     218:	20000474 	.word	0x20000474
     21c:	00000000 	.word	0x00000000
     220:	000093b4 	.word	0x000093b4

00000224 <frame_dummy>:
     224:	b508      	push	{r3, lr}
     226:	4b03      	ldr	r3, [pc, #12]	; (234 <frame_dummy+0x10>)
     228:	b11b      	cbz	r3, 232 <frame_dummy+0xe>
     22a:	4903      	ldr	r1, [pc, #12]	; (238 <frame_dummy+0x14>)
     22c:	4803      	ldr	r0, [pc, #12]	; (23c <frame_dummy+0x18>)
     22e:	f3af 8000 	nop.w
     232:	bd08      	pop	{r3, pc}
     234:	00000000 	.word	0x00000000
     238:	20000478 	.word	0x20000478
     23c:	000093b4 	.word	0x000093b4

00000240 <_stack_init>:
     240:	f5a3 3a80 	sub.w	sl, r3, #65536	; 0x10000
     244:	4770      	bx	lr
     246:	bf00      	nop

00000248 <_mainCRTStartup>:
     248:	4b17      	ldr	r3, [pc, #92]	; (2a8 <_mainCRTStartup+0x60>)
     24a:	2b00      	cmp	r3, #0
     24c:	bf08      	it	eq
     24e:	4b13      	ldreq	r3, [pc, #76]	; (29c <_mainCRTStartup+0x54>)
     250:	469d      	mov	sp, r3
     252:	f7ff fff5 	bl	240 <_stack_init>
     256:	2100      	movs	r1, #0
     258:	468b      	mov	fp, r1
     25a:	460f      	mov	r7, r1
     25c:	4813      	ldr	r0, [pc, #76]	; (2ac <_mainCRTStartup+0x64>)
     25e:	4a14      	ldr	r2, [pc, #80]	; (2b0 <_mainCRTStartup+0x68>)
     260:	1a12      	subs	r2, r2, r0
     262:	f008 f8cf 	bl	8404 <memset>
     266:	4b0e      	ldr	r3, [pc, #56]	; (2a0 <_mainCRTStartup+0x58>)
     268:	2b00      	cmp	r3, #0
     26a:	d000      	beq.n	26e <_mainCRTStartup+0x26>
     26c:	4798      	blx	r3
     26e:	4b0d      	ldr	r3, [pc, #52]	; (2a4 <_mainCRTStartup+0x5c>)
     270:	2b00      	cmp	r3, #0
     272:	d000      	beq.n	276 <_mainCRTStartup+0x2e>
     274:	4798      	blx	r3
     276:	2000      	movs	r0, #0
     278:	2100      	movs	r1, #0
     27a:	0004      	movs	r4, r0
     27c:	000d      	movs	r5, r1
     27e:	480d      	ldr	r0, [pc, #52]	; (2b4 <_mainCRTStartup+0x6c>)
     280:	2800      	cmp	r0, #0
     282:	d002      	beq.n	28a <_mainCRTStartup+0x42>
     284:	480c      	ldr	r0, [pc, #48]	; (2b8 <_mainCRTStartup+0x70>)
     286:	f008 f9a5 	bl	85d4 <atexit>
     28a:	f008 f897 	bl	83bc <__libc_init_array>
     28e:	0020      	movs	r0, r4
     290:	0029      	movs	r1, r5
     292:	f006 fff1 	bl	7278 <main>
     296:	f008 f881 	bl	839c <exit>
     29a:	bf00      	nop
     29c:	00080000 	.word	0x00080000
	...
     2a8:	20033000 	.word	0x20033000
     2ac:	20000474 	.word	0x20000474
     2b0:	20002ea8 	.word	0x20002ea8
     2b4:	000085d5 	.word	0x000085d5
     2b8:	000085e1 	.word	0x000085e1

000002bc <Reset_Handler>:
     2bc:	b672      	cpsid	i
     2be:	4817      	ldr	r0, [pc, #92]	; (31c <Reset_Handler+0x60>)
     2c0:	4917      	ldr	r1, [pc, #92]	; (320 <Reset_Handler+0x64>)
     2c2:	6001      	str	r1, [r0, #0]
     2c4:	680a      	ldr	r2, [r1, #0]
     2c6:	f382 8808 	msr	MSP, r2
     2ca:	4816      	ldr	r0, [pc, #88]	; (324 <Reset_Handler+0x68>)
     2cc:	f380 880a 	msr	MSPLIM, r0
     2d0:	4815      	ldr	r0, [pc, #84]	; (328 <Reset_Handler+0x6c>)
     2d2:	4780      	blx	r0
     2d4:	4915      	ldr	r1, [pc, #84]	; (32c <Reset_Handler+0x70>)
     2d6:	4a16      	ldr	r2, [pc, #88]	; (330 <Reset_Handler+0x74>)
     2d8:	4b16      	ldr	r3, [pc, #88]	; (334 <Reset_Handler+0x78>)
     2da:	429a      	cmp	r2, r3
     2dc:	bfbe      	ittt	lt
     2de:	f851 0b04 	ldrlt.w	r0, [r1], #4
     2e2:	f842 0b04 	strlt.w	r0, [r2], #4
     2e6:	e7f8      	blt.n	2da <Reset_Handler+0x1e>
     2e8:	4913      	ldr	r1, [pc, #76]	; (338 <Reset_Handler+0x7c>)
     2ea:	4a14      	ldr	r2, [pc, #80]	; (33c <Reset_Handler+0x80>)
     2ec:	2000      	movs	r0, #0
     2ee:	4291      	cmp	r1, r2
     2f0:	bfbc      	itt	lt
     2f2:	f841 0b04 	strlt.w	r0, [r1], #4
     2f6:	e7fa      	blt.n	2ee <Reset_Handler+0x32>
     2f8:	2000      	movs	r0, #0
     2fa:	4911      	ldr	r1, [pc, #68]	; (340 <Reset_Handler+0x84>)
     2fc:	4a11      	ldr	r2, [pc, #68]	; (344 <Reset_Handler+0x88>)
     2fe:	4291      	cmp	r1, r2
     300:	bfbc      	itt	lt
     302:	f841 0b04 	strlt.w	r0, [r1], #4
     306:	e7fa      	blt.n	2fe <Reset_Handler+0x42>
     308:	490f      	ldr	r1, [pc, #60]	; (348 <Reset_Handler+0x8c>)
     30a:	4a10      	ldr	r2, [pc, #64]	; (34c <Reset_Handler+0x90>)
     30c:	4291      	cmp	r1, r2
     30e:	bfbc      	itt	lt
     310:	f841 0b04 	strlt.w	r0, [r1], #4
     314:	e7fa      	blt.n	30c <Reset_Handler+0x50>
     316:	b662      	cpsie	i
     318:	480d      	ldr	r0, [pc, #52]	; (350 <Reset_Handler+0x94>)
     31a:	4780      	blx	r0
     31c:	e000ed08 	.word	0xe000ed08
     320:	00000000 	.word	0x00000000
     324:	20032800 	.word	0x20032800
     328:	0000151d 	.word	0x0000151d
     32c:	000093e0 	.word	0x000093e0
     330:	20000000 	.word	0x20000000
     334:	20000474 	.word	0x20000474
     338:	20000474 	.word	0x20000474
     33c:	20002ea8 	.word	0x20002ea8
     340:	20002ea8 	.word	0x20002ea8
     344:	200032a8 	.word	0x200032a8
     348:	20032800 	.word	0x20032800
     34c:	20033000 	.word	0x20033000
     350:	00000249 	.word	0x00000249

00000354 <ACMP_DriverIRQHandler>:
     354:	f7ff bffe 	b.w	354 <ACMP_DriverIRQHandler>

00000358 <NMI_Handler>:
     358:	4840      	ldr	r0, [pc, #256]	; (45c <FLEXCOMM8_IRQHandler+0x4>)
     35a:	4700      	bx	r0

0000035c <HardFault_Handler>:
     35c:	4840      	ldr	r0, [pc, #256]	; (460 <FLEXCOMM8_IRQHandler+0x8>)
     35e:	4700      	bx	r0
     360:	4840      	ldr	r0, [pc, #256]	; (464 <FLEXCOMM8_IRQHandler+0xc>)
     362:	4700      	bx	r0
     364:	4840      	ldr	r0, [pc, #256]	; (468 <FLEXCOMM8_IRQHandler+0x10>)
     366:	4700      	bx	r0
     368:	4840      	ldr	r0, [pc, #256]	; (46c <FLEXCOMM8_IRQHandler+0x14>)
     36a:	4700      	bx	r0

0000036c <WDT_BOD_IRQHandler>:
     36c:	4840      	ldr	r0, [pc, #256]	; (470 <FLEXCOMM8_IRQHandler+0x18>)
     36e:	4700      	bx	r0

00000370 <DMA0_IRQHandler>:
     370:	4840      	ldr	r0, [pc, #256]	; (474 <FLEXCOMM8_IRQHandler+0x1c>)
     372:	4700      	bx	r0

00000374 <GINT0_IRQHandler>:
     374:	4840      	ldr	r0, [pc, #256]	; (478 <FLEXCOMM8_IRQHandler+0x20>)
     376:	4700      	bx	r0

00000378 <GINT1_IRQHandler>:
     378:	4840      	ldr	r0, [pc, #256]	; (47c <FLEXCOMM8_IRQHandler+0x24>)
     37a:	4700      	bx	r0

0000037c <PIN_INT0_IRQHandler>:
     37c:	4840      	ldr	r0, [pc, #256]	; (480 <FLEXCOMM8_IRQHandler+0x28>)
     37e:	4700      	bx	r0

00000380 <PIN_INT1_IRQHandler>:
     380:	4840      	ldr	r0, [pc, #256]	; (484 <FLEXCOMM8_IRQHandler+0x2c>)
     382:	4700      	bx	r0

00000384 <PIN_INT2_IRQHandler>:
     384:	4840      	ldr	r0, [pc, #256]	; (488 <FLEXCOMM8_IRQHandler+0x30>)
     386:	4700      	bx	r0

00000388 <PIN_INT3_IRQHandler>:
     388:	4840      	ldr	r0, [pc, #256]	; (48c <FLEXCOMM8_IRQHandler+0x34>)
     38a:	4700      	bx	r0

0000038c <UTICK0_IRQHandler>:
     38c:	4840      	ldr	r0, [pc, #256]	; (490 <FLEXCOMM8_IRQHandler+0x38>)
     38e:	4700      	bx	r0

00000390 <MRT0_IRQHandler>:
     390:	4840      	ldr	r0, [pc, #256]	; (494 <FLEXCOMM8_IRQHandler+0x3c>)
     392:	4700      	bx	r0

00000394 <CTIMER0_IRQHandler>:
     394:	4840      	ldr	r0, [pc, #256]	; (498 <FLEXCOMM8_IRQHandler+0x40>)
     396:	4700      	bx	r0

00000398 <CTIMER1_IRQHandler>:
     398:	4840      	ldr	r0, [pc, #256]	; (49c <FLEXCOMM8_IRQHandler+0x44>)
     39a:	4700      	bx	r0

0000039c <SCT0_IRQHandler>:
     39c:	4840      	ldr	r0, [pc, #256]	; (4a0 <FLEXCOMM8_IRQHandler+0x48>)
     39e:	4700      	bx	r0

000003a0 <CTIMER3_IRQHandler>:
     3a0:	4840      	ldr	r0, [pc, #256]	; (4a4 <FLEXCOMM8_IRQHandler+0x4c>)
     3a2:	4700      	bx	r0

000003a4 <FLEXCOMM0_IRQHandler>:
     3a4:	4840      	ldr	r0, [pc, #256]	; (4a8 <FLEXCOMM8_IRQHandler+0x50>)
     3a6:	4700      	bx	r0

000003a8 <FLEXCOMM1_IRQHandler>:
     3a8:	4840      	ldr	r0, [pc, #256]	; (4ac <FLEXCOMM8_IRQHandler+0x54>)
     3aa:	4700      	bx	r0

000003ac <FLEXCOMM2_IRQHandler>:
     3ac:	4840      	ldr	r0, [pc, #256]	; (4b0 <FLEXCOMM8_IRQHandler+0x58>)
     3ae:	4700      	bx	r0

000003b0 <FLEXCOMM3_IRQHandler>:
     3b0:	4840      	ldr	r0, [pc, #256]	; (4b4 <FLEXCOMM8_IRQHandler+0x5c>)
     3b2:	4700      	bx	r0

000003b4 <FLEXCOMM4_IRQHandler>:
     3b4:	4840      	ldr	r0, [pc, #256]	; (4b8 <FLEXCOMM8_IRQHandler+0x60>)
     3b6:	4700      	bx	r0

000003b8 <FLEXCOMM5_IRQHandler>:
     3b8:	4840      	ldr	r0, [pc, #256]	; (4bc <FLEXCOMM8_IRQHandler+0x64>)
     3ba:	4700      	bx	r0

000003bc <FLEXCOMM6_IRQHandler>:
     3bc:	4840      	ldr	r0, [pc, #256]	; (4c0 <FLEXCOMM8_IRQHandler+0x68>)
     3be:	4700      	bx	r0

000003c0 <FLEXCOMM7_IRQHandler>:
     3c0:	4840      	ldr	r0, [pc, #256]	; (4c4 <FLEXCOMM8_IRQHandler+0x6c>)
     3c2:	4700      	bx	r0
     3c4:	4840      	ldr	r0, [pc, #256]	; (4c8 <FLEXCOMM8_IRQHandler+0x70>)
     3c6:	4700      	bx	r0

000003c8 <Reserved39_IRQHandler>:
     3c8:	4840      	ldr	r0, [pc, #256]	; (4cc <FLEXCOMM8_IRQHandler+0x74>)
     3ca:	4700      	bx	r0

000003cc <ACMP_IRQHandler>:
     3cc:	4840      	ldr	r0, [pc, #256]	; (4d0 <FLEXCOMM8_IRQHandler+0x78>)
     3ce:	4700      	bx	r0

000003d0 <Reserved41_IRQHandler>:
     3d0:	4840      	ldr	r0, [pc, #256]	; (4d4 <FLEXCOMM8_IRQHandler+0x7c>)
     3d2:	4700      	bx	r0

000003d4 <Reserved42_IRQHandler>:
     3d4:	4840      	ldr	r0, [pc, #256]	; (4d8 <FLEXCOMM8_IRQHandler+0x80>)
     3d6:	4700      	bx	r0

000003d8 <USB0_NEEDCLK_IRQHandler>:
     3d8:	4840      	ldr	r0, [pc, #256]	; (4dc <FLEXCOMM8_IRQHandler+0x84>)
     3da:	4700      	bx	r0

000003dc <USB0_IRQHandler>:
     3dc:	4840      	ldr	r0, [pc, #256]	; (4e0 <FLEXCOMM8_IRQHandler+0x88>)
     3de:	4700      	bx	r0

000003e0 <RTC_IRQHandler>:
     3e0:	4840      	ldr	r0, [pc, #256]	; (4e4 <FLEXCOMM8_IRQHandler+0x8c>)
     3e2:	4700      	bx	r0

000003e4 <Reserved46_IRQHandler>:
     3e4:	4840      	ldr	r0, [pc, #256]	; (4e8 <FLEXCOMM8_IRQHandler+0x90>)
     3e6:	4700      	bx	r0

000003e8 <MAILBOX_IRQHandler>:
     3e8:	4840      	ldr	r0, [pc, #256]	; (4ec <FLEXCOMM8_IRQHandler+0x94>)
     3ea:	4700      	bx	r0

000003ec <PIN_INT4_IRQHandler>:
     3ec:	4840      	ldr	r0, [pc, #256]	; (4f0 <FLEXCOMM8_IRQHandler+0x98>)
     3ee:	4700      	bx	r0

000003f0 <PIN_INT5_IRQHandler>:
     3f0:	4840      	ldr	r0, [pc, #256]	; (4f4 <FLEXCOMM8_IRQHandler+0x9c>)
     3f2:	4700      	bx	r0

000003f4 <PIN_INT6_IRQHandler>:
     3f4:	4840      	ldr	r0, [pc, #256]	; (4f8 <FLEXCOMM8_IRQHandler+0xa0>)
     3f6:	4700      	bx	r0

000003f8 <PIN_INT7_IRQHandler>:
     3f8:	4840      	ldr	r0, [pc, #256]	; (4fc <FLEXCOMM8_IRQHandler+0xa4>)
     3fa:	4700      	bx	r0

000003fc <CTIMER2_IRQHandler>:
     3fc:	4840      	ldr	r0, [pc, #256]	; (500 <FLEXCOMM8_IRQHandler+0xa8>)
     3fe:	4700      	bx	r0

00000400 <CTIMER4_IRQHandler>:
     400:	4840      	ldr	r0, [pc, #256]	; (504 <FLEXCOMM8_IRQHandler+0xac>)
     402:	4700      	bx	r0

00000404 <OS_EVENT_IRQHandler>:
     404:	4840      	ldr	r0, [pc, #256]	; (508 <FLEXCOMM8_IRQHandler+0xb0>)
     406:	4700      	bx	r0

00000408 <Reserved55_IRQHandler>:
     408:	4840      	ldr	r0, [pc, #256]	; (50c <FLEXCOMM8_IRQHandler+0xb4>)
     40a:	4700      	bx	r0

0000040c <Reserved56_IRQHandler>:
     40c:	4840      	ldr	r0, [pc, #256]	; (510 <FLEXCOMM8_IRQHandler+0xb8>)
     40e:	4700      	bx	r0

00000410 <Reserved57_IRQHandler>:
     410:	4840      	ldr	r0, [pc, #256]	; (514 <FLEXCOMM8_IRQHandler+0xbc>)
     412:	4700      	bx	r0

00000414 <SDIO_IRQHandler>:
     414:	4840      	ldr	r0, [pc, #256]	; (518 <FLEXCOMM8_IRQHandler+0xc0>)
     416:	4700      	bx	r0

00000418 <Reserved59_IRQHandler>:
     418:	4840      	ldr	r0, [pc, #256]	; (51c <FLEXCOMM8_IRQHandler+0xc4>)
     41a:	4700      	bx	r0

0000041c <Reserved60_IRQHandler>:
     41c:	4840      	ldr	r0, [pc, #256]	; (520 <FLEXCOMM8_IRQHandler+0xc8>)
     41e:	4700      	bx	r0

00000420 <Reserved61_IRQHandler>:
     420:	4840      	ldr	r0, [pc, #256]	; (524 <FLEXCOMM8_IRQHandler+0xcc>)
     422:	4700      	bx	r0

00000424 <USB1_PHY_IRQHandler>:
     424:	4840      	ldr	r0, [pc, #256]	; (528 <FLEXCOMM8_IRQHandler+0xd0>)
     426:	4700      	bx	r0

00000428 <USB1_IRQHandler>:
     428:	4840      	ldr	r0, [pc, #256]	; (52c <FLEXCOMM8_IRQHandler+0xd4>)
     42a:	4700      	bx	r0

0000042c <USB1_NEEDCLK_IRQHandler>:
     42c:	4840      	ldr	r0, [pc, #256]	; (530 <FLEXCOMM8_IRQHandler+0xd8>)
     42e:	4700      	bx	r0

00000430 <SEC_HYPERVISOR_CALL_IRQHandler>:
     430:	4840      	ldr	r0, [pc, #256]	; (534 <FLEXCOMM8_IRQHandler+0xdc>)
     432:	4700      	bx	r0

00000434 <SEC_GPIO_INT0_IRQ0_IRQHandler>:
     434:	4840      	ldr	r0, [pc, #256]	; (538 <FLEXCOMM8_IRQHandler+0xe0>)
     436:	4700      	bx	r0

00000438 <SEC_GPIO_INT0_IRQ1_IRQHandler>:
     438:	4840      	ldr	r0, [pc, #256]	; (53c <FLEXCOMM8_IRQHandler+0xe4>)
     43a:	4700      	bx	r0

0000043c <PLU_IRQHandler>:
     43c:	4840      	ldr	r0, [pc, #256]	; (540 <FLEXCOMM8_IRQHandler+0xe8>)
     43e:	4700      	bx	r0

00000440 <SEC_VIO_IRQHandler>:
     440:	4840      	ldr	r0, [pc, #256]	; (544 <FLEXCOMM8_IRQHandler+0xec>)
     442:	4700      	bx	r0

00000444 <HASHCRYPT_IRQHandler>:
     444:	4840      	ldr	r0, [pc, #256]	; (548 <FLEXCOMM8_IRQHandler+0xf0>)
     446:	4700      	bx	r0

00000448 <CASER_IRQHandler>:
     448:	4840      	ldr	r0, [pc, #256]	; (54c <FLEXCOMM8_IRQHandler+0xf4>)
     44a:	4700      	bx	r0

0000044c <PUF_IRQHandler>:
     44c:	4840      	ldr	r0, [pc, #256]	; (550 <FLEXCOMM8_IRQHandler+0xf8>)
     44e:	4700      	bx	r0

00000450 <PQ_IRQHandler>:
     450:	4840      	ldr	r0, [pc, #256]	; (554 <FLEXCOMM8_IRQHandler+0xfc>)
     452:	4700      	bx	r0

00000454 <DMA1_IRQHandler>:
     454:	4840      	ldr	r0, [pc, #256]	; (558 <FLEXCOMM8_IRQHandler+0x100>)
     456:	4700      	bx	r0

00000458 <FLEXCOMM8_IRQHandler>:
     458:	4840      	ldr	r0, [pc, #256]	; (55c <FLEXCOMM8_IRQHandler+0x104>)
     45a:	4700      	bx	r0
     45c:	00000359 	.word	0x00000359
     460:	0000035d 	.word	0x0000035d
     464:	000050d1 	.word	0x000050d1
     468:	00005061 	.word	0x00005061
     46c:	00004e53 	.word	0x00004e53
     470:	00000355 	.word	0x00000355
     474:	00000355 	.word	0x00000355
     478:	00000355 	.word	0x00000355
     47c:	00000355 	.word	0x00000355
     480:	00000355 	.word	0x00000355
     484:	00000355 	.word	0x00000355
     488:	00000355 	.word	0x00000355
     48c:	00000355 	.word	0x00000355
     490:	00000355 	.word	0x00000355
     494:	00000355 	.word	0x00000355
     498:	00000355 	.word	0x00000355
     49c:	00000355 	.word	0x00000355
     4a0:	00000355 	.word	0x00000355
     4a4:	00000355 	.word	0x00000355
     4a8:	000023fb 	.word	0x000023fb
     4ac:	0000246f 	.word	0x0000246f
     4b0:	000024e3 	.word	0x000024e3
     4b4:	00002557 	.word	0x00002557
     4b8:	000025cb 	.word	0x000025cb
     4bc:	0000263f 	.word	0x0000263f
     4c0:	000026b3 	.word	0x000026b3
     4c4:	00002729 	.word	0x00002729
     4c8:	00000355 	.word	0x00000355
     4cc:	00000355 	.word	0x00000355
     4d0:	00000355 	.word	0x00000355
     4d4:	00000355 	.word	0x00000355
     4d8:	00000355 	.word	0x00000355
     4dc:	00000355 	.word	0x00000355
     4e0:	00000355 	.word	0x00000355
     4e4:	00000355 	.word	0x00000355
     4e8:	00000355 	.word	0x00000355
     4ec:	00000355 	.word	0x00000355
     4f0:	00000355 	.word	0x00000355
     4f4:	00000355 	.word	0x00000355
     4f8:	00000355 	.word	0x00000355
     4fc:	00000355 	.word	0x00000355
     500:	00000355 	.word	0x00000355
     504:	00000355 	.word	0x00000355
     508:	00000355 	.word	0x00000355
     50c:	00000355 	.word	0x00000355
     510:	00000355 	.word	0x00000355
     514:	00000355 	.word	0x00000355
     518:	00000355 	.word	0x00000355
     51c:	00000355 	.word	0x00000355
     520:	00000355 	.word	0x00000355
     524:	00000355 	.word	0x00000355
     528:	00000355 	.word	0x00000355
     52c:	00000355 	.word	0x00000355
     530:	00000355 	.word	0x00000355
     534:	00000355 	.word	0x00000355
     538:	00000355 	.word	0x00000355
     53c:	00000355 	.word	0x00000355
     540:	00000355 	.word	0x00000355
     544:	00000355 	.word	0x00000355
     548:	00000355 	.word	0x00000355
     54c:	00000355 	.word	0x00000355
     550:	00000355 	.word	0x00000355
     554:	00000355 	.word	0x00000355
     558:	00000355 	.word	0x00000355
     55c:	0000279f 	.word	0x0000279f

00000560 <__aeabi_drsub>:
     560:	f081 4100 	eor.w	r1, r1, #2147483648	; 0x80000000
     564:	e002      	b.n	56c <__adddf3>
     566:	bf00      	nop

00000568 <__aeabi_dsub>:
     568:	f083 4300 	eor.w	r3, r3, #2147483648	; 0x80000000

0000056c <__adddf3>:
     56c:	b530      	push	{r4, r5, lr}
     56e:	ea4f 0441 	mov.w	r4, r1, lsl #1
     572:	ea4f 0543 	mov.w	r5, r3, lsl #1
     576:	ea94 0f05 	teq	r4, r5
     57a:	bf08      	it	eq
     57c:	ea90 0f02 	teqeq	r0, r2
     580:	bf1f      	itttt	ne
     582:	ea54 0c00 	orrsne.w	ip, r4, r0
     586:	ea55 0c02 	orrsne.w	ip, r5, r2
     58a:	ea7f 5c64 	mvnsne.w	ip, r4, asr #21
     58e:	ea7f 5c65 	mvnsne.w	ip, r5, asr #21
     592:	f000 80e2 	beq.w	75a <__adddf3+0x1ee>
     596:	ea4f 5454 	mov.w	r4, r4, lsr #21
     59a:	ebd4 5555 	rsbs	r5, r4, r5, lsr #21
     59e:	bfb8      	it	lt
     5a0:	426d      	neglt	r5, r5
     5a2:	dd0c      	ble.n	5be <__adddf3+0x52>
     5a4:	442c      	add	r4, r5
     5a6:	ea80 0202 	eor.w	r2, r0, r2
     5aa:	ea81 0303 	eor.w	r3, r1, r3
     5ae:	ea82 0000 	eor.w	r0, r2, r0
     5b2:	ea83 0101 	eor.w	r1, r3, r1
     5b6:	ea80 0202 	eor.w	r2, r0, r2
     5ba:	ea81 0303 	eor.w	r3, r1, r3
     5be:	2d36      	cmp	r5, #54	; 0x36
     5c0:	bf88      	it	hi
     5c2:	bd30      	pophi	{r4, r5, pc}
     5c4:	f011 4f00 	tst.w	r1, #2147483648	; 0x80000000
     5c8:	ea4f 3101 	mov.w	r1, r1, lsl #12
     5cc:	f44f 1c80 	mov.w	ip, #1048576	; 0x100000
     5d0:	ea4c 3111 	orr.w	r1, ip, r1, lsr #12
     5d4:	d002      	beq.n	5dc <__adddf3+0x70>
     5d6:	4240      	negs	r0, r0
     5d8:	eb61 0141 	sbc.w	r1, r1, r1, lsl #1
     5dc:	f013 4f00 	tst.w	r3, #2147483648	; 0x80000000
     5e0:	ea4f 3303 	mov.w	r3, r3, lsl #12
     5e4:	ea4c 3313 	orr.w	r3, ip, r3, lsr #12
     5e8:	d002      	beq.n	5f0 <__adddf3+0x84>
     5ea:	4252      	negs	r2, r2
     5ec:	eb63 0343 	sbc.w	r3, r3, r3, lsl #1
     5f0:	ea94 0f05 	teq	r4, r5
     5f4:	f000 80a7 	beq.w	746 <__adddf3+0x1da>
     5f8:	f1a4 0401 	sub.w	r4, r4, #1
     5fc:	f1d5 0e20 	rsbs	lr, r5, #32
     600:	db0d      	blt.n	61e <__adddf3+0xb2>
     602:	fa02 fc0e 	lsl.w	ip, r2, lr
     606:	fa22 f205 	lsr.w	r2, r2, r5
     60a:	1880      	adds	r0, r0, r2
     60c:	f141 0100 	adc.w	r1, r1, #0
     610:	fa03 f20e 	lsl.w	r2, r3, lr
     614:	1880      	adds	r0, r0, r2
     616:	fa43 f305 	asr.w	r3, r3, r5
     61a:	4159      	adcs	r1, r3
     61c:	e00e      	b.n	63c <__adddf3+0xd0>
     61e:	f1a5 0520 	sub.w	r5, r5, #32
     622:	f10e 0e20 	add.w	lr, lr, #32
     626:	2a01      	cmp	r2, #1
     628:	fa03 fc0e 	lsl.w	ip, r3, lr
     62c:	bf28      	it	cs
     62e:	f04c 0c02 	orrcs.w	ip, ip, #2
     632:	fa43 f305 	asr.w	r3, r3, r5
     636:	18c0      	adds	r0, r0, r3
     638:	eb51 71e3 	adcs.w	r1, r1, r3, asr #31
     63c:	f001 4500 	and.w	r5, r1, #2147483648	; 0x80000000
     640:	d507      	bpl.n	652 <__adddf3+0xe6>
     642:	f04f 0e00 	mov.w	lr, #0
     646:	f1dc 0c00 	rsbs	ip, ip, #0
     64a:	eb7e 0000 	sbcs.w	r0, lr, r0
     64e:	eb6e 0101 	sbc.w	r1, lr, r1
     652:	f5b1 1f80 	cmp.w	r1, #1048576	; 0x100000
     656:	d31b      	bcc.n	690 <__adddf3+0x124>
     658:	f5b1 1f00 	cmp.w	r1, #2097152	; 0x200000
     65c:	d30c      	bcc.n	678 <__adddf3+0x10c>
     65e:	0849      	lsrs	r1, r1, #1
     660:	ea5f 0030 	movs.w	r0, r0, rrx
     664:	ea4f 0c3c 	mov.w	ip, ip, rrx
     668:	f104 0401 	add.w	r4, r4, #1
     66c:	ea4f 5244 	mov.w	r2, r4, lsl #21
     670:	f512 0f80 	cmn.w	r2, #4194304	; 0x400000
     674:	f080 809a 	bcs.w	7ac <__adddf3+0x240>
     678:	f1bc 4f00 	cmp.w	ip, #2147483648	; 0x80000000
     67c:	bf08      	it	eq
     67e:	ea5f 0c50 	movseq.w	ip, r0, lsr #1
     682:	f150 0000 	adcs.w	r0, r0, #0
     686:	eb41 5104 	adc.w	r1, r1, r4, lsl #20
     68a:	ea41 0105 	orr.w	r1, r1, r5
     68e:	bd30      	pop	{r4, r5, pc}
     690:	ea5f 0c4c 	movs.w	ip, ip, lsl #1
     694:	4140      	adcs	r0, r0
     696:	eb41 0101 	adc.w	r1, r1, r1
     69a:	3c01      	subs	r4, #1
     69c:	bf28      	it	cs
     69e:	f5b1 1f80 	cmpcs.w	r1, #1048576	; 0x100000
     6a2:	d2e9      	bcs.n	678 <__adddf3+0x10c>
     6a4:	f091 0f00 	teq	r1, #0
     6a8:	bf04      	itt	eq
     6aa:	4601      	moveq	r1, r0
     6ac:	2000      	moveq	r0, #0
     6ae:	fab1 f381 	clz	r3, r1
     6b2:	bf08      	it	eq
     6b4:	3320      	addeq	r3, #32
     6b6:	f1a3 030b 	sub.w	r3, r3, #11
     6ba:	f1b3 0220 	subs.w	r2, r3, #32
     6be:	da0c      	bge.n	6da <__adddf3+0x16e>
     6c0:	320c      	adds	r2, #12
     6c2:	dd08      	ble.n	6d6 <__adddf3+0x16a>
     6c4:	f102 0c14 	add.w	ip, r2, #20
     6c8:	f1c2 020c 	rsb	r2, r2, #12
     6cc:	fa01 f00c 	lsl.w	r0, r1, ip
     6d0:	fa21 f102 	lsr.w	r1, r1, r2
     6d4:	e00c      	b.n	6f0 <__adddf3+0x184>
     6d6:	f102 0214 	add.w	r2, r2, #20
     6da:	bfd8      	it	le
     6dc:	f1c2 0c20 	rsble	ip, r2, #32
     6e0:	fa01 f102 	lsl.w	r1, r1, r2
     6e4:	fa20 fc0c 	lsr.w	ip, r0, ip
     6e8:	bfdc      	itt	le
     6ea:	ea41 010c 	orrle.w	r1, r1, ip
     6ee:	4090      	lslle	r0, r2
     6f0:	1ae4      	subs	r4, r4, r3
     6f2:	bfa2      	ittt	ge
     6f4:	eb01 5104 	addge.w	r1, r1, r4, lsl #20
     6f8:	4329      	orrge	r1, r5
     6fa:	bd30      	popge	{r4, r5, pc}
     6fc:	ea6f 0404 	mvn.w	r4, r4
     700:	3c1f      	subs	r4, #31
     702:	da1c      	bge.n	73e <__adddf3+0x1d2>
     704:	340c      	adds	r4, #12
     706:	dc0e      	bgt.n	726 <__adddf3+0x1ba>
     708:	f104 0414 	add.w	r4, r4, #20
     70c:	f1c4 0220 	rsb	r2, r4, #32
     710:	fa20 f004 	lsr.w	r0, r0, r4
     714:	fa01 f302 	lsl.w	r3, r1, r2
     718:	ea40 0003 	orr.w	r0, r0, r3
     71c:	fa21 f304 	lsr.w	r3, r1, r4
     720:	ea45 0103 	orr.w	r1, r5, r3
     724:	bd30      	pop	{r4, r5, pc}
     726:	f1c4 040c 	rsb	r4, r4, #12
     72a:	f1c4 0220 	rsb	r2, r4, #32
     72e:	fa20 f002 	lsr.w	r0, r0, r2
     732:	fa01 f304 	lsl.w	r3, r1, r4
     736:	ea40 0003 	orr.w	r0, r0, r3
     73a:	4629      	mov	r1, r5
     73c:	bd30      	pop	{r4, r5, pc}
     73e:	fa21 f004 	lsr.w	r0, r1, r4
     742:	4629      	mov	r1, r5
     744:	bd30      	pop	{r4, r5, pc}
     746:	f094 0f00 	teq	r4, #0
     74a:	f483 1380 	eor.w	r3, r3, #1048576	; 0x100000
     74e:	bf06      	itte	eq
     750:	f481 1180 	eoreq.w	r1, r1, #1048576	; 0x100000
     754:	3401      	addeq	r4, #1
     756:	3d01      	subne	r5, #1
     758:	e74e      	b.n	5f8 <__adddf3+0x8c>
     75a:	ea7f 5c64 	mvns.w	ip, r4, asr #21
     75e:	bf18      	it	ne
     760:	ea7f 5c65 	mvnsne.w	ip, r5, asr #21
     764:	d029      	beq.n	7ba <__adddf3+0x24e>
     766:	ea94 0f05 	teq	r4, r5
     76a:	bf08      	it	eq
     76c:	ea90 0f02 	teqeq	r0, r2
     770:	d005      	beq.n	77e <__adddf3+0x212>
     772:	ea54 0c00 	orrs.w	ip, r4, r0
     776:	bf04      	itt	eq
     778:	4619      	moveq	r1, r3
     77a:	4610      	moveq	r0, r2
     77c:	bd30      	pop	{r4, r5, pc}
     77e:	ea91 0f03 	teq	r1, r3
     782:	bf1e      	ittt	ne
     784:	2100      	movne	r1, #0
     786:	2000      	movne	r0, #0
     788:	bd30      	popne	{r4, r5, pc}
     78a:	ea5f 5c54 	movs.w	ip, r4, lsr #21
     78e:	d105      	bne.n	79c <__adddf3+0x230>
     790:	0040      	lsls	r0, r0, #1
     792:	4149      	adcs	r1, r1
     794:	bf28      	it	cs
     796:	f041 4100 	orrcs.w	r1, r1, #2147483648	; 0x80000000
     79a:	bd30      	pop	{r4, r5, pc}
     79c:	f514 0480 	adds.w	r4, r4, #4194304	; 0x400000
     7a0:	bf3c      	itt	cc
     7a2:	f501 1180 	addcc.w	r1, r1, #1048576	; 0x100000
     7a6:	bd30      	popcc	{r4, r5, pc}
     7a8:	f001 4500 	and.w	r5, r1, #2147483648	; 0x80000000
     7ac:	f045 41fe 	orr.w	r1, r5, #2130706432	; 0x7f000000
     7b0:	f441 0170 	orr.w	r1, r1, #15728640	; 0xf00000
     7b4:	f04f 0000 	mov.w	r0, #0
     7b8:	bd30      	pop	{r4, r5, pc}
     7ba:	ea7f 5c64 	mvns.w	ip, r4, asr #21
     7be:	bf1a      	itte	ne
     7c0:	4619      	movne	r1, r3
     7c2:	4610      	movne	r0, r2
     7c4:	ea7f 5c65 	mvnseq.w	ip, r5, asr #21
     7c8:	bf1c      	itt	ne
     7ca:	460b      	movne	r3, r1
     7cc:	4602      	movne	r2, r0
     7ce:	ea50 3401 	orrs.w	r4, r0, r1, lsl #12
     7d2:	bf06      	itte	eq
     7d4:	ea52 3503 	orrseq.w	r5, r2, r3, lsl #12
     7d8:	ea91 0f03 	teqeq	r1, r3
     7dc:	f441 2100 	orrne.w	r1, r1, #524288	; 0x80000
     7e0:	bd30      	pop	{r4, r5, pc}
     7e2:	bf00      	nop

000007e4 <__aeabi_ui2d>:
     7e4:	f090 0f00 	teq	r0, #0
     7e8:	bf04      	itt	eq
     7ea:	2100      	moveq	r1, #0
     7ec:	4770      	bxeq	lr
     7ee:	b530      	push	{r4, r5, lr}
     7f0:	f44f 6480 	mov.w	r4, #1024	; 0x400
     7f4:	f104 0432 	add.w	r4, r4, #50	; 0x32
     7f8:	f04f 0500 	mov.w	r5, #0
     7fc:	f04f 0100 	mov.w	r1, #0
     800:	e750      	b.n	6a4 <__adddf3+0x138>
     802:	bf00      	nop

00000804 <__aeabi_i2d>:
     804:	f090 0f00 	teq	r0, #0
     808:	bf04      	itt	eq
     80a:	2100      	moveq	r1, #0
     80c:	4770      	bxeq	lr
     80e:	b530      	push	{r4, r5, lr}
     810:	f44f 6480 	mov.w	r4, #1024	; 0x400
     814:	f104 0432 	add.w	r4, r4, #50	; 0x32
     818:	f010 4500 	ands.w	r5, r0, #2147483648	; 0x80000000
     81c:	bf48      	it	mi
     81e:	4240      	negmi	r0, r0
     820:	f04f 0100 	mov.w	r1, #0
     824:	e73e      	b.n	6a4 <__adddf3+0x138>
     826:	bf00      	nop

00000828 <__aeabi_f2d>:
     828:	0042      	lsls	r2, r0, #1
     82a:	ea4f 01e2 	mov.w	r1, r2, asr #3
     82e:	ea4f 0131 	mov.w	r1, r1, rrx
     832:	ea4f 7002 	mov.w	r0, r2, lsl #28
     836:	bf1f      	itttt	ne
     838:	f012 437f 	andsne.w	r3, r2, #4278190080	; 0xff000000
     83c:	f093 4f7f 	teqne	r3, #4278190080	; 0xff000000
     840:	f081 5160 	eorne.w	r1, r1, #939524096	; 0x38000000
     844:	4770      	bxne	lr
     846:	f032 427f 	bics.w	r2, r2, #4278190080	; 0xff000000
     84a:	bf08      	it	eq
     84c:	4770      	bxeq	lr
     84e:	f093 4f7f 	teq	r3, #4278190080	; 0xff000000
     852:	bf04      	itt	eq
     854:	f441 2100 	orreq.w	r1, r1, #524288	; 0x80000
     858:	4770      	bxeq	lr
     85a:	b530      	push	{r4, r5, lr}
     85c:	f44f 7460 	mov.w	r4, #896	; 0x380
     860:	f001 4500 	and.w	r5, r1, #2147483648	; 0x80000000
     864:	f021 4100 	bic.w	r1, r1, #2147483648	; 0x80000000
     868:	e71c      	b.n	6a4 <__adddf3+0x138>
     86a:	bf00      	nop

0000086c <__aeabi_ul2d>:
     86c:	ea50 0201 	orrs.w	r2, r0, r1
     870:	bf08      	it	eq
     872:	4770      	bxeq	lr
     874:	b530      	push	{r4, r5, lr}
     876:	f04f 0500 	mov.w	r5, #0
     87a:	e00a      	b.n	892 <__aeabi_l2d+0x16>

0000087c <__aeabi_l2d>:
     87c:	ea50 0201 	orrs.w	r2, r0, r1
     880:	bf08      	it	eq
     882:	4770      	bxeq	lr
     884:	b530      	push	{r4, r5, lr}
     886:	f011 4500 	ands.w	r5, r1, #2147483648	; 0x80000000
     88a:	d502      	bpl.n	892 <__aeabi_l2d+0x16>
     88c:	4240      	negs	r0, r0
     88e:	eb61 0141 	sbc.w	r1, r1, r1, lsl #1
     892:	f44f 6480 	mov.w	r4, #1024	; 0x400
     896:	f104 0432 	add.w	r4, r4, #50	; 0x32
     89a:	ea5f 5c91 	movs.w	ip, r1, lsr #22
     89e:	f43f aed8 	beq.w	652 <__adddf3+0xe6>
     8a2:	f04f 0203 	mov.w	r2, #3
     8a6:	ea5f 0cdc 	movs.w	ip, ip, lsr #3
     8aa:	bf18      	it	ne
     8ac:	3203      	addne	r2, #3
     8ae:	ea5f 0cdc 	movs.w	ip, ip, lsr #3
     8b2:	bf18      	it	ne
     8b4:	3203      	addne	r2, #3
     8b6:	eb02 02dc 	add.w	r2, r2, ip, lsr #3
     8ba:	f1c2 0320 	rsb	r3, r2, #32
     8be:	fa00 fc03 	lsl.w	ip, r0, r3
     8c2:	fa20 f002 	lsr.w	r0, r0, r2
     8c6:	fa01 fe03 	lsl.w	lr, r1, r3
     8ca:	ea40 000e 	orr.w	r0, r0, lr
     8ce:	fa21 f102 	lsr.w	r1, r1, r2
     8d2:	4414      	add	r4, r2
     8d4:	e6bd      	b.n	652 <__adddf3+0xe6>
     8d6:	bf00      	nop

000008d8 <__aeabi_dmul>:
     8d8:	b570      	push	{r4, r5, r6, lr}
     8da:	f04f 0cff 	mov.w	ip, #255	; 0xff
     8de:	f44c 6ce0 	orr.w	ip, ip, #1792	; 0x700
     8e2:	ea1c 5411 	ands.w	r4, ip, r1, lsr #20
     8e6:	bf1d      	ittte	ne
     8e8:	ea1c 5513 	andsne.w	r5, ip, r3, lsr #20
     8ec:	ea94 0f0c 	teqne	r4, ip
     8f0:	ea95 0f0c 	teqne	r5, ip
     8f4:	f000 f8de 	bleq	ab4 <__aeabi_dmul+0x1dc>
     8f8:	442c      	add	r4, r5
     8fa:	ea81 0603 	eor.w	r6, r1, r3
     8fe:	ea21 514c 	bic.w	r1, r1, ip, lsl #21
     902:	ea23 534c 	bic.w	r3, r3, ip, lsl #21
     906:	ea50 3501 	orrs.w	r5, r0, r1, lsl #12
     90a:	bf18      	it	ne
     90c:	ea52 3503 	orrsne.w	r5, r2, r3, lsl #12
     910:	f441 1180 	orr.w	r1, r1, #1048576	; 0x100000
     914:	f443 1380 	orr.w	r3, r3, #1048576	; 0x100000
     918:	d038      	beq.n	98c <__aeabi_dmul+0xb4>
     91a:	fba0 ce02 	umull	ip, lr, r0, r2
     91e:	f04f 0500 	mov.w	r5, #0
     922:	fbe1 e502 	umlal	lr, r5, r1, r2
     926:	f006 4200 	and.w	r2, r6, #2147483648	; 0x80000000
     92a:	fbe0 e503 	umlal	lr, r5, r0, r3
     92e:	f04f 0600 	mov.w	r6, #0
     932:	fbe1 5603 	umlal	r5, r6, r1, r3
     936:	f09c 0f00 	teq	ip, #0
     93a:	bf18      	it	ne
     93c:	f04e 0e01 	orrne.w	lr, lr, #1
     940:	f1a4 04ff 	sub.w	r4, r4, #255	; 0xff
     944:	f5b6 7f00 	cmp.w	r6, #512	; 0x200
     948:	f564 7440 	sbc.w	r4, r4, #768	; 0x300
     94c:	d204      	bcs.n	958 <__aeabi_dmul+0x80>
     94e:	ea5f 0e4e 	movs.w	lr, lr, lsl #1
     952:	416d      	adcs	r5, r5
     954:	eb46 0606 	adc.w	r6, r6, r6
     958:	ea42 21c6 	orr.w	r1, r2, r6, lsl #11
     95c:	ea41 5155 	orr.w	r1, r1, r5, lsr #21
     960:	ea4f 20c5 	mov.w	r0, r5, lsl #11
     964:	ea40 505e 	orr.w	r0, r0, lr, lsr #21
     968:	ea4f 2ece 	mov.w	lr, lr, lsl #11
     96c:	f1b4 0cfd 	subs.w	ip, r4, #253	; 0xfd
     970:	bf88      	it	hi
     972:	f5bc 6fe0 	cmphi.w	ip, #1792	; 0x700
     976:	d81e      	bhi.n	9b6 <__aeabi_dmul+0xde>
     978:	f1be 4f00 	cmp.w	lr, #2147483648	; 0x80000000
     97c:	bf08      	it	eq
     97e:	ea5f 0e50 	movseq.w	lr, r0, lsr #1
     982:	f150 0000 	adcs.w	r0, r0, #0
     986:	eb41 5104 	adc.w	r1, r1, r4, lsl #20
     98a:	bd70      	pop	{r4, r5, r6, pc}
     98c:	f006 4600 	and.w	r6, r6, #2147483648	; 0x80000000
     990:	ea46 0101 	orr.w	r1, r6, r1
     994:	ea40 0002 	orr.w	r0, r0, r2
     998:	ea81 0103 	eor.w	r1, r1, r3
     99c:	ebb4 045c 	subs.w	r4, r4, ip, lsr #1
     9a0:	bfc2      	ittt	gt
     9a2:	ebd4 050c 	rsbsgt	r5, r4, ip
     9a6:	ea41 5104 	orrgt.w	r1, r1, r4, lsl #20
     9aa:	bd70      	popgt	{r4, r5, r6, pc}
     9ac:	f441 1180 	orr.w	r1, r1, #1048576	; 0x100000
     9b0:	f04f 0e00 	mov.w	lr, #0
     9b4:	3c01      	subs	r4, #1
     9b6:	f300 80ab 	bgt.w	b10 <__aeabi_dmul+0x238>
     9ba:	f114 0f36 	cmn.w	r4, #54	; 0x36
     9be:	bfde      	ittt	le
     9c0:	2000      	movle	r0, #0
     9c2:	f001 4100 	andle.w	r1, r1, #2147483648	; 0x80000000
     9c6:	bd70      	pople	{r4, r5, r6, pc}
     9c8:	f1c4 0400 	rsb	r4, r4, #0
     9cc:	3c20      	subs	r4, #32
     9ce:	da35      	bge.n	a3c <__aeabi_dmul+0x164>
     9d0:	340c      	adds	r4, #12
     9d2:	dc1b      	bgt.n	a0c <__aeabi_dmul+0x134>
     9d4:	f104 0414 	add.w	r4, r4, #20
     9d8:	f1c4 0520 	rsb	r5, r4, #32
     9dc:	fa00 f305 	lsl.w	r3, r0, r5
     9e0:	fa20 f004 	lsr.w	r0, r0, r4
     9e4:	fa01 f205 	lsl.w	r2, r1, r5
     9e8:	ea40 0002 	orr.w	r0, r0, r2
     9ec:	f001 4200 	and.w	r2, r1, #2147483648	; 0x80000000
     9f0:	f021 4100 	bic.w	r1, r1, #2147483648	; 0x80000000
     9f4:	eb10 70d3 	adds.w	r0, r0, r3, lsr #31
     9f8:	fa21 f604 	lsr.w	r6, r1, r4
     9fc:	eb42 0106 	adc.w	r1, r2, r6
     a00:	ea5e 0e43 	orrs.w	lr, lr, r3, lsl #1
     a04:	bf08      	it	eq
     a06:	ea20 70d3 	biceq.w	r0, r0, r3, lsr #31
     a0a:	bd70      	pop	{r4, r5, r6, pc}
     a0c:	f1c4 040c 	rsb	r4, r4, #12
     a10:	f1c4 0520 	rsb	r5, r4, #32
     a14:	fa00 f304 	lsl.w	r3, r0, r4
     a18:	fa20 f005 	lsr.w	r0, r0, r5
     a1c:	fa01 f204 	lsl.w	r2, r1, r4
     a20:	ea40 0002 	orr.w	r0, r0, r2
     a24:	f001 4100 	and.w	r1, r1, #2147483648	; 0x80000000
     a28:	eb10 70d3 	adds.w	r0, r0, r3, lsr #31
     a2c:	f141 0100 	adc.w	r1, r1, #0
     a30:	ea5e 0e43 	orrs.w	lr, lr, r3, lsl #1
     a34:	bf08      	it	eq
     a36:	ea20 70d3 	biceq.w	r0, r0, r3, lsr #31
     a3a:	bd70      	pop	{r4, r5, r6, pc}
     a3c:	f1c4 0520 	rsb	r5, r4, #32
     a40:	fa00 f205 	lsl.w	r2, r0, r5
     a44:	ea4e 0e02 	orr.w	lr, lr, r2
     a48:	fa20 f304 	lsr.w	r3, r0, r4
     a4c:	fa01 f205 	lsl.w	r2, r1, r5
     a50:	ea43 0302 	orr.w	r3, r3, r2
     a54:	fa21 f004 	lsr.w	r0, r1, r4
     a58:	f001 4100 	and.w	r1, r1, #2147483648	; 0x80000000
     a5c:	fa21 f204 	lsr.w	r2, r1, r4
     a60:	ea20 0002 	bic.w	r0, r0, r2
     a64:	eb00 70d3 	add.w	r0, r0, r3, lsr #31
     a68:	ea5e 0e43 	orrs.w	lr, lr, r3, lsl #1
     a6c:	bf08      	it	eq
     a6e:	ea20 70d3 	biceq.w	r0, r0, r3, lsr #31
     a72:	bd70      	pop	{r4, r5, r6, pc}
     a74:	f094 0f00 	teq	r4, #0
     a78:	d10f      	bne.n	a9a <__aeabi_dmul+0x1c2>
     a7a:	f001 4600 	and.w	r6, r1, #2147483648	; 0x80000000
     a7e:	0040      	lsls	r0, r0, #1
     a80:	eb41 0101 	adc.w	r1, r1, r1
     a84:	f411 1f80 	tst.w	r1, #1048576	; 0x100000
     a88:	bf08      	it	eq
     a8a:	3c01      	subeq	r4, #1
     a8c:	d0f7      	beq.n	a7e <__aeabi_dmul+0x1a6>
     a8e:	ea41 0106 	orr.w	r1, r1, r6
     a92:	f095 0f00 	teq	r5, #0
     a96:	bf18      	it	ne
     a98:	4770      	bxne	lr
     a9a:	f003 4600 	and.w	r6, r3, #2147483648	; 0x80000000
     a9e:	0052      	lsls	r2, r2, #1
     aa0:	eb43 0303 	adc.w	r3, r3, r3
     aa4:	f413 1f80 	tst.w	r3, #1048576	; 0x100000
     aa8:	bf08      	it	eq
     aaa:	3d01      	subeq	r5, #1
     aac:	d0f7      	beq.n	a9e <__aeabi_dmul+0x1c6>
     aae:	ea43 0306 	orr.w	r3, r3, r6
     ab2:	4770      	bx	lr
     ab4:	ea94 0f0c 	teq	r4, ip
     ab8:	ea0c 5513 	and.w	r5, ip, r3, lsr #20
     abc:	bf18      	it	ne
     abe:	ea95 0f0c 	teqne	r5, ip
     ac2:	d00c      	beq.n	ade <__aeabi_dmul+0x206>
     ac4:	ea50 0641 	orrs.w	r6, r0, r1, lsl #1
     ac8:	bf18      	it	ne
     aca:	ea52 0643 	orrsne.w	r6, r2, r3, lsl #1
     ace:	d1d1      	bne.n	a74 <__aeabi_dmul+0x19c>
     ad0:	ea81 0103 	eor.w	r1, r1, r3
     ad4:	f001 4100 	and.w	r1, r1, #2147483648	; 0x80000000
     ad8:	f04f 0000 	mov.w	r0, #0
     adc:	bd70      	pop	{r4, r5, r6, pc}
     ade:	ea50 0641 	orrs.w	r6, r0, r1, lsl #1
     ae2:	bf06      	itte	eq
     ae4:	4610      	moveq	r0, r2
     ae6:	4619      	moveq	r1, r3
     ae8:	ea52 0643 	orrsne.w	r6, r2, r3, lsl #1
     aec:	d019      	beq.n	b22 <__aeabi_dmul+0x24a>
     aee:	ea94 0f0c 	teq	r4, ip
     af2:	d102      	bne.n	afa <__aeabi_dmul+0x222>
     af4:	ea50 3601 	orrs.w	r6, r0, r1, lsl #12
     af8:	d113      	bne.n	b22 <__aeabi_dmul+0x24a>
     afa:	ea95 0f0c 	teq	r5, ip
     afe:	d105      	bne.n	b0c <__aeabi_dmul+0x234>
     b00:	ea52 3603 	orrs.w	r6, r2, r3, lsl #12
     b04:	bf1c      	itt	ne
     b06:	4610      	movne	r0, r2
     b08:	4619      	movne	r1, r3
     b0a:	d10a      	bne.n	b22 <__aeabi_dmul+0x24a>
     b0c:	ea81 0103 	eor.w	r1, r1, r3
     b10:	f001 4100 	and.w	r1, r1, #2147483648	; 0x80000000
     b14:	f041 41fe 	orr.w	r1, r1, #2130706432	; 0x7f000000
     b18:	f441 0170 	orr.w	r1, r1, #15728640	; 0xf00000
     b1c:	f04f 0000 	mov.w	r0, #0
     b20:	bd70      	pop	{r4, r5, r6, pc}
     b22:	f041 41fe 	orr.w	r1, r1, #2130706432	; 0x7f000000
     b26:	f441 0178 	orr.w	r1, r1, #16252928	; 0xf80000
     b2a:	bd70      	pop	{r4, r5, r6, pc}

00000b2c <__aeabi_ddiv>:
     b2c:	b570      	push	{r4, r5, r6, lr}
     b2e:	f04f 0cff 	mov.w	ip, #255	; 0xff
     b32:	f44c 6ce0 	orr.w	ip, ip, #1792	; 0x700
     b36:	ea1c 5411 	ands.w	r4, ip, r1, lsr #20
     b3a:	bf1d      	ittte	ne
     b3c:	ea1c 5513 	andsne.w	r5, ip, r3, lsr #20
     b40:	ea94 0f0c 	teqne	r4, ip
     b44:	ea95 0f0c 	teqne	r5, ip
     b48:	f000 f8a7 	bleq	c9a <__aeabi_ddiv+0x16e>
     b4c:	eba4 0405 	sub.w	r4, r4, r5
     b50:	ea81 0e03 	eor.w	lr, r1, r3
     b54:	ea52 3503 	orrs.w	r5, r2, r3, lsl #12
     b58:	ea4f 3101 	mov.w	r1, r1, lsl #12
     b5c:	f000 8088 	beq.w	c70 <__aeabi_ddiv+0x144>
     b60:	ea4f 3303 	mov.w	r3, r3, lsl #12
     b64:	f04f 5580 	mov.w	r5, #268435456	; 0x10000000
     b68:	ea45 1313 	orr.w	r3, r5, r3, lsr #4
     b6c:	ea43 6312 	orr.w	r3, r3, r2, lsr #24
     b70:	ea4f 2202 	mov.w	r2, r2, lsl #8
     b74:	ea45 1511 	orr.w	r5, r5, r1, lsr #4
     b78:	ea45 6510 	orr.w	r5, r5, r0, lsr #24
     b7c:	ea4f 2600 	mov.w	r6, r0, lsl #8
     b80:	f00e 4100 	and.w	r1, lr, #2147483648	; 0x80000000
     b84:	429d      	cmp	r5, r3
     b86:	bf08      	it	eq
     b88:	4296      	cmpeq	r6, r2
     b8a:	f144 04fd 	adc.w	r4, r4, #253	; 0xfd
     b8e:	f504 7440 	add.w	r4, r4, #768	; 0x300
     b92:	d202      	bcs.n	b9a <__aeabi_ddiv+0x6e>
     b94:	085b      	lsrs	r3, r3, #1
     b96:	ea4f 0232 	mov.w	r2, r2, rrx
     b9a:	1ab6      	subs	r6, r6, r2
     b9c:	eb65 0503 	sbc.w	r5, r5, r3
     ba0:	085b      	lsrs	r3, r3, #1
     ba2:	ea4f 0232 	mov.w	r2, r2, rrx
     ba6:	f44f 1080 	mov.w	r0, #1048576	; 0x100000
     baa:	f44f 2c00 	mov.w	ip, #524288	; 0x80000
     bae:	ebb6 0e02 	subs.w	lr, r6, r2
     bb2:	eb75 0e03 	sbcs.w	lr, r5, r3
     bb6:	bf22      	ittt	cs
     bb8:	1ab6      	subcs	r6, r6, r2
     bba:	4675      	movcs	r5, lr
     bbc:	ea40 000c 	orrcs.w	r0, r0, ip
     bc0:	085b      	lsrs	r3, r3, #1
     bc2:	ea4f 0232 	mov.w	r2, r2, rrx
     bc6:	ebb6 0e02 	subs.w	lr, r6, r2
     bca:	eb75 0e03 	sbcs.w	lr, r5, r3
     bce:	bf22      	ittt	cs
     bd0:	1ab6      	subcs	r6, r6, r2
     bd2:	4675      	movcs	r5, lr
     bd4:	ea40 005c 	orrcs.w	r0, r0, ip, lsr #1
     bd8:	085b      	lsrs	r3, r3, #1
     bda:	ea4f 0232 	mov.w	r2, r2, rrx
     bde:	ebb6 0e02 	subs.w	lr, r6, r2
     be2:	eb75 0e03 	sbcs.w	lr, r5, r3
     be6:	bf22      	ittt	cs
     be8:	1ab6      	subcs	r6, r6, r2
     bea:	4675      	movcs	r5, lr
     bec:	ea40 009c 	orrcs.w	r0, r0, ip, lsr #2
     bf0:	085b      	lsrs	r3, r3, #1
     bf2:	ea4f 0232 	mov.w	r2, r2, rrx
     bf6:	ebb6 0e02 	subs.w	lr, r6, r2
     bfa:	eb75 0e03 	sbcs.w	lr, r5, r3
     bfe:	bf22      	ittt	cs
     c00:	1ab6      	subcs	r6, r6, r2
     c02:	4675      	movcs	r5, lr
     c04:	ea40 00dc 	orrcs.w	r0, r0, ip, lsr #3
     c08:	ea55 0e06 	orrs.w	lr, r5, r6
     c0c:	d018      	beq.n	c40 <__aeabi_ddiv+0x114>
     c0e:	ea4f 1505 	mov.w	r5, r5, lsl #4
     c12:	ea45 7516 	orr.w	r5, r5, r6, lsr #28
     c16:	ea4f 1606 	mov.w	r6, r6, lsl #4
     c1a:	ea4f 03c3 	mov.w	r3, r3, lsl #3
     c1e:	ea43 7352 	orr.w	r3, r3, r2, lsr #29
     c22:	ea4f 02c2 	mov.w	r2, r2, lsl #3
     c26:	ea5f 1c1c 	movs.w	ip, ip, lsr #4
     c2a:	d1c0      	bne.n	bae <__aeabi_ddiv+0x82>
     c2c:	f411 1f80 	tst.w	r1, #1048576	; 0x100000
     c30:	d10b      	bne.n	c4a <__aeabi_ddiv+0x11e>
     c32:	ea41 0100 	orr.w	r1, r1, r0
     c36:	f04f 0000 	mov.w	r0, #0
     c3a:	f04f 4c00 	mov.w	ip, #2147483648	; 0x80000000
     c3e:	e7b6      	b.n	bae <__aeabi_ddiv+0x82>
     c40:	f411 1f80 	tst.w	r1, #1048576	; 0x100000
     c44:	bf04      	itt	eq
     c46:	4301      	orreq	r1, r0
     c48:	2000      	moveq	r0, #0
     c4a:	f1b4 0cfd 	subs.w	ip, r4, #253	; 0xfd
     c4e:	bf88      	it	hi
     c50:	f5bc 6fe0 	cmphi.w	ip, #1792	; 0x700
     c54:	f63f aeaf 	bhi.w	9b6 <__aeabi_dmul+0xde>
     c58:	ebb5 0c03 	subs.w	ip, r5, r3
     c5c:	bf04      	itt	eq
     c5e:	ebb6 0c02 	subseq.w	ip, r6, r2
     c62:	ea5f 0c50 	movseq.w	ip, r0, lsr #1
     c66:	f150 0000 	adcs.w	r0, r0, #0
     c6a:	eb41 5104 	adc.w	r1, r1, r4, lsl #20
     c6e:	bd70      	pop	{r4, r5, r6, pc}
     c70:	f00e 4e00 	and.w	lr, lr, #2147483648	; 0x80000000
     c74:	ea4e 3111 	orr.w	r1, lr, r1, lsr #12
     c78:	eb14 045c 	adds.w	r4, r4, ip, lsr #1
     c7c:	bfc2      	ittt	gt
     c7e:	ebd4 050c 	rsbsgt	r5, r4, ip
     c82:	ea41 5104 	orrgt.w	r1, r1, r4, lsl #20
     c86:	bd70      	popgt	{r4, r5, r6, pc}
     c88:	f441 1180 	orr.w	r1, r1, #1048576	; 0x100000
     c8c:	f04f 0e00 	mov.w	lr, #0
     c90:	3c01      	subs	r4, #1
     c92:	e690      	b.n	9b6 <__aeabi_dmul+0xde>
     c94:	ea45 0e06 	orr.w	lr, r5, r6
     c98:	e68d      	b.n	9b6 <__aeabi_dmul+0xde>
     c9a:	ea0c 5513 	and.w	r5, ip, r3, lsr #20
     c9e:	ea94 0f0c 	teq	r4, ip
     ca2:	bf08      	it	eq
     ca4:	ea95 0f0c 	teqeq	r5, ip
     ca8:	f43f af3b 	beq.w	b22 <__aeabi_dmul+0x24a>
     cac:	ea94 0f0c 	teq	r4, ip
     cb0:	d10a      	bne.n	cc8 <__aeabi_ddiv+0x19c>
     cb2:	ea50 3401 	orrs.w	r4, r0, r1, lsl #12
     cb6:	f47f af34 	bne.w	b22 <__aeabi_dmul+0x24a>
     cba:	ea95 0f0c 	teq	r5, ip
     cbe:	f47f af25 	bne.w	b0c <__aeabi_dmul+0x234>
     cc2:	4610      	mov	r0, r2
     cc4:	4619      	mov	r1, r3
     cc6:	e72c      	b.n	b22 <__aeabi_dmul+0x24a>
     cc8:	ea95 0f0c 	teq	r5, ip
     ccc:	d106      	bne.n	cdc <__aeabi_ddiv+0x1b0>
     cce:	ea52 3503 	orrs.w	r5, r2, r3, lsl #12
     cd2:	f43f aefd 	beq.w	ad0 <__aeabi_dmul+0x1f8>
     cd6:	4610      	mov	r0, r2
     cd8:	4619      	mov	r1, r3
     cda:	e722      	b.n	b22 <__aeabi_dmul+0x24a>
     cdc:	ea50 0641 	orrs.w	r6, r0, r1, lsl #1
     ce0:	bf18      	it	ne
     ce2:	ea52 0643 	orrsne.w	r6, r2, r3, lsl #1
     ce6:	f47f aec5 	bne.w	a74 <__aeabi_dmul+0x19c>
     cea:	ea50 0441 	orrs.w	r4, r0, r1, lsl #1
     cee:	f47f af0d 	bne.w	b0c <__aeabi_dmul+0x234>
     cf2:	ea52 0543 	orrs.w	r5, r2, r3, lsl #1
     cf6:	f47f aeeb 	bne.w	ad0 <__aeabi_dmul+0x1f8>
     cfa:	e712      	b.n	b22 <__aeabi_dmul+0x24a>

00000cfc <__gedf2>:
     cfc:	f04f 3cff 	mov.w	ip, #4294967295	; 0xffffffff
     d00:	e006      	b.n	d10 <__cmpdf2+0x4>
     d02:	bf00      	nop

00000d04 <__ledf2>:
     d04:	f04f 0c01 	mov.w	ip, #1
     d08:	e002      	b.n	d10 <__cmpdf2+0x4>
     d0a:	bf00      	nop

00000d0c <__cmpdf2>:
     d0c:	f04f 0c01 	mov.w	ip, #1
     d10:	f84d cd04 	str.w	ip, [sp, #-4]!
     d14:	ea4f 0c41 	mov.w	ip, r1, lsl #1
     d18:	ea7f 5c6c 	mvns.w	ip, ip, asr #21
     d1c:	ea4f 0c43 	mov.w	ip, r3, lsl #1
     d20:	bf18      	it	ne
     d22:	ea7f 5c6c 	mvnsne.w	ip, ip, asr #21
     d26:	d01b      	beq.n	d60 <__cmpdf2+0x54>
     d28:	b001      	add	sp, #4
     d2a:	ea50 0c41 	orrs.w	ip, r0, r1, lsl #1
     d2e:	bf0c      	ite	eq
     d30:	ea52 0c43 	orrseq.w	ip, r2, r3, lsl #1
     d34:	ea91 0f03 	teqne	r1, r3
     d38:	bf02      	ittt	eq
     d3a:	ea90 0f02 	teqeq	r0, r2
     d3e:	2000      	moveq	r0, #0
     d40:	4770      	bxeq	lr
     d42:	f110 0f00 	cmn.w	r0, #0
     d46:	ea91 0f03 	teq	r1, r3
     d4a:	bf58      	it	pl
     d4c:	4299      	cmppl	r1, r3
     d4e:	bf08      	it	eq
     d50:	4290      	cmpeq	r0, r2
     d52:	bf2c      	ite	cs
     d54:	17d8      	asrcs	r0, r3, #31
     d56:	ea6f 70e3 	mvncc.w	r0, r3, asr #31
     d5a:	f040 0001 	orr.w	r0, r0, #1
     d5e:	4770      	bx	lr
     d60:	ea4f 0c41 	mov.w	ip, r1, lsl #1
     d64:	ea7f 5c6c 	mvns.w	ip, ip, asr #21
     d68:	d102      	bne.n	d70 <__cmpdf2+0x64>
     d6a:	ea50 3c01 	orrs.w	ip, r0, r1, lsl #12
     d6e:	d107      	bne.n	d80 <__cmpdf2+0x74>
     d70:	ea4f 0c43 	mov.w	ip, r3, lsl #1
     d74:	ea7f 5c6c 	mvns.w	ip, ip, asr #21
     d78:	d1d6      	bne.n	d28 <__cmpdf2+0x1c>
     d7a:	ea52 3c03 	orrs.w	ip, r2, r3, lsl #12
     d7e:	d0d3      	beq.n	d28 <__cmpdf2+0x1c>
     d80:	f85d 0b04 	ldr.w	r0, [sp], #4
     d84:	4770      	bx	lr
     d86:	bf00      	nop

00000d88 <__aeabi_cdrcmple>:
     d88:	4684      	mov	ip, r0
     d8a:	4610      	mov	r0, r2
     d8c:	4662      	mov	r2, ip
     d8e:	468c      	mov	ip, r1
     d90:	4619      	mov	r1, r3
     d92:	4663      	mov	r3, ip
     d94:	e000      	b.n	d98 <__aeabi_cdcmpeq>
     d96:	bf00      	nop

00000d98 <__aeabi_cdcmpeq>:
     d98:	b501      	push	{r0, lr}
     d9a:	f7ff ffb7 	bl	d0c <__cmpdf2>
     d9e:	2800      	cmp	r0, #0
     da0:	bf48      	it	mi
     da2:	f110 0f00 	cmnmi.w	r0, #0
     da6:	bd01      	pop	{r0, pc}

00000da8 <__aeabi_dcmpeq>:
     da8:	f84d ed08 	str.w	lr, [sp, #-8]!
     dac:	f7ff fff4 	bl	d98 <__aeabi_cdcmpeq>
     db0:	bf0c      	ite	eq
     db2:	2001      	moveq	r0, #1
     db4:	2000      	movne	r0, #0
     db6:	f85d fb08 	ldr.w	pc, [sp], #8
     dba:	bf00      	nop

00000dbc <__aeabi_dcmplt>:
     dbc:	f84d ed08 	str.w	lr, [sp, #-8]!
     dc0:	f7ff ffea 	bl	d98 <__aeabi_cdcmpeq>
     dc4:	bf34      	ite	cc
     dc6:	2001      	movcc	r0, #1
     dc8:	2000      	movcs	r0, #0
     dca:	f85d fb08 	ldr.w	pc, [sp], #8
     dce:	bf00      	nop

00000dd0 <__aeabi_dcmple>:
     dd0:	f84d ed08 	str.w	lr, [sp, #-8]!
     dd4:	f7ff ffe0 	bl	d98 <__aeabi_cdcmpeq>
     dd8:	bf94      	ite	ls
     dda:	2001      	movls	r0, #1
     ddc:	2000      	movhi	r0, #0
     dde:	f85d fb08 	ldr.w	pc, [sp], #8
     de2:	bf00      	nop

00000de4 <__aeabi_dcmpge>:
     de4:	f84d ed08 	str.w	lr, [sp, #-8]!
     de8:	f7ff ffce 	bl	d88 <__aeabi_cdrcmple>
     dec:	bf94      	ite	ls
     dee:	2001      	movls	r0, #1
     df0:	2000      	movhi	r0, #0
     df2:	f85d fb08 	ldr.w	pc, [sp], #8
     df6:	bf00      	nop

00000df8 <__aeabi_dcmpgt>:
     df8:	f84d ed08 	str.w	lr, [sp, #-8]!
     dfc:	f7ff ffc4 	bl	d88 <__aeabi_cdrcmple>
     e00:	bf34      	ite	cc
     e02:	2001      	movcc	r0, #1
     e04:	2000      	movcs	r0, #0
     e06:	f85d fb08 	ldr.w	pc, [sp], #8
     e0a:	bf00      	nop

00000e0c <__aeabi_dcmpun>:
     e0c:	ea4f 0c41 	mov.w	ip, r1, lsl #1
     e10:	ea7f 5c6c 	mvns.w	ip, ip, asr #21
     e14:	d102      	bne.n	e1c <__aeabi_dcmpun+0x10>
     e16:	ea50 3c01 	orrs.w	ip, r0, r1, lsl #12
     e1a:	d10a      	bne.n	e32 <__aeabi_dcmpun+0x26>
     e1c:	ea4f 0c43 	mov.w	ip, r3, lsl #1
     e20:	ea7f 5c6c 	mvns.w	ip, ip, asr #21
     e24:	d102      	bne.n	e2c <__aeabi_dcmpun+0x20>
     e26:	ea52 3c03 	orrs.w	ip, r2, r3, lsl #12
     e2a:	d102      	bne.n	e32 <__aeabi_dcmpun+0x26>
     e2c:	f04f 0000 	mov.w	r0, #0
     e30:	4770      	bx	lr
     e32:	f04f 0001 	mov.w	r0, #1
     e36:	4770      	bx	lr

00000e38 <__aeabi_d2iz>:
     e38:	ea4f 0241 	mov.w	r2, r1, lsl #1
     e3c:	f512 1200 	adds.w	r2, r2, #2097152	; 0x200000
     e40:	d215      	bcs.n	e6e <__aeabi_d2iz+0x36>
     e42:	d511      	bpl.n	e68 <__aeabi_d2iz+0x30>
     e44:	f46f 7378 	mvn.w	r3, #992	; 0x3e0
     e48:	ebb3 5262 	subs.w	r2, r3, r2, asr #21
     e4c:	d912      	bls.n	e74 <__aeabi_d2iz+0x3c>
     e4e:	ea4f 23c1 	mov.w	r3, r1, lsl #11
     e52:	f043 4300 	orr.w	r3, r3, #2147483648	; 0x80000000
     e56:	ea43 5350 	orr.w	r3, r3, r0, lsr #21
     e5a:	f011 4f00 	tst.w	r1, #2147483648	; 0x80000000
     e5e:	fa23 f002 	lsr.w	r0, r3, r2
     e62:	bf18      	it	ne
     e64:	4240      	negne	r0, r0
     e66:	4770      	bx	lr
     e68:	f04f 0000 	mov.w	r0, #0
     e6c:	4770      	bx	lr
     e6e:	ea50 3001 	orrs.w	r0, r0, r1, lsl #12
     e72:	d105      	bne.n	e80 <__aeabi_d2iz+0x48>
     e74:	f011 4000 	ands.w	r0, r1, #2147483648	; 0x80000000
     e78:	bf08      	it	eq
     e7a:	f06f 4000 	mvneq.w	r0, #2147483648	; 0x80000000
     e7e:	4770      	bx	lr
     e80:	f04f 0000 	mov.w	r0, #0
     e84:	4770      	bx	lr
     e86:	bf00      	nop

00000e88 <__aeabi_d2f>:
     e88:	ea4f 0241 	mov.w	r2, r1, lsl #1
     e8c:	f1b2 43e0 	subs.w	r3, r2, #1879048192	; 0x70000000
     e90:	bf24      	itt	cs
     e92:	f5b3 1c00 	subscs.w	ip, r3, #2097152	; 0x200000
     e96:	f1dc 5cfe 	rsbscs	ip, ip, #532676608	; 0x1fc00000
     e9a:	d90d      	bls.n	eb8 <__aeabi_d2f+0x30>
     e9c:	f001 4c00 	and.w	ip, r1, #2147483648	; 0x80000000
     ea0:	ea4f 02c0 	mov.w	r2, r0, lsl #3
     ea4:	ea4c 7050 	orr.w	r0, ip, r0, lsr #29
     ea8:	f1b2 4f00 	cmp.w	r2, #2147483648	; 0x80000000
     eac:	eb40 0083 	adc.w	r0, r0, r3, lsl #2
     eb0:	bf08      	it	eq
     eb2:	f020 0001 	biceq.w	r0, r0, #1
     eb6:	4770      	bx	lr
     eb8:	f011 4f80 	tst.w	r1, #1073741824	; 0x40000000
     ebc:	d121      	bne.n	f02 <__aeabi_d2f+0x7a>
     ebe:	f113 7238 	adds.w	r2, r3, #48234496	; 0x2e00000
     ec2:	bfbc      	itt	lt
     ec4:	f001 4000 	andlt.w	r0, r1, #2147483648	; 0x80000000
     ec8:	4770      	bxlt	lr
     eca:	f441 1180 	orr.w	r1, r1, #1048576	; 0x100000
     ece:	ea4f 5252 	mov.w	r2, r2, lsr #21
     ed2:	f1c2 0218 	rsb	r2, r2, #24
     ed6:	f1c2 0c20 	rsb	ip, r2, #32
     eda:	fa10 f30c 	lsls.w	r3, r0, ip
     ede:	fa20 f002 	lsr.w	r0, r0, r2
     ee2:	bf18      	it	ne
     ee4:	f040 0001 	orrne.w	r0, r0, #1
     ee8:	ea4f 23c1 	mov.w	r3, r1, lsl #11
     eec:	ea4f 23d3 	mov.w	r3, r3, lsr #11
     ef0:	fa03 fc0c 	lsl.w	ip, r3, ip
     ef4:	ea40 000c 	orr.w	r0, r0, ip
     ef8:	fa23 f302 	lsr.w	r3, r3, r2
     efc:	ea4f 0343 	mov.w	r3, r3, lsl #1
     f00:	e7cc      	b.n	e9c <__aeabi_d2f+0x14>
     f02:	ea7f 5362 	mvns.w	r3, r2, asr #21
     f06:	d107      	bne.n	f18 <__aeabi_d2f+0x90>
     f08:	ea50 3301 	orrs.w	r3, r0, r1, lsl #12
     f0c:	bf1e      	ittt	ne
     f0e:	f04f 40fe 	movne.w	r0, #2130706432	; 0x7f000000
     f12:	f440 0040 	orrne.w	r0, r0, #12582912	; 0xc00000
     f16:	4770      	bxne	lr
     f18:	f001 4000 	and.w	r0, r1, #2147483648	; 0x80000000
     f1c:	f040 40fe 	orr.w	r0, r0, #2130706432	; 0x7f000000
     f20:	f440 0000 	orr.w	r0, r0, #8388608	; 0x800000
     f24:	4770      	bx	lr
     f26:	bf00      	nop

00000f28 <__aeabi_ldivmod>:
     f28:	b97b      	cbnz	r3, f4a <__aeabi_ldivmod+0x22>
     f2a:	b972      	cbnz	r2, f4a <__aeabi_ldivmod+0x22>
     f2c:	2900      	cmp	r1, #0
     f2e:	bfbe      	ittt	lt
     f30:	2000      	movlt	r0, #0
     f32:	f04f 4100 	movlt.w	r1, #2147483648	; 0x80000000
     f36:	e006      	blt.n	f46 <__aeabi_ldivmod+0x1e>
     f38:	bf08      	it	eq
     f3a:	2800      	cmpeq	r0, #0
     f3c:	bf1c      	itt	ne
     f3e:	f06f 4100 	mvnne.w	r1, #2147483648	; 0x80000000
     f42:	f04f 30ff 	movne.w	r0, #4294967295	; 0xffffffff
     f46:	f000 ba03 	b.w	1350 <__aeabi_idiv0>
     f4a:	f1ad 0c08 	sub.w	ip, sp, #8
     f4e:	e96d ce04 	strd	ip, lr, [sp, #-16]!
     f52:	2900      	cmp	r1, #0
     f54:	db09      	blt.n	f6a <__aeabi_ldivmod+0x42>
     f56:	2b00      	cmp	r3, #0
     f58:	db1a      	blt.n	f90 <__aeabi_ldivmod+0x68>
     f5a:	f000 f883 	bl	1064 <__udivmoddi4>
     f5e:	f8dd e004 	ldr.w	lr, [sp, #4]
     f62:	e9dd 2302 	ldrd	r2, r3, [sp, #8]
     f66:	b004      	add	sp, #16
     f68:	4770      	bx	lr
     f6a:	4240      	negs	r0, r0
     f6c:	eb61 0141 	sbc.w	r1, r1, r1, lsl #1
     f70:	2b00      	cmp	r3, #0
     f72:	db1b      	blt.n	fac <__aeabi_ldivmod+0x84>
     f74:	f000 f876 	bl	1064 <__udivmoddi4>
     f78:	f8dd e004 	ldr.w	lr, [sp, #4]
     f7c:	e9dd 2302 	ldrd	r2, r3, [sp, #8]
     f80:	b004      	add	sp, #16
     f82:	4240      	negs	r0, r0
     f84:	eb61 0141 	sbc.w	r1, r1, r1, lsl #1
     f88:	4252      	negs	r2, r2
     f8a:	eb63 0343 	sbc.w	r3, r3, r3, lsl #1
     f8e:	4770      	bx	lr
     f90:	4252      	negs	r2, r2
     f92:	eb63 0343 	sbc.w	r3, r3, r3, lsl #1
     f96:	f000 f865 	bl	1064 <__udivmoddi4>
     f9a:	f8dd e004 	ldr.w	lr, [sp, #4]
     f9e:	e9dd 2302 	ldrd	r2, r3, [sp, #8]
     fa2:	b004      	add	sp, #16
     fa4:	4240      	negs	r0, r0
     fa6:	eb61 0141 	sbc.w	r1, r1, r1, lsl #1
     faa:	4770      	bx	lr
     fac:	4252      	negs	r2, r2
     fae:	eb63 0343 	sbc.w	r3, r3, r3, lsl #1
     fb2:	f000 f857 	bl	1064 <__udivmoddi4>
     fb6:	f8dd e004 	ldr.w	lr, [sp, #4]
     fba:	e9dd 2302 	ldrd	r2, r3, [sp, #8]
     fbe:	b004      	add	sp, #16
     fc0:	4252      	negs	r2, r2
     fc2:	eb63 0343 	sbc.w	r3, r3, r3, lsl #1
     fc6:	4770      	bx	lr

00000fc8 <__aeabi_uldivmod>:
     fc8:	b953      	cbnz	r3, fe0 <__aeabi_uldivmod+0x18>
     fca:	b94a      	cbnz	r2, fe0 <__aeabi_uldivmod+0x18>
     fcc:	2900      	cmp	r1, #0
     fce:	bf08      	it	eq
     fd0:	2800      	cmpeq	r0, #0
     fd2:	bf1c      	itt	ne
     fd4:	f04f 31ff 	movne.w	r1, #4294967295	; 0xffffffff
     fd8:	f04f 30ff 	movne.w	r0, #4294967295	; 0xffffffff
     fdc:	f000 b9b8 	b.w	1350 <__aeabi_idiv0>
     fe0:	f1ad 0c08 	sub.w	ip, sp, #8
     fe4:	e96d ce04 	strd	ip, lr, [sp, #-16]!
     fe8:	f000 f83c 	bl	1064 <__udivmoddi4>
     fec:	f8dd e004 	ldr.w	lr, [sp, #4]
     ff0:	e9dd 2302 	ldrd	r2, r3, [sp, #8]
     ff4:	b004      	add	sp, #16
     ff6:	4770      	bx	lr

00000ff8 <__aeabi_d2lz>:
     ff8:	b538      	push	{r3, r4, r5, lr}
     ffa:	2200      	movs	r2, #0
     ffc:	2300      	movs	r3, #0
     ffe:	4604      	mov	r4, r0
    1000:	460d      	mov	r5, r1
    1002:	f7ff fedb 	bl	dbc <__aeabi_dcmplt>
    1006:	b928      	cbnz	r0, 1014 <__aeabi_d2lz+0x1c>
    1008:	4620      	mov	r0, r4
    100a:	4629      	mov	r1, r5
    100c:	e8bd 4038 	ldmia.w	sp!, {r3, r4, r5, lr}
    1010:	f000 b80a 	b.w	1028 <__aeabi_d2ulz>
    1014:	4620      	mov	r0, r4
    1016:	f105 4100 	add.w	r1, r5, #2147483648	; 0x80000000
    101a:	f000 f805 	bl	1028 <__aeabi_d2ulz>
    101e:	4240      	negs	r0, r0
    1020:	eb61 0141 	sbc.w	r1, r1, r1, lsl #1
    1024:	bd38      	pop	{r3, r4, r5, pc}
    1026:	bf00      	nop

00001028 <__aeabi_d2ulz>:
    1028:	b5d0      	push	{r4, r6, r7, lr}
    102a:	2200      	movs	r2, #0
    102c:	4b0b      	ldr	r3, [pc, #44]	; (105c <__aeabi_d2ulz+0x34>)
    102e:	4606      	mov	r6, r0
    1030:	460f      	mov	r7, r1
    1032:	f7ff fc51 	bl	8d8 <__aeabi_dmul>
    1036:	f000 f98d 	bl	1354 <__aeabi_d2uiz>
    103a:	4604      	mov	r4, r0
    103c:	f7ff fbd2 	bl	7e4 <__aeabi_ui2d>
    1040:	2200      	movs	r2, #0
    1042:	4b07      	ldr	r3, [pc, #28]	; (1060 <__aeabi_d2ulz+0x38>)
    1044:	f7ff fc48 	bl	8d8 <__aeabi_dmul>
    1048:	4602      	mov	r2, r0
    104a:	460b      	mov	r3, r1
    104c:	4630      	mov	r0, r6
    104e:	4639      	mov	r1, r7
    1050:	f7ff fa8a 	bl	568 <__aeabi_dsub>
    1054:	f000 f97e 	bl	1354 <__aeabi_d2uiz>
    1058:	4621      	mov	r1, r4
    105a:	bdd0      	pop	{r4, r6, r7, pc}
    105c:	3df00000 	.word	0x3df00000
    1060:	41f00000 	.word	0x41f00000

00001064 <__udivmoddi4>:
    1064:	e92d 4ff0 	stmdb	sp!, {r4, r5, r6, r7, r8, r9, sl, fp, lr}
    1068:	9d09      	ldr	r5, [sp, #36]	; 0x24
    106a:	460e      	mov	r6, r1
    106c:	4604      	mov	r4, r0
    106e:	460f      	mov	r7, r1
    1070:	2b00      	cmp	r3, #0
    1072:	d147      	bne.n	1104 <__udivmoddi4+0xa0>
    1074:	428a      	cmp	r2, r1
    1076:	4694      	mov	ip, r2
    1078:	d95f      	bls.n	113a <__udivmoddi4+0xd6>
    107a:	fab2 f382 	clz	r3, r2
    107e:	b143      	cbz	r3, 1092 <__udivmoddi4+0x2e>
    1080:	fa02 fc03 	lsl.w	ip, r2, r3
    1084:	f1c3 0220 	rsb	r2, r3, #32
    1088:	409f      	lsls	r7, r3
    108a:	409c      	lsls	r4, r3
    108c:	fa20 f202 	lsr.w	r2, r0, r2
    1090:	4317      	orrs	r7, r2
    1092:	ea4f 461c 	mov.w	r6, ip, lsr #16
    1096:	fa1f fe8c 	uxth.w	lr, ip
    109a:	0c22      	lsrs	r2, r4, #16
    109c:	fbb7 f1f6 	udiv	r1, r7, r6
    10a0:	fb06 7711 	mls	r7, r6, r1, r7
    10a4:	fb01 f00e 	mul.w	r0, r1, lr
    10a8:	ea42 4207 	orr.w	r2, r2, r7, lsl #16
    10ac:	4290      	cmp	r0, r2
    10ae:	d908      	bls.n	10c2 <__udivmoddi4+0x5e>
    10b0:	eb1c 0202 	adds.w	r2, ip, r2
    10b4:	f101 37ff 	add.w	r7, r1, #4294967295	; 0xffffffff
    10b8:	d202      	bcs.n	10c0 <__udivmoddi4+0x5c>
    10ba:	4290      	cmp	r0, r2
    10bc:	f200 8137 	bhi.w	132e <__udivmoddi4+0x2ca>
    10c0:	4639      	mov	r1, r7
    10c2:	1a12      	subs	r2, r2, r0
    10c4:	b2a4      	uxth	r4, r4
    10c6:	fbb2 f0f6 	udiv	r0, r2, r6
    10ca:	fb06 2210 	mls	r2, r6, r0, r2
    10ce:	fb00 fe0e 	mul.w	lr, r0, lr
    10d2:	ea44 4402 	orr.w	r4, r4, r2, lsl #16
    10d6:	45a6      	cmp	lr, r4
    10d8:	d908      	bls.n	10ec <__udivmoddi4+0x88>
    10da:	eb1c 0404 	adds.w	r4, ip, r4
    10de:	f100 32ff 	add.w	r2, r0, #4294967295	; 0xffffffff
    10e2:	d202      	bcs.n	10ea <__udivmoddi4+0x86>
    10e4:	45a6      	cmp	lr, r4
    10e6:	f200 811c 	bhi.w	1322 <__udivmoddi4+0x2be>
    10ea:	4610      	mov	r0, r2
    10ec:	ea40 4001 	orr.w	r0, r0, r1, lsl #16
    10f0:	eba4 040e 	sub.w	r4, r4, lr
    10f4:	2100      	movs	r1, #0
    10f6:	b11d      	cbz	r5, 1100 <__udivmoddi4+0x9c>
    10f8:	40dc      	lsrs	r4, r3
    10fa:	2300      	movs	r3, #0
    10fc:	e9c5 4300 	strd	r4, r3, [r5]
    1100:	e8bd 8ff0 	ldmia.w	sp!, {r4, r5, r6, r7, r8, r9, sl, fp, pc}
    1104:	428b      	cmp	r3, r1
    1106:	d908      	bls.n	111a <__udivmoddi4+0xb6>
    1108:	2d00      	cmp	r5, #0
    110a:	f000 80fe 	beq.w	130a <__udivmoddi4+0x2a6>
    110e:	2100      	movs	r1, #0
    1110:	e9c5 0600 	strd	r0, r6, [r5]
    1114:	4608      	mov	r0, r1
    1116:	e8bd 8ff0 	ldmia.w	sp!, {r4, r5, r6, r7, r8, r9, sl, fp, pc}
    111a:	fab3 f183 	clz	r1, r3
    111e:	2900      	cmp	r1, #0
    1120:	d14c      	bne.n	11bc <__udivmoddi4+0x158>
    1122:	42b3      	cmp	r3, r6
    1124:	f0c0 80f4 	bcc.w	1310 <__udivmoddi4+0x2ac>
    1128:	4282      	cmp	r2, r0
    112a:	f240 80f1 	bls.w	1310 <__udivmoddi4+0x2ac>
    112e:	4608      	mov	r0, r1
    1130:	2d00      	cmp	r5, #0
    1132:	d0e5      	beq.n	1100 <__udivmoddi4+0x9c>
    1134:	e9c5 4700 	strd	r4, r7, [r5]
    1138:	e7e2      	b.n	1100 <__udivmoddi4+0x9c>
    113a:	b902      	cbnz	r2, 113e <__udivmoddi4+0xda>
    113c:	deff      	udf	#255	; 0xff
    113e:	fab2 f382 	clz	r3, r2
    1142:	2b00      	cmp	r3, #0
    1144:	f040 80a1 	bne.w	128a <__udivmoddi4+0x226>
    1148:	1a8a      	subs	r2, r1, r2
    114a:	ea4f 4e1c 	mov.w	lr, ip, lsr #16
    114e:	fa1f f78c 	uxth.w	r7, ip
    1152:	2101      	movs	r1, #1
    1154:	fbb2 f6fe 	udiv	r6, r2, lr
    1158:	fb0e 2016 	mls	r0, lr, r6, r2
    115c:	0c22      	lsrs	r2, r4, #16
    115e:	ea42 4200 	orr.w	r2, r2, r0, lsl #16
    1162:	fb07 f006 	mul.w	r0, r7, r6
    1166:	4290      	cmp	r0, r2
    1168:	d90f      	bls.n	118a <__udivmoddi4+0x126>
    116a:	eb1c 0202 	adds.w	r2, ip, r2
    116e:	f106 38ff 	add.w	r8, r6, #4294967295	; 0xffffffff
    1172:	bf2c      	ite	cs
    1174:	f04f 0901 	movcs.w	r9, #1
    1178:	f04f 0900 	movcc.w	r9, #0
    117c:	4290      	cmp	r0, r2
    117e:	d903      	bls.n	1188 <__udivmoddi4+0x124>
    1180:	f1b9 0f00 	cmp.w	r9, #0
    1184:	f000 80d0 	beq.w	1328 <__udivmoddi4+0x2c4>
    1188:	4646      	mov	r6, r8
    118a:	1a12      	subs	r2, r2, r0
    118c:	b2a4      	uxth	r4, r4
    118e:	fbb2 f0fe 	udiv	r0, r2, lr
    1192:	fb0e 2210 	mls	r2, lr, r0, r2
    1196:	fb00 f707 	mul.w	r7, r0, r7
    119a:	ea44 4402 	orr.w	r4, r4, r2, lsl #16
    119e:	42a7      	cmp	r7, r4
    11a0:	d908      	bls.n	11b4 <__udivmoddi4+0x150>
    11a2:	eb1c 0404 	adds.w	r4, ip, r4
    11a6:	f100 32ff 	add.w	r2, r0, #4294967295	; 0xffffffff
    11aa:	d202      	bcs.n	11b2 <__udivmoddi4+0x14e>
    11ac:	42a7      	cmp	r7, r4
    11ae:	f200 80b5 	bhi.w	131c <__udivmoddi4+0x2b8>
    11b2:	4610      	mov	r0, r2
    11b4:	1be4      	subs	r4, r4, r7
    11b6:	ea40 4006 	orr.w	r0, r0, r6, lsl #16
    11ba:	e79c      	b.n	10f6 <__udivmoddi4+0x92>
    11bc:	f1c1 0420 	rsb	r4, r1, #32
    11c0:	408b      	lsls	r3, r1
    11c2:	fa06 fc01 	lsl.w	ip, r6, r1
    11c6:	fa00 fe01 	lsl.w	lr, r0, r1
    11ca:	fa22 f704 	lsr.w	r7, r2, r4
    11ce:	40e6      	lsrs	r6, r4
    11d0:	408a      	lsls	r2, r1
    11d2:	431f      	orrs	r7, r3
    11d4:	fa20 f304 	lsr.w	r3, r0, r4
    11d8:	ea4f 4817 	mov.w	r8, r7, lsr #16
    11dc:	ea43 030c 	orr.w	r3, r3, ip
    11e0:	fa1f fc87 	uxth.w	ip, r7
    11e4:	ea4f 4913 	mov.w	r9, r3, lsr #16
    11e8:	fbb6 f0f8 	udiv	r0, r6, r8
    11ec:	fb08 6610 	mls	r6, r8, r0, r6
    11f0:	ea49 4606 	orr.w	r6, r9, r6, lsl #16
    11f4:	fb00 f90c 	mul.w	r9, r0, ip
    11f8:	45b1      	cmp	r9, r6
    11fa:	d90e      	bls.n	121a <__udivmoddi4+0x1b6>
    11fc:	19be      	adds	r6, r7, r6
    11fe:	f100 3aff 	add.w	sl, r0, #4294967295	; 0xffffffff
    1202:	bf2c      	ite	cs
    1204:	f04f 0b01 	movcs.w	fp, #1
    1208:	f04f 0b00 	movcc.w	fp, #0
    120c:	45b1      	cmp	r9, r6
    120e:	d903      	bls.n	1218 <__udivmoddi4+0x1b4>
    1210:	f1bb 0f00 	cmp.w	fp, #0
    1214:	f000 808e 	beq.w	1334 <__udivmoddi4+0x2d0>
    1218:	4650      	mov	r0, sl
    121a:	eba6 0609 	sub.w	r6, r6, r9
    121e:	fa1f f983 	uxth.w	r9, r3
    1222:	fbb6 f3f8 	udiv	r3, r6, r8
    1226:	fb08 6613 	mls	r6, r8, r3, r6
    122a:	fb03 fc0c 	mul.w	ip, r3, ip
    122e:	ea49 4606 	orr.w	r6, r9, r6, lsl #16
    1232:	45b4      	cmp	ip, r6
    1234:	d906      	bls.n	1244 <__udivmoddi4+0x1e0>
    1236:	19be      	adds	r6, r7, r6
    1238:	f103 38ff 	add.w	r8, r3, #4294967295	; 0xffffffff
    123c:	d201      	bcs.n	1242 <__udivmoddi4+0x1de>
    123e:	45b4      	cmp	ip, r6
    1240:	d87e      	bhi.n	1340 <__udivmoddi4+0x2dc>
    1242:	4643      	mov	r3, r8
    1244:	ea43 4000 	orr.w	r0, r3, r0, lsl #16
    1248:	eba6 060c 	sub.w	r6, r6, ip
    124c:	fba0 8c02 	umull	r8, ip, r0, r2
    1250:	4566      	cmp	r6, ip
    1252:	4643      	mov	r3, r8
    1254:	46e1      	mov	r9, ip
    1256:	d302      	bcc.n	125e <__udivmoddi4+0x1fa>
    1258:	d107      	bne.n	126a <__udivmoddi4+0x206>
    125a:	45c6      	cmp	lr, r8
    125c:	d205      	bcs.n	126a <__udivmoddi4+0x206>
    125e:	ebb8 0302 	subs.w	r3, r8, r2
    1262:	eb6c 0c07 	sbc.w	ip, ip, r7
    1266:	3801      	subs	r0, #1
    1268:	46e1      	mov	r9, ip
    126a:	2d00      	cmp	r5, #0
    126c:	d06e      	beq.n	134c <__udivmoddi4+0x2e8>
    126e:	ebbe 0203 	subs.w	r2, lr, r3
    1272:	eb66 0609 	sbc.w	r6, r6, r9
    1276:	fa22 f301 	lsr.w	r3, r2, r1
    127a:	fa06 f404 	lsl.w	r4, r6, r4
    127e:	40ce      	lsrs	r6, r1
    1280:	2100      	movs	r1, #0
    1282:	431c      	orrs	r4, r3
    1284:	e9c5 4600 	strd	r4, r6, [r5]
    1288:	e73a      	b.n	1100 <__udivmoddi4+0x9c>
    128a:	fa02 fc03 	lsl.w	ip, r2, r3
    128e:	f1c3 0220 	rsb	r2, r3, #32
    1292:	4099      	lsls	r1, r3
    1294:	409c      	lsls	r4, r3
    1296:	40d6      	lsrs	r6, r2
    1298:	ea4f 4e1c 	mov.w	lr, ip, lsr #16
    129c:	fa20 f202 	lsr.w	r2, r0, r2
    12a0:	fa1f f78c 	uxth.w	r7, ip
    12a4:	fbb6 f0fe 	udiv	r0, r6, lr
    12a8:	430a      	orrs	r2, r1
    12aa:	fb0e 6610 	mls	r6, lr, r0, r6
    12ae:	0c11      	lsrs	r1, r2, #16
    12b0:	ea41 4106 	orr.w	r1, r1, r6, lsl #16
    12b4:	fb00 f607 	mul.w	r6, r0, r7
    12b8:	428e      	cmp	r6, r1
    12ba:	d90e      	bls.n	12da <__udivmoddi4+0x276>
    12bc:	eb1c 0101 	adds.w	r1, ip, r1
    12c0:	f100 38ff 	add.w	r8, r0, #4294967295	; 0xffffffff
    12c4:	bf2c      	ite	cs
    12c6:	f04f 0901 	movcs.w	r9, #1
    12ca:	f04f 0900 	movcc.w	r9, #0
    12ce:	428e      	cmp	r6, r1
    12d0:	d902      	bls.n	12d8 <__udivmoddi4+0x274>
    12d2:	f1b9 0f00 	cmp.w	r9, #0
    12d6:	d030      	beq.n	133a <__udivmoddi4+0x2d6>
    12d8:	4640      	mov	r0, r8
    12da:	1b89      	subs	r1, r1, r6
    12dc:	b292      	uxth	r2, r2
    12de:	fbb1 f6fe 	udiv	r6, r1, lr
    12e2:	fb0e 1116 	mls	r1, lr, r6, r1
    12e6:	ea42 4201 	orr.w	r2, r2, r1, lsl #16
    12ea:	fb06 f107 	mul.w	r1, r6, r7
    12ee:	4291      	cmp	r1, r2
    12f0:	d907      	bls.n	1302 <__udivmoddi4+0x29e>
    12f2:	eb1c 0202 	adds.w	r2, ip, r2
    12f6:	f106 38ff 	add.w	r8, r6, #4294967295	; 0xffffffff
    12fa:	d201      	bcs.n	1300 <__udivmoddi4+0x29c>
    12fc:	4291      	cmp	r1, r2
    12fe:	d822      	bhi.n	1346 <__udivmoddi4+0x2e2>
    1300:	4646      	mov	r6, r8
    1302:	1a52      	subs	r2, r2, r1
    1304:	ea46 4100 	orr.w	r1, r6, r0, lsl #16
    1308:	e724      	b.n	1154 <__udivmoddi4+0xf0>
    130a:	4629      	mov	r1, r5
    130c:	4628      	mov	r0, r5
    130e:	e6f7      	b.n	1100 <__udivmoddi4+0x9c>
    1310:	1a84      	subs	r4, r0, r2
    1312:	eb66 0203 	sbc.w	r2, r6, r3
    1316:	2001      	movs	r0, #1
    1318:	4617      	mov	r7, r2
    131a:	e709      	b.n	1130 <__udivmoddi4+0xcc>
    131c:	4464      	add	r4, ip
    131e:	3802      	subs	r0, #2
    1320:	e748      	b.n	11b4 <__udivmoddi4+0x150>
    1322:	4464      	add	r4, ip
    1324:	3802      	subs	r0, #2
    1326:	e6e1      	b.n	10ec <__udivmoddi4+0x88>
    1328:	3e02      	subs	r6, #2
    132a:	4462      	add	r2, ip
    132c:	e72d      	b.n	118a <__udivmoddi4+0x126>
    132e:	3902      	subs	r1, #2
    1330:	4462      	add	r2, ip
    1332:	e6c6      	b.n	10c2 <__udivmoddi4+0x5e>
    1334:	3802      	subs	r0, #2
    1336:	443e      	add	r6, r7
    1338:	e76f      	b.n	121a <__udivmoddi4+0x1b6>
    133a:	3802      	subs	r0, #2
    133c:	4461      	add	r1, ip
    133e:	e7cc      	b.n	12da <__udivmoddi4+0x276>
    1340:	3b02      	subs	r3, #2
    1342:	443e      	add	r6, r7
    1344:	e77e      	b.n	1244 <__udivmoddi4+0x1e0>
    1346:	3e02      	subs	r6, #2
    1348:	4462      	add	r2, ip
    134a:	e7da      	b.n	1302 <__udivmoddi4+0x29e>
    134c:	4629      	mov	r1, r5
    134e:	e6d7      	b.n	1100 <__udivmoddi4+0x9c>

00001350 <__aeabi_idiv0>:
    1350:	4770      	bx	lr
    1352:	bf00      	nop

00001354 <__aeabi_d2uiz>:
    1354:	004a      	lsls	r2, r1, #1
    1356:	d211      	bcs.n	137c <__aeabi_d2uiz+0x28>
    1358:	f512 1200 	adds.w	r2, r2, #2097152	; 0x200000
    135c:	d211      	bcs.n	1382 <__aeabi_d2uiz+0x2e>
    135e:	d50d      	bpl.n	137c <__aeabi_d2uiz+0x28>
    1360:	f46f 7378 	mvn.w	r3, #992	; 0x3e0
    1364:	ebb3 5262 	subs.w	r2, r3, r2, asr #21
    1368:	d40e      	bmi.n	1388 <__aeabi_d2uiz+0x34>
    136a:	ea4f 23c1 	mov.w	r3, r1, lsl #11
    136e:	f043 4300 	orr.w	r3, r3, #2147483648	; 0x80000000
    1372:	ea43 5350 	orr.w	r3, r3, r0, lsr #21
    1376:	fa23 f002 	lsr.w	r0, r3, r2
    137a:	4770      	bx	lr
    137c:	f04f 0000 	mov.w	r0, #0
    1380:	4770      	bx	lr
    1382:	ea50 3001 	orrs.w	r0, r0, r1, lsl #12
    1386:	d102      	bne.n	138e <__aeabi_d2uiz+0x3a>
    1388:	f04f 30ff 	mov.w	r0, #4294967295	; 0xffffffff
    138c:	4770      	bx	lr
    138e:	f04f 0000 	mov.w	r0, #0
    1392:	4770      	bx	lr

00001394 <__aeabi_memset>:
    1394:	b470      	push	{r4, r5, r6}
    1396:	0784      	lsls	r4, r0, #30
    1398:	d046      	beq.n	1428 <__aeabi_memset+0x94>
    139a:	1e4c      	subs	r4, r1, #1
    139c:	2900      	cmp	r1, #0
    139e:	d041      	beq.n	1424 <__aeabi_memset+0x90>
    13a0:	b2d5      	uxtb	r5, r2
    13a2:	4603      	mov	r3, r0
    13a4:	e002      	b.n	13ac <__aeabi_memset+0x18>
    13a6:	1e61      	subs	r1, r4, #1
    13a8:	b3e4      	cbz	r4, 1424 <__aeabi_memset+0x90>
    13aa:	460c      	mov	r4, r1
    13ac:	f803 5b01 	strb.w	r5, [r3], #1
    13b0:	0799      	lsls	r1, r3, #30
    13b2:	d1f8      	bne.n	13a6 <__aeabi_memset+0x12>
    13b4:	2c03      	cmp	r4, #3
    13b6:	d92e      	bls.n	1416 <__aeabi_memset+0x82>
    13b8:	b2d5      	uxtb	r5, r2
    13ba:	ea45 2505 	orr.w	r5, r5, r5, lsl #8
    13be:	2c0f      	cmp	r4, #15
    13c0:	ea45 4505 	orr.w	r5, r5, r5, lsl #16
    13c4:	d919      	bls.n	13fa <__aeabi_memset+0x66>
    13c6:	4626      	mov	r6, r4
    13c8:	f103 0110 	add.w	r1, r3, #16
    13cc:	3e10      	subs	r6, #16
    13ce:	2e0f      	cmp	r6, #15
    13d0:	f841 5c10 	str.w	r5, [r1, #-16]
    13d4:	f841 5c0c 	str.w	r5, [r1, #-12]
    13d8:	f841 5c08 	str.w	r5, [r1, #-8]
    13dc:	f841 5c04 	str.w	r5, [r1, #-4]
    13e0:	f101 0110 	add.w	r1, r1, #16
    13e4:	d8f2      	bhi.n	13cc <__aeabi_memset+0x38>
    13e6:	f1a4 0110 	sub.w	r1, r4, #16
    13ea:	f021 010f 	bic.w	r1, r1, #15
    13ee:	f004 040f 	and.w	r4, r4, #15
    13f2:	3110      	adds	r1, #16
    13f4:	2c03      	cmp	r4, #3
    13f6:	440b      	add	r3, r1
    13f8:	d90d      	bls.n	1416 <__aeabi_memset+0x82>
    13fa:	461e      	mov	r6, r3
    13fc:	4621      	mov	r1, r4
    13fe:	3904      	subs	r1, #4
    1400:	2903      	cmp	r1, #3
    1402:	f846 5b04 	str.w	r5, [r6], #4
    1406:	d8fa      	bhi.n	13fe <__aeabi_memset+0x6a>
    1408:	1f21      	subs	r1, r4, #4
    140a:	f021 0103 	bic.w	r1, r1, #3
    140e:	3104      	adds	r1, #4
    1410:	440b      	add	r3, r1
    1412:	f004 0403 	and.w	r4, r4, #3
    1416:	b12c      	cbz	r4, 1424 <__aeabi_memset+0x90>
    1418:	b2d2      	uxtb	r2, r2
    141a:	441c      	add	r4, r3
    141c:	f803 2b01 	strb.w	r2, [r3], #1
    1420:	42a3      	cmp	r3, r4
    1422:	d1fb      	bne.n	141c <__aeabi_memset+0x88>
    1424:	bc70      	pop	{r4, r5, r6}
    1426:	4770      	bx	lr
    1428:	460c      	mov	r4, r1
    142a:	4603      	mov	r3, r0
    142c:	e7c2      	b.n	13b4 <__aeabi_memset+0x20>
	...

00001430 <memcpy>:
    1430:	4684      	mov	ip, r0
    1432:	ea41 0300 	orr.w	r3, r1, r0
    1436:	f013 0303 	ands.w	r3, r3, #3
    143a:	d149      	bne.n	14d0 <memcpy+0xa0>
    143c:	3a40      	subs	r2, #64	; 0x40
    143e:	d323      	bcc.n	1488 <memcpy+0x58>
    1440:	680b      	ldr	r3, [r1, #0]
    1442:	6003      	str	r3, [r0, #0]
    1444:	684b      	ldr	r3, [r1, #4]
    1446:	6043      	str	r3, [r0, #4]
    1448:	688b      	ldr	r3, [r1, #8]
    144a:	6083      	str	r3, [r0, #8]
    144c:	68cb      	ldr	r3, [r1, #12]
    144e:	60c3      	str	r3, [r0, #12]
    1450:	690b      	ldr	r3, [r1, #16]
    1452:	6103      	str	r3, [r0, #16]
    1454:	694b      	ldr	r3, [r1, #20]
    1456:	6143      	str	r3, [r0, #20]
    1458:	698b      	ldr	r3, [r1, #24]
    145a:	6183      	str	r3, [r0, #24]
    145c:	69cb      	ldr	r3, [r1, #28]
    145e:	61c3      	str	r3, [r0, #28]
    1460:	6a0b      	ldr	r3, [r1, #32]
    1462:	6203      	str	r3, [r0, #32]
    1464:	6a4b      	ldr	r3, [r1, #36]	; 0x24
    1466:	6243      	str	r3, [r0, #36]	; 0x24
    1468:	6a8b      	ldr	r3, [r1, #40]	; 0x28
    146a:	6283      	str	r3, [r0, #40]	; 0x28
    146c:	6acb      	ldr	r3, [r1, #44]	; 0x2c
    146e:	62c3      	str	r3, [r0, #44]	; 0x2c
    1470:	6b0b      	ldr	r3, [r1, #48]	; 0x30
    1472:	6303      	str	r3, [r0, #48]	; 0x30
    1474:	6b4b      	ldr	r3, [r1, #52]	; 0x34
    1476:	6343      	str	r3, [r0, #52]	; 0x34
    1478:	6b8b      	ldr	r3, [r1, #56]	; 0x38
    147a:	6383      	str	r3, [r0, #56]	; 0x38
    147c:	6bcb      	ldr	r3, [r1, #60]	; 0x3c
    147e:	63c3      	str	r3, [r0, #60]	; 0x3c
    1480:	3040      	adds	r0, #64	; 0x40
    1482:	3140      	adds	r1, #64	; 0x40
    1484:	3a40      	subs	r2, #64	; 0x40
    1486:	d2db      	bcs.n	1440 <memcpy+0x10>
    1488:	3230      	adds	r2, #48	; 0x30
    148a:	d30b      	bcc.n	14a4 <memcpy+0x74>
    148c:	680b      	ldr	r3, [r1, #0]
    148e:	6003      	str	r3, [r0, #0]
    1490:	684b      	ldr	r3, [r1, #4]
    1492:	6043      	str	r3, [r0, #4]
    1494:	688b      	ldr	r3, [r1, #8]
    1496:	6083      	str	r3, [r0, #8]
    1498:	68cb      	ldr	r3, [r1, #12]
    149a:	60c3      	str	r3, [r0, #12]
    149c:	3010      	adds	r0, #16
    149e:	3110      	adds	r1, #16
    14a0:	3a10      	subs	r2, #16
    14a2:	d2f3      	bcs.n	148c <memcpy+0x5c>
    14a4:	320c      	adds	r2, #12
    14a6:	d305      	bcc.n	14b4 <memcpy+0x84>
    14a8:	f851 3b04 	ldr.w	r3, [r1], #4
    14ac:	f840 3b04 	str.w	r3, [r0], #4
    14b0:	3a04      	subs	r2, #4
    14b2:	d2f9      	bcs.n	14a8 <memcpy+0x78>
    14b4:	3204      	adds	r2, #4
    14b6:	d008      	beq.n	14ca <memcpy+0x9a>
    14b8:	07d2      	lsls	r2, r2, #31
    14ba:	bf1c      	itt	ne
    14bc:	f811 3b01 	ldrbne.w	r3, [r1], #1
    14c0:	f800 3b01 	strbne.w	r3, [r0], #1
    14c4:	d301      	bcc.n	14ca <memcpy+0x9a>
    14c6:	880b      	ldrh	r3, [r1, #0]
    14c8:	8003      	strh	r3, [r0, #0]
    14ca:	4660      	mov	r0, ip
    14cc:	4770      	bx	lr
    14ce:	bf00      	nop
    14d0:	2a08      	cmp	r2, #8
    14d2:	d313      	bcc.n	14fc <memcpy+0xcc>
    14d4:	078b      	lsls	r3, r1, #30
    14d6:	d0b1      	beq.n	143c <memcpy+0xc>
    14d8:	f010 0303 	ands.w	r3, r0, #3
    14dc:	d0ae      	beq.n	143c <memcpy+0xc>
    14de:	f1c3 0304 	rsb	r3, r3, #4
    14e2:	1ad2      	subs	r2, r2, r3
    14e4:	07db      	lsls	r3, r3, #31
    14e6:	bf1c      	itt	ne
    14e8:	f811 3b01 	ldrbne.w	r3, [r1], #1
    14ec:	f800 3b01 	strbne.w	r3, [r0], #1
    14f0:	d3a4      	bcc.n	143c <memcpy+0xc>
    14f2:	f831 3b02 	ldrh.w	r3, [r1], #2
    14f6:	f820 3b02 	strh.w	r3, [r0], #2
    14fa:	e79f      	b.n	143c <memcpy+0xc>
    14fc:	3a04      	subs	r2, #4
    14fe:	d3d9      	bcc.n	14b4 <memcpy+0x84>
    1500:	3a01      	subs	r2, #1
    1502:	f811 3b01 	ldrb.w	r3, [r1], #1
    1506:	f800 3b01 	strb.w	r3, [r0], #1
    150a:	d2f9      	bcs.n	1500 <memcpy+0xd0>
    150c:	780b      	ldrb	r3, [r1, #0]
    150e:	7003      	strb	r3, [r0, #0]
    1510:	784b      	ldrb	r3, [r1, #1]
    1512:	7043      	strb	r3, [r0, #1]
    1514:	788b      	ldrb	r3, [r1, #2]
    1516:	7083      	strb	r3, [r0, #2]
    1518:	4660      	mov	r0, ip
    151a:	4770      	bx	lr

0000151c <SystemInit>:
    151c:	b580      	push	{r7, lr}
    151e:	466f      	mov	r7, sp
    1520:	f64e 5188 	movw	r1, #60808	; 0xed88
    1524:	f2ce 0100 	movt	r1, #57344	; 0xe000
    1528:	6808      	ldr	r0, [r1, #0]
    152a:	f440 0070 	orr.w	r0, r0, #15728640	; 0xf00000
    152e:	6008      	str	r0, [r1, #0]
    1530:	6808      	ldr	r0, [r1, #0]
    1532:	f040 000f 	orr.w	r0, r0, #15
    1536:	6008      	str	r0, [r1, #0]
    1538:	f64e 518c 	movw	r1, #60812	; 0xed8c
    153c:	f2ce 0100 	movt	r1, #57344	; 0xe000
    1540:	6808      	ldr	r0, [r1, #0]
    1542:	f640 4203 	movw	r2, #3075	; 0xc03
    1546:	4310      	orrs	r0, r2
    1548:	6008      	str	r0, [r1, #0]
    154a:	f240 0000 	movw	r0, #0
    154e:	f2c0 0000 	movt	r0, #0
    1552:	f64e 5108 	movw	r1, #60680	; 0xed08
    1556:	f2ce 0100 	movt	r1, #57344	; 0xe000
    155a:	6008      	str	r0, [r1, #0]
    155c:	f240 3108 	movw	r1, #776	; 0x308
    1560:	f2c4 0100 	movt	r1, #16384	; 0x4000
    1564:	2000      	movs	r0, #0
    1566:	6008      	str	r0, [r1, #0]
    1568:	f240 2120 	movw	r1, #544	; 0x220
    156c:	f2c4 0100 	movt	r1, #16384	; 0x4000
    1570:	2078      	movs	r0, #120	; 0x78
    1572:	6008      	str	r0, [r1, #0]
    1574:	f000 f801 	bl	157a <SystemInitHook>
    1578:	bd80      	pop	{r7, pc}

0000157a <SystemInitHook>:
    157a:	4770      	bx	lr

0000157c <SDK_DelayAtLeastUs>:
    157c:	b580      	push	{r7, lr}
    157e:	466f      	mov	r7, sp
    1580:	b084      	sub	sp, #16
    1582:	9102      	str	r1, [sp, #8]
    1584:	9003      	str	r0, [sp, #12]
    1586:	b340      	cbz	r0, 15da <SDK_DelayAtLeastUs+0x5e>
    1588:	e7ff      	b.n	158a <SDK_DelayAtLeastUs+0xe>
    158a:	9803      	ldr	r0, [sp, #12]
    158c:	9902      	ldr	r1, [sp, #8]
    158e:	fba0 0101 	umull	r0, r1, r0, r1
    1592:	f244 2240 	movw	r2, #16960	; 0x4240
    1596:	f2c0 020f 	movt	r2, #15
    159a:	2300      	movs	r3, #0
    159c:	f7ff fd14 	bl	fc8 <__aeabi_uldivmod>
    15a0:	460a      	mov	r2, r1
    15a2:	9200      	str	r2, [sp, #0]
    15a4:	9001      	str	r0, [sp, #4]
    15a6:	b909      	cbnz	r1, 15ac <SDK_DelayAtLeastUs+0x30>
    15a8:	e7ff      	b.n	15aa <SDK_DelayAtLeastUs+0x2e>
    15aa:	e00e      	b.n	15ca <SDK_DelayAtLeastUs+0x4e>
    15ac:	f248 609c 	movw	r0, #34460	; 0x869c
    15b0:	f2c0 0000 	movt	r0, #0
    15b4:	f248 720d 	movw	r2, #34573	; 0x870d
    15b8:	f2c0 0200 	movt	r2, #0
    15bc:	f248 7320 	movw	r3, #34592	; 0x8720
    15c0:	f2c0 0300 	movt	r3, #0
    15c4:	21d5      	movs	r1, #213	; 0xd5
    15c6:	f003 fbce 	bl	4d66 <__assert_func>
    15ca:	9900      	ldr	r1, [sp, #0]
    15cc:	9801      	ldr	r0, [sp, #4]
    15ce:	0880      	lsrs	r0, r0, #2
    15d0:	ea40 7081 	orr.w	r0, r0, r1, lsl #30
    15d4:	f000 f803 	bl	15de <DelayLoop>
    15d8:	e7ff      	b.n	15da <SDK_DelayAtLeastUs+0x5e>
    15da:	b004      	add	sp, #16
    15dc:	bd80      	pop	{r7, pc}

000015de <DelayLoop>:
    15de:	4600      	mov	r0, r0

000015e0 <loop>:
    15e0:	f1a0 0001 	sub.w	r0, r0, #1
    15e4:	2800      	cmp	r0, #0
    15e6:	d1fb      	bne.n	15e0 <loop>
    15e8:	4770      	bx	lr

000015ea <CLOCK_AttachClk>:
    15ea:	b089      	sub	sp, #36	; 0x24
    15ec:	9008      	str	r0, [sp, #32]
    15ee:	f1b0 4f00 	cmp.w	r0, #2147483648	; 0x80000000
    15f2:	d045      	beq.n	1680 <CLOCK_AttachClk+0x96>
    15f4:	e7ff      	b.n	15f6 <CLOCK_AttachClk+0xc>
    15f6:	9908      	ldr	r1, [sp, #32]
    15f8:	2000      	movs	r0, #0
    15fa:	9106      	str	r1, [sp, #24]
    15fc:	9007      	str	r0, [sp, #28]
    15fe:	e7ff      	b.n	1600 <CLOCK_AttachClk+0x16>
    1600:	9906      	ldr	r1, [sp, #24]
    1602:	9807      	ldr	r0, [sp, #28]
    1604:	9004      	str	r0, [sp, #16]
    1606:	9105      	str	r1, [sp, #20]
    1608:	2801      	cmp	r0, #1
    160a:	d838      	bhi.n	167e <CLOCK_AttachClk+0x94>
    160c:	e7ff      	b.n	160e <CLOCK_AttachClk+0x24>
    160e:	9805      	ldr	r0, [sp, #20]
    1610:	b908      	cbnz	r0, 1616 <CLOCK_AttachClk+0x2c>
    1612:	e7ff      	b.n	1614 <CLOCK_AttachClk+0x2a>
    1614:	e033      	b.n	167e <CLOCK_AttachClk+0x94>
    1616:	9805      	ldr	r0, [sp, #20]
    1618:	f36f 301f 	bfc	r0, #12, #20
    161c:	4601      	mov	r1, r0
    161e:	9103      	str	r1, [sp, #12]
    1620:	b318      	cbz	r0, 166a <CLOCK_AttachClk+0x80>
    1622:	e7ff      	b.n	1624 <CLOCK_AttachClk+0x3a>
    1624:	9903      	ldr	r1, [sp, #12]
    1626:	b2c8      	uxtb	r0, r1
    1628:	4602      	mov	r2, r0
    162a:	9201      	str	r2, [sp, #4]
    162c:	f401 6270 	and.w	r2, r1, #3840	; 0xf00
    1630:	f04f 31ff 	mov.w	r1, #4294967295	; 0xffffffff
    1634:	eb01 2112 	add.w	r1, r1, r2, lsr #8
    1638:	9102      	str	r1, [sp, #8]
    163a:	283f      	cmp	r0, #63	; 0x3f
    163c:	d109      	bne.n	1652 <CLOCK_AttachClk+0x68>
    163e:	e7ff      	b.n	1640 <CLOCK_AttachClk+0x56>
    1640:	9a02      	ldr	r2, [sp, #8]
    1642:	2198      	movs	r1, #152	; 0x98
    1644:	f2c4 0102 	movt	r1, #16386	; 0x4002
    1648:	6808      	ldr	r0, [r1, #0]
    164a:	f362 0000 	bfi	r0, r2, #0, #1
    164e:	6008      	str	r0, [r1, #0]
    1650:	e00a      	b.n	1668 <CLOCK_AttachClk+0x7e>
    1652:	9901      	ldr	r1, [sp, #4]
    1654:	9802      	ldr	r0, [sp, #8]
    1656:	b2c0      	uxtb	r0, r0
    1658:	b2ca      	uxtb	r2, r1
    165a:	f240 2160 	movw	r1, #608	; 0x260
    165e:	f2c4 0100 	movt	r1, #16384	; 0x4000
    1662:	f841 0022 	str.w	r0, [r1, r2, lsl #2]
    1666:	e7ff      	b.n	1668 <CLOCK_AttachClk+0x7e>
    1668:	e7ff      	b.n	166a <CLOCK_AttachClk+0x80>
    166a:	9805      	ldr	r0, [sp, #20]
    166c:	0b00      	lsrs	r0, r0, #12
    166e:	9000      	str	r0, [sp, #0]
    1670:	e7ff      	b.n	1672 <CLOCK_AttachClk+0x88>
    1672:	9900      	ldr	r1, [sp, #0]
    1674:	9804      	ldr	r0, [sp, #16]
    1676:	3001      	adds	r0, #1
    1678:	9106      	str	r1, [sp, #24]
    167a:	9007      	str	r0, [sp, #28]
    167c:	e7c0      	b.n	1600 <CLOCK_AttachClk+0x16>
    167e:	e7ff      	b.n	1680 <CLOCK_AttachClk+0x96>
    1680:	b009      	add	sp, #36	; 0x24
    1682:	4770      	bx	lr

00001684 <CLOCK_SetClkDiv>:
    1684:	b083      	sub	sp, #12
    1686:	9100      	str	r1, [sp, #0]
    1688:	4601      	mov	r1, r0
    168a:	9101      	str	r1, [sp, #4]
    168c:	9202      	str	r2, [sp, #8]
    168e:	2808      	cmp	r0, #8
    1690:	db12      	blt.n	16b8 <CLOCK_SetClkDiv+0x34>
    1692:	e7ff      	b.n	1694 <CLOCK_SetClkDiv+0x10>
    1694:	9801      	ldr	r0, [sp, #4]
    1696:	b2c0      	uxtb	r0, r0
    1698:	280f      	cmp	r0, #15
    169a:	dc0d      	bgt.n	16b8 <CLOCK_SetClkDiv+0x34>
    169c:	e7ff      	b.n	169e <CLOCK_SetClkDiv+0x1a>
    169e:	9901      	ldr	r1, [sp, #4]
    16a0:	9a00      	ldr	r2, [sp, #0]
    16a2:	20ff      	movs	r0, #255	; 0xff
    16a4:	f362 200f 	bfi	r0, r2, #8, #8
    16a8:	b2ca      	uxtb	r2, r1
    16aa:	f240 3100 	movw	r1, #768	; 0x300
    16ae:	f2c4 0100 	movt	r1, #16384	; 0x4000
    16b2:	f841 0022 	str.w	r0, [r1, r2, lsl #2]
    16b6:	e028      	b.n	170a <CLOCK_SetClkDiv+0x86>
    16b8:	9802      	ldr	r0, [sp, #8]
    16ba:	07c0      	lsls	r0, r0, #31
    16bc:	b158      	cbz	r0, 16d6 <CLOCK_SetClkDiv+0x52>
    16be:	e7ff      	b.n	16c0 <CLOCK_SetClkDiv+0x3c>
    16c0:	9801      	ldr	r0, [sp, #4]
    16c2:	b2c2      	uxtb	r2, r0
    16c4:	f240 3100 	movw	r1, #768	; 0x300
    16c8:	f2c4 0100 	movt	r1, #16384	; 0x4000
    16cc:	f04f 5000 	mov.w	r0, #536870912	; 0x20000000
    16d0:	f841 0022 	str.w	r0, [r1, r2, lsl #2]
    16d4:	e7ff      	b.n	16d6 <CLOCK_SetClkDiv+0x52>
    16d6:	9800      	ldr	r0, [sp, #0]
    16d8:	b958      	cbnz	r0, 16f2 <CLOCK_SetClkDiv+0x6e>
    16da:	e7ff      	b.n	16dc <CLOCK_SetClkDiv+0x58>
    16dc:	9801      	ldr	r0, [sp, #4]
    16de:	b2c2      	uxtb	r2, r0
    16e0:	f240 3100 	movw	r1, #768	; 0x300
    16e4:	f2c4 0100 	movt	r1, #16384	; 0x4000
    16e8:	f04f 4080 	mov.w	r0, #1073741824	; 0x40000000
    16ec:	f841 0022 	str.w	r0, [r1, r2, lsl #2]
    16f0:	e00a      	b.n	1708 <CLOCK_SetClkDiv+0x84>
    16f2:	9901      	ldr	r1, [sp, #4]
    16f4:	9800      	ldr	r0, [sp, #0]
    16f6:	3801      	subs	r0, #1
    16f8:	b2ca      	uxtb	r2, r1
    16fa:	f240 3100 	movw	r1, #768	; 0x300
    16fe:	f2c4 0100 	movt	r1, #16384	; 0x4000
    1702:	f841 0022 	str.w	r0, [r1, r2, lsl #2]
    1706:	e7ff      	b.n	1708 <CLOCK_SetClkDiv+0x84>
    1708:	e7ff      	b.n	170a <CLOCK_SetClkDiv+0x86>
    170a:	b003      	add	sp, #12
    170c:	4770      	bx	lr

0000170e <CLOCK_SetupFROClocking>:
    170e:	b580      	push	{r7, lr}
    1710:	466f      	mov	r7, sp
    1712:	b082      	sub	sp, #8
    1714:	9001      	str	r0, [sp, #4]
    1716:	f641 3100 	movw	r1, #6912	; 0x1b00
    171a:	f2c0 01b7 	movt	r1, #183	; 0xb7
    171e:	4288      	cmp	r0, r1
    1720:	d013      	beq.n	174a <CLOCK_SetupFROClocking+0x3c>
    1722:	e7ff      	b.n	1724 <CLOCK_SetupFROClocking+0x16>
    1724:	9801      	ldr	r0, [sp, #4]
    1726:	f646 4100 	movw	r1, #27648	; 0x6c00
    172a:	f2c0 21dc 	movt	r1, #732	; 0x2dc
    172e:	4288      	cmp	r0, r1
    1730:	d00b      	beq.n	174a <CLOCK_SetupFROClocking+0x3c>
    1732:	e7ff      	b.n	1734 <CLOCK_SetupFROClocking+0x26>
    1734:	9801      	ldr	r0, [sp, #4]
    1736:	f64d 0100 	movw	r1, #55296	; 0xd800
    173a:	f2c0 51b8 	movt	r1, #1464	; 0x5b8
    173e:	4288      	cmp	r0, r1
    1740:	d003      	beq.n	174a <CLOCK_SetupFROClocking+0x3c>
    1742:	e7ff      	b.n	1744 <CLOCK_SetupFROClocking+0x36>
    1744:	2001      	movs	r0, #1
    1746:	9000      	str	r0, [sp, #0]
    1748:	e02b      	b.n	17a2 <CLOCK_SetupFROClocking+0x94>
    174a:	f240 1148 	movw	r1, #328	; 0x148
    174e:	f2c4 0100 	movt	r1, #16384	; 0x4000
    1752:	f04f 6000 	mov.w	r0, #134217728	; 0x8000000
    1756:	6008      	str	r0, [r1, #0]
    1758:	f240 2128 	movw	r1, #552	; 0x228
    175c:	f2c4 0100 	movt	r1, #16384	; 0x4000
    1760:	6008      	str	r0, [r1, #0]
    1762:	2020      	movs	r0, #32
    1764:	f000 f820 	bl	17a8 <POWER_DisablePD>
    1768:	9801      	ldr	r0, [sp, #4]
    176a:	f64d 0100 	movw	r1, #55296	; 0xd800
    176e:	f2c0 51b8 	movt	r1, #1464	; 0x5b8
    1772:	4288      	cmp	r0, r1
    1774:	d109      	bne.n	178a <CLOCK_SetupFROClocking+0x7c>
    1776:	e7ff      	b.n	1778 <CLOCK_SetupFROClocking+0x6a>
    1778:	f243 0110 	movw	r1, #12304	; 0x3010
    177c:	f2c4 0101 	movt	r1, #16385	; 0x4001
    1780:	6808      	ldr	r0, [r1, #0]
    1782:	f040 4080 	orr.w	r0, r0, #1073741824	; 0x40000000
    1786:	6008      	str	r0, [r1, #0]
    1788:	e008      	b.n	179c <CLOCK_SetupFROClocking+0x8e>
    178a:	f243 0110 	movw	r1, #12304	; 0x3010
    178e:	f2c4 0101 	movt	r1, #16385	; 0x4001
    1792:	6808      	ldr	r0, [r1, #0]
    1794:	f440 4080 	orr.w	r0, r0, #16384	; 0x4000
    1798:	6008      	str	r0, [r1, #0]
    179a:	e7ff      	b.n	179c <CLOCK_SetupFROClocking+0x8e>
    179c:	2000      	movs	r0, #0
    179e:	9000      	str	r0, [sp, #0]
    17a0:	e7ff      	b.n	17a2 <CLOCK_SetupFROClocking+0x94>
    17a2:	9800      	ldr	r0, [sp, #0]
    17a4:	b002      	add	sp, #8
    17a6:	bd80      	pop	{r7, pc}

000017a8 <POWER_DisablePD>:
    17a8:	21c8      	movs	r1, #200	; 0xc8
    17aa:	f2c4 0102 	movt	r1, #16386	; 0x4002
    17ae:	6008      	str	r0, [r1, #0]
    17b0:	4770      	bx	lr

000017b2 <CLOCK_SetFLASHAccessCyclesForFreq>:
    17b2:	b08f      	sub	sp, #60	; 0x3c
    17b4:	900d      	str	r0, [sp, #52]	; 0x34
    17b6:	f240 4100 	movw	r1, #1024	; 0x400
    17ba:	f2c4 0100 	movt	r1, #16384	; 0x4000
    17be:	6809      	ldr	r1, [r1, #0]
    17c0:	f001 0120 	and.w	r1, r1, #32
    17c4:	910e      	str	r1, [sp, #56]	; 0x38
    17c6:	f64d 01c0 	movw	r1, #55488	; 0xd8c0
    17ca:	f2c0 01a7 	movt	r1, #167	; 0xa7
    17ce:	4288      	cmp	r0, r1
    17d0:	d803      	bhi.n	17da <CLOCK_SetFLASHAccessCyclesForFreq+0x28>
    17d2:	e7ff      	b.n	17d4 <CLOCK_SetFLASHAccessCyclesForFreq+0x22>
    17d4:	2000      	movs	r0, #0
    17d6:	900c      	str	r0, [sp, #48]	; 0x30
    17d8:	e09c      	b.n	1914 <CLOCK_SetFLASHAccessCyclesForFreq+0x162>
    17da:	980d      	ldr	r0, [sp, #52]	; 0x34
    17dc:	f24b 1180 	movw	r1, #45440	; 0xb180
    17e0:	f2c0 114f 	movt	r1, #335	; 0x14f
    17e4:	4288      	cmp	r0, r1
    17e6:	d803      	bhi.n	17f0 <CLOCK_SetFLASHAccessCyclesForFreq+0x3e>
    17e8:	e7ff      	b.n	17ea <CLOCK_SetFLASHAccessCyclesForFreq+0x38>
    17ea:	2001      	movs	r0, #1
    17ec:	900b      	str	r0, [sp, #44]	; 0x2c
    17ee:	e08e      	b.n	190e <CLOCK_SetFLASHAccessCyclesForFreq+0x15c>
    17f0:	980d      	ldr	r0, [sp, #52]	; 0x34
    17f2:	f648 2140 	movw	r1, #35392	; 0x8a40
    17f6:	f2c0 11f7 	movt	r1, #503	; 0x1f7
    17fa:	4288      	cmp	r0, r1
    17fc:	d803      	bhi.n	1806 <CLOCK_SetFLASHAccessCyclesForFreq+0x54>
    17fe:	e7ff      	b.n	1800 <CLOCK_SetFLASHAccessCyclesForFreq+0x4e>
    1800:	2002      	movs	r0, #2
    1802:	900a      	str	r0, [sp, #40]	; 0x28
    1804:	e080      	b.n	1908 <CLOCK_SetFLASHAccessCyclesForFreq+0x156>
    1806:	980d      	ldr	r0, [sp, #52]	; 0x34
    1808:	f246 3100 	movw	r1, #25344	; 0x6300
    180c:	f2c0 219f 	movt	r1, #671	; 0x29f
    1810:	4288      	cmp	r0, r1
    1812:	d803      	bhi.n	181c <CLOCK_SetFLASHAccessCyclesForFreq+0x6a>
    1814:	e7ff      	b.n	1816 <CLOCK_SetFLASHAccessCyclesForFreq+0x64>
    1816:	2003      	movs	r0, #3
    1818:	9009      	str	r0, [sp, #36]	; 0x24
    181a:	e072      	b.n	1902 <CLOCK_SetFLASHAccessCyclesForFreq+0x150>
    181c:	980d      	ldr	r0, [sp, #52]	; 0x34
    181e:	f643 31c0 	movw	r1, #15296	; 0x3bc0
    1822:	f2c0 3147 	movt	r1, #839	; 0x347
    1826:	4288      	cmp	r0, r1
    1828:	d803      	bhi.n	1832 <CLOCK_SetFLASHAccessCyclesForFreq+0x80>
    182a:	e7ff      	b.n	182c <CLOCK_SetFLASHAccessCyclesForFreq+0x7a>
    182c:	2004      	movs	r0, #4
    182e:	9008      	str	r0, [sp, #32]
    1830:	e064      	b.n	18fc <CLOCK_SetFLASHAccessCyclesForFreq+0x14a>
    1832:	980d      	ldr	r0, [sp, #52]	; 0x34
    1834:	f241 4180 	movw	r1, #5248	; 0x1480
    1838:	f2c0 31ef 	movt	r1, #1007	; 0x3ef
    183c:	4288      	cmp	r0, r1
    183e:	d803      	bhi.n	1848 <CLOCK_SetFLASHAccessCyclesForFreq+0x96>
    1840:	e7ff      	b.n	1842 <CLOCK_SetFLASHAccessCyclesForFreq+0x90>
    1842:	2005      	movs	r0, #5
    1844:	9007      	str	r0, [sp, #28]
    1846:	e056      	b.n	18f6 <CLOCK_SetFLASHAccessCyclesForFreq+0x144>
    1848:	980d      	ldr	r0, [sp, #52]	; 0x34
    184a:	f64e 5140 	movw	r1, #60736	; 0xed40
    184e:	f2c0 4196 	movt	r1, #1174	; 0x496
    1852:	4288      	cmp	r0, r1
    1854:	d803      	bhi.n	185e <CLOCK_SetFLASHAccessCyclesForFreq+0xac>
    1856:	e7ff      	b.n	1858 <CLOCK_SetFLASHAccessCyclesForFreq+0xa6>
    1858:	2006      	movs	r0, #6
    185a:	9006      	str	r0, [sp, #24]
    185c:	e048      	b.n	18f0 <CLOCK_SetFLASHAccessCyclesForFreq+0x13e>
    185e:	980d      	ldr	r0, [sp, #52]	; 0x34
    1860:	f24c 6100 	movw	r1, #50688	; 0xc600
    1864:	f2c0 513e 	movt	r1, #1342	; 0x53e
    1868:	4288      	cmp	r0, r1
    186a:	d803      	bhi.n	1874 <CLOCK_SetFLASHAccessCyclesForFreq+0xc2>
    186c:	e7ff      	b.n	186e <CLOCK_SetFLASHAccessCyclesForFreq+0xbc>
    186e:	2007      	movs	r0, #7
    1870:	9005      	str	r0, [sp, #20]
    1872:	e03a      	b.n	18ea <CLOCK_SetFLASHAccessCyclesForFreq+0x138>
    1874:	980d      	ldr	r0, [sp, #52]	; 0x34
    1876:	f24e 1100 	movw	r1, #57600	; 0xe100
    187a:	f2c0 51f5 	movt	r1, #1525	; 0x5f5
    187e:	4288      	cmp	r0, r1
    1880:	d803      	bhi.n	188a <CLOCK_SetFLASHAccessCyclesForFreq+0xd8>
    1882:	e7ff      	b.n	1884 <CLOCK_SetFLASHAccessCyclesForFreq+0xd2>
    1884:	2008      	movs	r0, #8
    1886:	9004      	str	r0, [sp, #16]
    1888:	e02c      	b.n	18e4 <CLOCK_SetFLASHAccessCyclesForFreq+0x132>
    188a:	980d      	ldr	r0, [sp, #52]	; 0x34
    188c:	f24c 21c0 	movw	r1, #49856	; 0xc2c0
    1890:	f2c0 61da 	movt	r1, #1754	; 0x6da
    1894:	4288      	cmp	r0, r1
    1896:	d803      	bhi.n	18a0 <CLOCK_SetFLASHAccessCyclesForFreq+0xee>
    1898:	e7ff      	b.n	189a <CLOCK_SetFLASHAccessCyclesForFreq+0xe8>
    189a:	2009      	movs	r0, #9
    189c:	9003      	str	r0, [sp, #12]
    189e:	e01e      	b.n	18de <CLOCK_SetFLASHAccessCyclesForFreq+0x12c>
    18a0:	980d      	ldr	r0, [sp, #52]	; 0x34
    18a2:	f24a 4180 	movw	r1, #42112	; 0xa480
    18a6:	f2c0 71bf 	movt	r1, #1983	; 0x7bf
    18aa:	4288      	cmp	r0, r1
    18ac:	d803      	bhi.n	18b6 <CLOCK_SetFLASHAccessCyclesForFreq+0x104>
    18ae:	e7ff      	b.n	18b0 <CLOCK_SetFLASHAccessCyclesForFreq+0xfe>
    18b0:	200a      	movs	r0, #10
    18b2:	9002      	str	r0, [sp, #8]
    18b4:	e010      	b.n	18d8 <CLOCK_SetFLASHAccessCyclesForFreq+0x126>
    18b6:	980d      	ldr	r0, [sp, #52]	; 0x34
    18b8:	f24d 1180 	movw	r1, #53632	; 0xd180
    18bc:	f6c0 01f0 	movt	r1, #2288	; 0x8f0
    18c0:	4288      	cmp	r0, r1
    18c2:	d803      	bhi.n	18cc <CLOCK_SetFLASHAccessCyclesForFreq+0x11a>
    18c4:	e7ff      	b.n	18c6 <CLOCK_SetFLASHAccessCyclesForFreq+0x114>
    18c6:	200b      	movs	r0, #11
    18c8:	9001      	str	r0, [sp, #4]
    18ca:	e002      	b.n	18d2 <CLOCK_SetFLASHAccessCyclesForFreq+0x120>
    18cc:	200c      	movs	r0, #12
    18ce:	9001      	str	r0, [sp, #4]
    18d0:	e7ff      	b.n	18d2 <CLOCK_SetFLASHAccessCyclesForFreq+0x120>
    18d2:	9801      	ldr	r0, [sp, #4]
    18d4:	9002      	str	r0, [sp, #8]
    18d6:	e7ff      	b.n	18d8 <CLOCK_SetFLASHAccessCyclesForFreq+0x126>
    18d8:	9802      	ldr	r0, [sp, #8]
    18da:	9003      	str	r0, [sp, #12]
    18dc:	e7ff      	b.n	18de <CLOCK_SetFLASHAccessCyclesForFreq+0x12c>
    18de:	9803      	ldr	r0, [sp, #12]
    18e0:	9004      	str	r0, [sp, #16]
    18e2:	e7ff      	b.n	18e4 <CLOCK_SetFLASHAccessCyclesForFreq+0x132>
    18e4:	9804      	ldr	r0, [sp, #16]
    18e6:	9005      	str	r0, [sp, #20]
    18e8:	e7ff      	b.n	18ea <CLOCK_SetFLASHAccessCyclesForFreq+0x138>
    18ea:	9805      	ldr	r0, [sp, #20]
    18ec:	9006      	str	r0, [sp, #24]
    18ee:	e7ff      	b.n	18f0 <CLOCK_SetFLASHAccessCyclesForFreq+0x13e>
    18f0:	9806      	ldr	r0, [sp, #24]
    18f2:	9007      	str	r0, [sp, #28]
    18f4:	e7ff      	b.n	18f6 <CLOCK_SetFLASHAccessCyclesForFreq+0x144>
    18f6:	9807      	ldr	r0, [sp, #28]
    18f8:	9008      	str	r0, [sp, #32]
    18fa:	e7ff      	b.n	18fc <CLOCK_SetFLASHAccessCyclesForFreq+0x14a>
    18fc:	9808      	ldr	r0, [sp, #32]
    18fe:	9009      	str	r0, [sp, #36]	; 0x24
    1900:	e7ff      	b.n	1902 <CLOCK_SetFLASHAccessCyclesForFreq+0x150>
    1902:	9809      	ldr	r0, [sp, #36]	; 0x24
    1904:	900a      	str	r0, [sp, #40]	; 0x28
    1906:	e7ff      	b.n	1908 <CLOCK_SetFLASHAccessCyclesForFreq+0x156>
    1908:	980a      	ldr	r0, [sp, #40]	; 0x28
    190a:	900b      	str	r0, [sp, #44]	; 0x2c
    190c:	e7ff      	b.n	190e <CLOCK_SetFLASHAccessCyclesForFreq+0x15c>
    190e:	980b      	ldr	r0, [sp, #44]	; 0x2c
    1910:	900c      	str	r0, [sp, #48]	; 0x30
    1912:	e7ff      	b.n	1914 <CLOCK_SetFLASHAccessCyclesForFreq+0x162>
    1914:	9a0c      	ldr	r2, [sp, #48]	; 0x30
    1916:	9200      	str	r2, [sp, #0]
    1918:	f240 4100 	movw	r1, #1024	; 0x400
    191c:	f2c4 0100 	movt	r1, #16384	; 0x4000
    1920:	6808      	ldr	r0, [r1, #0]
    1922:	f020 0020 	bic.w	r0, r0, #32
    1926:	6008      	str	r0, [r1, #0]
    1928:	f644 71e8 	movw	r1, #20456	; 0x4fe8
    192c:	f2c4 0103 	movt	r1, #16387	; 0x4003
    1930:	201f      	movs	r0, #31
    1932:	6008      	str	r0, [r1, #0]
    1934:	f244 0180 	movw	r1, #16512	; 0x4080
    1938:	f2c4 0103 	movt	r1, #16387	; 0x4003
    193c:	6808      	ldr	r0, [r1, #0]
    193e:	f362 0003 	bfi	r0, r2, #0, #4
    1942:	6008      	str	r0, [r1, #0]
    1944:	f244 0100 	movw	r1, #16384	; 0x4000
    1948:	f2c4 0103 	movt	r1, #16387	; 0x4003
    194c:	2002      	movs	r0, #2
    194e:	6008      	str	r0, [r1, #0]
    1950:	e7ff      	b.n	1952 <CLOCK_SetFLASHAccessCyclesForFreq+0x1a0>
    1952:	f644 70e0 	movw	r0, #20448	; 0x4fe0
    1956:	f2c4 0003 	movt	r0, #16387	; 0x4003
    195a:	6800      	ldr	r0, [r0, #0]
    195c:	0740      	lsls	r0, r0, #29
    195e:	2800      	cmp	r0, #0
    1960:	d401      	bmi.n	1966 <CLOCK_SetFLASHAccessCyclesForFreq+0x1b4>
    1962:	e7ff      	b.n	1964 <CLOCK_SetFLASHAccessCyclesForFreq+0x1b2>
    1964:	e7f5      	b.n	1952 <CLOCK_SetFLASHAccessCyclesForFreq+0x1a0>
    1966:	9a0e      	ldr	r2, [sp, #56]	; 0x38
    1968:	9b00      	ldr	r3, [sp, #0]
    196a:	f240 4100 	movw	r1, #1024	; 0x400
    196e:	f2c4 0100 	movt	r1, #16384	; 0x4000
    1972:	6808      	ldr	r0, [r1, #0]
    1974:	f363 300f 	bfi	r0, r3, #12, #4
    1978:	6008      	str	r0, [r1, #0]
    197a:	6808      	ldr	r0, [r1, #0]
    197c:	4310      	orrs	r0, r2
    197e:	6008      	str	r0, [r1, #0]
    1980:	b00f      	add	sp, #60	; 0x3c
    1982:	4770      	bx	lr

00001984 <CLOCK_SetupExtClocking>:
    1984:	b580      	push	{r7, lr}
    1986:	466f      	mov	r7, sp
    1988:	b082      	sub	sp, #8
    198a:	9001      	str	r0, [sp, #4]
    198c:	f644 0101 	movw	r1, #18433	; 0x4801
    1990:	f2c0 11e8 	movt	r1, #488	; 0x1e8
    1994:	4288      	cmp	r0, r1
    1996:	d303      	bcc.n	19a0 <CLOCK_SetupExtClocking+0x1c>
    1998:	e7ff      	b.n	199a <CLOCK_SetupExtClocking+0x16>
    199a:	2001      	movs	r0, #1
    199c:	9000      	str	r0, [sp, #0]
    199e:	e022      	b.n	19e6 <CLOCK_SetupExtClocking+0x62>
    19a0:	f44f 7080 	mov.w	r0, #256	; 0x100
    19a4:	f7ff ff00 	bl	17a8 <POWER_DisablePD>
    19a8:	f44f 1080 	mov.w	r0, #1048576	; 0x100000
    19ac:	f7ff fefc 	bl	17a8 <POWER_DisablePD>
    19b0:	f640 2118 	movw	r1, #2584	; 0xa18
    19b4:	f2c4 0100 	movt	r1, #16384	; 0x4000
    19b8:	6808      	ldr	r0, [r1, #0]
    19ba:	f040 0020 	orr.w	r0, r0, #32
    19be:	6008      	str	r0, [r1, #0]
    19c0:	e7ff      	b.n	19c2 <CLOCK_SetupExtClocking+0x3e>
    19c2:	f243 0024 	movw	r0, #12324	; 0x3024
    19c6:	f2c4 0001 	movt	r0, #16385	; 0x4001
    19ca:	6800      	ldr	r0, [r0, #0]
    19cc:	07c0      	lsls	r0, r0, #31
    19ce:	b908      	cbnz	r0, 19d4 <CLOCK_SetupExtClocking+0x50>
    19d0:	e7ff      	b.n	19d2 <CLOCK_SetupExtClocking+0x4e>
    19d2:	e7f6      	b.n	19c2 <CLOCK_SetupExtClocking+0x3e>
    19d4:	9801      	ldr	r0, [sp, #4]
    19d6:	f240 0104 	movw	r1, #4
    19da:	f2c2 0100 	movt	r1, #8192	; 0x2000
    19de:	6008      	str	r0, [r1, #0]
    19e0:	2000      	movs	r0, #0
    19e2:	9000      	str	r0, [sp, #0]
    19e4:	e7ff      	b.n	19e6 <CLOCK_SetupExtClocking+0x62>
    19e6:	9800      	ldr	r0, [sp, #0]
    19e8:	b002      	add	sp, #8
    19ea:	bd80      	pop	{r7, pc}

000019ec <CLOCK_GetExtClkFreq>:
    19ec:	b081      	sub	sp, #4
    19ee:	f243 0020 	movw	r0, #12320	; 0x3020
    19f2:	f2c4 0001 	movt	r0, #16385	; 0x4001
    19f6:	6800      	ldr	r0, [r0, #0]
    19f8:	01c0      	lsls	r0, r0, #7
    19fa:	2800      	cmp	r0, #0
    19fc:	d507      	bpl.n	1a0e <CLOCK_GetExtClkFreq+0x22>
    19fe:	e7ff      	b.n	1a00 <CLOCK_GetExtClkFreq+0x14>
    1a00:	f240 0004 	movw	r0, #4
    1a04:	f2c2 0000 	movt	r0, #8192	; 0x2000
    1a08:	6800      	ldr	r0, [r0, #0]
    1a0a:	9000      	str	r0, [sp, #0]
    1a0c:	e002      	b.n	1a14 <CLOCK_GetExtClkFreq+0x28>
    1a0e:	2000      	movs	r0, #0
    1a10:	9000      	str	r0, [sp, #0]
    1a12:	e7ff      	b.n	1a14 <CLOCK_GetExtClkFreq+0x28>
    1a14:	9800      	ldr	r0, [sp, #0]
    1a16:	b001      	add	sp, #4
    1a18:	4770      	bx	lr

00001a1a <CLOCK_GetFro1MFreq>:
    1a1a:	f640 2018 	movw	r0, #2584	; 0xa18
    1a1e:	f2c4 0000 	movt	r0, #16384	; 0x4000
    1a22:	6800      	ldr	r0, [r0, #0]
    1a24:	f000 0040 	and.w	r0, r0, #64	; 0x40
    1a28:	2800      	cmp	r0, #0
    1a2a:	bf1c      	itt	ne
    1a2c:	f244 2040 	movwne	r0, #16960	; 0x4240
    1a30:	f2c0 000f 	movtne	r0, #15
    1a34:	4770      	bx	lr

00001a36 <CLOCK_GetOsc32KFreq>:
    1a36:	b082      	sub	sp, #8
    1a38:	20b8      	movs	r0, #184	; 0xb8
    1a3a:	f2c4 0002 	movt	r0, #16386	; 0x4002
    1a3e:	6800      	ldr	r0, [r0, #0]
    1a40:	0640      	lsls	r0, r0, #25
    1a42:	2800      	cmp	r0, #0
    1a44:	d40b      	bmi.n	1a5e <CLOCK_GetOsc32KFreq+0x28>
    1a46:	e7ff      	b.n	1a48 <CLOCK_GetOsc32KFreq+0x12>
    1a48:	2098      	movs	r0, #152	; 0x98
    1a4a:	f2c4 0002 	movt	r0, #16386	; 0x4002
    1a4e:	6800      	ldr	r0, [r0, #0]
    1a50:	07c0      	lsls	r0, r0, #31
    1a52:	b920      	cbnz	r0, 1a5e <CLOCK_GetOsc32KFreq+0x28>
    1a54:	e7ff      	b.n	1a56 <CLOCK_GetOsc32KFreq+0x20>
    1a56:	f44f 4000 	mov.w	r0, #32768	; 0x8000
    1a5a:	9001      	str	r0, [sp, #4]
    1a5c:	e01a      	b.n	1a94 <CLOCK_GetOsc32KFreq+0x5e>
    1a5e:	20b8      	movs	r0, #184	; 0xb8
    1a60:	f2c4 0002 	movt	r0, #16386	; 0x4002
    1a64:	6801      	ldr	r1, [r0, #0]
    1a66:	2000      	movs	r0, #0
    1a68:	0609      	lsls	r1, r1, #24
    1a6a:	2900      	cmp	r1, #0
    1a6c:	9000      	str	r0, [sp, #0]
    1a6e:	d408      	bmi.n	1a82 <CLOCK_GetOsc32KFreq+0x4c>
    1a70:	e7ff      	b.n	1a72 <CLOCK_GetOsc32KFreq+0x3c>
    1a72:	2098      	movs	r0, #152	; 0x98
    1a74:	f2c4 0002 	movt	r0, #16386	; 0x4002
    1a78:	6800      	ldr	r0, [r0, #0]
    1a7a:	f000 0001 	and.w	r0, r0, #1
    1a7e:	9000      	str	r0, [sp, #0]
    1a80:	e7ff      	b.n	1a82 <CLOCK_GetOsc32KFreq+0x4c>
    1a82:	9800      	ldr	r0, [sp, #0]
    1a84:	f000 0001 	and.w	r0, r0, #1
    1a88:	2800      	cmp	r0, #0
    1a8a:	bf18      	it	ne
    1a8c:	f44f 4000 	movne.w	r0, #32768	; 0x8000
    1a90:	9001      	str	r0, [sp, #4]
    1a92:	e7ff      	b.n	1a94 <CLOCK_GetOsc32KFreq+0x5e>
    1a94:	9801      	ldr	r0, [sp, #4]
    1a96:	b002      	add	sp, #8
    1a98:	4770      	bx	lr
	...

00001a9c <CLOCK_GetPLL0InClockRate>:
    1a9c:	b580      	push	{r7, lr}
    1a9e:	466f      	mov	r7, sp
    1aa0:	b082      	sub	sp, #8
    1aa2:	f240 2090 	movw	r0, #656	; 0x290
    1aa6:	f2c4 0000 	movt	r0, #16384	; 0x4000
    1aaa:	6800      	ldr	r0, [r0, #0]
    1aac:	f000 0007 	and.w	r0, r0, #7
    1ab0:	4601      	mov	r1, r0
    1ab2:	9101      	str	r1, [sp, #4]
    1ab4:	2803      	cmp	r0, #3
    1ab6:	d816      	bhi.n	1ae6 <CLOCK_GetPLL0InClockRate+0x4a>
    1ab8:	9901      	ldr	r1, [sp, #4]
    1aba:	e8df f001 	tbb	[pc, r1]
    1abe:	0802      	.short	0x0802
    1ac0:	100c      	.short	0x100c
    1ac2:	f641 3000 	movw	r0, #6912	; 0x1b00
    1ac6:	f2c0 00b7 	movt	r0, #183	; 0xb7
    1aca:	9000      	str	r0, [sp, #0]
    1acc:	e00e      	b.n	1aec <CLOCK_GetPLL0InClockRate+0x50>
    1ace:	f7ff ff8d 	bl	19ec <CLOCK_GetExtClkFreq>
    1ad2:	9000      	str	r0, [sp, #0]
    1ad4:	e00a      	b.n	1aec <CLOCK_GetPLL0InClockRate+0x50>
    1ad6:	f7ff ffa0 	bl	1a1a <CLOCK_GetFro1MFreq>
    1ada:	9000      	str	r0, [sp, #0]
    1adc:	e006      	b.n	1aec <CLOCK_GetPLL0InClockRate+0x50>
    1ade:	f7ff ffaa 	bl	1a36 <CLOCK_GetOsc32KFreq>
    1ae2:	9000      	str	r0, [sp, #0]
    1ae4:	e002      	b.n	1aec <CLOCK_GetPLL0InClockRate+0x50>
    1ae6:	2000      	movs	r0, #0
    1ae8:	9000      	str	r0, [sp, #0]
    1aea:	e7ff      	b.n	1aec <CLOCK_GetPLL0InClockRate+0x50>
    1aec:	9800      	ldr	r0, [sp, #0]
    1aee:	b002      	add	sp, #8
    1af0:	bd80      	pop	{r7, pc}

00001af2 <findPll0PreDiv>:
    1af2:	b082      	sub	sp, #8
    1af4:	f240 5080 	movw	r0, #1408	; 0x580
    1af8:	f2c4 0000 	movt	r0, #16384	; 0x4000
    1afc:	6801      	ldr	r1, [r0, #0]
    1afe:	2001      	movs	r0, #1
    1b00:	0309      	lsls	r1, r1, #12
    1b02:	2900      	cmp	r1, #0
    1b04:	9001      	str	r0, [sp, #4]
    1b06:	d410      	bmi.n	1b2a <findPll0PreDiv+0x38>
    1b08:	e7ff      	b.n	1b0a <findPll0PreDiv+0x18>
    1b0a:	f240 5088 	movw	r0, #1416	; 0x588
    1b0e:	f2c4 0000 	movt	r0, #16384	; 0x4000
    1b12:	6800      	ldr	r0, [r0, #0]
    1b14:	b2c1      	uxtb	r1, r0
    1b16:	4608      	mov	r0, r1
    1b18:	9000      	str	r0, [sp, #0]
    1b1a:	b919      	cbnz	r1, 1b24 <findPll0PreDiv+0x32>
    1b1c:	e7ff      	b.n	1b1e <findPll0PreDiv+0x2c>
    1b1e:	2001      	movs	r0, #1
    1b20:	9000      	str	r0, [sp, #0]
    1b22:	e7ff      	b.n	1b24 <findPll0PreDiv+0x32>
    1b24:	9800      	ldr	r0, [sp, #0]
    1b26:	9001      	str	r0, [sp, #4]
    1b28:	e7ff      	b.n	1b2a <findPll0PreDiv+0x38>
    1b2a:	9801      	ldr	r0, [sp, #4]
    1b2c:	b002      	add	sp, #8
    1b2e:	4770      	bx	lr

00001b30 <POWER_EnablePD>:
    1b30:	21c0      	movs	r1, #192	; 0xc0
    1b32:	f2c4 0102 	movt	r1, #16386	; 0x4002
    1b36:	6008      	str	r0, [r1, #0]
    1b38:	4770      	bx	lr

00001b3a <CLOCK_IsPLL0Locked>:
    1b3a:	f240 5084 	movw	r0, #1412	; 0x584
    1b3e:	f2c4 0000 	movt	r0, #16384	; 0x4000
    1b42:	6800      	ldr	r0, [r0, #0]
    1b44:	f000 0001 	and.w	r0, r0, #1
    1b48:	4770      	bx	lr

00001b4a <CLOCK_SetPLL0Freq>:
    1b4a:	b580      	push	{r7, lr}
    1b4c:	466f      	mov	r7, sp
    1b4e:	b08a      	sub	sp, #40	; 0x28
    1b50:	9009      	str	r0, [sp, #36]	; 0x24
    1b52:	f44f 7000 	mov.w	r0, #512	; 0x200
    1b56:	9007      	str	r0, [sp, #28]
    1b58:	f7ff ffea 	bl	1b30 <POWER_EnablePD>
    1b5c:	f44f 0000 	mov.w	r0, #8388608	; 0x800000
    1b60:	9008      	str	r0, [sp, #32]
    1b62:	f7ff ffe5 	bl	1b30 <POWER_EnablePD>
    1b66:	9807      	ldr	r0, [sp, #28]
    1b68:	9909      	ldr	r1, [sp, #36]	; 0x24
    1b6a:	680a      	ldr	r2, [r1, #0]
    1b6c:	f240 5380 	movw	r3, #1408	; 0x580
    1b70:	f2c4 0300 	movt	r3, #16384	; 0x4000
    1b74:	601a      	str	r2, [r3, #0]
    1b76:	684a      	ldr	r2, [r1, #4]
    1b78:	f240 5388 	movw	r3, #1416	; 0x588
    1b7c:	f2c4 0300 	movt	r3, #16384	; 0x4000
    1b80:	601a      	str	r2, [r3, #0]
    1b82:	684a      	ldr	r2, [r1, #4]
    1b84:	f442 7280 	orr.w	r2, r2, #256	; 0x100
    1b88:	601a      	str	r2, [r3, #0]
    1b8a:	688a      	ldr	r2, [r1, #8]
    1b8c:	f240 538c 	movw	r3, #1420	; 0x58c
    1b90:	f2c4 0300 	movt	r3, #16384	; 0x4000
    1b94:	601a      	str	r2, [r3, #0]
    1b96:	688a      	ldr	r2, [r1, #8]
    1b98:	f042 0220 	orr.w	r2, r2, #32
    1b9c:	601a      	str	r2, [r3, #0]
    1b9e:	690a      	ldr	r2, [r1, #16]
    1ba0:	f240 5390 	movw	r3, #1424	; 0x590
    1ba4:	f2c4 0300 	movt	r3, #16384	; 0x4000
    1ba8:	601a      	str	r2, [r3, #0]
    1baa:	694b      	ldr	r3, [r1, #20]
    1bac:	f240 5294 	movw	r2, #1428	; 0x594
    1bb0:	f2c4 0200 	movt	r2, #16384	; 0x4000
    1bb4:	6013      	str	r3, [r2, #0]
    1bb6:	6949      	ldr	r1, [r1, #20]
    1bb8:	2302      	movs	r3, #2
    1bba:	f2c0 4300 	movt	r3, #1024	; 0x400
    1bbe:	4319      	orrs	r1, r3
    1bc0:	6011      	str	r1, [r2, #0]
    1bc2:	f7ff fdf1 	bl	17a8 <POWER_DisablePD>
    1bc6:	9808      	ldr	r0, [sp, #32]
    1bc8:	f7ff fdee 	bl	17a8 <POWER_DisablePD>
    1bcc:	9809      	ldr	r0, [sp, #36]	; 0x24
    1bce:	7f00      	ldrb	r0, [r0, #28]
    1bd0:	0780      	lsls	r0, r0, #30
    1bd2:	2800      	cmp	r0, #0
    1bd4:	d55b      	bpl.n	1c8e <CLOCK_SetPLL0Freq+0x144>
    1bd6:	e7ff      	b.n	1bd8 <CLOCK_SetPLL0Freq+0x8e>
    1bd8:	f240 5094 	movw	r0, #1428	; 0x594
    1bdc:	f2c4 0000 	movt	r0, #16384	; 0x4000
    1be0:	6800      	ldr	r0, [r0, #0]
    1be2:	00c0      	lsls	r0, r0, #3
    1be4:	2800      	cmp	r0, #0
    1be6:	d548      	bpl.n	1c7a <CLOCK_SetPLL0Freq+0x130>
    1be8:	e7ff      	b.n	1bea <CLOCK_SetPLL0Freq+0xa0>
    1bea:	f7ff ff57 	bl	1a9c <CLOCK_GetPLL0InClockRate>
    1bee:	9005      	str	r0, [sp, #20]
    1bf0:	f7ff ff7f 	bl	1af2 <findPll0PreDiv>
    1bf4:	4601      	mov	r1, r0
    1bf6:	9805      	ldr	r0, [sp, #20]
    1bf8:	fbb0 f0f1 	udiv	r0, r0, r1
    1bfc:	f248 4100 	movw	r1, #33792	; 0x8400
    1c00:	f2c1 71d7 	movt	r1, #6103	; 0x17d7
    1c04:	fbb1 f1f0 	udiv	r1, r1, r0
    1c08:	f501 71fa 	add.w	r1, r1, #500	; 0x1f4
    1c0c:	9106      	str	r1, [sp, #24]
    1c0e:	f642 41ff 	movw	r1, #11519	; 0x2cff
    1c12:	f2c0 1131 	movt	r1, #305	; 0x131
    1c16:	4288      	cmp	r0, r1
    1c18:	d826      	bhi.n	1c68 <CLOCK_SetPLL0Freq+0x11e>
    1c1a:	e7ff      	b.n	1c1c <CLOCK_SetPLL0Freq+0xd2>
    1c1c:	2000      	movs	r0, #0
    1c1e:	9004      	str	r0, [sp, #16]
    1c20:	e7ff      	b.n	1c22 <CLOCK_SetPLL0Freq+0xd8>
    1c22:	9804      	ldr	r0, [sp, #16]
    1c24:	9002      	str	r0, [sp, #8]
    1c26:	f7ff ff88 	bl	1b3a <CLOCK_IsPLL0Locked>
    1c2a:	4601      	mov	r1, r0
    1c2c:	2000      	movs	r0, #0
    1c2e:	9003      	str	r0, [sp, #12]
    1c30:	b941      	cbnz	r1, 1c44 <CLOCK_SetPLL0Freq+0xfa>
    1c32:	e7ff      	b.n	1c34 <CLOCK_SetPLL0Freq+0xea>
    1c34:	9902      	ldr	r1, [sp, #8]
    1c36:	9a06      	ldr	r2, [sp, #24]
    1c38:	2000      	movs	r0, #0
    1c3a:	4291      	cmp	r1, r2
    1c3c:	bf38      	it	cc
    1c3e:	2001      	movcc	r0, #1
    1c40:	9003      	str	r0, [sp, #12]
    1c42:	e7ff      	b.n	1c44 <CLOCK_SetPLL0Freq+0xfa>
    1c44:	9803      	ldr	r0, [sp, #12]
    1c46:	07c0      	lsls	r0, r0, #31
    1c48:	b168      	cbz	r0, 1c66 <CLOCK_SetPLL0Freq+0x11c>
    1c4a:	e7ff      	b.n	1c4c <CLOCK_SetPLL0Freq+0x102>
    1c4c:	9802      	ldr	r0, [sp, #8]
    1c4e:	3064      	adds	r0, #100	; 0x64
    1c50:	9001      	str	r0, [sp, #4]
    1c52:	2064      	movs	r0, #100	; 0x64
    1c54:	f24d 1180 	movw	r1, #53632	; 0xd180
    1c58:	f6c0 01f0 	movt	r1, #2288	; 0x8f0
    1c5c:	f7ff fc8e 	bl	157c <SDK_DelayAtLeastUs>
    1c60:	9801      	ldr	r0, [sp, #4]
    1c62:	9004      	str	r0, [sp, #16]
    1c64:	e7dd      	b.n	1c22 <CLOCK_SetPLL0Freq+0xd8>
    1c66:	e007      	b.n	1c78 <CLOCK_SetPLL0Freq+0x12e>
    1c68:	9806      	ldr	r0, [sp, #24]
    1c6a:	f24d 1180 	movw	r1, #53632	; 0xd180
    1c6e:	f6c0 01f0 	movt	r1, #2288	; 0x8f0
    1c72:	f7ff fc83 	bl	157c <SDK_DelayAtLeastUs>
    1c76:	e7ff      	b.n	1c78 <CLOCK_SetPLL0Freq+0x12e>
    1c78:	e008      	b.n	1c8c <CLOCK_SetPLL0Freq+0x142>
    1c7a:	f241 7070 	movw	r0, #6000	; 0x1770
    1c7e:	f24d 1180 	movw	r1, #53632	; 0xd180
    1c82:	f6c0 01f0 	movt	r1, #2288	; 0x8f0
    1c86:	f7ff fc79 	bl	157c <SDK_DelayAtLeastUs>
    1c8a:	e7ff      	b.n	1c8c <CLOCK_SetPLL0Freq+0x142>
    1c8c:	e7ff      	b.n	1c8e <CLOCK_SetPLL0Freq+0x144>
    1c8e:	9809      	ldr	r0, [sp, #36]	; 0x24
    1c90:	6980      	ldr	r0, [r0, #24]
    1c92:	f240 4190 	movw	r1, #1168	; 0x490
    1c96:	f2c2 0100 	movt	r1, #8192	; 0x2000
    1c9a:	6008      	str	r0, [r1, #0]
    1c9c:	2000      	movs	r0, #0
    1c9e:	b00a      	add	sp, #40	; 0x28
    1ca0:	bd80      	pop	{r7, pc}

00001ca2 <POWER_SetVoltageForFreq>:
    1ca2:	b580      	push	{r7, lr}
    1ca4:	466f      	mov	r7, sp
    1ca6:	b084      	sub	sp, #16
    1ca8:	9003      	str	r0, [sp, #12]
    1caa:	f24e 1100 	movw	r1, #57600	; 0xe100
    1cae:	f2c0 51f5 	movt	r1, #1525	; 0x5f5
    1cb2:	4288      	cmp	r0, r1
    1cb4:	d808      	bhi.n	1cc8 <POWER_SetVoltageForFreq+0x26>
    1cb6:	e7ff      	b.n	1cb8 <POWER_SetVoltageForFreq+0x16>
    1cb8:	2000      	movs	r0, #0
    1cba:	9002      	str	r0, [sp, #8]
    1cbc:	f000 f81f 	bl	1cfe <lowpower_set_dcdc_power_profile>
    1cc0:	9802      	ldr	r0, [sp, #8]
    1cc2:	f000 f890 	bl	1de6 <lowpower_set_voltage_for_process>
    1cc6:	e018      	b.n	1cfa <POWER_SetVoltageForFreq+0x58>
    1cc8:	9803      	ldr	r0, [sp, #12]
    1cca:	f24a 4180 	movw	r1, #42112	; 0xa480
    1cce:	f2c0 71bf 	movt	r1, #1983	; 0x7bf
    1cd2:	4288      	cmp	r0, r1
    1cd4:	d808      	bhi.n	1ce8 <POWER_SetVoltageForFreq+0x46>
    1cd6:	e7ff      	b.n	1cd8 <POWER_SetVoltageForFreq+0x36>
    1cd8:	2001      	movs	r0, #1
    1cda:	9001      	str	r0, [sp, #4]
    1cdc:	f000 f80f 	bl	1cfe <lowpower_set_dcdc_power_profile>
    1ce0:	9801      	ldr	r0, [sp, #4]
    1ce2:	f000 f880 	bl	1de6 <lowpower_set_voltage_for_process>
    1ce6:	e007      	b.n	1cf8 <POWER_SetVoltageForFreq+0x56>
    1ce8:	2002      	movs	r0, #2
    1cea:	9000      	str	r0, [sp, #0]
    1cec:	f000 f807 	bl	1cfe <lowpower_set_dcdc_power_profile>
    1cf0:	9800      	ldr	r0, [sp, #0]
    1cf2:	f000 f878 	bl	1de6 <lowpower_set_voltage_for_process>
    1cf6:	e7ff      	b.n	1cf8 <POWER_SetVoltageForFreq+0x56>
    1cf8:	e7ff      	b.n	1cfa <POWER_SetVoltageForFreq+0x58>
    1cfa:	b004      	add	sp, #16
    1cfc:	bd80      	pop	{r7, pc}

00001cfe <lowpower_set_dcdc_power_profile>:
    1cfe:	b087      	sub	sp, #28
    1d00:	4601      	mov	r1, r0
    1d02:	9106      	str	r1, [sp, #24]
    1d04:	b140      	cbz	r0, 1d18 <lowpower_set_dcdc_power_profile+0x1a>
    1d06:	e7ff      	b.n	1d08 <lowpower_set_dcdc_power_profile+0xa>
    1d08:	9806      	ldr	r0, [sp, #24]
    1d0a:	2801      	cmp	r0, #1
    1d0c:	d020      	beq.n	1d50 <lowpower_set_dcdc_power_profile+0x52>
    1d0e:	e7ff      	b.n	1d10 <lowpower_set_dcdc_power_profile+0x12>
    1d10:	9806      	ldr	r0, [sp, #24]
    1d12:	2802      	cmp	r0, #2
    1d14:	d038      	beq.n	1d88 <lowpower_set_dcdc_power_profile+0x8a>
    1d16:	e053      	b.n	1dc0 <lowpower_set_dcdc_power_profile+0xc2>
    1d18:	f64f 40e0 	movw	r0, #64736	; 0xfce0
    1d1c:	f2c0 0009 	movt	r0, #9
    1d20:	6800      	ldr	r0, [r0, #0]
    1d22:	9004      	str	r0, [sp, #16]
    1d24:	f64f 41e4 	movw	r1, #64740	; 0xfce4
    1d28:	f2c0 0109 	movt	r1, #9
    1d2c:	6809      	ldr	r1, [r1, #0]
    1d2e:	9105      	str	r1, [sp, #20]
    1d30:	07c0      	lsls	r0, r0, #31
    1d32:	b160      	cbz	r0, 1d4e <lowpower_set_dcdc_power_profile+0x50>
    1d34:	e7ff      	b.n	1d36 <lowpower_set_dcdc_power_profile+0x38>
    1d36:	9805      	ldr	r0, [sp, #20]
    1d38:	9904      	ldr	r1, [sp, #16]
    1d3a:	0849      	lsrs	r1, r1, #1
    1d3c:	2210      	movs	r2, #16
    1d3e:	f2c4 0202 	movt	r2, #16386	; 0x4002
    1d42:	6011      	str	r1, [r2, #0]
    1d44:	2114      	movs	r1, #20
    1d46:	f2c4 0102 	movt	r1, #16386	; 0x4002
    1d4a:	6008      	str	r0, [r1, #0]
    1d4c:	e7ff      	b.n	1d4e <lowpower_set_dcdc_power_profile+0x50>
    1d4e:	e048      	b.n	1de2 <lowpower_set_dcdc_power_profile+0xe4>
    1d50:	f64f 40e8 	movw	r0, #64744	; 0xfce8
    1d54:	f2c0 0009 	movt	r0, #9
    1d58:	6800      	ldr	r0, [r0, #0]
    1d5a:	9002      	str	r0, [sp, #8]
    1d5c:	f64f 41ec 	movw	r1, #64748	; 0xfcec
    1d60:	f2c0 0109 	movt	r1, #9
    1d64:	6809      	ldr	r1, [r1, #0]
    1d66:	9103      	str	r1, [sp, #12]
    1d68:	07c0      	lsls	r0, r0, #31
    1d6a:	b160      	cbz	r0, 1d86 <lowpower_set_dcdc_power_profile+0x88>
    1d6c:	e7ff      	b.n	1d6e <lowpower_set_dcdc_power_profile+0x70>
    1d6e:	9803      	ldr	r0, [sp, #12]
    1d70:	9902      	ldr	r1, [sp, #8]
    1d72:	0849      	lsrs	r1, r1, #1
    1d74:	2210      	movs	r2, #16
    1d76:	f2c4 0202 	movt	r2, #16386	; 0x4002
    1d7a:	6011      	str	r1, [r2, #0]
    1d7c:	2114      	movs	r1, #20
    1d7e:	f2c4 0102 	movt	r1, #16386	; 0x4002
    1d82:	6008      	str	r0, [r1, #0]
    1d84:	e7ff      	b.n	1d86 <lowpower_set_dcdc_power_profile+0x88>
    1d86:	e02c      	b.n	1de2 <lowpower_set_dcdc_power_profile+0xe4>
    1d88:	f64f 40d8 	movw	r0, #64728	; 0xfcd8
    1d8c:	f2c0 0009 	movt	r0, #9
    1d90:	6800      	ldr	r0, [r0, #0]
    1d92:	9000      	str	r0, [sp, #0]
    1d94:	f64f 41dc 	movw	r1, #64732	; 0xfcdc
    1d98:	f2c0 0109 	movt	r1, #9
    1d9c:	6809      	ldr	r1, [r1, #0]
    1d9e:	9101      	str	r1, [sp, #4]
    1da0:	07c0      	lsls	r0, r0, #31
    1da2:	b160      	cbz	r0, 1dbe <lowpower_set_dcdc_power_profile+0xc0>
    1da4:	e7ff      	b.n	1da6 <lowpower_set_dcdc_power_profile+0xa8>
    1da6:	9801      	ldr	r0, [sp, #4]
    1da8:	9900      	ldr	r1, [sp, #0]
    1daa:	0849      	lsrs	r1, r1, #1
    1dac:	2210      	movs	r2, #16
    1dae:	f2c4 0202 	movt	r2, #16386	; 0x4002
    1db2:	6011      	str	r1, [r2, #0]
    1db4:	2114      	movs	r1, #20
    1db6:	f2c4 0102 	movt	r1, #16386	; 0x4002
    1dba:	6008      	str	r0, [r1, #0]
    1dbc:	e7ff      	b.n	1dbe <lowpower_set_dcdc_power_profile+0xc0>
    1dbe:	e010      	b.n	1de2 <lowpower_set_dcdc_power_profile+0xe4>
    1dc0:	2110      	movs	r1, #16
    1dc2:	f2c4 0102 	movt	r1, #16386	; 0x4002
    1dc6:	f644 6068 	movw	r0, #20072	; 0x4e68
    1dca:	f2c0 100c 	movt	r0, #268	; 0x10c
    1dce:	6008      	str	r0, [r1, #0]
    1dd0:	2114      	movs	r1, #20
    1dd2:	f2c4 0102 	movt	r1, #16386	; 0x4002
    1dd6:	f643 2098 	movw	r0, #15000	; 0x3a98
    1dda:	f2c0 1080 	movt	r0, #384	; 0x180
    1dde:	6008      	str	r0, [r1, #0]
    1de0:	e7ff      	b.n	1de2 <lowpower_set_dcdc_power_profile+0xe4>
    1de2:	b007      	add	sp, #28
    1de4:	4770      	bx	lr

00001de6 <lowpower_set_voltage_for_process>:
    1de6:	b580      	push	{r7, lr}
    1de8:	466f      	mov	r7, sp
    1dea:	b086      	sub	sp, #24
    1dec:	9004      	str	r0, [sp, #16]
    1dee:	f000 f85b 	bl	1ea8 <lowpower_get_part_process_corner>
    1df2:	4601      	mov	r1, r0
    1df4:	9105      	str	r1, [sp, #20]
    1df6:	b120      	cbz	r0, 1e02 <lowpower_set_voltage_for_process+0x1c>
    1df8:	e7ff      	b.n	1dfa <lowpower_set_voltage_for_process+0x14>
    1dfa:	9805      	ldr	r0, [sp, #20]
    1dfc:	2802      	cmp	r0, #2
    1dfe:	d01b      	beq.n	1e38 <lowpower_set_voltage_for_process+0x52>
    1e00:	e035      	b.n	1e6e <lowpower_set_voltage_for_process+0x88>
    1e02:	9804      	ldr	r0, [sp, #16]
    1e04:	b2c0      	uxtb	r0, r0
    1e06:	4601      	mov	r1, r0
    1e08:	9103      	str	r1, [sp, #12]
    1e0a:	2801      	cmp	r0, #1
    1e0c:	d004      	beq.n	1e18 <lowpower_set_voltage_for_process+0x32>
    1e0e:	e7ff      	b.n	1e10 <lowpower_set_voltage_for_process+0x2a>
    1e10:	9803      	ldr	r0, [sp, #12]
    1e12:	2802      	cmp	r0, #2
    1e14:	d005      	beq.n	1e22 <lowpower_set_voltage_for_process+0x3c>
    1e16:	e009      	b.n	1e2c <lowpower_set_voltage_for_process+0x46>
    1e18:	f240 407e 	movw	r0, #1150	; 0x47e
    1e1c:	f000 f89b 	bl	1f56 <lowpower_set_system_voltage>
    1e20:	e009      	b.n	1e36 <lowpower_set_voltage_for_process+0x50>
    1e22:	f44f 6096 	mov.w	r0, #1200	; 0x4b0
    1e26:	f000 f896 	bl	1f56 <lowpower_set_system_voltage>
    1e2a:	e004      	b.n	1e36 <lowpower_set_voltage_for_process+0x50>
    1e2c:	f240 4033 	movw	r0, #1075	; 0x433
    1e30:	f000 f891 	bl	1f56 <lowpower_set_system_voltage>
    1e34:	e7ff      	b.n	1e36 <lowpower_set_voltage_for_process+0x50>
    1e36:	e035      	b.n	1ea4 <lowpower_set_voltage_for_process+0xbe>
    1e38:	9804      	ldr	r0, [sp, #16]
    1e3a:	b2c0      	uxtb	r0, r0
    1e3c:	4601      	mov	r1, r0
    1e3e:	9102      	str	r1, [sp, #8]
    1e40:	2801      	cmp	r0, #1
    1e42:	d004      	beq.n	1e4e <lowpower_set_voltage_for_process+0x68>
    1e44:	e7ff      	b.n	1e46 <lowpower_set_voltage_for_process+0x60>
    1e46:	9802      	ldr	r0, [sp, #8]
    1e48:	2802      	cmp	r0, #2
    1e4a:	d005      	beq.n	1e58 <lowpower_set_voltage_for_process+0x72>
    1e4c:	e009      	b.n	1e62 <lowpower_set_voltage_for_process+0x7c>
    1e4e:	f240 4001 	movw	r0, #1025	; 0x401
    1e52:	f000 f880 	bl	1f56 <lowpower_set_system_voltage>
    1e56:	e009      	b.n	1e6c <lowpower_set_voltage_for_process+0x86>
    1e58:	f240 401a 	movw	r0, #1050	; 0x41a
    1e5c:	f000 f87b 	bl	1f56 <lowpower_set_system_voltage>
    1e60:	e004      	b.n	1e6c <lowpower_set_voltage_for_process+0x86>
    1e62:	f44f 707a 	mov.w	r0, #1000	; 0x3e8
    1e66:	f000 f876 	bl	1f56 <lowpower_set_system_voltage>
    1e6a:	e7ff      	b.n	1e6c <lowpower_set_voltage_for_process+0x86>
    1e6c:	e01a      	b.n	1ea4 <lowpower_set_voltage_for_process+0xbe>
    1e6e:	9804      	ldr	r0, [sp, #16]
    1e70:	b2c0      	uxtb	r0, r0
    1e72:	4601      	mov	r1, r0
    1e74:	9101      	str	r1, [sp, #4]
    1e76:	2801      	cmp	r0, #1
    1e78:	d004      	beq.n	1e84 <lowpower_set_voltage_for_process+0x9e>
    1e7a:	e7ff      	b.n	1e7c <lowpower_set_voltage_for_process+0x96>
    1e7c:	9801      	ldr	r0, [sp, #4]
    1e7e:	2802      	cmp	r0, #2
    1e80:	d005      	beq.n	1e8e <lowpower_set_voltage_for_process+0xa8>
    1e82:	e009      	b.n	1e98 <lowpower_set_voltage_for_process+0xb2>
    1e84:	f240 404c 	movw	r0, #1100	; 0x44c
    1e88:	f000 f865 	bl	1f56 <lowpower_set_system_voltage>
    1e8c:	e009      	b.n	1ea2 <lowpower_set_voltage_for_process+0xbc>
    1e8e:	f240 407e 	movw	r0, #1150	; 0x47e
    1e92:	f000 f860 	bl	1f56 <lowpower_set_system_voltage>
    1e96:	e004      	b.n	1ea2 <lowpower_set_voltage_for_process+0xbc>
    1e98:	f44f 707a 	mov.w	r0, #1000	; 0x3e8
    1e9c:	f000 f85b 	bl	1f56 <lowpower_set_system_voltage>
    1ea0:	e7ff      	b.n	1ea2 <lowpower_set_voltage_for_process+0xbc>
    1ea2:	e7ff      	b.n	1ea4 <lowpower_set_voltage_for_process+0xbe>
    1ea4:	b006      	add	sp, #24
    1ea6:	bd80      	pop	{r7, pc}

00001ea8 <lowpower_get_part_process_corner>:
    1ea8:	b08a      	sub	sp, #40	; 0x28
    1eaa:	f64f 5030 	movw	r0, #64816	; 0xfd30
    1eae:	f2c0 0009 	movt	r0, #9
    1eb2:	6800      	ldr	r0, [r0, #0]
    1eb4:	9008      	str	r0, [sp, #32]
    1eb6:	f64f 5140 	movw	r1, #64832	; 0xfd40
    1eba:	f2c0 0109 	movt	r1, #9
    1ebe:	6809      	ldr	r1, [r1, #0]
    1ec0:	9109      	str	r1, [sp, #36]	; 0x24
    1ec2:	07c0      	lsls	r0, r0, #31
    1ec4:	b120      	cbz	r0, 1ed0 <lowpower_get_part_process_corner+0x28>
    1ec6:	e7ff      	b.n	1ec8 <lowpower_get_part_process_corner+0x20>
    1ec8:	9808      	ldr	r0, [sp, #32]
    1eca:	0840      	lsrs	r0, r0, #1
    1ecc:	9007      	str	r0, [sp, #28]
    1ece:	e005      	b.n	1edc <lowpower_get_part_process_corner+0x34>
    1ed0:	f647 60a0 	movw	r0, #32416	; 0x7ea0
    1ed4:	f2c0 1026 	movt	r0, #294	; 0x126
    1ed8:	9007      	str	r0, [sp, #28]
    1eda:	e7ff      	b.n	1edc <lowpower_get_part_process_corner+0x34>
    1edc:	9809      	ldr	r0, [sp, #36]	; 0x24
    1ede:	9907      	ldr	r1, [sp, #28]
    1ee0:	9106      	str	r1, [sp, #24]
    1ee2:	07c0      	lsls	r0, r0, #31
    1ee4:	b120      	cbz	r0, 1ef0 <lowpower_get_part_process_corner+0x48>
    1ee6:	e7ff      	b.n	1ee8 <lowpower_get_part_process_corner+0x40>
    1ee8:	9809      	ldr	r0, [sp, #36]	; 0x24
    1eea:	0840      	lsrs	r0, r0, #1
    1eec:	9005      	str	r0, [sp, #20]
    1eee:	e005      	b.n	1efc <lowpower_get_part_process_corner+0x54>
    1ef0:	f647 60a0 	movw	r0, #32416	; 0x7ea0
    1ef4:	f2c0 1026 	movt	r0, #294	; 0x126
    1ef8:	9005      	str	r0, [sp, #20]
    1efa:	e7ff      	b.n	1efc <lowpower_get_part_process_corner+0x54>
    1efc:	9906      	ldr	r1, [sp, #24]
    1efe:	9805      	ldr	r0, [sp, #20]
    1f00:	9004      	str	r0, [sp, #16]
    1f02:	4288      	cmp	r0, r1
    1f04:	d803      	bhi.n	1f0e <lowpower_get_part_process_corner+0x66>
    1f06:	e7ff      	b.n	1f08 <lowpower_get_part_process_corner+0x60>
    1f08:	9804      	ldr	r0, [sp, #16]
    1f0a:	9003      	str	r0, [sp, #12]
    1f0c:	e002      	b.n	1f14 <lowpower_get_part_process_corner+0x6c>
    1f0e:	9806      	ldr	r0, [sp, #24]
    1f10:	9003      	str	r0, [sp, #12]
    1f12:	e7ff      	b.n	1f14 <lowpower_get_part_process_corner+0x6c>
    1f14:	9803      	ldr	r0, [sp, #12]
    1f16:	9002      	str	r0, [sp, #8]
    1f18:	f64d 71a0 	movw	r1, #57248	; 0xdfa0
    1f1c:	f2c0 1101 	movt	r1, #257	; 0x101
    1f20:	4288      	cmp	r0, r1
    1f22:	d803      	bhi.n	1f2c <lowpower_get_part_process_corner+0x84>
    1f24:	e7ff      	b.n	1f26 <lowpower_get_part_process_corner+0x7e>
    1f26:	2000      	movs	r0, #0
    1f28:	9001      	str	r0, [sp, #4]
    1f2a:	e010      	b.n	1f4e <lowpower_get_part_process_corner+0xa6>
    1f2c:	9802      	ldr	r0, [sp, #8]
    1f2e:	f641 51a0 	movw	r1, #7584	; 0x1da0
    1f32:	f2c0 114b 	movt	r1, #331	; 0x14b
    1f36:	4288      	cmp	r0, r1
    1f38:	d803      	bhi.n	1f42 <lowpower_get_part_process_corner+0x9a>
    1f3a:	e7ff      	b.n	1f3c <lowpower_get_part_process_corner+0x94>
    1f3c:	2001      	movs	r0, #1
    1f3e:	9000      	str	r0, [sp, #0]
    1f40:	e002      	b.n	1f48 <lowpower_get_part_process_corner+0xa0>
    1f42:	2002      	movs	r0, #2
    1f44:	9000      	str	r0, [sp, #0]
    1f46:	e7ff      	b.n	1f48 <lowpower_get_part_process_corner+0xa0>
    1f48:	9800      	ldr	r0, [sp, #0]
    1f4a:	9001      	str	r0, [sp, #4]
    1f4c:	e7ff      	b.n	1f4e <lowpower_get_part_process_corner+0xa6>
    1f4e:	9801      	ldr	r0, [sp, #4]
    1f50:	b2c0      	uxtb	r0, r0
    1f52:	b00a      	add	sp, #40	; 0x28
    1f54:	4770      	bx	lr

00001f56 <lowpower_set_system_voltage>:
    1f56:	b580      	push	{r7, lr}
    1f58:	466f      	mov	r7, sp
    1f5a:	b09b      	sub	sp, #108	; 0x6c
    1f5c:	901a      	str	r0, [sp, #104]	; 0x68
    1f5e:	f240 31b6 	movw	r1, #950	; 0x3b6
    1f62:	4288      	cmp	r0, r1
    1f64:	d807      	bhi.n	1f76 <lowpower_set_system_voltage+0x20>
    1f66:	e7ff      	b.n	1f68 <lowpower_set_system_voltage+0x12>
    1f68:	2000      	movs	r0, #0
    1f6a:	210a      	movs	r1, #10
    1f6c:	220f      	movs	r2, #15
    1f6e:	9217      	str	r2, [sp, #92]	; 0x5c
    1f70:	9118      	str	r1, [sp, #96]	; 0x60
    1f72:	9019      	str	r0, [sp, #100]	; 0x64
    1f74:	e0a7      	b.n	20c6 <lowpower_set_system_voltage+0x170>
    1f76:	981a      	ldr	r0, [sp, #104]	; 0x68
    1f78:	0900      	lsrs	r0, r0, #4
    1f7a:	283c      	cmp	r0, #60	; 0x3c
    1f7c:	d807      	bhi.n	1f8e <lowpower_set_system_voltage+0x38>
    1f7e:	e7ff      	b.n	1f80 <lowpower_set_system_voltage+0x2a>
    1f80:	2001      	movs	r0, #1
    1f82:	210c      	movs	r1, #12
    1f84:	2211      	movs	r2, #17
    1f86:	9214      	str	r2, [sp, #80]	; 0x50
    1f88:	9115      	str	r1, [sp, #84]	; 0x54
    1f8a:	9016      	str	r0, [sp, #88]	; 0x58
    1f8c:	e094      	b.n	20b8 <lowpower_set_system_voltage+0x162>
    1f8e:	981a      	ldr	r0, [sp, #104]	; 0x68
    1f90:	f5b0 7f7a 	cmp.w	r0, #1000	; 0x3e8
    1f94:	d807      	bhi.n	1fa6 <lowpower_set_system_voltage+0x50>
    1f96:	e7ff      	b.n	1f98 <lowpower_set_system_voltage+0x42>
    1f98:	2002      	movs	r0, #2
    1f9a:	210e      	movs	r1, #14
    1f9c:	2213      	movs	r2, #19
    1f9e:	9211      	str	r2, [sp, #68]	; 0x44
    1fa0:	9112      	str	r1, [sp, #72]	; 0x48
    1fa2:	9013      	str	r0, [sp, #76]	; 0x4c
    1fa4:	e081      	b.n	20aa <lowpower_set_system_voltage+0x154>
    1fa6:	981a      	ldr	r0, [sp, #104]	; 0x68
    1fa8:	f240 4101 	movw	r1, #1025	; 0x401
    1fac:	4288      	cmp	r0, r1
    1fae:	d807      	bhi.n	1fc0 <lowpower_set_system_voltage+0x6a>
    1fb0:	e7ff      	b.n	1fb2 <lowpower_set_system_voltage+0x5c>
    1fb2:	2003      	movs	r0, #3
    1fb4:	2111      	movs	r1, #17
    1fb6:	2216      	movs	r2, #22
    1fb8:	920e      	str	r2, [sp, #56]	; 0x38
    1fba:	910f      	str	r1, [sp, #60]	; 0x3c
    1fbc:	9010      	str	r0, [sp, #64]	; 0x40
    1fbe:	e06d      	b.n	209c <lowpower_set_system_voltage+0x146>
    1fc0:	981a      	ldr	r0, [sp, #104]	; 0x68
    1fc2:	f240 411a 	movw	r1, #1050	; 0x41a
    1fc6:	4288      	cmp	r0, r1
    1fc8:	d807      	bhi.n	1fda <lowpower_set_system_voltage+0x84>
    1fca:	e7ff      	b.n	1fcc <lowpower_set_system_voltage+0x76>
    1fcc:	2004      	movs	r0, #4
    1fce:	2114      	movs	r1, #20
    1fd0:	2219      	movs	r2, #25
    1fd2:	920b      	str	r2, [sp, #44]	; 0x2c
    1fd4:	910c      	str	r1, [sp, #48]	; 0x30
    1fd6:	900d      	str	r0, [sp, #52]	; 0x34
    1fd8:	e059      	b.n	208e <lowpower_set_system_voltage+0x138>
    1fda:	981a      	ldr	r0, [sp, #104]	; 0x68
    1fdc:	f240 4133 	movw	r1, #1075	; 0x433
    1fe0:	4288      	cmp	r0, r1
    1fe2:	d807      	bhi.n	1ff4 <lowpower_set_system_voltage+0x9e>
    1fe4:	e7ff      	b.n	1fe6 <lowpower_set_system_voltage+0x90>
    1fe6:	2005      	movs	r0, #5
    1fe8:	2116      	movs	r1, #22
    1fea:	221b      	movs	r2, #27
    1fec:	9208      	str	r2, [sp, #32]
    1fee:	9109      	str	r1, [sp, #36]	; 0x24
    1ff0:	900a      	str	r0, [sp, #40]	; 0x28
    1ff2:	e045      	b.n	2080 <lowpower_set_system_voltage+0x12a>
    1ff4:	981a      	ldr	r0, [sp, #104]	; 0x68
    1ff6:	f240 414c 	movw	r1, #1100	; 0x44c
    1ffa:	4288      	cmp	r0, r1
    1ffc:	d807      	bhi.n	200e <lowpower_set_system_voltage+0xb8>
    1ffe:	e7ff      	b.n	2000 <lowpower_set_system_voltage+0xaa>
    2000:	2006      	movs	r0, #6
    2002:	2118      	movs	r1, #24
    2004:	221d      	movs	r2, #29
    2006:	9205      	str	r2, [sp, #20]
    2008:	9106      	str	r1, [sp, #24]
    200a:	9007      	str	r0, [sp, #28]
    200c:	e031      	b.n	2072 <lowpower_set_system_voltage+0x11c>
    200e:	981a      	ldr	r0, [sp, #104]	; 0x68
    2010:	f240 4165 	movw	r1, #1125	; 0x465
    2014:	4288      	cmp	r0, r1
    2016:	d807      	bhi.n	2028 <lowpower_set_system_voltage+0xd2>
    2018:	e7ff      	b.n	201a <lowpower_set_system_voltage+0xc4>
    201a:	2007      	movs	r0, #7
    201c:	211b      	movs	r1, #27
    201e:	221e      	movs	r2, #30
    2020:	9202      	str	r2, [sp, #8]
    2022:	9103      	str	r1, [sp, #12]
    2024:	9004      	str	r0, [sp, #16]
    2026:	e01d      	b.n	2064 <lowpower_set_system_voltage+0x10e>
    2028:	981a      	ldr	r0, [sp, #104]	; 0x68
    202a:	f240 417e 	movw	r1, #1150	; 0x47e
    202e:	4288      	cmp	r0, r1
    2030:	d803      	bhi.n	203a <lowpower_set_system_voltage+0xe4>
    2032:	e7ff      	b.n	2034 <lowpower_set_system_voltage+0xde>
    2034:	2008      	movs	r0, #8
    2036:	9001      	str	r0, [sp, #4]
    2038:	e00d      	b.n	2056 <lowpower_set_system_voltage+0x100>
    203a:	981a      	ldr	r0, [sp, #104]	; 0x68
    203c:	08c0      	lsrs	r0, r0, #3
    203e:	2892      	cmp	r0, #146	; 0x92
    2040:	d803      	bhi.n	204a <lowpower_set_system_voltage+0xf4>
    2042:	e7ff      	b.n	2044 <lowpower_set_system_voltage+0xee>
    2044:	2009      	movs	r0, #9
    2046:	9000      	str	r0, [sp, #0]
    2048:	e002      	b.n	2050 <lowpower_set_system_voltage+0xfa>
    204a:	200a      	movs	r0, #10
    204c:	9000      	str	r0, [sp, #0]
    204e:	e7ff      	b.n	2050 <lowpower_set_system_voltage+0xfa>
    2050:	9800      	ldr	r0, [sp, #0]
    2052:	9001      	str	r0, [sp, #4]
    2054:	e7ff      	b.n	2056 <lowpower_set_system_voltage+0x100>
    2056:	9801      	ldr	r0, [sp, #4]
    2058:	211e      	movs	r1, #30
    205a:	221f      	movs	r2, #31
    205c:	9202      	str	r2, [sp, #8]
    205e:	9103      	str	r1, [sp, #12]
    2060:	9004      	str	r0, [sp, #16]
    2062:	e7ff      	b.n	2064 <lowpower_set_system_voltage+0x10e>
    2064:	9a02      	ldr	r2, [sp, #8]
    2066:	9903      	ldr	r1, [sp, #12]
    2068:	9804      	ldr	r0, [sp, #16]
    206a:	9205      	str	r2, [sp, #20]
    206c:	9106      	str	r1, [sp, #24]
    206e:	9007      	str	r0, [sp, #28]
    2070:	e7ff      	b.n	2072 <lowpower_set_system_voltage+0x11c>
    2072:	9a05      	ldr	r2, [sp, #20]
    2074:	9906      	ldr	r1, [sp, #24]
    2076:	9807      	ldr	r0, [sp, #28]
    2078:	9208      	str	r2, [sp, #32]
    207a:	9109      	str	r1, [sp, #36]	; 0x24
    207c:	900a      	str	r0, [sp, #40]	; 0x28
    207e:	e7ff      	b.n	2080 <lowpower_set_system_voltage+0x12a>
    2080:	9a08      	ldr	r2, [sp, #32]
    2082:	9909      	ldr	r1, [sp, #36]	; 0x24
    2084:	980a      	ldr	r0, [sp, #40]	; 0x28
    2086:	920b      	str	r2, [sp, #44]	; 0x2c
    2088:	910c      	str	r1, [sp, #48]	; 0x30
    208a:	900d      	str	r0, [sp, #52]	; 0x34
    208c:	e7ff      	b.n	208e <lowpower_set_system_voltage+0x138>
    208e:	9a0b      	ldr	r2, [sp, #44]	; 0x2c
    2090:	990c      	ldr	r1, [sp, #48]	; 0x30
    2092:	980d      	ldr	r0, [sp, #52]	; 0x34
    2094:	920e      	str	r2, [sp, #56]	; 0x38
    2096:	910f      	str	r1, [sp, #60]	; 0x3c
    2098:	9010      	str	r0, [sp, #64]	; 0x40
    209a:	e7ff      	b.n	209c <lowpower_set_system_voltage+0x146>
    209c:	9a0e      	ldr	r2, [sp, #56]	; 0x38
    209e:	990f      	ldr	r1, [sp, #60]	; 0x3c
    20a0:	9810      	ldr	r0, [sp, #64]	; 0x40
    20a2:	9211      	str	r2, [sp, #68]	; 0x44
    20a4:	9112      	str	r1, [sp, #72]	; 0x48
    20a6:	9013      	str	r0, [sp, #76]	; 0x4c
    20a8:	e7ff      	b.n	20aa <lowpower_set_system_voltage+0x154>
    20aa:	9a11      	ldr	r2, [sp, #68]	; 0x44
    20ac:	9912      	ldr	r1, [sp, #72]	; 0x48
    20ae:	9813      	ldr	r0, [sp, #76]	; 0x4c
    20b0:	9214      	str	r2, [sp, #80]	; 0x50
    20b2:	9115      	str	r1, [sp, #84]	; 0x54
    20b4:	9016      	str	r0, [sp, #88]	; 0x58
    20b6:	e7ff      	b.n	20b8 <lowpower_set_system_voltage+0x162>
    20b8:	9a14      	ldr	r2, [sp, #80]	; 0x50
    20ba:	9915      	ldr	r1, [sp, #84]	; 0x54
    20bc:	9816      	ldr	r0, [sp, #88]	; 0x58
    20be:	9217      	str	r2, [sp, #92]	; 0x5c
    20c0:	9118      	str	r1, [sp, #96]	; 0x60
    20c2:	9019      	str	r0, [sp, #100]	; 0x64
    20c4:	e7ff      	b.n	20c6 <lowpower_set_system_voltage+0x170>
    20c6:	9b17      	ldr	r3, [sp, #92]	; 0x5c
    20c8:	f8dd c060 	ldr.w	ip, [sp, #96]	; 0x60
    20cc:	9a19      	ldr	r2, [sp, #100]	; 0x64
    20ce:	211c      	movs	r1, #28
    20d0:	f2c4 0102 	movt	r1, #16386	; 0x4002
    20d4:	6808      	ldr	r0, [r1, #0]
    20d6:	f647 4e1f 	movw	lr, #31775	; 0x7c1f
    20da:	ea20 000e 	bic.w	r0, r0, lr
    20de:	f00c 0c1f 	and.w	ip, ip, #31
    20e2:	4460      	add	r0, ip
    20e4:	f003 031f 	and.w	r3, r3, #31
    20e8:	ea40 2083 	orr.w	r0, r0, r3, lsl #10
    20ec:	6008      	str	r0, [r1, #0]
    20ee:	2110      	movs	r1, #16
    20f0:	f2c4 0102 	movt	r1, #16386	; 0x4002
    20f4:	6808      	ldr	r0, [r1, #0]
    20f6:	f362 4054 	bfi	r0, r2, #17, #4
    20fa:	6008      	str	r0, [r1, #0]
    20fc:	b01b      	add	sp, #108	; 0x6c
    20fe:	bd80      	pop	{r7, pc}

00002100 <RESET_SetPeripheralReset>:
    2100:	b580      	push	{r7, lr}
    2102:	466f      	mov	r7, sp
    2104:	b082      	sub	sp, #8
    2106:	0c01      	lsrs	r1, r0, #16
    2108:	9100      	str	r1, [sp, #0]
    210a:	b280      	uxth	r0, r0
    210c:	2101      	movs	r1, #1
    210e:	4081      	lsls	r1, r0
    2110:	9101      	str	r1, [sp, #4]
    2112:	281f      	cmp	r0, #31
    2114:	d801      	bhi.n	211a <RESET_SetPeripheralReset+0x1a>
    2116:	e7ff      	b.n	2118 <RESET_SetPeripheralReset+0x18>
    2118:	e00e      	b.n	2138 <RESET_SetPeripheralReset+0x38>
    211a:	f248 7034 	movw	r0, #34612	; 0x8734
    211e:	f2c0 0000 	movt	r0, #0
    2122:	f248 7248 	movw	r2, #34632	; 0x8748
    2126:	f2c0 0200 	movt	r2, #0
    212a:	f248 7361 	movw	r3, #34657	; 0x8761
    212e:	f2c0 0300 	movt	r3, #0
    2132:	2130      	movs	r1, #48	; 0x30
    2134:	f002 fe17 	bl	4d66 <__assert_func>
    2138:	9801      	ldr	r0, [sp, #4]
    213a:	9a00      	ldr	r2, [sp, #0]
    213c:	f240 1120 	movw	r1, #288	; 0x120
    2140:	f2c4 0100 	movt	r1, #16384	; 0x4000
    2144:	f841 0022 	str.w	r0, [r1, r2, lsl #2]
    2148:	e7ff      	b.n	214a <RESET_SetPeripheralReset+0x4a>
    214a:	9901      	ldr	r1, [sp, #4]
    214c:	9a00      	ldr	r2, [sp, #0]
    214e:	f240 1000 	movw	r0, #256	; 0x100
    2152:	f2c4 0000 	movt	r0, #16384	; 0x4000
    2156:	f850 0022 	ldr.w	r0, [r0, r2, lsl #2]
    215a:	4208      	tst	r0, r1
    215c:	d101      	bne.n	2162 <RESET_SetPeripheralReset+0x62>
    215e:	e7ff      	b.n	2160 <RESET_SetPeripheralReset+0x60>
    2160:	e7f3      	b.n	214a <RESET_SetPeripheralReset+0x4a>
    2162:	b002      	add	sp, #8
    2164:	bd80      	pop	{r7, pc}

00002166 <RESET_ClearPeripheralReset>:
    2166:	b580      	push	{r7, lr}
    2168:	466f      	mov	r7, sp
    216a:	b082      	sub	sp, #8
    216c:	0c01      	lsrs	r1, r0, #16
    216e:	9100      	str	r1, [sp, #0]
    2170:	b280      	uxth	r0, r0
    2172:	2101      	movs	r1, #1
    2174:	4081      	lsls	r1, r0
    2176:	9101      	str	r1, [sp, #4]
    2178:	281f      	cmp	r0, #31
    217a:	d801      	bhi.n	2180 <RESET_ClearPeripheralReset+0x1a>
    217c:	e7ff      	b.n	217e <RESET_ClearPeripheralReset+0x18>
    217e:	e00e      	b.n	219e <RESET_ClearPeripheralReset+0x38>
    2180:	f248 7034 	movw	r0, #34612	; 0x8734
    2184:	f2c0 0000 	movt	r0, #0
    2188:	f248 726e 	movw	r2, #34670	; 0x876e
    218c:	f2c0 0200 	movt	r2, #0
    2190:	f248 7361 	movw	r3, #34657	; 0x8761
    2194:	f2c0 0300 	movt	r3, #0
    2198:	2149      	movs	r1, #73	; 0x49
    219a:	f002 fde4 	bl	4d66 <__assert_func>
    219e:	9801      	ldr	r0, [sp, #4]
    21a0:	9a00      	ldr	r2, [sp, #0]
    21a2:	f240 1140 	movw	r1, #320	; 0x140
    21a6:	f2c4 0100 	movt	r1, #16384	; 0x4000
    21aa:	f841 0022 	str.w	r0, [r1, r2, lsl #2]
    21ae:	e7ff      	b.n	21b0 <RESET_ClearPeripheralReset+0x4a>
    21b0:	9801      	ldr	r0, [sp, #4]
    21b2:	9a00      	ldr	r2, [sp, #0]
    21b4:	f240 1100 	movw	r1, #256	; 0x100
    21b8:	f2c4 0100 	movt	r1, #16384	; 0x4000
    21bc:	f851 1022 	ldr.w	r1, [r1, r2, lsl #2]
    21c0:	4001      	ands	r1, r0
    21c2:	4288      	cmp	r0, r1
    21c4:	d101      	bne.n	21ca <RESET_ClearPeripheralReset+0x64>
    21c6:	e7ff      	b.n	21c8 <RESET_ClearPeripheralReset+0x62>
    21c8:	e7f2      	b.n	21b0 <RESET_ClearPeripheralReset+0x4a>
    21ca:	b002      	add	sp, #8
    21cc:	bd80      	pop	{r7, pc}

000021ce <RESET_PeripheralReset>:
    21ce:	b580      	push	{r7, lr}
    21d0:	466f      	mov	r7, sp
    21d2:	b082      	sub	sp, #8
    21d4:	9001      	str	r0, [sp, #4]
    21d6:	f7ff ff93 	bl	2100 <RESET_SetPeripheralReset>
    21da:	9801      	ldr	r0, [sp, #4]
    21dc:	f7ff ffc3 	bl	2166 <RESET_ClearPeripheralReset>
    21e0:	b002      	add	sp, #8
    21e2:	bd80      	pop	{r7, pc}

000021e4 <GPIO_EnablePortClock>:
    21e4:	b580      	push	{r7, lr}
    21e6:	466f      	mov	r7, sp
    21e8:	b082      	sub	sp, #8
    21ea:	9101      	str	r1, [sp, #4]
    21ec:	2903      	cmp	r1, #3
    21ee:	d801      	bhi.n	21f4 <GPIO_EnablePortClock+0x10>
    21f0:	e7ff      	b.n	21f2 <GPIO_EnablePortClock+0xe>
    21f2:	e00e      	b.n	2212 <GPIO_EnablePortClock+0x2e>
    21f4:	f248 7089 	movw	r0, #34697	; 0x8789
    21f8:	f2c0 0000 	movt	r0, #0
    21fc:	f248 729c 	movw	r2, #34716	; 0x879c
    2200:	f2c0 0200 	movt	r2, #0
    2204:	f248 73b1 	movw	r3, #34737	; 0x87b1
    2208:	f2c0 0300 	movt	r3, #0
    220c:	212d      	movs	r1, #45	; 0x2d
    220e:	f002 fdaa 	bl	4d66 <__assert_func>
    2212:	9901      	ldr	r1, [sp, #4]
    2214:	f248 70d4 	movw	r0, #34772	; 0x87d4
    2218:	f2c0 0000 	movt	r0, #0
    221c:	f830 0011 	ldrh.w	r0, [r0, r1, lsl #1]
    2220:	f000 f847 	bl	22b2 <CLOCK_EnableClock>
    2224:	b002      	add	sp, #8
    2226:	bd80      	pop	{r7, pc}

00002228 <GPIO_PinInit>:
    2228:	b580      	push	{r7, lr}
    222a:	466f      	mov	r7, sp
    222c:	b084      	sub	sp, #16
    222e:	9303      	str	r3, [sp, #12]
    2230:	9200      	str	r2, [sp, #0]
    2232:	9101      	str	r1, [sp, #4]
    2234:	9002      	str	r0, [sp, #8]
    2236:	f7ff ffd5 	bl	21e4 <GPIO_EnablePortClock>
    223a:	9b03      	ldr	r3, [sp, #12]
    223c:	7818      	ldrb	r0, [r3, #0]
    223e:	b970      	cbnz	r0, 225e <GPIO_PinInit+0x36>
    2240:	e7ff      	b.n	2242 <GPIO_PinInit+0x1a>
    2242:	9802      	ldr	r0, [sp, #8]
    2244:	9901      	ldr	r1, [sp, #4]
    2246:	9b00      	ldr	r3, [sp, #0]
    2248:	2201      	movs	r2, #1
    224a:	fa02 f303 	lsl.w	r3, r2, r3
    224e:	eb00 0181 	add.w	r1, r0, r1, lsl #2
    2252:	f44f 5200 	mov.w	r2, #8192	; 0x2000
    2256:	5888      	ldr	r0, [r1, r2]
    2258:	4398      	bics	r0, r3
    225a:	5088      	str	r0, [r1, r2]
    225c:	e027      	b.n	22ae <GPIO_PinInit+0x86>
    225e:	9803      	ldr	r0, [sp, #12]
    2260:	7840      	ldrb	r0, [r0, #1]
    2262:	b958      	cbnz	r0, 227c <GPIO_PinInit+0x54>
    2264:	e7ff      	b.n	2266 <GPIO_PinInit+0x3e>
    2266:	9902      	ldr	r1, [sp, #8]
    2268:	9a01      	ldr	r2, [sp, #4]
    226a:	9b00      	ldr	r3, [sp, #0]
    226c:	2001      	movs	r0, #1
    226e:	4098      	lsls	r0, r3
    2270:	eb01 0182 	add.w	r1, r1, r2, lsl #2
    2274:	f44f 520a 	mov.w	r2, #8832	; 0x2280
    2278:	5088      	str	r0, [r1, r2]
    227a:	e00a      	b.n	2292 <GPIO_PinInit+0x6a>
    227c:	9902      	ldr	r1, [sp, #8]
    227e:	9a01      	ldr	r2, [sp, #4]
    2280:	9b00      	ldr	r3, [sp, #0]
    2282:	2001      	movs	r0, #1
    2284:	4098      	lsls	r0, r3
    2286:	eb01 0182 	add.w	r1, r1, r2, lsl #2
    228a:	f44f 5208 	mov.w	r2, #8704	; 0x2200
    228e:	5088      	str	r0, [r1, r2]
    2290:	e7ff      	b.n	2292 <GPIO_PinInit+0x6a>
    2292:	9802      	ldr	r0, [sp, #8]
    2294:	9901      	ldr	r1, [sp, #4]
    2296:	9b00      	ldr	r3, [sp, #0]
    2298:	2201      	movs	r2, #1
    229a:	fa02 f303 	lsl.w	r3, r2, r3
    229e:	eb00 0181 	add.w	r1, r0, r1, lsl #2
    22a2:	f44f 5200 	mov.w	r2, #8192	; 0x2000
    22a6:	5888      	ldr	r0, [r1, r2]
    22a8:	4318      	orrs	r0, r3
    22aa:	5088      	str	r0, [r1, r2]
    22ac:	e7ff      	b.n	22ae <GPIO_PinInit+0x86>
    22ae:	b004      	add	sp, #16
    22b0:	bd80      	pop	{r7, pc}

000022b2 <CLOCK_EnableClock>:
    22b2:	0a02      	lsrs	r2, r0, #8
    22b4:	b2c1      	uxtb	r1, r0
    22b6:	2001      	movs	r0, #1
    22b8:	4088      	lsls	r0, r1
    22ba:	f240 2120 	movw	r1, #544	; 0x220
    22be:	f2c4 0100 	movt	r1, #16384	; 0x4000
    22c2:	f841 0022 	str.w	r0, [r1, r2, lsl #2]
    22c6:	4770      	bx	lr

000022c8 <FLEXCOMM_GetInstance>:
    22c8:	b580      	push	{r7, lr}
    22ca:	466f      	mov	r7, sp
    22cc:	b084      	sub	sp, #16
    22ce:	9002      	str	r0, [sp, #8]
    22d0:	2000      	movs	r0, #0
    22d2:	9003      	str	r0, [sp, #12]
    22d4:	e7ff      	b.n	22d6 <FLEXCOMM_GetInstance+0xe>
    22d6:	9803      	ldr	r0, [sp, #12]
    22d8:	9001      	str	r0, [sp, #4]
    22da:	2808      	cmp	r0, #8
    22dc:	d811      	bhi.n	2302 <FLEXCOMM_GetInstance+0x3a>
    22de:	e7ff      	b.n	22e0 <FLEXCOMM_GetInstance+0x18>
    22e0:	9802      	ldr	r0, [sp, #8]
    22e2:	9a01      	ldr	r2, [sp, #4]
    22e4:	f248 71dc 	movw	r1, #34780	; 0x87dc
    22e8:	f2c0 0100 	movt	r1, #0
    22ec:	f851 1022 	ldr.w	r1, [r1, r2, lsl #2]
    22f0:	4288      	cmp	r0, r1
    22f2:	d101      	bne.n	22f8 <FLEXCOMM_GetInstance+0x30>
    22f4:	e7ff      	b.n	22f6 <FLEXCOMM_GetInstance+0x2e>
    22f6:	e004      	b.n	2302 <FLEXCOMM_GetInstance+0x3a>
    22f8:	e7ff      	b.n	22fa <FLEXCOMM_GetInstance+0x32>
    22fa:	9801      	ldr	r0, [sp, #4]
    22fc:	3001      	adds	r0, #1
    22fe:	9003      	str	r0, [sp, #12]
    2300:	e7e9      	b.n	22d6 <FLEXCOMM_GetInstance+0xe>
    2302:	9801      	ldr	r0, [sp, #4]
    2304:	2808      	cmp	r0, #8
    2306:	d801      	bhi.n	230c <FLEXCOMM_GetInstance+0x44>
    2308:	e7ff      	b.n	230a <FLEXCOMM_GetInstance+0x42>
    230a:	e00e      	b.n	232a <FLEXCOMM_GetInstance+0x62>
    230c:	f648 0000 	movw	r0, #34816	; 0x8800
    2310:	f2c0 0000 	movt	r0, #0
    2314:	f648 0217 	movw	r2, #34839	; 0x8817
    2318:	f2c0 0200 	movt	r2, #0
    231c:	f648 032c 	movw	r3, #34860	; 0x882c
    2320:	f2c0 0300 	movt	r3, #0
    2324:	215f      	movs	r1, #95	; 0x5f
    2326:	f002 fd1e 	bl	4d66 <__assert_func>
    232a:	9801      	ldr	r0, [sp, #4]
    232c:	b004      	add	sp, #16
    232e:	bd80      	pop	{r7, pc}

00002330 <FLEXCOMM_Init>:
    2330:	b580      	push	{r7, lr}
    2332:	466f      	mov	r7, sp
    2334:	b084      	sub	sp, #16
    2336:	9103      	str	r1, [sp, #12]
    2338:	9002      	str	r0, [sp, #8]
    233a:	f7ff ffc5 	bl	22c8 <FLEXCOMM_GetInstance>
    233e:	4601      	mov	r1, r0
    2340:	9101      	str	r1, [sp, #4]
    2342:	f648 1074 	movw	r0, #35188	; 0x8974
    2346:	f2c0 0000 	movt	r0, #0
    234a:	f830 0011 	ldrh.w	r0, [r0, r1, lsl #1]
    234e:	f000 f810 	bl	2372 <CLOCK_EnableClock>
    2352:	9901      	ldr	r1, [sp, #4]
    2354:	f648 1088 	movw	r0, #35208	; 0x8988
    2358:	f2c0 0000 	movt	r0, #0
    235c:	f850 0021 	ldr.w	r0, [r0, r1, lsl #2]
    2360:	f7ff ff35 	bl	21ce <RESET_PeripheralReset>
    2364:	9802      	ldr	r0, [sp, #8]
    2366:	9903      	ldr	r1, [sp, #12]
    2368:	2200      	movs	r2, #0
    236a:	f000 f80d 	bl	2388 <FLEXCOMM_SetPeriph>
    236e:	b004      	add	sp, #16
    2370:	bd80      	pop	{r7, pc}

00002372 <CLOCK_EnableClock>:
    2372:	0a02      	lsrs	r2, r0, #8
    2374:	b2c1      	uxtb	r1, r0
    2376:	2001      	movs	r0, #1
    2378:	4088      	lsls	r0, r1
    237a:	f240 2120 	movw	r1, #544	; 0x220
    237e:	f2c4 0100 	movt	r1, #16384	; 0x4000
    2382:	f841 0022 	str.w	r0, [r1, r2, lsl #2]
    2386:	4770      	bx	lr

00002388 <FLEXCOMM_SetPeriph>:
    2388:	b580      	push	{r7, lr}
    238a:	466f      	mov	r7, sp
    238c:	b084      	sub	sp, #16
    238e:	9201      	str	r2, [sp, #4]
    2390:	9002      	str	r0, [sp, #8]
    2392:	460a      	mov	r2, r1
    2394:	9203      	str	r2, [sp, #12]
    2396:	f000 fa3d 	bl	2814 <FLEXCOMM_PeripheralIsPresent>
    239a:	b918      	cbnz	r0, 23a4 <FLEXCOMM_SetPeriph+0x1c>
    239c:	e7ff      	b.n	239e <FLEXCOMM_SetPeriph+0x16>
    239e:	2003      	movs	r0, #3
    23a0:	9000      	str	r0, [sp, #0]
    23a2:	e027      	b.n	23f4 <FLEXCOMM_SetPeriph+0x6c>
    23a4:	9802      	ldr	r0, [sp, #8]
    23a6:	f8d0 0ff8 	ldr.w	r0, [r0, #4088]	; 0xff8
    23aa:	0700      	lsls	r0, r0, #28
    23ac:	2800      	cmp	r0, #0
    23ae:	d50d      	bpl.n	23cc <FLEXCOMM_SetPeriph+0x44>
    23b0:	e7ff      	b.n	23b2 <FLEXCOMM_SetPeriph+0x2a>
    23b2:	9903      	ldr	r1, [sp, #12]
    23b4:	9802      	ldr	r0, [sp, #8]
    23b6:	f8d0 0ff8 	ldr.w	r0, [r0, #4088]	; 0xff8
    23ba:	f000 0007 	and.w	r0, r0, #7
    23be:	b2c9      	uxtb	r1, r1
    23c0:	4288      	cmp	r0, r1
    23c2:	d003      	beq.n	23cc <FLEXCOMM_SetPeriph+0x44>
    23c4:	e7ff      	b.n	23c6 <FLEXCOMM_SetPeriph+0x3e>
    23c6:	2001      	movs	r0, #1
    23c8:	9000      	str	r0, [sp, #0]
    23ca:	e013      	b.n	23f4 <FLEXCOMM_SetPeriph+0x6c>
    23cc:	9801      	ldr	r0, [sp, #4]
    23ce:	b140      	cbz	r0, 23e2 <FLEXCOMM_SetPeriph+0x5a>
    23d0:	e7ff      	b.n	23d2 <FLEXCOMM_SetPeriph+0x4a>
    23d2:	9902      	ldr	r1, [sp, #8]
    23d4:	9803      	ldr	r0, [sp, #12]
    23d6:	f040 0008 	orr.w	r0, r0, #8
    23da:	b2c0      	uxtb	r0, r0
    23dc:	f8c1 0ff8 	str.w	r0, [r1, #4088]	; 0xff8
    23e0:	e005      	b.n	23ee <FLEXCOMM_SetPeriph+0x66>
    23e2:	9902      	ldr	r1, [sp, #8]
    23e4:	9803      	ldr	r0, [sp, #12]
    23e6:	b2c0      	uxtb	r0, r0
    23e8:	f8c1 0ff8 	str.w	r0, [r1, #4088]	; 0xff8
    23ec:	e7ff      	b.n	23ee <FLEXCOMM_SetPeriph+0x66>
    23ee:	2000      	movs	r0, #0
    23f0:	9000      	str	r0, [sp, #0]
    23f2:	e7ff      	b.n	23f4 <FLEXCOMM_SetPeriph+0x6c>
    23f4:	9800      	ldr	r0, [sp, #0]
    23f6:	b004      	add	sp, #16
    23f8:	bd80      	pop	{r7, pc}

000023fa <FLEXCOMM0_DriverIRQHandler>:
    23fa:	b580      	push	{r7, lr}
    23fc:	466f      	mov	r7, sp
    23fe:	b082      	sub	sp, #8
    2400:	f246 0000 	movw	r0, #24576	; 0x6000
    2404:	f2c4 0008 	movt	r0, #16392	; 0x4008
    2408:	f7ff ff5e 	bl	22c8 <FLEXCOMM_GetInstance>
    240c:	4601      	mov	r1, r0
    240e:	4608      	mov	r0, r1
    2410:	9001      	str	r0, [sp, #4]
    2412:	f240 4094 	movw	r0, #1172	; 0x494
    2416:	f2c2 0000 	movt	r0, #8192	; 0x2000
    241a:	f850 0021 	ldr.w	r0, [r0, r1, lsl #2]
    241e:	b108      	cbz	r0, 2424 <FLEXCOMM0_DriverIRQHandler+0x2a>
    2420:	e7ff      	b.n	2422 <FLEXCOMM0_DriverIRQHandler+0x28>
    2422:	e00e      	b.n	2442 <FLEXCOMM0_DriverIRQHandler+0x48>
    2424:	f648 0000 	movw	r0, #34816	; 0x8800
    2428:	f2c0 0000 	movt	r0, #0
    242c:	f648 0259 	movw	r2, #34905	; 0x8859
    2430:	f2c0 0200 	movt	r2, #0
    2434:	f648 0374 	movw	r3, #34932	; 0x8874
    2438:	f2c0 0300 	movt	r3, #0
    243c:	21ac      	movs	r1, #172	; 0xac
    243e:	f002 fc92 	bl	4d66 <__assert_func>
    2442:	9b01      	ldr	r3, [sp, #4]
    2444:	f240 4094 	movw	r0, #1172	; 0x494
    2448:	f2c2 0000 	movt	r0, #8192	; 0x2000
    244c:	f850 2023 	ldr.w	r2, [r0, r3, lsl #2]
    2450:	f248 70dc 	movw	r0, #34780	; 0x87dc
    2454:	f2c0 0000 	movt	r0, #0
    2458:	f850 0023 	ldr.w	r0, [r0, r3, lsl #2]
    245c:	f240 41b8 	movw	r1, #1208	; 0x4b8
    2460:	f2c2 0100 	movt	r1, #8192	; 0x2000
    2464:	f851 1023 	ldr.w	r1, [r1, r3, lsl #2]
    2468:	4790      	blx	r2
    246a:	b002      	add	sp, #8
    246c:	bd80      	pop	{r7, pc}

0000246e <FLEXCOMM1_DriverIRQHandler>:
    246e:	b580      	push	{r7, lr}
    2470:	466f      	mov	r7, sp
    2472:	b082      	sub	sp, #8
    2474:	f247 0000 	movw	r0, #28672	; 0x7000
    2478:	f2c4 0008 	movt	r0, #16392	; 0x4008
    247c:	f7ff ff24 	bl	22c8 <FLEXCOMM_GetInstance>
    2480:	4601      	mov	r1, r0
    2482:	4608      	mov	r0, r1
    2484:	9001      	str	r0, [sp, #4]
    2486:	f240 4094 	movw	r0, #1172	; 0x494
    248a:	f2c2 0000 	movt	r0, #8192	; 0x2000
    248e:	f850 0021 	ldr.w	r0, [r0, r1, lsl #2]
    2492:	b108      	cbz	r0, 2498 <FLEXCOMM1_DriverIRQHandler+0x2a>
    2494:	e7ff      	b.n	2496 <FLEXCOMM1_DriverIRQHandler+0x28>
    2496:	e00e      	b.n	24b6 <FLEXCOMM1_DriverIRQHandler+0x48>
    2498:	f648 0000 	movw	r0, #34816	; 0x8800
    249c:	f2c0 0000 	movt	r0, #0
    24a0:	f648 029b 	movw	r2, #34971	; 0x889b
    24a4:	f2c0 0200 	movt	r2, #0
    24a8:	f648 0374 	movw	r3, #34932	; 0x8874
    24ac:	f2c0 0300 	movt	r3, #0
    24b0:	21ba      	movs	r1, #186	; 0xba
    24b2:	f002 fc58 	bl	4d66 <__assert_func>
    24b6:	9b01      	ldr	r3, [sp, #4]
    24b8:	f240 4094 	movw	r0, #1172	; 0x494
    24bc:	f2c2 0000 	movt	r0, #8192	; 0x2000
    24c0:	f850 2023 	ldr.w	r2, [r0, r3, lsl #2]
    24c4:	f248 70dc 	movw	r0, #34780	; 0x87dc
    24c8:	f2c0 0000 	movt	r0, #0
    24cc:	f850 0023 	ldr.w	r0, [r0, r3, lsl #2]
    24d0:	f240 41b8 	movw	r1, #1208	; 0x4b8
    24d4:	f2c2 0100 	movt	r1, #8192	; 0x2000
    24d8:	f851 1023 	ldr.w	r1, [r1, r3, lsl #2]
    24dc:	4790      	blx	r2
    24de:	b002      	add	sp, #8
    24e0:	bd80      	pop	{r7, pc}

000024e2 <FLEXCOMM2_DriverIRQHandler>:
    24e2:	b580      	push	{r7, lr}
    24e4:	466f      	mov	r7, sp
    24e6:	b082      	sub	sp, #8
    24e8:	f248 0000 	movw	r0, #32768	; 0x8000
    24ec:	f2c4 0008 	movt	r0, #16392	; 0x4008
    24f0:	f7ff feea 	bl	22c8 <FLEXCOMM_GetInstance>
    24f4:	4601      	mov	r1, r0
    24f6:	4608      	mov	r0, r1
    24f8:	9001      	str	r0, [sp, #4]
    24fa:	f240 4094 	movw	r0, #1172	; 0x494
    24fe:	f2c2 0000 	movt	r0, #8192	; 0x2000
    2502:	f850 0021 	ldr.w	r0, [r0, r1, lsl #2]
    2506:	b108      	cbz	r0, 250c <FLEXCOMM2_DriverIRQHandler+0x2a>
    2508:	e7ff      	b.n	250a <FLEXCOMM2_DriverIRQHandler+0x28>
    250a:	e00e      	b.n	252a <FLEXCOMM2_DriverIRQHandler+0x48>
    250c:	f648 0000 	movw	r0, #34816	; 0x8800
    2510:	f2c0 0000 	movt	r0, #0
    2514:	f648 02b6 	movw	r2, #34998	; 0x88b6
    2518:	f2c0 0200 	movt	r2, #0
    251c:	f648 0374 	movw	r3, #34932	; 0x8874
    2520:	f2c0 0300 	movt	r3, #0
    2524:	21c8      	movs	r1, #200	; 0xc8
    2526:	f002 fc1e 	bl	4d66 <__assert_func>
    252a:	9b01      	ldr	r3, [sp, #4]
    252c:	f240 4094 	movw	r0, #1172	; 0x494
    2530:	f2c2 0000 	movt	r0, #8192	; 0x2000
    2534:	f850 2023 	ldr.w	r2, [r0, r3, lsl #2]
    2538:	f248 70dc 	movw	r0, #34780	; 0x87dc
    253c:	f2c0 0000 	movt	r0, #0
    2540:	f850 0023 	ldr.w	r0, [r0, r3, lsl #2]
    2544:	f240 41b8 	movw	r1, #1208	; 0x4b8
    2548:	f2c2 0100 	movt	r1, #8192	; 0x2000
    254c:	f851 1023 	ldr.w	r1, [r1, r3, lsl #2]
    2550:	4790      	blx	r2
    2552:	b002      	add	sp, #8
    2554:	bd80      	pop	{r7, pc}

00002556 <FLEXCOMM3_DriverIRQHandler>:
    2556:	b580      	push	{r7, lr}
    2558:	466f      	mov	r7, sp
    255a:	b082      	sub	sp, #8
    255c:	f249 0000 	movw	r0, #36864	; 0x9000
    2560:	f2c4 0008 	movt	r0, #16392	; 0x4008
    2564:	f7ff feb0 	bl	22c8 <FLEXCOMM_GetInstance>
    2568:	4601      	mov	r1, r0
    256a:	4608      	mov	r0, r1
    256c:	9001      	str	r0, [sp, #4]
    256e:	f240 4094 	movw	r0, #1172	; 0x494
    2572:	f2c2 0000 	movt	r0, #8192	; 0x2000
    2576:	f850 0021 	ldr.w	r0, [r0, r1, lsl #2]
    257a:	b108      	cbz	r0, 2580 <FLEXCOMM3_DriverIRQHandler+0x2a>
    257c:	e7ff      	b.n	257e <FLEXCOMM3_DriverIRQHandler+0x28>
    257e:	e00e      	b.n	259e <FLEXCOMM3_DriverIRQHandler+0x48>
    2580:	f648 0000 	movw	r0, #34816	; 0x8800
    2584:	f2c0 0000 	movt	r0, #0
    2588:	f648 02d1 	movw	r2, #35025	; 0x88d1
    258c:	f2c0 0200 	movt	r2, #0
    2590:	f648 0374 	movw	r3, #34932	; 0x8874
    2594:	f2c0 0300 	movt	r3, #0
    2598:	21d6      	movs	r1, #214	; 0xd6
    259a:	f002 fbe4 	bl	4d66 <__assert_func>
    259e:	9b01      	ldr	r3, [sp, #4]
    25a0:	f240 4094 	movw	r0, #1172	; 0x494
    25a4:	f2c2 0000 	movt	r0, #8192	; 0x2000
    25a8:	f850 2023 	ldr.w	r2, [r0, r3, lsl #2]
    25ac:	f248 70dc 	movw	r0, #34780	; 0x87dc
    25b0:	f2c0 0000 	movt	r0, #0
    25b4:	f850 0023 	ldr.w	r0, [r0, r3, lsl #2]
    25b8:	f240 41b8 	movw	r1, #1208	; 0x4b8
    25bc:	f2c2 0100 	movt	r1, #8192	; 0x2000
    25c0:	f851 1023 	ldr.w	r1, [r1, r3, lsl #2]
    25c4:	4790      	blx	r2
    25c6:	b002      	add	sp, #8
    25c8:	bd80      	pop	{r7, pc}

000025ca <FLEXCOMM4_DriverIRQHandler>:
    25ca:	b580      	push	{r7, lr}
    25cc:	466f      	mov	r7, sp
    25ce:	b082      	sub	sp, #8
    25d0:	f24a 0000 	movw	r0, #40960	; 0xa000
    25d4:	f2c4 0008 	movt	r0, #16392	; 0x4008
    25d8:	f7ff fe76 	bl	22c8 <FLEXCOMM_GetInstance>
    25dc:	4601      	mov	r1, r0
    25de:	4608      	mov	r0, r1
    25e0:	9001      	str	r0, [sp, #4]
    25e2:	f240 4094 	movw	r0, #1172	; 0x494
    25e6:	f2c2 0000 	movt	r0, #8192	; 0x2000
    25ea:	f850 0021 	ldr.w	r0, [r0, r1, lsl #2]
    25ee:	b108      	cbz	r0, 25f4 <FLEXCOMM4_DriverIRQHandler+0x2a>
    25f0:	e7ff      	b.n	25f2 <FLEXCOMM4_DriverIRQHandler+0x28>
    25f2:	e00e      	b.n	2612 <FLEXCOMM4_DriverIRQHandler+0x48>
    25f4:	f648 0000 	movw	r0, #34816	; 0x8800
    25f8:	f2c0 0000 	movt	r0, #0
    25fc:	f648 02ec 	movw	r2, #35052	; 0x88ec
    2600:	f2c0 0200 	movt	r2, #0
    2604:	f648 0374 	movw	r3, #34932	; 0x8874
    2608:	f2c0 0300 	movt	r3, #0
    260c:	21e4      	movs	r1, #228	; 0xe4
    260e:	f002 fbaa 	bl	4d66 <__assert_func>
    2612:	9b01      	ldr	r3, [sp, #4]
    2614:	f240 4094 	movw	r0, #1172	; 0x494
    2618:	f2c2 0000 	movt	r0, #8192	; 0x2000
    261c:	f850 2023 	ldr.w	r2, [r0, r3, lsl #2]
    2620:	f248 70dc 	movw	r0, #34780	; 0x87dc
    2624:	f2c0 0000 	movt	r0, #0
    2628:	f850 0023 	ldr.w	r0, [r0, r3, lsl #2]
    262c:	f240 41b8 	movw	r1, #1208	; 0x4b8
    2630:	f2c2 0100 	movt	r1, #8192	; 0x2000
    2634:	f851 1023 	ldr.w	r1, [r1, r3, lsl #2]
    2638:	4790      	blx	r2
    263a:	b002      	add	sp, #8
    263c:	bd80      	pop	{r7, pc}

0000263e <FLEXCOMM5_DriverIRQHandler>:
    263e:	b580      	push	{r7, lr}
    2640:	466f      	mov	r7, sp
    2642:	b082      	sub	sp, #8
    2644:	f246 0000 	movw	r0, #24576	; 0x6000
    2648:	f2c4 0009 	movt	r0, #16393	; 0x4009
    264c:	f7ff fe3c 	bl	22c8 <FLEXCOMM_GetInstance>
    2650:	4601      	mov	r1, r0
    2652:	4608      	mov	r0, r1
    2654:	9001      	str	r0, [sp, #4]
    2656:	f240 4094 	movw	r0, #1172	; 0x494
    265a:	f2c2 0000 	movt	r0, #8192	; 0x2000
    265e:	f850 0021 	ldr.w	r0, [r0, r1, lsl #2]
    2662:	b108      	cbz	r0, 2668 <FLEXCOMM5_DriverIRQHandler+0x2a>
    2664:	e7ff      	b.n	2666 <FLEXCOMM5_DriverIRQHandler+0x28>
    2666:	e00e      	b.n	2686 <FLEXCOMM5_DriverIRQHandler+0x48>
    2668:	f648 0000 	movw	r0, #34816	; 0x8800
    266c:	f2c0 0000 	movt	r0, #0
    2670:	f648 1207 	movw	r2, #35079	; 0x8907
    2674:	f2c0 0200 	movt	r2, #0
    2678:	f648 0374 	movw	r3, #34932	; 0x8874
    267c:	f2c0 0300 	movt	r3, #0
    2680:	21f3      	movs	r1, #243	; 0xf3
    2682:	f002 fb70 	bl	4d66 <__assert_func>
    2686:	9b01      	ldr	r3, [sp, #4]
    2688:	f240 4094 	movw	r0, #1172	; 0x494
    268c:	f2c2 0000 	movt	r0, #8192	; 0x2000
    2690:	f850 2023 	ldr.w	r2, [r0, r3, lsl #2]
    2694:	f248 70dc 	movw	r0, #34780	; 0x87dc
    2698:	f2c0 0000 	movt	r0, #0
    269c:	f850 0023 	ldr.w	r0, [r0, r3, lsl #2]
    26a0:	f240 41b8 	movw	r1, #1208	; 0x4b8
    26a4:	f2c2 0100 	movt	r1, #8192	; 0x2000
    26a8:	f851 1023 	ldr.w	r1, [r1, r3, lsl #2]
    26ac:	4790      	blx	r2
    26ae:	b002      	add	sp, #8
    26b0:	bd80      	pop	{r7, pc}

000026b2 <FLEXCOMM6_DriverIRQHandler>:
    26b2:	b580      	push	{r7, lr}
    26b4:	466f      	mov	r7, sp
    26b6:	b082      	sub	sp, #8
    26b8:	f247 0000 	movw	r0, #28672	; 0x7000
    26bc:	f2c4 0009 	movt	r0, #16393	; 0x4009
    26c0:	f7ff fe02 	bl	22c8 <FLEXCOMM_GetInstance>
    26c4:	4601      	mov	r1, r0
    26c6:	4608      	mov	r0, r1
    26c8:	9001      	str	r0, [sp, #4]
    26ca:	f240 4094 	movw	r0, #1172	; 0x494
    26ce:	f2c2 0000 	movt	r0, #8192	; 0x2000
    26d2:	f850 0021 	ldr.w	r0, [r0, r1, lsl #2]
    26d6:	b108      	cbz	r0, 26dc <FLEXCOMM6_DriverIRQHandler+0x2a>
    26d8:	e7ff      	b.n	26da <FLEXCOMM6_DriverIRQHandler+0x28>
    26da:	e00f      	b.n	26fc <FLEXCOMM6_DriverIRQHandler+0x4a>
    26dc:	f648 0000 	movw	r0, #34816	; 0x8800
    26e0:	f2c0 0000 	movt	r0, #0
    26e4:	f648 1222 	movw	r2, #35106	; 0x8922
    26e8:	f2c0 0200 	movt	r2, #0
    26ec:	f648 0374 	movw	r3, #34932	; 0x8874
    26f0:	f2c0 0300 	movt	r3, #0
    26f4:	f240 1101 	movw	r1, #257	; 0x101
    26f8:	f002 fb35 	bl	4d66 <__assert_func>
    26fc:	9b01      	ldr	r3, [sp, #4]
    26fe:	f240 4094 	movw	r0, #1172	; 0x494
    2702:	f2c2 0000 	movt	r0, #8192	; 0x2000
    2706:	f850 2023 	ldr.w	r2, [r0, r3, lsl #2]
    270a:	f248 70dc 	movw	r0, #34780	; 0x87dc
    270e:	f2c0 0000 	movt	r0, #0
    2712:	f850 0023 	ldr.w	r0, [r0, r3, lsl #2]
    2716:	f240 41b8 	movw	r1, #1208	; 0x4b8
    271a:	f2c2 0100 	movt	r1, #8192	; 0x2000
    271e:	f851 1023 	ldr.w	r1, [r1, r3, lsl #2]
    2722:	4790      	blx	r2
    2724:	b002      	add	sp, #8
    2726:	bd80      	pop	{r7, pc}

00002728 <FLEXCOMM7_DriverIRQHandler>:
    2728:	b580      	push	{r7, lr}
    272a:	466f      	mov	r7, sp
    272c:	b082      	sub	sp, #8
    272e:	f248 0000 	movw	r0, #32768	; 0x8000
    2732:	f2c4 0009 	movt	r0, #16393	; 0x4009
    2736:	f7ff fdc7 	bl	22c8 <FLEXCOMM_GetInstance>
    273a:	4601      	mov	r1, r0
    273c:	4608      	mov	r0, r1
    273e:	9001      	str	r0, [sp, #4]
    2740:	f240 4094 	movw	r0, #1172	; 0x494
    2744:	f2c2 0000 	movt	r0, #8192	; 0x2000
    2748:	f850 0021 	ldr.w	r0, [r0, r1, lsl #2]
    274c:	b108      	cbz	r0, 2752 <FLEXCOMM7_DriverIRQHandler+0x2a>
    274e:	e7ff      	b.n	2750 <FLEXCOMM7_DriverIRQHandler+0x28>
    2750:	e00f      	b.n	2772 <FLEXCOMM7_DriverIRQHandler+0x4a>
    2752:	f648 0000 	movw	r0, #34816	; 0x8800
    2756:	f2c0 0000 	movt	r0, #0
    275a:	f648 123d 	movw	r2, #35133	; 0x893d
    275e:	f2c0 0200 	movt	r2, #0
    2762:	f648 0374 	movw	r3, #34932	; 0x8874
    2766:	f2c0 0300 	movt	r3, #0
    276a:	f240 110f 	movw	r1, #271	; 0x10f
    276e:	f002 fafa 	bl	4d66 <__assert_func>
    2772:	9b01      	ldr	r3, [sp, #4]
    2774:	f240 4094 	movw	r0, #1172	; 0x494
    2778:	f2c2 0000 	movt	r0, #8192	; 0x2000
    277c:	f850 2023 	ldr.w	r2, [r0, r3, lsl #2]
    2780:	f248 70dc 	movw	r0, #34780	; 0x87dc
    2784:	f2c0 0000 	movt	r0, #0
    2788:	f850 0023 	ldr.w	r0, [r0, r3, lsl #2]
    278c:	f240 41b8 	movw	r1, #1208	; 0x4b8
    2790:	f2c2 0100 	movt	r1, #8192	; 0x2000
    2794:	f851 1023 	ldr.w	r1, [r1, r3, lsl #2]
    2798:	4790      	blx	r2
    279a:	b002      	add	sp, #8
    279c:	bd80      	pop	{r7, pc}

0000279e <FLEXCOMM8_DriverIRQHandler>:
    279e:	b580      	push	{r7, lr}
    27a0:	466f      	mov	r7, sp
    27a2:	b082      	sub	sp, #8
    27a4:	f24f 0000 	movw	r0, #61440	; 0xf000
    27a8:	f2c4 0009 	movt	r0, #16393	; 0x4009
    27ac:	f7ff fd8c 	bl	22c8 <FLEXCOMM_GetInstance>
    27b0:	4601      	mov	r1, r0
    27b2:	4608      	mov	r0, r1
    27b4:	9001      	str	r0, [sp, #4]
    27b6:	f240 4094 	movw	r0, #1172	; 0x494
    27ba:	f2c2 0000 	movt	r0, #8192	; 0x2000
    27be:	f850 0021 	ldr.w	r0, [r0, r1, lsl #2]
    27c2:	b108      	cbz	r0, 27c8 <FLEXCOMM8_DriverIRQHandler+0x2a>
    27c4:	e7ff      	b.n	27c6 <FLEXCOMM8_DriverIRQHandler+0x28>
    27c6:	e00f      	b.n	27e8 <FLEXCOMM8_DriverIRQHandler+0x4a>
    27c8:	f648 0000 	movw	r0, #34816	; 0x8800
    27cc:	f2c0 0000 	movt	r0, #0
    27d0:	f648 1258 	movw	r2, #35160	; 0x8958
    27d4:	f2c0 0200 	movt	r2, #0
    27d8:	f648 0374 	movw	r3, #34932	; 0x8874
    27dc:	f2c0 0300 	movt	r3, #0
    27e0:	f240 111d 	movw	r1, #285	; 0x11d
    27e4:	f002 fabf 	bl	4d66 <__assert_func>
    27e8:	9b01      	ldr	r3, [sp, #4]
    27ea:	f240 4094 	movw	r0, #1172	; 0x494
    27ee:	f2c2 0000 	movt	r0, #8192	; 0x2000
    27f2:	f850 2023 	ldr.w	r2, [r0, r3, lsl #2]
    27f6:	f248 70dc 	movw	r0, #34780	; 0x87dc
    27fa:	f2c0 0000 	movt	r0, #0
    27fe:	f850 0023 	ldr.w	r0, [r0, r3, lsl #2]
    2802:	f240 41b8 	movw	r1, #1208	; 0x4b8
    2806:	f2c2 0100 	movt	r1, #8192	; 0x2000
    280a:	f851 1023 	ldr.w	r1, [r1, r3, lsl #2]
    280e:	4790      	blx	r2
    2810:	b002      	add	sp, #8
    2812:	bd80      	pop	{r7, pc}

00002814 <FLEXCOMM_PeripheralIsPresent>:
    2814:	b083      	sub	sp, #12
    2816:	9001      	str	r0, [sp, #4]
    2818:	4608      	mov	r0, r1
    281a:	9002      	str	r0, [sp, #8]
    281c:	b919      	cbnz	r1, 2826 <FLEXCOMM_PeripheralIsPresent+0x12>
    281e:	e7ff      	b.n	2820 <FLEXCOMM_PeripheralIsPresent+0xc>
    2820:	2001      	movs	r0, #1
    2822:	9000      	str	r0, [sp, #0]
    2824:	e01f      	b.n	2866 <FLEXCOMM_PeripheralIsPresent+0x52>
    2826:	9802      	ldr	r0, [sp, #8]
    2828:	b2c0      	uxtb	r0, r0
    282a:	2804      	cmp	r0, #4
    282c:	dc0c      	bgt.n	2848 <FLEXCOMM_PeripheralIsPresent+0x34>
    282e:	e7ff      	b.n	2830 <FLEXCOMM_PeripheralIsPresent+0x1c>
    2830:	9a02      	ldr	r2, [sp, #8]
    2832:	9801      	ldr	r0, [sp, #4]
    2834:	f8d0 0ff8 	ldr.w	r0, [r0, #4088]	; 0xff8
    2838:	2103      	movs	r1, #3
    283a:	fa51 f182 	uxtab	r1, r1, r2
    283e:	40c8      	lsrs	r0, r1
    2840:	f000 0001 	and.w	r0, r0, #1
    2844:	9000      	str	r0, [sp, #0]
    2846:	e00e      	b.n	2866 <FLEXCOMM_PeripheralIsPresent+0x52>
    2848:	9802      	ldr	r0, [sp, #8]
    284a:	b2c0      	uxtb	r0, r0
    284c:	2805      	cmp	r0, #5
    284e:	d107      	bne.n	2860 <FLEXCOMM_PeripheralIsPresent+0x4c>
    2850:	e7ff      	b.n	2852 <FLEXCOMM_PeripheralIsPresent+0x3e>
    2852:	9801      	ldr	r0, [sp, #4]
    2854:	f8d0 0ff8 	ldr.w	r0, [r0, #4088]	; 0xff8
    2858:	b2c0      	uxtb	r0, r0
    285a:	09c0      	lsrs	r0, r0, #7
    285c:	9000      	str	r0, [sp, #0]
    285e:	e002      	b.n	2866 <FLEXCOMM_PeripheralIsPresent+0x52>
    2860:	2000      	movs	r0, #0
    2862:	9000      	str	r0, [sp, #0]
    2864:	e7ff      	b.n	2866 <FLEXCOMM_PeripheralIsPresent+0x52>
    2866:	9800      	ldr	r0, [sp, #0]
    2868:	f000 0001 	and.w	r0, r0, #1
    286c:	b003      	add	sp, #12
    286e:	4770      	bx	lr

00002870 <USART_Init>:
    2870:	b5d0      	push	{r4, r6, r7, lr}
    2872:	af02      	add	r7, sp, #8
    2874:	b086      	sub	sp, #24
    2876:	9203      	str	r2, [sp, #12]
    2878:	9104      	str	r1, [sp, #16]
    287a:	9005      	str	r0, [sp, #20]
    287c:	b138      	cbz	r0, 288e <USART_Init+0x1e>
    287e:	e7ff      	b.n	2880 <USART_Init+0x10>
    2880:	9804      	ldr	r0, [sp, #16]
    2882:	b120      	cbz	r0, 288e <USART_Init+0x1e>
    2884:	e7ff      	b.n	2886 <USART_Init+0x16>
    2886:	9803      	ldr	r0, [sp, #12]
    2888:	b108      	cbz	r0, 288e <USART_Init+0x1e>
    288a:	e7ff      	b.n	288c <USART_Init+0x1c>
    288c:	e00e      	b.n	28ac <USART_Init+0x3c>
    288e:	f648 10ac 	movw	r0, #35244	; 0x89ac
    2892:	f2c0 0000 	movt	r0, #0
    2896:	f648 228a 	movw	r2, #35466	; 0x8a8a
    289a:	f2c0 0200 	movt	r2, #0
    289e:	f648 2395 	movw	r3, #35477	; 0x8a95
    28a2:	f2c0 0300 	movt	r3, #0
    28a6:	21c6      	movs	r1, #198	; 0xc6
    28a8:	f002 fa5d 	bl	4d66 <__assert_func>
    28ac:	9805      	ldr	r0, [sp, #20]
    28ae:	b130      	cbz	r0, 28be <USART_Init+0x4e>
    28b0:	e7ff      	b.n	28b2 <USART_Init+0x42>
    28b2:	9804      	ldr	r0, [sp, #16]
    28b4:	b118      	cbz	r0, 28be <USART_Init+0x4e>
    28b6:	e7ff      	b.n	28b8 <USART_Init+0x48>
    28b8:	9803      	ldr	r0, [sp, #12]
    28ba:	b918      	cbnz	r0, 28c4 <USART_Init+0x54>
    28bc:	e7ff      	b.n	28be <USART_Init+0x4e>
    28be:	2004      	movs	r0, #4
    28c0:	9002      	str	r0, [sp, #8]
    28c2:	e0b6      	b.n	2a32 <USART_Init+0x1c2>
    28c4:	9805      	ldr	r0, [sp, #20]
    28c6:	2101      	movs	r1, #1
    28c8:	f7ff fd32 	bl	2330 <FLEXCOMM_Init>
    28cc:	4601      	mov	r1, r0
    28ce:	9101      	str	r1, [sp, #4]
    28d0:	b118      	cbz	r0, 28da <USART_Init+0x6a>
    28d2:	e7ff      	b.n	28d4 <USART_Init+0x64>
    28d4:	9801      	ldr	r0, [sp, #4]
    28d6:	9002      	str	r0, [sp, #8]
    28d8:	e0ab      	b.n	2a32 <USART_Init+0x1c2>
    28da:	9804      	ldr	r0, [sp, #16]
    28dc:	7a40      	ldrb	r0, [r0, #9]
    28de:	07c0      	lsls	r0, r0, #31
    28e0:	b1f0      	cbz	r0, 2920 <USART_Init+0xb0>
    28e2:	e7ff      	b.n	28e4 <USART_Init+0x74>
    28e4:	9905      	ldr	r1, [sp, #20]
    28e6:	9804      	ldr	r0, [sp, #16]
    28e8:	f8d1 2e00 	ldr.w	r2, [r1, #3584]	; 0xe00
    28ec:	f042 1201 	orr.w	r2, r2, #65537	; 0x10001
    28f0:	f8c1 2e00 	str.w	r2, [r1, #3584]	; 0xe00
    28f4:	f8d1 2e08 	ldr.w	r2, [r1, #3592]	; 0xe08
    28f8:	f422 6270 	bic.w	r2, r2, #3840	; 0xf00
    28fc:	f8c1 2e08 	str.w	r2, [r1, #3592]	; 0xe08
    2900:	7b40      	ldrb	r0, [r0, #13]
    2902:	f000 020f 	and.w	r2, r0, #15
    2906:	f8d1 0e08 	ldr.w	r0, [r1, #3592]	; 0xe08
    290a:	ea40 2002 	orr.w	r0, r0, r2, lsl #8
    290e:	f8c1 0e08 	str.w	r0, [r1, #3592]	; 0xe08
    2912:	f8d1 0e08 	ldr.w	r0, [r1, #3592]	; 0xe08
    2916:	f040 0001 	orr.w	r0, r0, #1
    291a:	f8c1 0e08 	str.w	r0, [r1, #3592]	; 0xe08
    291e:	e7ff      	b.n	2920 <USART_Init+0xb0>
    2920:	9804      	ldr	r0, [sp, #16]
    2922:	7a00      	ldrb	r0, [r0, #8]
    2924:	07c0      	lsls	r0, r0, #31
    2926:	b1f0      	cbz	r0, 2966 <USART_Init+0xf6>
    2928:	e7ff      	b.n	292a <USART_Init+0xba>
    292a:	9905      	ldr	r1, [sp, #20]
    292c:	9804      	ldr	r0, [sp, #16]
    292e:	f8d1 2e00 	ldr.w	r2, [r1, #3584]	; 0xe00
    2932:	f042 1202 	orr.w	r2, r2, #131074	; 0x20002
    2936:	f8c1 2e00 	str.w	r2, [r1, #3584]	; 0xe00
    293a:	f8d1 2e08 	ldr.w	r2, [r1, #3592]	; 0xe08
    293e:	f422 2270 	bic.w	r2, r2, #983040	; 0xf0000
    2942:	f8c1 2e08 	str.w	r2, [r1, #3592]	; 0xe08
    2946:	7b80      	ldrb	r0, [r0, #14]
    2948:	f000 020f 	and.w	r2, r0, #15
    294c:	f8d1 0e08 	ldr.w	r0, [r1, #3592]	; 0xe08
    2950:	ea40 4002 	orr.w	r0, r0, r2, lsl #16
    2954:	f8c1 0e08 	str.w	r0, [r1, #3592]	; 0xe08
    2958:	f8d1 0e08 	ldr.w	r0, [r1, #3592]	; 0xe08
    295c:	f040 0002 	orr.w	r0, r0, #2
    2960:	f8c1 0e08 	str.w	r0, [r1, #3592]	; 0xe08
    2964:	e7ff      	b.n	2966 <USART_Init+0xf6>
    2966:	9804      	ldr	r0, [sp, #16]
    2968:	9a05      	ldr	r2, [sp, #20]
    296a:	f890 e004 	ldrb.w	lr, [r0, #4]
    296e:	7944      	ldrb	r4, [r0, #5]
    2970:	f890 c006 	ldrb.w	ip, [r0, #6]
    2974:	79c3      	ldrb	r3, [r0, #7]
    2976:	2140      	movs	r1, #64	; 0x40
    2978:	ea01 1184 	and.w	r1, r1, r4, lsl #6
    297c:	f36e 1105 	bfi	r1, lr, #4, #2
    2980:	f00c 0c03 	and.w	ip, ip, #3
    2984:	ea41 018c 	orr.w	r1, r1, ip, lsl #2
    2988:	f003 0301 	and.w	r3, r3, #1
    298c:	ea41 31c3 	orr.w	r1, r1, r3, lsl #15
    2990:	7bc3      	ldrb	r3, [r0, #15]
    2992:	f003 0c02 	and.w	ip, r3, #2
    2996:	ea41 218c 	orr.w	r1, r1, ip, lsl #10
    299a:	f003 0301 	and.w	r3, r3, #1
    299e:	ea41 3183 	orr.w	r1, r1, r3, lsl #14
    29a2:	7c03      	ldrb	r3, [r0, #16]
    29a4:	f003 0301 	and.w	r3, r3, #1
    29a8:	ea41 3103 	orr.w	r1, r1, r3, lsl #12
    29ac:	7ac3      	ldrb	r3, [r0, #11]
    29ae:	f003 0301 	and.w	r3, r3, #1
    29b2:	ea41 11c3 	orr.w	r1, r1, r3, lsl #7
    29b6:	7b03      	ldrb	r3, [r0, #12]
    29b8:	f003 0301 	and.w	r3, r3, #1
    29bc:	ea41 2143 	orr.w	r1, r1, r3, lsl #9
    29c0:	f041 0101 	orr.w	r1, r1, #1
    29c4:	6011      	str	r1, [r2, #0]
    29c6:	7ac0      	ldrb	r0, [r0, #11]
    29c8:	07c0      	lsls	r0, r0, #31
    29ca:	b1d0      	cbz	r0, 2a02 <USART_Init+0x192>
    29cc:	e7ff      	b.n	29ce <USART_Init+0x15e>
    29ce:	9804      	ldr	r0, [sp, #16]
    29d0:	6801      	ldr	r1, [r0, #0]
    29d2:	f44f 5016 	mov.w	r0, #9600	; 0x2580
    29d6:	fbb0 f0f1 	udiv	r0, r0, r1
    29da:	4348      	muls	r0, r1
    29dc:	f5c0 5016 	rsb	r0, r0, #9600	; 0x2580
    29e0:	b950      	cbnz	r0, 29f8 <USART_Init+0x188>
    29e2:	e7ff      	b.n	29e4 <USART_Init+0x174>
    29e4:	9905      	ldr	r1, [sp, #20]
    29e6:	9804      	ldr	r0, [sp, #16]
    29e8:	6802      	ldr	r2, [r0, #0]
    29ea:	f44f 5016 	mov.w	r0, #9600	; 0x2580
    29ee:	fbb0 f0f2 	udiv	r0, r0, r2
    29f2:	3801      	subs	r0, #1
    29f4:	6208      	str	r0, [r1, #32]
    29f6:	e003      	b.n	2a00 <USART_Init+0x190>
    29f8:	f241 6051 	movw	r0, #5713	; 0x1651
    29fc:	9002      	str	r0, [sp, #8]
    29fe:	e018      	b.n	2a32 <USART_Init+0x1c2>
    2a00:	e00d      	b.n	2a1e <USART_Init+0x1ae>
    2a02:	9a03      	ldr	r2, [sp, #12]
    2a04:	9805      	ldr	r0, [sp, #20]
    2a06:	9904      	ldr	r1, [sp, #16]
    2a08:	6809      	ldr	r1, [r1, #0]
    2a0a:	f000 f815 	bl	2a38 <USART_SetBaudRate>
    2a0e:	4601      	mov	r1, r0
    2a10:	9100      	str	r1, [sp, #0]
    2a12:	b118      	cbz	r0, 2a1c <USART_Init+0x1ac>
    2a14:	e7ff      	b.n	2a16 <USART_Init+0x1a6>
    2a16:	9800      	ldr	r0, [sp, #0]
    2a18:	9002      	str	r0, [sp, #8]
    2a1a:	e00a      	b.n	2a32 <USART_Init+0x1c2>
    2a1c:	e7ff      	b.n	2a1e <USART_Init+0x1ae>
    2a1e:	9805      	ldr	r0, [sp, #20]
    2a20:	9904      	ldr	r1, [sp, #16]
    2a22:	7a89      	ldrb	r1, [r1, #10]
    2a24:	f001 0101 	and.w	r1, r1, #1
    2a28:	f000 f900 	bl	2c2c <USART_EnableContinuousSCLK>
    2a2c:	2000      	movs	r0, #0
    2a2e:	9002      	str	r0, [sp, #8]
    2a30:	e7ff      	b.n	2a32 <USART_Init+0x1c2>
    2a32:	9802      	ldr	r0, [sp, #8]
    2a34:	b006      	add	sp, #24
    2a36:	bdd0      	pop	{r4, r6, r7, pc}

00002a38 <USART_SetBaudRate>:
    2a38:	b580      	push	{r7, lr}
    2a3a:	466f      	mov	r7, sp
    2a3c:	b09a      	sub	sp, #104	; 0x68
    2a3e:	9217      	str	r2, [sp, #92]	; 0x5c
    2a40:	9118      	str	r1, [sp, #96]	; 0x60
    2a42:	9019      	str	r0, [sp, #100]	; 0x64
    2a44:	b138      	cbz	r0, 2a56 <USART_SetBaudRate+0x1e>
    2a46:	e7ff      	b.n	2a48 <USART_SetBaudRate+0x10>
    2a48:	9818      	ldr	r0, [sp, #96]	; 0x60
    2a4a:	b120      	cbz	r0, 2a56 <USART_SetBaudRate+0x1e>
    2a4c:	e7ff      	b.n	2a4e <USART_SetBaudRate+0x16>
    2a4e:	9817      	ldr	r0, [sp, #92]	; 0x5c
    2a50:	b108      	cbz	r0, 2a56 <USART_SetBaudRate+0x1e>
    2a52:	e7ff      	b.n	2a54 <USART_SetBaudRate+0x1c>
    2a54:	e00f      	b.n	2a76 <USART_SetBaudRate+0x3e>
    2a56:	f648 10ac 	movw	r0, #35244	; 0x89ac
    2a5a:	f2c0 0000 	movt	r0, #0
    2a5e:	f648 3205 	movw	r2, #35589	; 0x8b05
    2a62:	f2c0 0200 	movt	r2, #0
    2a66:	f648 3317 	movw	r3, #35607	; 0x8b17
    2a6a:	f2c0 0300 	movt	r3, #0
    2a6e:	f240 11af 	movw	r1, #431	; 0x1af
    2a72:	f002 f978 	bl	4d66 <__assert_func>
    2a76:	9819      	ldr	r0, [sp, #100]	; 0x64
    2a78:	b130      	cbz	r0, 2a88 <USART_SetBaudRate+0x50>
    2a7a:	e7ff      	b.n	2a7c <USART_SetBaudRate+0x44>
    2a7c:	9818      	ldr	r0, [sp, #96]	; 0x60
    2a7e:	b118      	cbz	r0, 2a88 <USART_SetBaudRate+0x50>
    2a80:	e7ff      	b.n	2a82 <USART_SetBaudRate+0x4a>
    2a82:	9817      	ldr	r0, [sp, #92]	; 0x5c
    2a84:	b918      	cbnz	r0, 2a8e <USART_SetBaudRate+0x56>
    2a86:	e7ff      	b.n	2a88 <USART_SetBaudRate+0x50>
    2a88:	2004      	movs	r0, #4
    2a8a:	9016      	str	r0, [sp, #88]	; 0x58
    2a8c:	e0cb      	b.n	2c26 <USART_SetBaudRate+0x1ee>
    2a8e:	9819      	ldr	r0, [sp, #100]	; 0x64
    2a90:	6800      	ldr	r0, [r0, #0]
    2a92:	0500      	lsls	r0, r0, #20
    2a94:	2800      	cmp	r0, #0
    2a96:	d50f      	bpl.n	2ab8 <USART_SetBaudRate+0x80>
    2a98:	e7ff      	b.n	2a9a <USART_SetBaudRate+0x62>
    2a9a:	9819      	ldr	r0, [sp, #100]	; 0x64
    2a9c:	6800      	ldr	r0, [r0, #0]
    2a9e:	0440      	lsls	r0, r0, #17
    2aa0:	2800      	cmp	r0, #0
    2aa2:	d508      	bpl.n	2ab6 <USART_SetBaudRate+0x7e>
    2aa4:	e7ff      	b.n	2aa6 <USART_SetBaudRate+0x6e>
    2aa6:	9919      	ldr	r1, [sp, #100]	; 0x64
    2aa8:	9817      	ldr	r0, [sp, #92]	; 0x5c
    2aaa:	9a18      	ldr	r2, [sp, #96]	; 0x60
    2aac:	fbb0 f0f2 	udiv	r0, r0, r2
    2ab0:	3801      	subs	r0, #1
    2ab2:	6208      	str	r0, [r1, #32]
    2ab4:	e7ff      	b.n	2ab6 <USART_SetBaudRate+0x7e>
    2ab6:	e0b3      	b.n	2c20 <USART_SetBaudRate+0x1e8>
    2ab8:	9818      	ldr	r0, [sp, #96]	; 0x60
    2aba:	f248 511f 	movw	r1, #34079	; 0x851f
    2abe:	f2c5 11eb 	movt	r1, #20971	; 0x51eb
    2ac2:	fba0 1001 	umull	r1, r0, r0, r1
    2ac6:	0940      	lsrs	r0, r0, #5
    2ac8:	eb00 0240 	add.w	r2, r0, r0, lsl #1
    2acc:	f04f 30ff 	mov.w	r0, #4294967295	; 0xffffffff
    2ad0:	210f      	movs	r1, #15
    2ad2:	9211      	str	r2, [sp, #68]	; 0x44
    2ad4:	460a      	mov	r2, r1
    2ad6:	9212      	str	r2, [sp, #72]	; 0x48
    2ad8:	4602      	mov	r2, r0
    2ada:	9213      	str	r2, [sp, #76]	; 0x4c
    2adc:	9114      	str	r1, [sp, #80]	; 0x50
    2ade:	9015      	str	r0, [sp, #84]	; 0x54
    2ae0:	e7ff      	b.n	2ae2 <USART_SetBaudRate+0xaa>
    2ae2:	9812      	ldr	r0, [sp, #72]	; 0x48
    2ae4:	9913      	ldr	r1, [sp, #76]	; 0x4c
    2ae6:	9a14      	ldr	r2, [sp, #80]	; 0x50
    2ae8:	9b15      	ldr	r3, [sp, #84]	; 0x54
    2aea:	930d      	str	r3, [sp, #52]	; 0x34
    2aec:	920e      	str	r2, [sp, #56]	; 0x38
    2aee:	910f      	str	r1, [sp, #60]	; 0x3c
    2af0:	9010      	str	r0, [sp, #64]	; 0x40
    2af2:	2804      	cmp	r0, #4
    2af4:	d364      	bcc.n	2bc0 <USART_SetBaudRate+0x188>
    2af6:	e7ff      	b.n	2af8 <USART_SetBaudRate+0xc0>
    2af8:	9810      	ldr	r0, [sp, #64]	; 0x40
    2afa:	2808      	cmp	r0, #8
    2afc:	d806      	bhi.n	2b0c <USART_SetBaudRate+0xd4>
    2afe:	e7ff      	b.n	2b00 <USART_SetBaudRate+0xc8>
    2b00:	980d      	ldr	r0, [sp, #52]	; 0x34
    2b02:	9911      	ldr	r1, [sp, #68]	; 0x44
    2b04:	4288      	cmp	r0, r1
    2b06:	d801      	bhi.n	2b0c <USART_SetBaudRate+0xd4>
    2b08:	e7ff      	b.n	2b0a <USART_SetBaudRate+0xd2>
    2b0a:	e059      	b.n	2bc0 <USART_SetBaudRate+0x188>
    2b0c:	9a18      	ldr	r2, [sp, #96]	; 0x60
    2b0e:	9910      	ldr	r1, [sp, #64]	; 0x40
    2b10:	9817      	ldr	r0, [sp, #92]	; 0x5c
    2b12:	eb00 0080 	add.w	r0, r0, r0, lsl #2
    2b16:	0040      	lsls	r0, r0, #1
    2b18:	3101      	adds	r1, #1
    2b1a:	4351      	muls	r1, r2
    2b1c:	fbb0 f0f1 	udiv	r0, r0, r1
    2b20:	3805      	subs	r0, #5
    2b22:	f64c 41cd 	movw	r1, #52429	; 0xcccd
    2b26:	f6cc 41cc 	movt	r1, #52428	; 0xcccc
    2b2a:	fba0 1001 	umull	r1, r0, r0, r1
    2b2e:	08c0      	lsrs	r0, r0, #3
    2b30:	4601      	mov	r1, r0
    2b32:	910c      	str	r1, [sp, #48]	; 0x30
    2b34:	f5b0 3f80 	cmp.w	r0, #65536	; 0x10000
    2b38:	d307      	bcc.n	2b4a <USART_SetBaudRate+0x112>
    2b3a:	e7ff      	b.n	2b3c <USART_SetBaudRate+0x104>
    2b3c:	980d      	ldr	r0, [sp, #52]	; 0x34
    2b3e:	990e      	ldr	r1, [sp, #56]	; 0x38
    2b40:	9a0f      	ldr	r2, [sp, #60]	; 0x3c
    2b42:	9209      	str	r2, [sp, #36]	; 0x24
    2b44:	910a      	str	r1, [sp, #40]	; 0x28
    2b46:	900b      	str	r0, [sp, #44]	; 0x2c
    2b48:	e030      	b.n	2bac <USART_SetBaudRate+0x174>
    2b4a:	9818      	ldr	r0, [sp, #96]	; 0x60
    2b4c:	9917      	ldr	r1, [sp, #92]	; 0x5c
    2b4e:	9b0c      	ldr	r3, [sp, #48]	; 0x30
    2b50:	9a10      	ldr	r2, [sp, #64]	; 0x40
    2b52:	3201      	adds	r2, #1
    2b54:	3301      	adds	r3, #1
    2b56:	435a      	muls	r2, r3
    2b58:	fbb1 f1f2 	udiv	r1, r1, r2
    2b5c:	460a      	mov	r2, r1
    2b5e:	9208      	str	r2, [sp, #32]
    2b60:	4288      	cmp	r0, r1
    2b62:	d205      	bcs.n	2b70 <USART_SetBaudRate+0x138>
    2b64:	e7ff      	b.n	2b66 <USART_SetBaudRate+0x12e>
    2b66:	9808      	ldr	r0, [sp, #32]
    2b68:	9918      	ldr	r1, [sp, #96]	; 0x60
    2b6a:	1a40      	subs	r0, r0, r1
    2b6c:	9007      	str	r0, [sp, #28]
    2b6e:	e004      	b.n	2b7a <USART_SetBaudRate+0x142>
    2b70:	9818      	ldr	r0, [sp, #96]	; 0x60
    2b72:	9908      	ldr	r1, [sp, #32]
    2b74:	1a40      	subs	r0, r0, r1
    2b76:	9007      	str	r0, [sp, #28]
    2b78:	e7ff      	b.n	2b7a <USART_SetBaudRate+0x142>
    2b7a:	980d      	ldr	r0, [sp, #52]	; 0x34
    2b7c:	990e      	ldr	r1, [sp, #56]	; 0x38
    2b7e:	9a0f      	ldr	r2, [sp, #60]	; 0x3c
    2b80:	9b07      	ldr	r3, [sp, #28]
    2b82:	9303      	str	r3, [sp, #12]
    2b84:	4283      	cmp	r3, r0
    2b86:	9204      	str	r2, [sp, #16]
    2b88:	9105      	str	r1, [sp, #20]
    2b8a:	9006      	str	r0, [sp, #24]
    2b8c:	d207      	bcs.n	2b9e <USART_SetBaudRate+0x166>
    2b8e:	e7ff      	b.n	2b90 <USART_SetBaudRate+0x158>
    2b90:	9803      	ldr	r0, [sp, #12]
    2b92:	9910      	ldr	r1, [sp, #64]	; 0x40
    2b94:	9a0c      	ldr	r2, [sp, #48]	; 0x30
    2b96:	9204      	str	r2, [sp, #16]
    2b98:	9105      	str	r1, [sp, #20]
    2b9a:	9006      	str	r0, [sp, #24]
    2b9c:	e7ff      	b.n	2b9e <USART_SetBaudRate+0x166>
    2b9e:	9a04      	ldr	r2, [sp, #16]
    2ba0:	9905      	ldr	r1, [sp, #20]
    2ba2:	9806      	ldr	r0, [sp, #24]
    2ba4:	9209      	str	r2, [sp, #36]	; 0x24
    2ba6:	910a      	str	r1, [sp, #40]	; 0x28
    2ba8:	900b      	str	r0, [sp, #44]	; 0x2c
    2baa:	e7ff      	b.n	2bac <USART_SetBaudRate+0x174>
    2bac:	9b10      	ldr	r3, [sp, #64]	; 0x40
    2bae:	9a09      	ldr	r2, [sp, #36]	; 0x24
    2bb0:	990a      	ldr	r1, [sp, #40]	; 0x28
    2bb2:	980b      	ldr	r0, [sp, #44]	; 0x2c
    2bb4:	3b01      	subs	r3, #1
    2bb6:	9312      	str	r3, [sp, #72]	; 0x48
    2bb8:	9213      	str	r2, [sp, #76]	; 0x4c
    2bba:	9114      	str	r1, [sp, #80]	; 0x50
    2bbc:	9015      	str	r0, [sp, #84]	; 0x54
    2bbe:	e790      	b.n	2ae2 <USART_SetBaudRate+0xaa>
    2bc0:	9818      	ldr	r0, [sp, #96]	; 0x60
    2bc2:	9917      	ldr	r1, [sp, #92]	; 0x5c
    2bc4:	9b0f      	ldr	r3, [sp, #60]	; 0x3c
    2bc6:	9a0e      	ldr	r2, [sp, #56]	; 0x38
    2bc8:	3201      	adds	r2, #1
    2bca:	3301      	adds	r3, #1
    2bcc:	435a      	muls	r2, r3
    2bce:	fbb1 f1f2 	udiv	r1, r1, r2
    2bd2:	460a      	mov	r2, r1
    2bd4:	9202      	str	r2, [sp, #8]
    2bd6:	4288      	cmp	r0, r1
    2bd8:	d205      	bcs.n	2be6 <USART_SetBaudRate+0x1ae>
    2bda:	e7ff      	b.n	2bdc <USART_SetBaudRate+0x1a4>
    2bdc:	9802      	ldr	r0, [sp, #8]
    2bde:	9918      	ldr	r1, [sp, #96]	; 0x60
    2be0:	1a40      	subs	r0, r0, r1
    2be2:	9001      	str	r0, [sp, #4]
    2be4:	e004      	b.n	2bf0 <USART_SetBaudRate+0x1b8>
    2be6:	9818      	ldr	r0, [sp, #96]	; 0x60
    2be8:	9902      	ldr	r1, [sp, #8]
    2bea:	1a40      	subs	r0, r0, r1
    2bec:	9001      	str	r0, [sp, #4]
    2bee:	e7ff      	b.n	2bf0 <USART_SetBaudRate+0x1b8>
    2bf0:	9911      	ldr	r1, [sp, #68]	; 0x44
    2bf2:	9801      	ldr	r0, [sp, #4]
    2bf4:	4288      	cmp	r0, r1
    2bf6:	d904      	bls.n	2c02 <USART_SetBaudRate+0x1ca>
    2bf8:	e7ff      	b.n	2bfa <USART_SetBaudRate+0x1c2>
    2bfa:	f241 6051 	movw	r0, #5713	; 0x1651
    2bfe:	9016      	str	r0, [sp, #88]	; 0x58
    2c00:	e011      	b.n	2c26 <USART_SetBaudRate+0x1ee>
    2c02:	980f      	ldr	r0, [sp, #60]	; 0x3c
    2c04:	f5b0 3f80 	cmp.w	r0, #65536	; 0x10000
    2c08:	d304      	bcc.n	2c14 <USART_SetBaudRate+0x1dc>
    2c0a:	e7ff      	b.n	2c0c <USART_SetBaudRate+0x1d4>
    2c0c:	f241 6051 	movw	r0, #5713	; 0x1651
    2c10:	9016      	str	r0, [sp, #88]	; 0x58
    2c12:	e008      	b.n	2c26 <USART_SetBaudRate+0x1ee>
    2c14:	980f      	ldr	r0, [sp, #60]	; 0x3c
    2c16:	9919      	ldr	r1, [sp, #100]	; 0x64
    2c18:	9a0e      	ldr	r2, [sp, #56]	; 0x38
    2c1a:	628a      	str	r2, [r1, #40]	; 0x28
    2c1c:	6208      	str	r0, [r1, #32]
    2c1e:	e7ff      	b.n	2c20 <USART_SetBaudRate+0x1e8>
    2c20:	2000      	movs	r0, #0
    2c22:	9016      	str	r0, [sp, #88]	; 0x58
    2c24:	e7ff      	b.n	2c26 <USART_SetBaudRate+0x1ee>
    2c26:	9816      	ldr	r0, [sp, #88]	; 0x58
    2c28:	b01a      	add	sp, #104	; 0x68
    2c2a:	bd80      	pop	{r7, pc}

00002c2c <USART_EnableContinuousSCLK>:
    2c2c:	b081      	sub	sp, #4
    2c2e:	9000      	str	r0, [sp, #0]
    2c30:	b131      	cbz	r1, 2c40 <USART_EnableContinuousSCLK+0x14>
    2c32:	e7ff      	b.n	2c34 <USART_EnableContinuousSCLK+0x8>
    2c34:	9900      	ldr	r1, [sp, #0]
    2c36:	6848      	ldr	r0, [r1, #4]
    2c38:	f440 7080 	orr.w	r0, r0, #256	; 0x100
    2c3c:	6048      	str	r0, [r1, #4]
    2c3e:	e005      	b.n	2c4c <USART_EnableContinuousSCLK+0x20>
    2c40:	9900      	ldr	r1, [sp, #0]
    2c42:	6848      	ldr	r0, [r1, #4]
    2c44:	f420 7080 	bic.w	r0, r0, #256	; 0x100
    2c48:	6048      	str	r0, [r1, #4]
    2c4a:	e7ff      	b.n	2c4c <USART_EnableContinuousSCLK+0x20>
    2c4c:	b001      	add	sp, #4
    2c4e:	4770      	bx	lr

00002c50 <USART_GetDefaultConfig>:
    2c50:	b580      	push	{r7, lr}
    2c52:	466f      	mov	r7, sp
    2c54:	b082      	sub	sp, #8
    2c56:	9001      	str	r0, [sp, #4]
    2c58:	b108      	cbz	r0, 2c5e <USART_GetDefaultConfig+0xe>
    2c5a:	e7ff      	b.n	2c5c <USART_GetDefaultConfig+0xc>
    2c5c:	e00f      	b.n	2c7e <USART_GetDefaultConfig+0x2e>
    2c5e:	f648 10ac 	movw	r0, #35244	; 0x89ac
    2c62:	f2c0 0000 	movt	r0, #0
    2c66:	f648 22df 	movw	r2, #35551	; 0x8adf
    2c6a:	f2c0 0200 	movt	r2, #0
    2c6e:	f648 23f6 	movw	r3, #35574	; 0x8af6
    2c72:	f2c0 0300 	movt	r3, #0
    2c76:	f44f 719b 	mov.w	r1, #310	; 0x136
    2c7a:	f002 f874 	bl	4d66 <__assert_func>
    2c7e:	9801      	ldr	r0, [sp, #4]
    2c80:	2100      	movs	r1, #0
    2c82:	9100      	str	r1, [sp, #0]
    2c84:	2214      	movs	r2, #20
    2c86:	f005 fbbd 	bl	8404 <memset>
    2c8a:	9901      	ldr	r1, [sp, #4]
    2c8c:	9800      	ldr	r0, [sp, #0]
    2c8e:	f44f 32e1 	mov.w	r2, #115200	; 0x1c200
    2c92:	600a      	str	r2, [r1, #0]
    2c94:	7108      	strb	r0, [r1, #4]
    2c96:	7148      	strb	r0, [r1, #5]
    2c98:	2201      	movs	r2, #1
    2c9a:	718a      	strb	r2, [r1, #6]
    2c9c:	71c8      	strb	r0, [r1, #7]
    2c9e:	7208      	strb	r0, [r1, #8]
    2ca0:	7248      	strb	r0, [r1, #9]
    2ca2:	72c8      	strb	r0, [r1, #11]
    2ca4:	7348      	strb	r0, [r1, #13]
    2ca6:	7388      	strb	r0, [r1, #14]
    2ca8:	73c8      	strb	r0, [r1, #15]
    2caa:	7288      	strb	r0, [r1, #10]
    2cac:	7408      	strb	r0, [r1, #16]
    2cae:	7308      	strb	r0, [r1, #12]
    2cb0:	b002      	add	sp, #8
    2cb2:	bd80      	pop	{r7, pc}

00002cb4 <USART_WriteBlocking>:
    2cb4:	b580      	push	{r7, lr}
    2cb6:	466f      	mov	r7, sp
    2cb8:	b08a      	sub	sp, #40	; 0x28
    2cba:	9207      	str	r2, [sp, #28]
    2cbc:	9108      	str	r1, [sp, #32]
    2cbe:	9009      	str	r0, [sp, #36]	; 0x24
    2cc0:	b120      	cbz	r0, 2ccc <USART_WriteBlocking+0x18>
    2cc2:	e7ff      	b.n	2cc4 <USART_WriteBlocking+0x10>
    2cc4:	9808      	ldr	r0, [sp, #32]
    2cc6:	b108      	cbz	r0, 2ccc <USART_WriteBlocking+0x18>
    2cc8:	e7ff      	b.n	2cca <USART_WriteBlocking+0x16>
    2cca:	e00f      	b.n	2cec <USART_WriteBlocking+0x38>
    2ccc:	f648 10ac 	movw	r0, #35244	; 0x89ac
    2cd0:	f2c0 0000 	movt	r0, #0
    2cd4:	f648 328c 	movw	r2, #35724	; 0x8b8c
    2cd8:	f2c0 0200 	movt	r2, #0
    2cdc:	f648 33a0 	movw	r3, #35744	; 0x8ba0
    2ce0:	f2c0 0300 	movt	r3, #0
    2ce4:	f240 215b 	movw	r1, #603	; 0x25b
    2ce8:	f002 f83d 	bl	4d66 <__assert_func>
    2cec:	9809      	ldr	r0, [sp, #36]	; 0x24
    2cee:	b118      	cbz	r0, 2cf8 <USART_WriteBlocking+0x44>
    2cf0:	e7ff      	b.n	2cf2 <USART_WriteBlocking+0x3e>
    2cf2:	9808      	ldr	r0, [sp, #32]
    2cf4:	b918      	cbnz	r0, 2cfe <USART_WriteBlocking+0x4a>
    2cf6:	e7ff      	b.n	2cf8 <USART_WriteBlocking+0x44>
    2cf8:	2004      	movs	r0, #4
    2cfa:	9006      	str	r0, [sp, #24]
    2cfc:	e035      	b.n	2d6a <USART_WriteBlocking+0xb6>
    2cfe:	9809      	ldr	r0, [sp, #36]	; 0x24
    2d00:	f8d0 0e00 	ldr.w	r0, [r0, #3584]	; 0xe00
    2d04:	07c0      	lsls	r0, r0, #31
    2d06:	b918      	cbnz	r0, 2d10 <USART_WriteBlocking+0x5c>
    2d08:	e7ff      	b.n	2d0a <USART_WriteBlocking+0x56>
    2d0a:	2004      	movs	r0, #4
    2d0c:	9006      	str	r0, [sp, #24]
    2d0e:	e02c      	b.n	2d6a <USART_WriteBlocking+0xb6>
    2d10:	9807      	ldr	r0, [sp, #28]
    2d12:	9908      	ldr	r1, [sp, #32]
    2d14:	9104      	str	r1, [sp, #16]
    2d16:	9005      	str	r0, [sp, #20]
    2d18:	e7ff      	b.n	2d1a <USART_WriteBlocking+0x66>
    2d1a:	9904      	ldr	r1, [sp, #16]
    2d1c:	9805      	ldr	r0, [sp, #20]
    2d1e:	9002      	str	r0, [sp, #8]
    2d20:	9103      	str	r1, [sp, #12]
    2d22:	b1b8      	cbz	r0, 2d54 <USART_WriteBlocking+0xa0>
    2d24:	e7ff      	b.n	2d26 <USART_WriteBlocking+0x72>
    2d26:	e7ff      	b.n	2d28 <USART_WriteBlocking+0x74>
    2d28:	9809      	ldr	r0, [sp, #36]	; 0x24
    2d2a:	f8d0 0e04 	ldr.w	r0, [r0, #3588]	; 0xe04
    2d2e:	0680      	lsls	r0, r0, #26
    2d30:	2800      	cmp	r0, #0
    2d32:	d401      	bmi.n	2d38 <USART_WriteBlocking+0x84>
    2d34:	e7ff      	b.n	2d36 <USART_WriteBlocking+0x82>
    2d36:	e7f7      	b.n	2d28 <USART_WriteBlocking+0x74>
    2d38:	9909      	ldr	r1, [sp, #36]	; 0x24
    2d3a:	9a03      	ldr	r2, [sp, #12]
    2d3c:	f812 0b01 	ldrb.w	r0, [r2], #1
    2d40:	9201      	str	r2, [sp, #4]
    2d42:	f8c1 0e20 	str.w	r0, [r1, #3616]	; 0xe20
    2d46:	e7ff      	b.n	2d48 <USART_WriteBlocking+0x94>
    2d48:	9901      	ldr	r1, [sp, #4]
    2d4a:	9802      	ldr	r0, [sp, #8]
    2d4c:	3801      	subs	r0, #1
    2d4e:	9104      	str	r1, [sp, #16]
    2d50:	9005      	str	r0, [sp, #20]
    2d52:	e7e2      	b.n	2d1a <USART_WriteBlocking+0x66>
    2d54:	e7ff      	b.n	2d56 <USART_WriteBlocking+0xa2>
    2d56:	9809      	ldr	r0, [sp, #36]	; 0x24
    2d58:	6880      	ldr	r0, [r0, #8]
    2d5a:	0700      	lsls	r0, r0, #28
    2d5c:	2800      	cmp	r0, #0
    2d5e:	d401      	bmi.n	2d64 <USART_WriteBlocking+0xb0>
    2d60:	e7ff      	b.n	2d62 <USART_WriteBlocking+0xae>
    2d62:	e7f8      	b.n	2d56 <USART_WriteBlocking+0xa2>
    2d64:	2000      	movs	r0, #0
    2d66:	9006      	str	r0, [sp, #24]
    2d68:	e7ff      	b.n	2d6a <USART_WriteBlocking+0xb6>
    2d6a:	9806      	ldr	r0, [sp, #24]
    2d6c:	b00a      	add	sp, #40	; 0x28
    2d6e:	bd80      	pop	{r7, pc}

00002d70 <LPADC_Init>:
    2d70:	b580      	push	{r7, lr}
    2d72:	466f      	mov	r7, sp
    2d74:	b084      	sub	sp, #16
    2d76:	9102      	str	r1, [sp, #8]
    2d78:	9003      	str	r0, [sp, #12]
    2d7a:	b109      	cbz	r1, 2d80 <LPADC_Init+0x10>
    2d7c:	e7ff      	b.n	2d7e <LPADC_Init+0xe>
    2d7e:	e00e      	b.n	2d9e <LPADC_Init+0x2e>
    2d80:	f648 50cd 	movw	r0, #36301	; 0x8dcd
    2d84:	f2c0 0000 	movt	r0, #0
    2d88:	f648 52e1 	movw	r2, #36321	; 0x8de1
    2d8c:	f2c0 0200 	movt	r2, #0
    2d90:	f648 53ec 	movw	r3, #36332	; 0x8dec
    2d94:	f2c0 0300 	movt	r3, #0
    2d98:	219b      	movs	r1, #155	; 0x9b
    2d9a:	f001 ffe4 	bl	4d66 <__assert_func>
    2d9e:	9803      	ldr	r0, [sp, #12]
    2da0:	f000 f898 	bl	2ed4 <LPADC_GetInstance>
    2da4:	4601      	mov	r1, r0
    2da6:	f249 102e 	movw	r0, #37166	; 0x912e
    2daa:	f2c0 0000 	movt	r0, #0
    2dae:	f830 0011 	ldrh.w	r0, [r0, r1, lsl #1]
    2db2:	f000 f884 	bl	2ebe <CLOCK_EnableClock>
    2db6:	9803      	ldr	r0, [sp, #12]
    2db8:	f000 f88c 	bl	2ed4 <LPADC_GetInstance>
    2dbc:	4601      	mov	r1, r0
    2dbe:	f249 1030 	movw	r0, #37168	; 0x9130
    2dc2:	f2c0 0000 	movt	r0, #0
    2dc6:	f850 0021 	ldr.w	r0, [r0, r1, lsl #2]
    2dca:	f000 f8b5 	bl	2f38 <RESET_ReleasePeripheralReset>
    2dce:	9803      	ldr	r0, [sp, #12]
    2dd0:	f000 f8b7 	bl	2f42 <LPADC_DoResetConfig>
    2dd4:	9803      	ldr	r0, [sp, #12]
    2dd6:	f000 f8be 	bl	2f56 <LPADC_DoResetFIFO0>
    2dda:	9803      	ldr	r0, [sp, #12]
    2ddc:	f000 f8c1 	bl	2f62 <LPADC_DoResetFIFO1>
    2de0:	9803      	ldr	r0, [sp, #12]
    2de2:	2100      	movs	r1, #0
    2de4:	f000 f8c3 	bl	2f6e <LPADC_Enable>
    2de8:	9802      	ldr	r0, [sp, #8]
    2dea:	7800      	ldrb	r0, [r0, #0]
    2dec:	07c0      	lsls	r0, r0, #31
    2dee:	b130      	cbz	r0, 2dfe <LPADC_Init+0x8e>
    2df0:	e7ff      	b.n	2df2 <LPADC_Init+0x82>
    2df2:	9903      	ldr	r1, [sp, #12]
    2df4:	6908      	ldr	r0, [r1, #16]
    2df6:	f020 0004 	bic.w	r0, r0, #4
    2dfa:	6108      	str	r0, [r1, #16]
    2dfc:	e005      	b.n	2e0a <LPADC_Init+0x9a>
    2dfe:	9903      	ldr	r1, [sp, #12]
    2e00:	6908      	ldr	r0, [r1, #16]
    2e02:	f040 0004 	orr.w	r0, r0, #4
    2e06:	6108      	str	r0, [r1, #16]
    2e08:	e7ff      	b.n	2e0a <LPADC_Init+0x9a>
    2e0a:	9802      	ldr	r0, [sp, #8]
    2e0c:	9a03      	ldr	r2, [sp, #12]
    2e0e:	7841      	ldrb	r1, [r0, #1]
    2e10:	f001 0307 	and.w	r3, r1, #7
    2e14:	6911      	ldr	r1, [r2, #16]
    2e16:	ea41 4103 	orr.w	r1, r1, r3, lsl #16
    2e1a:	6111      	str	r1, [r2, #16]
    2e1c:	7881      	ldrb	r1, [r0, #2]
    2e1e:	2000      	movs	r0, #0
    2e20:	07c9      	lsls	r1, r1, #31
    2e22:	9001      	str	r0, [sp, #4]
    2e24:	b121      	cbz	r1, 2e30 <LPADC_Init+0xc0>
    2e26:	e7ff      	b.n	2e28 <LPADC_Init+0xb8>
    2e28:	f04f 5080 	mov.w	r0, #268435456	; 0x10000000
    2e2c:	9001      	str	r0, [sp, #4]
    2e2e:	e7ff      	b.n	2e30 <LPADC_Init+0xc0>
    2e30:	9802      	ldr	r0, [sp, #8]
    2e32:	9a03      	ldr	r2, [sp, #12]
    2e34:	9901      	ldr	r1, [sp, #4]
    2e36:	f8d0 c004 	ldr.w	ip, [r0, #4]
    2e3a:	7a03      	ldrb	r3, [r0, #8]
    2e3c:	019b      	lsls	r3, r3, #6
    2e3e:	b2db      	uxtb	r3, r3
    2e40:	f36c 4317 	bfi	r3, ip, #16, #8
    2e44:	f890 c009 	ldrb.w	ip, [r0, #9]
    2e48:	f00c 0c03 	and.w	ip, ip, #3
    2e4c:	ea43 130c 	orr.w	r3, r3, ip, lsl #4
    2e50:	4319      	orrs	r1, r3
    2e52:	7a83      	ldrb	r3, [r0, #10]
    2e54:	f003 0c03 	and.w	ip, r3, #3
    2e58:	ea41 010c 	orr.w	r1, r1, ip
    2e5c:	f003 0c04 	and.w	ip, r3, #4
    2e60:	ea41 118c 	orr.w	r1, r1, ip, lsl #6
    2e64:	f003 0c08 	and.w	ip, r3, #8
    2e68:	ea41 118c 	orr.w	r1, r1, ip, lsl #6
    2e6c:	f003 0310 	and.w	r3, r3, #16
    2e70:	ea41 1183 	orr.w	r1, r1, r3, lsl #6
    2e74:	6211      	str	r1, [r2, #32]
    2e76:	7ac0      	ldrb	r0, [r0, #11]
    2e78:	07c0      	lsls	r0, r0, #31
    2e7a:	b148      	cbz	r0, 2e90 <LPADC_Init+0x120>
    2e7c:	e7ff      	b.n	2e7e <LPADC_Init+0x10e>
    2e7e:	9903      	ldr	r1, [sp, #12]
    2e80:	9802      	ldr	r0, [sp, #8]
    2e82:	68c0      	ldr	r0, [r0, #12]
    2e84:	f44f 0280 	mov.w	r2, #4194304	; 0x400000
    2e88:	f362 205f 	bfi	r0, r2, #9, #23
    2e8c:	6248      	str	r0, [r1, #36]	; 0x24
    2e8e:	e003      	b.n	2e98 <LPADC_Init+0x128>
    2e90:	9903      	ldr	r1, [sp, #12]
    2e92:	2000      	movs	r0, #0
    2e94:	6248      	str	r0, [r1, #36]	; 0x24
    2e96:	e7ff      	b.n	2e98 <LPADC_Init+0x128>
    2e98:	9803      	ldr	r0, [sp, #12]
    2e9a:	9a02      	ldr	r2, [sp, #8]
    2e9c:	6913      	ldr	r3, [r2, #16]
    2e9e:	f44f 2170 	mov.w	r1, #983040	; 0xf0000
    2ea2:	ea01 4303 	and.w	r3, r1, r3, lsl #16
    2ea6:	f8c0 30e0 	str.w	r3, [r0, #224]	; 0xe0
    2eaa:	6952      	ldr	r2, [r2, #20]
    2eac:	ea01 4102 	and.w	r1, r1, r2, lsl #16
    2eb0:	f8c0 10e4 	str.w	r1, [r0, #228]	; 0xe4
    2eb4:	2101      	movs	r1, #1
    2eb6:	f000 f85a 	bl	2f6e <LPADC_Enable>
    2eba:	b004      	add	sp, #16
    2ebc:	bd80      	pop	{r7, pc}

00002ebe <CLOCK_EnableClock>:
    2ebe:	0a02      	lsrs	r2, r0, #8
    2ec0:	b2c1      	uxtb	r1, r0
    2ec2:	2001      	movs	r0, #1
    2ec4:	4088      	lsls	r0, r1
    2ec6:	f240 2120 	movw	r1, #544	; 0x220
    2eca:	f2c4 0100 	movt	r1, #16384	; 0x4000
    2ece:	f841 0022 	str.w	r0, [r1, r2, lsl #2]
    2ed2:	4770      	bx	lr

00002ed4 <LPADC_GetInstance>:
    2ed4:	b580      	push	{r7, lr}
    2ed6:	466f      	mov	r7, sp
    2ed8:	b084      	sub	sp, #16
    2eda:	9002      	str	r0, [sp, #8]
    2edc:	2000      	movs	r0, #0
    2ede:	9003      	str	r0, [sp, #12]
    2ee0:	e7ff      	b.n	2ee2 <LPADC_GetInstance+0xe>
    2ee2:	9803      	ldr	r0, [sp, #12]
    2ee4:	9001      	str	r0, [sp, #4]
    2ee6:	b988      	cbnz	r0, 2f0c <LPADC_GetInstance+0x38>
    2ee8:	e7ff      	b.n	2eea <LPADC_GetInstance+0x16>
    2eea:	9902      	ldr	r1, [sp, #8]
    2eec:	9a01      	ldr	r2, [sp, #4]
    2eee:	f249 1034 	movw	r0, #37172	; 0x9134
    2ef2:	f2c0 0000 	movt	r0, #0
    2ef6:	f850 0022 	ldr.w	r0, [r0, r2, lsl #2]
    2efa:	4288      	cmp	r0, r1
    2efc:	d101      	bne.n	2f02 <LPADC_GetInstance+0x2e>
    2efe:	e7ff      	b.n	2f00 <LPADC_GetInstance+0x2c>
    2f00:	e004      	b.n	2f0c <LPADC_GetInstance+0x38>
    2f02:	e7ff      	b.n	2f04 <LPADC_GetInstance+0x30>
    2f04:	9801      	ldr	r0, [sp, #4]
    2f06:	3001      	adds	r0, #1
    2f08:	9003      	str	r0, [sp, #12]
    2f0a:	e7ea      	b.n	2ee2 <LPADC_GetInstance+0xe>
    2f0c:	9801      	ldr	r0, [sp, #4]
    2f0e:	b908      	cbnz	r0, 2f14 <LPADC_GetInstance+0x40>
    2f10:	e7ff      	b.n	2f12 <LPADC_GetInstance+0x3e>
    2f12:	e00e      	b.n	2f32 <LPADC_GetInstance+0x5e>
    2f14:	f648 50cd 	movw	r0, #36301	; 0x8dcd
    2f18:	f2c0 0000 	movt	r0, #0
    2f1c:	f249 02f8 	movw	r2, #37112	; 0x90f8
    2f20:	f2c0 0200 	movt	r2, #0
    2f24:	f249 130a 	movw	r3, #37130	; 0x910a
    2f28:	f2c0 0300 	movt	r3, #0
    2f2c:	216f      	movs	r1, #111	; 0x6f
    2f2e:	f001 ff1a 	bl	4d66 <__assert_func>
    2f32:	9801      	ldr	r0, [sp, #4]
    2f34:	b004      	add	sp, #16
    2f36:	bd80      	pop	{r7, pc}

00002f38 <RESET_ReleasePeripheralReset>:
    2f38:	b580      	push	{r7, lr}
    2f3a:	466f      	mov	r7, sp
    2f3c:	f7ff f913 	bl	2166 <RESET_ClearPeripheralReset>
    2f40:	bd80      	pop	{r7, pc}

00002f42 <LPADC_DoResetConfig>:
    2f42:	4601      	mov	r1, r0
    2f44:	6908      	ldr	r0, [r1, #16]
    2f46:	f040 0002 	orr.w	r0, r0, #2
    2f4a:	6108      	str	r0, [r1, #16]
    2f4c:	6908      	ldr	r0, [r1, #16]
    2f4e:	f020 0002 	bic.w	r0, r0, #2
    2f52:	6108      	str	r0, [r1, #16]
    2f54:	4770      	bx	lr

00002f56 <LPADC_DoResetFIFO0>:
    2f56:	4601      	mov	r1, r0
    2f58:	6908      	ldr	r0, [r1, #16]
    2f5a:	f440 7080 	orr.w	r0, r0, #256	; 0x100
    2f5e:	6108      	str	r0, [r1, #16]
    2f60:	4770      	bx	lr

00002f62 <LPADC_DoResetFIFO1>:
    2f62:	4601      	mov	r1, r0
    2f64:	6908      	ldr	r0, [r1, #16]
    2f66:	f440 7000 	orr.w	r0, r0, #512	; 0x200
    2f6a:	6108      	str	r0, [r1, #16]
    2f6c:	4770      	bx	lr

00002f6e <LPADC_Enable>:
    2f6e:	b081      	sub	sp, #4
    2f70:	9000      	str	r0, [sp, #0]
    2f72:	b131      	cbz	r1, 2f82 <LPADC_Enable+0x14>
    2f74:	e7ff      	b.n	2f76 <LPADC_Enable+0x8>
    2f76:	9900      	ldr	r1, [sp, #0]
    2f78:	6908      	ldr	r0, [r1, #16]
    2f7a:	f040 0001 	orr.w	r0, r0, #1
    2f7e:	6108      	str	r0, [r1, #16]
    2f80:	e005      	b.n	2f8e <LPADC_Enable+0x20>
    2f82:	9900      	ldr	r1, [sp, #0]
    2f84:	6908      	ldr	r0, [r1, #16]
    2f86:	f020 0001 	bic.w	r0, r0, #1
    2f8a:	6108      	str	r0, [r1, #16]
    2f8c:	e7ff      	b.n	2f8e <LPADC_Enable+0x20>
    2f8e:	b001      	add	sp, #4
    2f90:	4770      	bx	lr

00002f92 <LPADC_GetConvResult>:
    2f92:	b580      	push	{r7, lr}
    2f94:	466f      	mov	r7, sp
    2f96:	b086      	sub	sp, #24
    2f98:	9103      	str	r1, [sp, #12]
    2f9a:	9004      	str	r0, [sp, #16]
    2f9c:	9205      	str	r2, [sp, #20]
    2f9e:	b109      	cbz	r1, 2fa4 <LPADC_GetConvResult+0x12>
    2fa0:	e7ff      	b.n	2fa2 <LPADC_GetConvResult+0x10>
    2fa2:	e00f      	b.n	2fc4 <LPADC_GetConvResult+0x32>
    2fa4:	f648 50cd 	movw	r0, #36301	; 0x8dcd
    2fa8:	f2c0 0000 	movt	r0, #0
    2fac:	f648 52fb 	movw	r2, #36347	; 0x8dfb
    2fb0:	f2c0 0200 	movt	r2, #0
    2fb4:	f648 630f 	movw	r3, #36367	; 0x8e0f
    2fb8:	f2c0 0300 	movt	r3, #0
    2fbc:	f44f 71aa 	mov.w	r1, #340	; 0x154
    2fc0:	f001 fed1 	bl	4d66 <__assert_func>
    2fc4:	9804      	ldr	r0, [sp, #16]
    2fc6:	9905      	ldr	r1, [sp, #20]
    2fc8:	b2c9      	uxtb	r1, r1
    2fca:	eb00 0081 	add.w	r0, r0, r1, lsl #2
    2fce:	f8d0 0300 	ldr.w	r0, [r0, #768]	; 0x300
    2fd2:	9002      	str	r0, [sp, #8]
    2fd4:	f000 4000 	and.w	r0, r0, #2147483648	; 0x80000000
    2fd8:	f1b0 4f00 	cmp.w	r0, #2147483648	; 0x80000000
    2fdc:	d003      	beq.n	2fe6 <LPADC_GetConvResult+0x54>
    2fde:	e7ff      	b.n	2fe0 <LPADC_GetConvResult+0x4e>
    2fe0:	2000      	movs	r0, #0
    2fe2:	9001      	str	r0, [sp, #4]
    2fe4:	e00e      	b.n	3004 <LPADC_GetConvResult+0x72>
    2fe6:	9802      	ldr	r0, [sp, #8]
    2fe8:	9903      	ldr	r1, [sp, #12]
    2fea:	f3c0 6203 	ubfx	r2, r0, #24, #4
    2fee:	600a      	str	r2, [r1, #0]
    2ff0:	f3c0 5203 	ubfx	r2, r0, #20, #4
    2ff4:	604a      	str	r2, [r1, #4]
    2ff6:	f3c0 4203 	ubfx	r2, r0, #16, #4
    2ffa:	608a      	str	r2, [r1, #8]
    2ffc:	8188      	strh	r0, [r1, #12]
    2ffe:	2001      	movs	r0, #1
    3000:	9001      	str	r0, [sp, #4]
    3002:	e7ff      	b.n	3004 <LPADC_GetConvResult+0x72>
    3004:	9801      	ldr	r0, [sp, #4]
    3006:	f000 0001 	and.w	r0, r0, #1
    300a:	b006      	add	sp, #24
    300c:	bd80      	pop	{r7, pc}

0000300e <LPADC_SetConvTriggerConfig>:
    300e:	b580      	push	{r7, lr}
    3010:	466f      	mov	r7, sp
    3012:	b086      	sub	sp, #24
    3014:	9203      	str	r2, [sp, #12]
    3016:	9104      	str	r1, [sp, #16]
    3018:	9005      	str	r0, [sp, #20]
    301a:	290f      	cmp	r1, #15
    301c:	d801      	bhi.n	3022 <LPADC_SetConvTriggerConfig+0x14>
    301e:	e7ff      	b.n	3020 <LPADC_SetConvTriggerConfig+0x12>
    3020:	e00f      	b.n	3042 <LPADC_SetConvTriggerConfig+0x34>
    3022:	f648 50cd 	movw	r0, #36301	; 0x8dcd
    3026:	f2c0 0000 	movt	r0, #0
    302a:	f648 623a 	movw	r2, #36410	; 0x8e3a
    302e:	f2c0 0200 	movt	r2, #0
    3032:	f648 6355 	movw	r3, #36437	; 0x8e55
    3036:	f2c0 0300 	movt	r3, #0
    303a:	f240 11c1 	movw	r1, #449	; 0x1c1
    303e:	f001 fe92 	bl	4d66 <__assert_func>
    3042:	9803      	ldr	r0, [sp, #12]
    3044:	b108      	cbz	r0, 304a <LPADC_SetConvTriggerConfig+0x3c>
    3046:	e7ff      	b.n	3048 <LPADC_SetConvTriggerConfig+0x3a>
    3048:	e00f      	b.n	306a <LPADC_SetConvTriggerConfig+0x5c>
    304a:	f648 50cd 	movw	r0, #36301	; 0x8dcd
    304e:	f2c0 0000 	movt	r0, #0
    3052:	f648 623a 	movw	r2, #36410	; 0x8e3a
    3056:	f2c0 0200 	movt	r2, #0
    305a:	f648 53ec 	movw	r3, #36332	; 0x8dec
    305e:	f2c0 0300 	movt	r3, #0
    3062:	f44f 71e1 	mov.w	r1, #450	; 0x1c2
    3066:	f001 fe7e 	bl	4d66 <__assert_func>
    306a:	9903      	ldr	r1, [sp, #12]
    306c:	680b      	ldr	r3, [r1, #0]
    306e:	f8d1 c004 	ldr.w	ip, [r1, #4]
    3072:	688a      	ldr	r2, [r1, #8]
    3074:	f44f 2070 	mov.w	r0, #983040	; 0xf0000
    3078:	ea00 400c 	and.w	r0, r0, ip, lsl #16
    307c:	f363 601b 	bfi	r0, r3, #24, #4
    3080:	f002 020f 	and.w	r2, r2, #15
    3084:	ea40 2002 	orr.w	r0, r0, r2, lsl #8
    3088:	7b0a      	ldrb	r2, [r1, #12]
    308a:	f002 0201 	and.w	r2, r2, #1
    308e:	ea40 0042 	orr.w	r0, r0, r2, lsl #1
    3092:	7b4a      	ldrb	r2, [r1, #13]
    3094:	f002 0201 	and.w	r2, r2, #1
    3098:	ea40 0082 	orr.w	r0, r0, r2, lsl #2
    309c:	9001      	str	r0, [sp, #4]
    309e:	7b89      	ldrb	r1, [r1, #14]
    30a0:	07c9      	lsls	r1, r1, #31
    30a2:	9002      	str	r0, [sp, #8]
    30a4:	b129      	cbz	r1, 30b2 <LPADC_SetConvTriggerConfig+0xa4>
    30a6:	e7ff      	b.n	30a8 <LPADC_SetConvTriggerConfig+0x9a>
    30a8:	9801      	ldr	r0, [sp, #4]
    30aa:	f040 0001 	orr.w	r0, r0, #1
    30ae:	9002      	str	r0, [sp, #8]
    30b0:	e7ff      	b.n	30b2 <LPADC_SetConvTriggerConfig+0xa4>
    30b2:	9905      	ldr	r1, [sp, #20]
    30b4:	9a04      	ldr	r2, [sp, #16]
    30b6:	9802      	ldr	r0, [sp, #8]
    30b8:	eb01 0182 	add.w	r1, r1, r2, lsl #2
    30bc:	f8c1 00a0 	str.w	r0, [r1, #160]	; 0xa0
    30c0:	b006      	add	sp, #24
    30c2:	bd80      	pop	{r7, pc}

000030c4 <LPADC_SetConvCommandConfig>:
    30c4:	b580      	push	{r7, lr}
    30c6:	466f      	mov	r7, sp
    30c8:	b08a      	sub	sp, #40	; 0x28
    30ca:	9207      	str	r2, [sp, #28]
    30cc:	9108      	str	r1, [sp, #32]
    30ce:	9009      	str	r0, [sp, #36]	; 0x24
    30d0:	290f      	cmp	r1, #15
    30d2:	d801      	bhi.n	30d8 <LPADC_SetConvCommandConfig+0x14>
    30d4:	e7ff      	b.n	30d6 <LPADC_SetConvCommandConfig+0x12>
    30d6:	e00f      	b.n	30f8 <LPADC_SetConvCommandConfig+0x34>
    30d8:	f648 50cd 	movw	r0, #36301	; 0x8dcd
    30dc:	f2c0 0000 	movt	r0, #0
    30e0:	f648 6293 	movw	r2, #36499	; 0x8e93
    30e4:	f2c0 0200 	movt	r2, #0
    30e8:	f648 63ae 	movw	r3, #36526	; 0x8eae
    30ec:	f2c0 0300 	movt	r3, #0
    30f0:	f240 2103 	movw	r1, #515	; 0x203
    30f4:	f001 fe37 	bl	4d66 <__assert_func>
    30f8:	9807      	ldr	r0, [sp, #28]
    30fa:	b108      	cbz	r0, 3100 <LPADC_SetConvCommandConfig+0x3c>
    30fc:	e7ff      	b.n	30fe <LPADC_SetConvCommandConfig+0x3a>
    30fe:	e00f      	b.n	3120 <LPADC_SetConvCommandConfig+0x5c>
    3100:	f648 50cd 	movw	r0, #36301	; 0x8dcd
    3104:	f2c0 0000 	movt	r0, #0
    3108:	f648 6293 	movw	r2, #36499	; 0x8e93
    310c:	f2c0 0200 	movt	r2, #0
    3110:	f648 53ec 	movw	r3, #36332	; 0x8dec
    3114:	f2c0 0300 	movt	r3, #0
    3118:	f44f 7101 	mov.w	r1, #516	; 0x204
    311c:	f001 fe23 	bl	4d66 <__assert_func>
    3120:	9807      	ldr	r0, [sp, #28]
    3122:	9908      	ldr	r1, [sp, #32]
    3124:	3901      	subs	r1, #1
    3126:	9105      	str	r1, [sp, #20]
    3128:	6841      	ldr	r1, [r0, #4]
    312a:	f001 011f 	and.w	r1, r1, #31
    312e:	9106      	str	r1, [sp, #24]
    3130:	7800      	ldrb	r0, [r0, #0]
    3132:	2802      	cmp	r0, #2
    3134:	d106      	bne.n	3144 <LPADC_SetConvCommandConfig+0x80>
    3136:	e7ff      	b.n	3138 <LPADC_SetConvCommandConfig+0x74>
    3138:	9809      	ldr	r0, [sp, #36]	; 0x24
    313a:	6800      	ldr	r0, [r0, #0]
    313c:	0780      	lsls	r0, r0, #30
    313e:	2800      	cmp	r0, #0
    3140:	d410      	bmi.n	3164 <LPADC_SetConvCommandConfig+0xa0>
    3142:	e7ff      	b.n	3144 <LPADC_SetConvCommandConfig+0x80>
    3144:	9807      	ldr	r0, [sp, #28]
    3146:	7800      	ldrb	r0, [r0, #0]
    3148:	2803      	cmp	r0, #3
    314a:	d106      	bne.n	315a <LPADC_SetConvCommandConfig+0x96>
    314c:	e7ff      	b.n	314e <LPADC_SetConvCommandConfig+0x8a>
    314e:	9809      	ldr	r0, [sp, #36]	; 0x24
    3150:	6800      	ldr	r0, [r0, #0]
    3152:	0500      	lsls	r0, r0, #20
    3154:	2800      	cmp	r0, #0
    3156:	d405      	bmi.n	3164 <LPADC_SetConvCommandConfig+0xa0>
    3158:	e7ff      	b.n	315a <LPADC_SetConvCommandConfig+0x96>
    315a:	9807      	ldr	r0, [sp, #28]
    315c:	7800      	ldrb	r0, [r0, #0]
    315e:	2802      	cmp	r0, #2
    3160:	dc01      	bgt.n	3166 <LPADC_SetConvCommandConfig+0xa2>
    3162:	e7ff      	b.n	3164 <LPADC_SetConvCommandConfig+0xa0>
    3164:	e00f      	b.n	3186 <LPADC_SetConvCommandConfig+0xc2>
    3166:	f648 50cd 	movw	r0, #36301	; 0x8dcd
    316a:	f2c0 0000 	movt	r0, #0
    316e:	f648 6293 	movw	r2, #36499	; 0x8e93
    3172:	f2c0 0200 	movt	r2, #0
    3176:	f648 63d0 	movw	r3, #36560	; 0x8ed0
    317a:	f2c0 0300 	movt	r3, #0
    317e:	f240 2122 	movw	r1, #546	; 0x222
    3182:	f001 fdf0 	bl	4d66 <__assert_func>
    3186:	9907      	ldr	r1, [sp, #28]
    3188:	9a09      	ldr	r2, [sp, #36]	; 0x24
    318a:	9b05      	ldr	r3, [sp, #20]
    318c:	9806      	ldr	r0, [sp, #24]
    318e:	f891 e000 	ldrb.w	lr, [r1]
    3192:	f891 c020 	ldrb.w	ip, [r1, #32]
    3196:	f00e 0e03 	and.w	lr, lr, #3
    319a:	ea40 104e 	orr.w	r0, r0, lr, lsl #5
    319e:	f00c 0c01 	and.w	ip, ip, #1
    31a2:	ea40 10cc 	orr.w	r0, r0, ip, lsl #7
    31a6:	eb02 02c3 	add.w	r2, r2, r3, lsl #3
    31aa:	f8c2 0100 	str.w	r0, [r2, #256]	; 0x100
    31ae:	688a      	ldr	r2, [r1, #8]
    31b0:	690b      	ldr	r3, [r1, #16]
    31b2:	f44f 2070 	mov.w	r0, #983040	; 0xf0000
    31b6:	ea00 4003 	and.w	r0, r0, r3, lsl #16
    31ba:	f362 601b 	bfi	r0, r2, #24, #4
    31be:	7d0a      	ldrb	r2, [r1, #20]
    31c0:	f002 0207 	and.w	r2, r2, #7
    31c4:	ea40 3002 	orr.w	r0, r0, r2, lsl #12
    31c8:	7d4a      	ldrb	r2, [r1, #21]
    31ca:	f002 0207 	and.w	r2, r2, #7
    31ce:	ea40 2002 	orr.w	r0, r0, r2, lsl #8
    31d2:	7d8a      	ldrb	r2, [r1, #22]
    31d4:	f002 0203 	and.w	r2, r2, #3
    31d8:	4410      	add	r0, r2
    31da:	9003      	str	r0, [sp, #12]
    31dc:	f891 1021 	ldrb.w	r1, [r1, #33]	; 0x21
    31e0:	07c9      	lsls	r1, r1, #31
    31e2:	9004      	str	r0, [sp, #16]
    31e4:	b129      	cbz	r1, 31f2 <LPADC_SetConvCommandConfig+0x12e>
    31e6:	e7ff      	b.n	31e8 <LPADC_SetConvCommandConfig+0x124>
    31e8:	9803      	ldr	r0, [sp, #12]
    31ea:	f040 0004 	orr.w	r0, r0, #4
    31ee:	9004      	str	r0, [sp, #16]
    31f0:	e7ff      	b.n	31f2 <LPADC_SetConvCommandConfig+0x12e>
    31f2:	9907      	ldr	r1, [sp, #28]
    31f4:	9804      	ldr	r0, [sp, #16]
    31f6:	9001      	str	r0, [sp, #4]
    31f8:	7b09      	ldrb	r1, [r1, #12]
    31fa:	07c9      	lsls	r1, r1, #31
    31fc:	9002      	str	r0, [sp, #8]
    31fe:	b129      	cbz	r1, 320c <LPADC_SetConvCommandConfig+0x148>
    3200:	e7ff      	b.n	3202 <LPADC_SetConvCommandConfig+0x13e>
    3202:	9801      	ldr	r0, [sp, #4]
    3204:	f040 0080 	orr.w	r0, r0, #128	; 0x80
    3208:	9002      	str	r0, [sp, #8]
    320a:	e7ff      	b.n	320c <LPADC_SetConvCommandConfig+0x148>
    320c:	9807      	ldr	r0, [sp, #28]
    320e:	9a09      	ldr	r2, [sp, #36]	; 0x24
    3210:	9b05      	ldr	r3, [sp, #20]
    3212:	9902      	ldr	r1, [sp, #8]
    3214:	eb02 02c3 	add.w	r2, r2, r3, lsl #3
    3218:	f8c2 1104 	str.w	r1, [r2, #260]	; 0x104
    321c:	7d80      	ldrb	r0, [r0, #22]
    321e:	b180      	cbz	r0, 3242 <LPADC_SetConvCommandConfig+0x17e>
    3220:	e7ff      	b.n	3222 <LPADC_SetConvCommandConfig+0x15e>
    3222:	9805      	ldr	r0, [sp, #20]
    3224:	2803      	cmp	r0, #3
    3226:	d80c      	bhi.n	3242 <LPADC_SetConvCommandConfig+0x17e>
    3228:	e7ff      	b.n	322a <LPADC_SetConvCommandConfig+0x166>
    322a:	9909      	ldr	r1, [sp, #36]	; 0x24
    322c:	9a05      	ldr	r2, [sp, #20]
    322e:	9807      	ldr	r0, [sp, #28]
    3230:	6983      	ldr	r3, [r0, #24]
    3232:	8b80      	ldrh	r0, [r0, #28]
    3234:	ea40 4003 	orr.w	r0, r0, r3, lsl #16
    3238:	eb01 0182 	add.w	r1, r1, r2, lsl #2
    323c:	f8c1 0200 	str.w	r0, [r1, #512]	; 0x200
    3240:	e7ff      	b.n	3242 <LPADC_SetConvCommandConfig+0x17e>
    3242:	b00a      	add	sp, #40	; 0x28
    3244:	bd80      	pop	{r7, pc}

00003246 <LPADC_DoAutoCalibration>:
    3246:	b580      	push	{r7, lr}
    3248:	466f      	mov	r7, sp
    324a:	b082      	sub	sp, #8
    324c:	9001      	str	r0, [sp, #4]
    324e:	f000 f805 	bl	325c <LPADC_PrepareAutoCalibration>
    3252:	9801      	ldr	r0, [sp, #4]
    3254:	f000 f82c 	bl	32b0 <LPADC_FinishAutoCalibration>
    3258:	b002      	add	sp, #8
    325a:	bd80      	pop	{r7, pc}

0000325c <LPADC_PrepareAutoCalibration>:
    325c:	b580      	push	{r7, lr}
    325e:	466f      	mov	r7, sp
    3260:	b082      	sub	sp, #8
    3262:	9001      	str	r0, [sp, #4]
    3264:	2100      	movs	r1, #0
    3266:	f000 f8af 	bl	33c8 <LPADC_GetConvResultCount>
    326a:	b938      	cbnz	r0, 327c <LPADC_PrepareAutoCalibration+0x20>
    326c:	e7ff      	b.n	326e <LPADC_PrepareAutoCalibration+0x12>
    326e:	9801      	ldr	r0, [sp, #4]
    3270:	2101      	movs	r1, #1
    3272:	f000 f8a9 	bl	33c8 <LPADC_GetConvResultCount>
    3276:	b908      	cbnz	r0, 327c <LPADC_PrepareAutoCalibration+0x20>
    3278:	e7ff      	b.n	327a <LPADC_PrepareAutoCalibration+0x1e>
    327a:	e00f      	b.n	329c <LPADC_PrepareAutoCalibration+0x40>
    327c:	f648 50cd 	movw	r0, #36301	; 0x8dcd
    3280:	f2c0 0000 	movt	r0, #0
    3284:	f249 0234 	movw	r2, #36916	; 0x9034
    3288:	f2c0 0200 	movt	r2, #0
    328c:	f249 0351 	movw	r3, #36945	; 0x9051
    3290:	f2c0 0300 	movt	r3, #0
    3294:	f240 310d 	movw	r1, #781	; 0x30d
    3298:	f001 fd65 	bl	4d66 <__assert_func>
    329c:	9901      	ldr	r1, [sp, #4]
    329e:	6908      	ldr	r0, [r1, #16]
    32a0:	f040 0008 	orr.w	r0, r0, #8
    32a4:	6108      	str	r0, [r1, #16]
    32a6:	b002      	add	sp, #8
    32a8:	bd80      	pop	{r7, pc}
    32aa:	0000      	movs	r0, r0
    32ac:	0000      	movs	r0, r0
	...

000032b0 <LPADC_FinishAutoCalibration>:
    32b0:	b580      	push	{r7, lr}
    32b2:	466f      	mov	r7, sp
    32b4:	b084      	sub	sp, #16
    32b6:	9003      	str	r0, [sp, #12]
    32b8:	e7ff      	b.n	32ba <LPADC_FinishAutoCalibration+0xa>
    32ba:	9803      	ldr	r0, [sp, #12]
    32bc:	f8d0 10f0 	ldr.w	r1, [r0, #240]	; 0xf0
    32c0:	2001      	movs	r0, #1
    32c2:	01c9      	lsls	r1, r1, #7
    32c4:	2900      	cmp	r1, #0
    32c6:	9002      	str	r0, [sp, #8]
    32c8:	d50a      	bpl.n	32e0 <LPADC_FinishAutoCalibration+0x30>
    32ca:	e7ff      	b.n	32cc <LPADC_FinishAutoCalibration+0x1c>
    32cc:	9803      	ldr	r0, [sp, #12]
    32ce:	f8d0 00f4 	ldr.w	r0, [r0, #244]	; 0xf4
    32d2:	f000 7180 	and.w	r1, r0, #16777216	; 0x1000000
    32d6:	2001      	movs	r0, #1
    32d8:	ea80 6011 	eor.w	r0, r0, r1, lsr #24
    32dc:	9002      	str	r0, [sp, #8]
    32de:	e7ff      	b.n	32e0 <LPADC_FinishAutoCalibration+0x30>
    32e0:	9802      	ldr	r0, [sp, #8]
    32e2:	07c0      	lsls	r0, r0, #31
    32e4:	b108      	cbz	r0, 32ea <LPADC_FinishAutoCalibration+0x3a>
    32e6:	e7ff      	b.n	32e8 <LPADC_FinishAutoCalibration+0x38>
    32e8:	e7e7      	b.n	32ba <LPADC_FinishAutoCalibration+0xa>
    32ea:	9803      	ldr	r0, [sp, #12]
    32ec:	f8d0 00f0 	ldr.w	r0, [r0, #240]	; 0xf0
    32f0:	b280      	uxth	r0, r0
    32f2:	f7fd fa77 	bl	7e4 <__aeabi_ui2d>
    32f6:	ec41 0b10 	vmov	d0, r0, r1
    32fa:	ec53 2b10 	vmov	r2, r3, d0
    32fe:	ed9f 0b30 	vldr	d0, [pc, #192]	; 33c0 <LPADC_FinishAutoCalibration+0x110>
    3302:	ec51 0b10 	vmov	r0, r1, d0
    3306:	9101      	str	r1, [sp, #4]
    3308:	9000      	str	r0, [sp, #0]
    330a:	f7fd f92d 	bl	568 <__aeabi_dsub>
    330e:	4602      	mov	r2, r0
    3310:	9800      	ldr	r0, [sp, #0]
    3312:	460b      	mov	r3, r1
    3314:	9901      	ldr	r1, [sp, #4]
    3316:	ec43 2b10 	vmov	d0, r2, r3
    331a:	ec53 2b10 	vmov	r2, r3, d0
    331e:	f7fd fc05 	bl	b2c <__aeabi_ddiv>
    3322:	ec41 0b10 	vmov	d0, r0, r1
    3326:	ec51 0b10 	vmov	r0, r1, d0
    332a:	f7fd fdad 	bl	e88 <__aeabi_d2f>
    332e:	ee00 0a10 	vmov	s0, r0
    3332:	f000 f851 	bl	33d8 <LPADC_GetGainConvResult>
    3336:	4601      	mov	r1, r0
    3338:	9803      	ldr	r0, [sp, #12]
    333a:	f8c0 10f8 	str.w	r1, [r0, #248]	; 0xf8
    333e:	f8d0 00f4 	ldr.w	r0, [r0, #244]	; 0xf4
    3342:	b280      	uxth	r0, r0
    3344:	f7fd fa4e 	bl	7e4 <__aeabi_ui2d>
    3348:	4602      	mov	r2, r0
    334a:	9800      	ldr	r0, [sp, #0]
    334c:	460b      	mov	r3, r1
    334e:	9901      	ldr	r1, [sp, #4]
    3350:	ec43 2b10 	vmov	d0, r2, r3
    3354:	ec53 2b10 	vmov	r2, r3, d0
    3358:	f7fd f906 	bl	568 <__aeabi_dsub>
    335c:	4602      	mov	r2, r0
    335e:	9800      	ldr	r0, [sp, #0]
    3360:	460b      	mov	r3, r1
    3362:	9901      	ldr	r1, [sp, #4]
    3364:	ec43 2b10 	vmov	d0, r2, r3
    3368:	ec53 2b10 	vmov	r2, r3, d0
    336c:	f7fd fbde 	bl	b2c <__aeabi_ddiv>
    3370:	ec41 0b10 	vmov	d0, r0, r1
    3374:	ec51 0b10 	vmov	r0, r1, d0
    3378:	f7fd fd86 	bl	e88 <__aeabi_d2f>
    337c:	ee00 0a10 	vmov	s0, r0
    3380:	f000 f82a 	bl	33d8 <LPADC_GetGainConvResult>
    3384:	9903      	ldr	r1, [sp, #12]
    3386:	f8c1 00fc 	str.w	r0, [r1, #252]	; 0xfc
    338a:	f8d1 00f8 	ldr.w	r0, [r1, #248]	; 0xf8
    338e:	f040 7080 	orr.w	r0, r0, #16777216	; 0x1000000
    3392:	f8c1 00f8 	str.w	r0, [r1, #248]	; 0xf8
    3396:	f8d1 00fc 	ldr.w	r0, [r1, #252]	; 0xfc
    339a:	f040 7080 	orr.w	r0, r0, #16777216	; 0x1000000
    339e:	f8c1 00fc 	str.w	r0, [r1, #252]	; 0xfc
    33a2:	e7ff      	b.n	33a4 <LPADC_FinishAutoCalibration+0xf4>
    33a4:	9803      	ldr	r0, [sp, #12]
    33a6:	6940      	ldr	r0, [r0, #20]
    33a8:	f400 6080 	and.w	r0, r0, #1024	; 0x400
    33ac:	f5b0 6f80 	cmp.w	r0, #1024	; 0x400
    33b0:	d001      	beq.n	33b6 <LPADC_FinishAutoCalibration+0x106>
    33b2:	e7ff      	b.n	33b4 <LPADC_FinishAutoCalibration+0x104>
    33b4:	e7f6      	b.n	33a4 <LPADC_FinishAutoCalibration+0xf4>
    33b6:	b004      	add	sp, #16
    33b8:	bd80      	pop	{r7, pc}
    33ba:	bf00      	nop
    33bc:	bf00      	nop
    33be:	bf00      	nop
    33c0:	00000000 	.word	0x00000000
    33c4:	41000000 	.word	0x41000000

000033c8 <LPADC_GetConvResultCount>:
    33c8:	eb00 0081 	add.w	r0, r0, r1, lsl #2
    33cc:	f8d0 00e0 	ldr.w	r0, [r0, #224]	; 0xe0
    33d0:	f000 001f 	and.w	r0, r0, #31
    33d4:	4770      	bx	lr
	...

000033d8 <LPADC_GetGainConvResult>:
    33d8:	b580      	push	{r7, lr}
    33da:	466f      	mov	r7, sp
    33dc:	b09e      	sub	sp, #120	; 0x78
    33de:	ed8d 0a0a 	vstr	s0, [sp, #40]	; 0x28
    33e2:	a80d      	add	r0, sp, #52	; 0x34
    33e4:	2144      	movs	r1, #68	; 0x44
    33e6:	f004 ffcf 	bl	8388 <__aeabi_memclr>
    33ea:	ed9d 0a0a 	vldr	s0, [sp, #40]	; 0x28
    33ee:	2011      	movs	r0, #17
    33f0:	900b      	str	r0, [sp, #44]	; 0x2c
    33f2:	ed8d 0a0c 	vstr	s0, [sp, #48]	; 0x30
    33f6:	e7ff      	b.n	33f8 <LPADC_GetGainConvResult+0x20>
    33f8:	980b      	ldr	r0, [sp, #44]	; 0x2c
    33fa:	ed9d 0a0c 	vldr	s0, [sp, #48]	; 0x30
    33fe:	ed8d 0a08 	vstr	s0, [sp, #32]
    3402:	9009      	str	r0, [sp, #36]	; 0x24
    3404:	0400      	lsls	r0, r0, #16
    3406:	2800      	cmp	r0, #0
    3408:	d03e      	beq.n	3488 <LPADC_GetGainConvResult+0xb0>
    340a:	e7ff      	b.n	340c <LPADC_GetGainConvResult+0x34>
    340c:	9a09      	ldr	r2, [sp, #36]	; 0x24
    340e:	b290      	uxth	r0, r2
    3410:	f04f 31ff 	mov.w	r1, #4294967295	; 0xffffffff
    3414:	fa11 f182 	uxtah	r1, r1, r2
    3418:	9106      	str	r1, [sp, #24]
    341a:	f1c0 0111 	rsb	r1, r0, #17
    341e:	2001      	movs	r0, #1
    3420:	4088      	lsls	r0, r1
    3422:	f7fd f9df 	bl	7e4 <__aeabi_ui2d>
    3426:	ec41 0b10 	vmov	d0, r0, r1
    342a:	ec53 2b10 	vmov	r2, r3, d0
    342e:	ed9f 0b28 	vldr	d0, [pc, #160]	; 34d0 <LPADC_GetGainConvResult+0xf8>
    3432:	ec51 0b10 	vmov	r0, r1, d0
    3436:	f7fd fb79 	bl	b2c <__aeabi_ddiv>
    343a:	ec41 0b10 	vmov	d0, r0, r1
    343e:	ec51 0b10 	vmov	r0, r1, d0
    3442:	f7fd fd21 	bl	e88 <__aeabi_d2f>
    3446:	9a06      	ldr	r2, [sp, #24]
    3448:	ed9d 0a08 	vldr	s0, [sp, #32]
    344c:	ee02 0a10 	vmov	s4, r0
    3450:	ee80 1a02 	vdiv.f32	s2, s0, s4
    3454:	eebc 1ac1 	vcvt.u32.f32	s2, s2
    3458:	ee11 0a10 	vmov	r0, s2
    345c:	a90d      	add	r1, sp, #52	; 0x34
    345e:	f841 0022 	str.w	r0, [r1, r2, lsl #2]
    3462:	ee01 0a10 	vmov	s2, r0
    3466:	eeb8 1a41 	vcvt.f32.u32	s2, s2
    346a:	ee21 1a02 	vmul.f32	s2, s2, s4
    346e:	ee30 0a41 	vsub.f32	s0, s0, s2
    3472:	ed8d 0a07 	vstr	s0, [sp, #28]
    3476:	e7ff      	b.n	3478 <LPADC_GetGainConvResult+0xa0>
    3478:	ed9d 0a07 	vldr	s0, [sp, #28]
    347c:	9809      	ldr	r0, [sp, #36]	; 0x24
    347e:	3801      	subs	r0, #1
    3480:	900b      	str	r0, [sp, #44]	; 0x2c
    3482:	ed8d 0a0c 	vstr	s0, [sp, #48]	; 0x30
    3486:	e7b7      	b.n	33f8 <LPADC_GetGainConvResult+0x20>
    3488:	2011      	movs	r0, #17
    348a:	2100      	movs	r1, #0
    348c:	9104      	str	r1, [sp, #16]
    348e:	9005      	str	r0, [sp, #20]
    3490:	e7ff      	b.n	3492 <LPADC_GetGainConvResult+0xba>
    3492:	9904      	ldr	r1, [sp, #16]
    3494:	9805      	ldr	r0, [sp, #20]
    3496:	9002      	str	r0, [sp, #8]
    3498:	9103      	str	r1, [sp, #12]
    349a:	0400      	lsls	r0, r0, #16
    349c:	b1a8      	cbz	r0, 34ca <LPADC_GetGainConvResult+0xf2>
    349e:	e7ff      	b.n	34a0 <LPADC_GetGainConvResult+0xc8>
    34a0:	9a03      	ldr	r2, [sp, #12]
    34a2:	9902      	ldr	r1, [sp, #8]
    34a4:	f04f 30ff 	mov.w	r0, #4294967295	; 0xffffffff
    34a8:	fa10 f381 	uxtah	r3, r0, r1
    34ac:	a80d      	add	r0, sp, #52	; 0x34
    34ae:	f850 0023 	ldr.w	r0, [r0, r3, lsl #2]
    34b2:	2101      	movs	r1, #1
    34b4:	4099      	lsls	r1, r3
    34b6:	fb00 2001 	mla	r0, r0, r1, r2
    34ba:	9001      	str	r0, [sp, #4]
    34bc:	e7ff      	b.n	34be <LPADC_GetGainConvResult+0xe6>
    34be:	9901      	ldr	r1, [sp, #4]
    34c0:	9802      	ldr	r0, [sp, #8]
    34c2:	3801      	subs	r0, #1
    34c4:	9104      	str	r1, [sp, #16]
    34c6:	9005      	str	r0, [sp, #20]
    34c8:	e7e3      	b.n	3492 <LPADC_GetGainConvResult+0xba>
    34ca:	9803      	ldr	r0, [sp, #12]
    34cc:	b01e      	add	sp, #120	; 0x78
    34ce:	bd80      	pop	{r7, pc}
    34d0:	00000000 	.word	0x00000000
    34d4:	3ff00000 	.word	0x3ff00000

000034d8 <HAL_UartInit>:
    34d8:	b580      	push	{r7, lr}
    34da:	466f      	mov	r7, sp
    34dc:	b084      	sub	sp, #16
    34de:	9101      	str	r1, [sp, #4]
    34e0:	9002      	str	r0, [sp, #8]
    34e2:	f000 f812 	bl	350a <HAL_UartInitCommon>
    34e6:	4601      	mov	r1, r0
    34e8:	9103      	str	r1, [sp, #12]
    34ea:	b118      	cbz	r0, 34f4 <HAL_UartInit+0x1c>
    34ec:	e7ff      	b.n	34ee <HAL_UartInit+0x16>
    34ee:	9803      	ldr	r0, [sp, #12]
    34f0:	9000      	str	r0, [sp, #0]
    34f2:	e006      	b.n	3502 <HAL_UartInit+0x2a>
    34f4:	9902      	ldr	r1, [sp, #8]
    34f6:	9801      	ldr	r0, [sp, #4]
    34f8:	7b80      	ldrb	r0, [r0, #14]
    34fa:	7008      	strb	r0, [r1, #0]
    34fc:	2000      	movs	r0, #0
    34fe:	9000      	str	r0, [sp, #0]
    3500:	e7ff      	b.n	3502 <HAL_UartInit+0x2a>
    3502:	9800      	ldr	r0, [sp, #0]
    3504:	b280      	uxth	r0, r0
    3506:	b004      	add	sp, #16
    3508:	bd80      	pop	{r7, pc}

0000350a <HAL_UartInitCommon>:
    350a:	b580      	push	{r7, lr}
    350c:	466f      	mov	r7, sp
    350e:	b088      	sub	sp, #32
    3510:	9102      	str	r1, [sp, #8]
    3512:	b108      	cbz	r0, 3518 <HAL_UartInitCommon+0xe>
    3514:	e7ff      	b.n	3516 <HAL_UartInitCommon+0xc>
    3516:	e00f      	b.n	3538 <HAL_UartInitCommon+0x2e>
    3518:	f249 1038 	movw	r0, #37176	; 0x9138
    351c:	f2c0 0000 	movt	r0, #0
    3520:	f249 12ba 	movw	r2, #37306	; 0x91ba
    3524:	f2c0 0200 	movt	r2, #0
    3528:	f648 2328 	movw	r3, #35368	; 0x8a28
    352c:	f2c0 0300 	movt	r3, #0
    3530:	f44f 718c 	mov.w	r1, #280	; 0x118
    3534:	f001 fc17 	bl	4d66 <__assert_func>
    3538:	9802      	ldr	r0, [sp, #8]
    353a:	b108      	cbz	r0, 3540 <HAL_UartInitCommon+0x36>
    353c:	e7ff      	b.n	353e <HAL_UartInitCommon+0x34>
    353e:	e00f      	b.n	3560 <HAL_UartInitCommon+0x56>
    3540:	f249 1038 	movw	r0, #37176	; 0x9138
    3544:	f2c0 0000 	movt	r0, #0
    3548:	f249 12ba 	movw	r2, #37306	; 0x91ba
    354c:	f2c0 0200 	movt	r2, #0
    3550:	f648 23fe 	movw	r3, #35582	; 0x8afe
    3554:	f2c0 0300 	movt	r3, #0
    3558:	f240 1119 	movw	r1, #281	; 0x119
    355c:	f001 fc03 	bl	4d66 <__assert_func>
    3560:	9802      	ldr	r0, [sp, #8]
    3562:	7b80      	ldrb	r0, [r0, #14]
    3564:	2807      	cmp	r0, #7
    3566:	d801      	bhi.n	356c <HAL_UartInitCommon+0x62>
    3568:	e7ff      	b.n	356a <HAL_UartInitCommon+0x60>
    356a:	e00f      	b.n	358c <HAL_UartInitCommon+0x82>
    356c:	f249 1038 	movw	r0, #37176	; 0x9138
    3570:	f2c0 0000 	movt	r0, #0
    3574:	f249 12ba 	movw	r2, #37306	; 0x91ba
    3578:	f2c0 0200 	movt	r2, #0
    357c:	f249 13cd 	movw	r3, #37325	; 0x91cd
    3580:	f2c0 0300 	movt	r3, #0
    3584:	f44f 718d 	mov.w	r1, #282	; 0x11a
    3588:	f001 fbed 	bl	4d66 <__assert_func>
    358c:	9802      	ldr	r0, [sp, #8]
    358e:	7b81      	ldrb	r1, [r0, #14]
    3590:	f249 203c 	movw	r0, #37436	; 0x923c
    3594:	f2c0 0000 	movt	r0, #0
    3598:	f850 0021 	ldr.w	r0, [r0, r1, lsl #2]
    359c:	b108      	cbz	r0, 35a2 <HAL_UartInitCommon+0x98>
    359e:	e7ff      	b.n	35a0 <HAL_UartInitCommon+0x96>
    35a0:	e00f      	b.n	35c2 <HAL_UartInitCommon+0xb8>
    35a2:	f249 1038 	movw	r0, #37176	; 0x9138
    35a6:	f2c0 0000 	movt	r0, #0
    35aa:	f249 12ba 	movw	r2, #37306	; 0x91ba
    35ae:	f2c0 0200 	movt	r2, #0
    35b2:	f249 2314 	movw	r3, #37396	; 0x9214
    35b6:	f2c0 0300 	movt	r3, #0
    35ba:	f240 111b 	movw	r1, #283	; 0x11b
    35be:	f001 fbd2 	bl	4d66 <__assert_func>
    35c2:	a803      	add	r0, sp, #12
    35c4:	f7ff fb44 	bl	2c50 <USART_GetDefaultConfig>
    35c8:	9802      	ldr	r0, [sp, #8]
    35ca:	6841      	ldr	r1, [r0, #4]
    35cc:	9103      	str	r1, [sp, #12]
    35ce:	7b00      	ldrb	r0, [r0, #12]
    35d0:	b920      	cbnz	r0, 35dc <HAL_UartInitCommon+0xd2>
    35d2:	e7ff      	b.n	35d4 <HAL_UartInitCommon+0xca>
    35d4:	9802      	ldr	r0, [sp, #8]
    35d6:	7b40      	ldrb	r0, [r0, #13]
    35d8:	b120      	cbz	r0, 35e4 <HAL_UartInitCommon+0xda>
    35da:	e7ff      	b.n	35dc <HAL_UartInitCommon+0xd2>
    35dc:	2001      	movs	r0, #1
    35de:	f88d 0018 	strb.w	r0, [sp, #24]
    35e2:	e7ff      	b.n	35e4 <HAL_UartInitCommon+0xda>
    35e4:	9802      	ldr	r0, [sp, #8]
    35e6:	7a00      	ldrb	r0, [r0, #8]
    35e8:	2802      	cmp	r0, #2
    35ea:	d104      	bne.n	35f6 <HAL_UartInitCommon+0xec>
    35ec:	e7ff      	b.n	35ee <HAL_UartInitCommon+0xe4>
    35ee:	2002      	movs	r0, #2
    35f0:	f88d 0010 	strb.w	r0, [sp, #16]
    35f4:	e00d      	b.n	3612 <HAL_UartInitCommon+0x108>
    35f6:	9802      	ldr	r0, [sp, #8]
    35f8:	7a00      	ldrb	r0, [r0, #8]
    35fa:	2803      	cmp	r0, #3
    35fc:	d104      	bne.n	3608 <HAL_UartInitCommon+0xfe>
    35fe:	e7ff      	b.n	3600 <HAL_UartInitCommon+0xf6>
    3600:	2003      	movs	r0, #3
    3602:	f88d 0010 	strb.w	r0, [sp, #16]
    3606:	e003      	b.n	3610 <HAL_UartInitCommon+0x106>
    3608:	2000      	movs	r0, #0
    360a:	f88d 0010 	strb.w	r0, [sp, #16]
    360e:	e7ff      	b.n	3610 <HAL_UartInitCommon+0x106>
    3610:	e7ff      	b.n	3612 <HAL_UartInitCommon+0x108>
    3612:	9802      	ldr	r0, [sp, #8]
    3614:	7a40      	ldrb	r0, [r0, #9]
    3616:	2801      	cmp	r0, #1
    3618:	d104      	bne.n	3624 <HAL_UartInitCommon+0x11a>
    361a:	e7ff      	b.n	361c <HAL_UartInitCommon+0x112>
    361c:	2001      	movs	r0, #1
    361e:	f88d 0011 	strb.w	r0, [sp, #17]
    3622:	e003      	b.n	362c <HAL_UartInitCommon+0x122>
    3624:	2000      	movs	r0, #0
    3626:	f88d 0011 	strb.w	r0, [sp, #17]
    362a:	e7ff      	b.n	362c <HAL_UartInitCommon+0x122>
    362c:	9902      	ldr	r1, [sp, #8]
    362e:	7a88      	ldrb	r0, [r1, #10]
    3630:	2800      	cmp	r0, #0
    3632:	bf18      	it	ne
    3634:	2001      	movne	r0, #1
    3636:	f88d 0014 	strb.w	r0, [sp, #20]
    363a:	7ac8      	ldrb	r0, [r1, #11]
    363c:	2800      	cmp	r0, #0
    363e:	bf18      	it	ne
    3640:	2001      	movne	r0, #1
    3642:	f88d 0015 	strb.w	r0, [sp, #21]
    3646:	2000      	movs	r0, #0
    3648:	f88d 0019 	strb.w	r0, [sp, #25]
    364c:	f88d 001a 	strb.w	r0, [sp, #26]
    3650:	7b8a      	ldrb	r2, [r1, #14]
    3652:	f249 203c 	movw	r0, #37436	; 0x923c
    3656:	f2c0 0000 	movt	r0, #0
    365a:	f850 0022 	ldr.w	r0, [r0, r2, lsl #2]
    365e:	680a      	ldr	r2, [r1, #0]
    3660:	a903      	add	r1, sp, #12
    3662:	f7ff f905 	bl	2870 <USART_Init>
    3666:	4601      	mov	r1, r0
    3668:	9101      	str	r1, [sp, #4]
    366a:	b128      	cbz	r0, 3678 <HAL_UartInitCommon+0x16e>
    366c:	e7ff      	b.n	366e <HAL_UartInitCommon+0x164>
    366e:	9801      	ldr	r0, [sp, #4]
    3670:	f000 f809 	bl	3686 <HAL_UartGetStatus>
    3674:	9000      	str	r0, [sp, #0]
    3676:	e002      	b.n	367e <HAL_UartInitCommon+0x174>
    3678:	2000      	movs	r0, #0
    367a:	9000      	str	r0, [sp, #0]
    367c:	e7ff      	b.n	367e <HAL_UartInitCommon+0x174>
    367e:	9800      	ldr	r0, [sp, #0]
    3680:	b280      	uxth	r0, r0
    3682:	b008      	add	sp, #32
    3684:	bd80      	pop	{r7, pc}

00003686 <HAL_UartGetStatus>:
    3686:	b081      	sub	sp, #4
    3688:	b918      	cbnz	r0, 3692 <HAL_UartGetStatus+0xc>
    368a:	e7ff      	b.n	368c <HAL_UartGetStatus+0x6>
    368c:	2000      	movs	r0, #0
    368e:	9000      	str	r0, [sp, #0]
    3690:	e003      	b.n	369a <HAL_UartGetStatus+0x14>
    3692:	f642 70af 	movw	r0, #12207	; 0x2faf
    3696:	9000      	str	r0, [sp, #0]
    3698:	e7ff      	b.n	369a <HAL_UartGetStatus+0x14>
    369a:	9800      	ldr	r0, [sp, #0]
    369c:	b280      	uxth	r0, r0
    369e:	b001      	add	sp, #4
    36a0:	4770      	bx	lr

000036a2 <HAL_UartSendBlocking>:
    36a2:	b580      	push	{r7, lr}
    36a4:	466f      	mov	r7, sp
    36a6:	b084      	sub	sp, #16
    36a8:	9201      	str	r2, [sp, #4]
    36aa:	9102      	str	r1, [sp, #8]
    36ac:	9003      	str	r0, [sp, #12]
    36ae:	b108      	cbz	r0, 36b4 <HAL_UartSendBlocking+0x12>
    36b0:	e7ff      	b.n	36b2 <HAL_UartSendBlocking+0x10>
    36b2:	e00f      	b.n	36d4 <HAL_UartSendBlocking+0x32>
    36b4:	f249 1038 	movw	r0, #37176	; 0x9138
    36b8:	f2c0 0000 	movt	r0, #0
    36bc:	f249 128f 	movw	r2, #37263	; 0x918f
    36c0:	f2c0 0200 	movt	r2, #0
    36c4:	f648 2328 	movw	r3, #35368	; 0x8a28
    36c8:	f2c0 0300 	movt	r3, #0
    36cc:	f44f 71cb 	mov.w	r1, #406	; 0x196
    36d0:	f001 fb49 	bl	4d66 <__assert_func>
    36d4:	9802      	ldr	r0, [sp, #8]
    36d6:	b108      	cbz	r0, 36dc <HAL_UartSendBlocking+0x3a>
    36d8:	e7ff      	b.n	36da <HAL_UartSendBlocking+0x38>
    36da:	e00f      	b.n	36fc <HAL_UartSendBlocking+0x5a>
    36dc:	f249 1038 	movw	r0, #37176	; 0x9138
    36e0:	f2c0 0000 	movt	r0, #0
    36e4:	f249 128f 	movw	r2, #37263	; 0x918f
    36e8:	f2c0 0200 	movt	r2, #0
    36ec:	f249 1383 	movw	r3, #37251	; 0x9183
    36f0:	f2c0 0300 	movt	r3, #0
    36f4:	f240 1197 	movw	r1, #407	; 0x197
    36f8:	f001 fb35 	bl	4d66 <__assert_func>
    36fc:	9801      	ldr	r0, [sp, #4]
    36fe:	b108      	cbz	r0, 3704 <HAL_UartSendBlocking+0x62>
    3700:	e7ff      	b.n	3702 <HAL_UartSendBlocking+0x60>
    3702:	e00f      	b.n	3724 <HAL_UartSendBlocking+0x82>
    3704:	f249 1038 	movw	r0, #37176	; 0x9138
    3708:	f2c0 0000 	movt	r0, #0
    370c:	f249 128f 	movw	r2, #37263	; 0x918f
    3710:	f2c0 0200 	movt	r2, #0
    3714:	f249 1388 	movw	r3, #37256	; 0x9188
    3718:	f2c0 0300 	movt	r3, #0
    371c:	f44f 71cc 	mov.w	r1, #408	; 0x198
    3720:	f001 fb21 	bl	4d66 <__assert_func>
    3724:	9a01      	ldr	r2, [sp, #4]
    3726:	9902      	ldr	r1, [sp, #8]
    3728:	9803      	ldr	r0, [sp, #12]
    372a:	7803      	ldrb	r3, [r0, #0]
    372c:	f249 203c 	movw	r0, #37436	; 0x923c
    3730:	f2c0 0000 	movt	r0, #0
    3734:	f850 0023 	ldr.w	r0, [r0, r3, lsl #2]
    3738:	f7ff fabc 	bl	2cb4 <USART_WriteBlocking>
    373c:	2000      	movs	r0, #0
    373e:	b004      	add	sp, #16
    3740:	bd80      	pop	{r7, pc}

00003742 <Serial_UartInit>:
    3742:	b580      	push	{r7, lr}
    3744:	466f      	mov	r7, sp
    3746:	b084      	sub	sp, #16
    3748:	9102      	str	r1, [sp, #8]
    374a:	9003      	str	r0, [sp, #12]
    374c:	e7ff      	b.n	374e <Serial_UartInit+0xc>
    374e:	9802      	ldr	r0, [sp, #8]
    3750:	b908      	cbnz	r0, 3756 <Serial_UartInit+0x14>
    3752:	e7ff      	b.n	3754 <Serial_UartInit+0x12>
    3754:	e7fb      	b.n	374e <Serial_UartInit+0xc>
    3756:	e7ff      	b.n	3758 <Serial_UartInit+0x16>
    3758:	9803      	ldr	r0, [sp, #12]
    375a:	b908      	cbnz	r0, 3760 <Serial_UartInit+0x1e>
    375c:	e7ff      	b.n	375e <Serial_UartInit+0x1c>
    375e:	e7fb      	b.n	3758 <Serial_UartInit+0x16>
    3760:	e7ff      	b.n	3762 <Serial_UartInit+0x20>
    3762:	2001      	movs	r0, #1
    3764:	b908      	cbnz	r0, 376a <Serial_UartInit+0x28>
    3766:	e7ff      	b.n	3768 <Serial_UartInit+0x26>
    3768:	e7fb      	b.n	3762 <Serial_UartInit+0x20>
    376a:	9902      	ldr	r1, [sp, #8]
    376c:	9803      	ldr	r0, [sp, #12]
    376e:	f7ff feb3 	bl	34d8 <HAL_UartInit>
    3772:	9001      	str	r0, [sp, #4]
    3774:	e7ff      	b.n	3776 <Serial_UartInit+0x34>
    3776:	9801      	ldr	r0, [sp, #4]
    3778:	0400      	lsls	r0, r0, #16
    377a:	b108      	cbz	r0, 3780 <Serial_UartInit+0x3e>
    377c:	e7ff      	b.n	377e <Serial_UartInit+0x3c>
    377e:	e7fa      	b.n	3776 <Serial_UartInit+0x34>
    3780:	9801      	ldr	r0, [sp, #4]
    3782:	b280      	uxth	r0, r0
    3784:	b004      	add	sp, #16
    3786:	bd80      	pop	{r7, pc}

00003788 <Serial_UartWrite>:
    3788:	b580      	push	{r7, lr}
    378a:	466f      	mov	r7, sp
    378c:	b084      	sub	sp, #16
    378e:	9201      	str	r2, [sp, #4]
    3790:	9102      	str	r1, [sp, #8]
    3792:	9003      	str	r0, [sp, #12]
    3794:	e7ff      	b.n	3796 <Serial_UartWrite+0xe>
    3796:	9803      	ldr	r0, [sp, #12]
    3798:	b908      	cbnz	r0, 379e <Serial_UartWrite+0x16>
    379a:	e7ff      	b.n	379c <Serial_UartWrite+0x14>
    379c:	e7fb      	b.n	3796 <Serial_UartWrite+0xe>
    379e:	e7ff      	b.n	37a0 <Serial_UartWrite+0x18>
    37a0:	9802      	ldr	r0, [sp, #8]
    37a2:	b908      	cbnz	r0, 37a8 <Serial_UartWrite+0x20>
    37a4:	e7ff      	b.n	37a6 <Serial_UartWrite+0x1e>
    37a6:	e7fb      	b.n	37a0 <Serial_UartWrite+0x18>
    37a8:	e7ff      	b.n	37aa <Serial_UartWrite+0x22>
    37aa:	9801      	ldr	r0, [sp, #4]
    37ac:	b908      	cbnz	r0, 37b2 <Serial_UartWrite+0x2a>
    37ae:	e7ff      	b.n	37b0 <Serial_UartWrite+0x28>
    37b0:	e7fb      	b.n	37aa <Serial_UartWrite+0x22>
    37b2:	9a01      	ldr	r2, [sp, #4]
    37b4:	9902      	ldr	r1, [sp, #8]
    37b6:	9803      	ldr	r0, [sp, #12]
    37b8:	f7ff ff73 	bl	36a2 <HAL_UartSendBlocking>
    37bc:	b004      	add	sp, #16
    37be:	bd80      	pop	{r7, pc}

000037c0 <SerialManager_Init>:
    37c0:	b580      	push	{r7, lr}
    37c2:	466f      	mov	r7, sp
    37c4:	b084      	sub	sp, #16
    37c6:	9102      	str	r1, [sp, #8]
    37c8:	9003      	str	r0, [sp, #12]
    37ca:	e7ff      	b.n	37cc <SerialManager_Init+0xc>
    37cc:	9802      	ldr	r0, [sp, #8]
    37ce:	b908      	cbnz	r0, 37d4 <SerialManager_Init+0x14>
    37d0:	e7ff      	b.n	37d2 <SerialManager_Init+0x12>
    37d2:	e7fb      	b.n	37cc <SerialManager_Init+0xc>
    37d4:	e7ff      	b.n	37d6 <SerialManager_Init+0x16>
    37d6:	9803      	ldr	r0, [sp, #12]
    37d8:	b908      	cbnz	r0, 37de <SerialManager_Init+0x1e>
    37da:	e7ff      	b.n	37dc <SerialManager_Init+0x1c>
    37dc:	e7fb      	b.n	37d6 <SerialManager_Init+0x16>
    37de:	e7ff      	b.n	37e0 <SerialManager_Init+0x20>
    37e0:	2001      	movs	r0, #1
    37e2:	b908      	cbnz	r0, 37e8 <SerialManager_Init+0x28>
    37e4:	e7ff      	b.n	37e6 <SerialManager_Init+0x26>
    37e6:	e7fb      	b.n	37e0 <SerialManager_Init+0x20>
    37e8:	9803      	ldr	r0, [sp, #12]
    37ea:	4601      	mov	r1, r0
    37ec:	9101      	str	r1, [sp, #4]
    37ee:	2100      	movs	r1, #0
    37f0:	2214      	movs	r2, #20
    37f2:	f004 fe07 	bl	8404 <memset>
    37f6:	9a03      	ldr	r2, [sp, #12]
    37f8:	9802      	ldr	r0, [sp, #8]
    37fa:	7a01      	ldrb	r1, [r0, #8]
    37fc:	7011      	strb	r1, [r2, #0]
    37fe:	7a00      	ldrb	r0, [r0, #8]
    3800:	2801      	cmp	r0, #1
    3802:	d108      	bne.n	3816 <SerialManager_Init+0x56>
    3804:	e7ff      	b.n	3806 <SerialManager_Init+0x46>
    3806:	9902      	ldr	r1, [sp, #8]
    3808:	9801      	ldr	r0, [sp, #4]
    380a:	300c      	adds	r0, #12
    380c:	68c9      	ldr	r1, [r1, #12]
    380e:	f7ff ff98 	bl	3742 <Serial_UartInit>
    3812:	9000      	str	r0, [sp, #0]
    3814:	e003      	b.n	381e <SerialManager_Init+0x5e>
    3816:	f243 5021 	movw	r0, #13601	; 0x3521
    381a:	9000      	str	r0, [sp, #0]
    381c:	e7ff      	b.n	381e <SerialManager_Init+0x5e>
    381e:	9800      	ldr	r0, [sp, #0]
    3820:	b280      	uxth	r0, r0
    3822:	b004      	add	sp, #16
    3824:	bd80      	pop	{r7, pc}

00003826 <SerialManager_OpenWriteHandle>:
    3826:	b580      	push	{r7, lr}
    3828:	466f      	mov	r7, sp
    382a:	b084      	sub	sp, #16
    382c:	9102      	str	r1, [sp, #8]
    382e:	9003      	str	r0, [sp, #12]
    3830:	e7ff      	b.n	3832 <SerialManager_OpenWriteHandle+0xc>
    3832:	9803      	ldr	r0, [sp, #12]
    3834:	b908      	cbnz	r0, 383a <SerialManager_OpenWriteHandle+0x14>
    3836:	e7ff      	b.n	3838 <SerialManager_OpenWriteHandle+0x12>
    3838:	e7fb      	b.n	3832 <SerialManager_OpenWriteHandle+0xc>
    383a:	e7ff      	b.n	383c <SerialManager_OpenWriteHandle+0x16>
    383c:	9802      	ldr	r0, [sp, #8]
    383e:	b908      	cbnz	r0, 3844 <SerialManager_OpenWriteHandle+0x1e>
    3840:	e7ff      	b.n	3842 <SerialManager_OpenWriteHandle+0x1c>
    3842:	e7fb      	b.n	383c <SerialManager_OpenWriteHandle+0x16>
    3844:	e7ff      	b.n	3846 <SerialManager_OpenWriteHandle+0x20>
    3846:	2001      	movs	r0, #1
    3848:	b908      	cbnz	r0, 384e <SerialManager_OpenWriteHandle+0x28>
    384a:	e7ff      	b.n	384c <SerialManager_OpenWriteHandle+0x26>
    384c:	e7fb      	b.n	3846 <SerialManager_OpenWriteHandle+0x20>
    384e:	f000 f812 	bl	3876 <DisableGlobalIRQ>
    3852:	9a03      	ldr	r2, [sp, #12]
    3854:	6891      	ldr	r1, [r2, #8]
    3856:	3101      	adds	r1, #1
    3858:	6091      	str	r1, [r2, #8]
    385a:	f000 f810 	bl	387e <EnableGlobalIRQ>
    385e:	9802      	ldr	r0, [sp, #8]
    3860:	2100      	movs	r1, #0
    3862:	9101      	str	r1, [sp, #4]
    3864:	2204      	movs	r2, #4
    3866:	f004 fdcd 	bl	8404 <memset>
    386a:	9a02      	ldr	r2, [sp, #8]
    386c:	9903      	ldr	r1, [sp, #12]
    386e:	9801      	ldr	r0, [sp, #4]
    3870:	6011      	str	r1, [r2, #0]
    3872:	b004      	add	sp, #16
    3874:	bd80      	pop	{r7, pc}

00003876 <DisableGlobalIRQ>:
    3876:	f3ef 8010 	mrs	r0, PRIMASK
    387a:	b672      	cpsid	i
    387c:	4770      	bx	lr

0000387e <EnableGlobalIRQ>:
    387e:	f380 8810 	msr	PRIMASK, r0
    3882:	4770      	bx	lr

00003884 <SerialManager_WriteBlocking>:
    3884:	b580      	push	{r7, lr}
    3886:	466f      	mov	r7, sp
    3888:	f000 f801 	bl	388e <SerialManager_Write>
    388c:	bd80      	pop	{r7, pc}

0000388e <SerialManager_Write>:
    388e:	b580      	push	{r7, lr}
    3890:	466f      	mov	r7, sp
    3892:	b086      	sub	sp, #24
    3894:	9203      	str	r2, [sp, #12]
    3896:	9104      	str	r1, [sp, #16]
    3898:	9005      	str	r0, [sp, #20]
    389a:	e7ff      	b.n	389c <SerialManager_Write+0xe>
    389c:	9805      	ldr	r0, [sp, #20]
    389e:	b908      	cbnz	r0, 38a4 <SerialManager_Write+0x16>
    38a0:	e7ff      	b.n	38a2 <SerialManager_Write+0x14>
    38a2:	e7fb      	b.n	389c <SerialManager_Write+0xe>
    38a4:	e7ff      	b.n	38a6 <SerialManager_Write+0x18>
    38a6:	9804      	ldr	r0, [sp, #16]
    38a8:	b908      	cbnz	r0, 38ae <SerialManager_Write+0x20>
    38aa:	e7ff      	b.n	38ac <SerialManager_Write+0x1e>
    38ac:	e7fb      	b.n	38a6 <SerialManager_Write+0x18>
    38ae:	e7ff      	b.n	38b0 <SerialManager_Write+0x22>
    38b0:	9803      	ldr	r0, [sp, #12]
    38b2:	b908      	cbnz	r0, 38b8 <SerialManager_Write+0x2a>
    38b4:	e7ff      	b.n	38b6 <SerialManager_Write+0x28>
    38b6:	e7fb      	b.n	38b0 <SerialManager_Write+0x22>
    38b8:	9805      	ldr	r0, [sp, #20]
    38ba:	4601      	mov	r1, r0
    38bc:	9101      	str	r1, [sp, #4]
    38be:	6800      	ldr	r0, [r0, #0]
    38c0:	9002      	str	r0, [sp, #8]
    38c2:	e7ff      	b.n	38c4 <SerialManager_Write+0x36>
    38c4:	9802      	ldr	r0, [sp, #8]
    38c6:	b908      	cbnz	r0, 38cc <SerialManager_Write+0x3e>
    38c8:	e7ff      	b.n	38ca <SerialManager_Write+0x3c>
    38ca:	e7fb      	b.n	38c4 <SerialManager_Write+0x36>
    38cc:	9b03      	ldr	r3, [sp, #12]
    38ce:	9a04      	ldr	r2, [sp, #16]
    38d0:	9901      	ldr	r1, [sp, #4]
    38d2:	9802      	ldr	r0, [sp, #8]
    38d4:	f000 f802 	bl	38dc <SerialManager_StartWriting>
    38d8:	b006      	add	sp, #24
    38da:	bd80      	pop	{r7, pc}

000038dc <SerialManager_StartWriting>:
    38dc:	b580      	push	{r7, lr}
    38de:	466f      	mov	r7, sp
    38e0:	b084      	sub	sp, #16
    38e2:	9301      	str	r3, [sp, #4]
    38e4:	9202      	str	r2, [sp, #8]
    38e6:	9003      	str	r0, [sp, #12]
    38e8:	7800      	ldrb	r0, [r0, #0]
    38ea:	2801      	cmp	r0, #1
    38ec:	d108      	bne.n	3900 <SerialManager_StartWriting+0x24>
    38ee:	e7ff      	b.n	38f0 <SerialManager_StartWriting+0x14>
    38f0:	9a01      	ldr	r2, [sp, #4]
    38f2:	9902      	ldr	r1, [sp, #8]
    38f4:	9803      	ldr	r0, [sp, #12]
    38f6:	300c      	adds	r0, #12
    38f8:	f7ff ff46 	bl	3788 <Serial_UartWrite>
    38fc:	9000      	str	r0, [sp, #0]
    38fe:	e003      	b.n	3908 <SerialManager_StartWriting+0x2c>
    3900:	f243 5021 	movw	r0, #13601	; 0x3521
    3904:	9000      	str	r0, [sp, #0]
    3906:	e7ff      	b.n	3908 <SerialManager_StartWriting+0x2c>
    3908:	9800      	ldr	r0, [sp, #0]
    390a:	b280      	uxth	r0, r0
    390c:	b004      	add	sp, #16
    390e:	bd80      	pop	{r7, pc}

00003910 <StrFormatPrintf>:
    3910:	b5f0      	push	{r4, r5, r6, r7, lr}
    3912:	af03      	add	r7, sp, #12
    3914:	f84d bd04 	str.w	fp, [sp, #-4]!
    3918:	b0c0      	sub	sp, #256	; 0x100
    391a:	9327      	str	r3, [sp, #156]	; 0x9c
    391c:	9228      	str	r2, [sp, #160]	; 0xa0
    391e:	913f      	str	r1, [sp, #252]	; 0xfc
    3920:	2100      	movs	r1, #0
    3922:	9134      	str	r1, [sp, #208]	; 0xd0
    3924:	912f      	str	r1, [sp, #188]	; 0xbc
    3926:	912e      	str	r1, [sp, #184]	; 0xb8
    3928:	903e      	str	r0, [sp, #248]	; 0xf8
    392a:	e7ff      	b.n	392c <StrFormatPrintf+0x1c>
    392c:	983e      	ldr	r0, [sp, #248]	; 0xf8
    392e:	7800      	ldrb	r0, [r0, #0]
    3930:	b908      	cbnz	r0, 3936 <StrFormatPrintf+0x26>
    3932:	e7ff      	b.n	3934 <StrFormatPrintf+0x24>
    3934:	e1e8      	b.n	3d08 <StrFormatPrintf+0x3f8>
    3936:	983e      	ldr	r0, [sp, #248]	; 0xf8
    3938:	7800      	ldrb	r0, [r0, #0]
    393a:	4601      	mov	r1, r0
    393c:	9126      	str	r1, [sp, #152]	; 0x98
    393e:	2825      	cmp	r0, #37	; 0x25
    3940:	d00c      	beq.n	395c <StrFormatPrintf+0x4c>
    3942:	e7ff      	b.n	3944 <StrFormatPrintf+0x34>
    3944:	f8dd c09c 	ldr.w	ip, [sp, #156]	; 0x9c
    3948:	9828      	ldr	r0, [sp, #160]	; 0xa0
    394a:	9926      	ldr	r1, [sp, #152]	; 0x98
    394c:	b2ca      	uxtb	r2, r1
    394e:	a934      	add	r1, sp, #208	; 0xd0
    3950:	2301      	movs	r3, #1
    3952:	47e0      	blx	ip
    3954:	983e      	ldr	r0, [sp, #248]	; 0xf8
    3956:	3001      	adds	r0, #1
    3958:	903e      	str	r0, [sp, #248]	; 0xf8
    395a:	e7e7      	b.n	392c <StrFormatPrintf+0x1c>
    395c:	a83e      	add	r0, sp, #248	; 0xf8
    395e:	9023      	str	r0, [sp, #140]	; 0x8c
    3960:	f000 f9de 	bl	3d20 <PrintCheckFlags>
    3964:	4601      	mov	r1, r0
    3966:	9823      	ldr	r0, [sp, #140]	; 0x8c
    3968:	9133      	str	r1, [sp, #204]	; 0xcc
    396a:	a93f      	add	r1, sp, #252	; 0xfc
    396c:	9121      	str	r1, [sp, #132]	; 0x84
    396e:	f000 fa41 	bl	3df4 <PrintGetWidth>
    3972:	9921      	ldr	r1, [sp, #132]	; 0x84
    3974:	4602      	mov	r2, r0
    3976:	9823      	ldr	r0, [sp, #140]	; 0x8c
    3978:	9222      	str	r2, [sp, #136]	; 0x88
    397a:	f1a7 0259 	sub.w	r2, r7, #89	; 0x59
    397e:	f000 fa87 	bl	3e90 <PrintGetPrecision>
    3982:	4601      	mov	r1, r0
    3984:	9823      	ldr	r0, [sp, #140]	; 0x8c
    3986:	9124      	str	r1, [sp, #144]	; 0x90
    3988:	f000 fb0a 	bl	3fa0 <PrintGetLengthFlag>
    398c:	4601      	mov	r1, r0
    398e:	9833      	ldr	r0, [sp, #204]	; 0xcc
    3990:	4308      	orrs	r0, r1
    3992:	9033      	str	r0, [sp, #204]	; 0xcc
    3994:	983e      	ldr	r0, [sp, #248]	; 0xf8
    3996:	1c41      	adds	r1, r0, #1
    3998:	913e      	str	r1, [sp, #248]	; 0xf8
    399a:	7840      	ldrb	r0, [r0, #1]
    399c:	4601      	mov	r1, r0
    399e:	9125      	str	r1, [sp, #148]	; 0x94
    39a0:	f000 fb50 	bl	4044 <PrintIsdi>
    39a4:	2801      	cmp	r0, #1
    39a6:	d134      	bne.n	3a12 <StrFormatPrintf+0x102>
    39a8:	e7ff      	b.n	39aa <StrFormatPrintf+0x9a>
    39aa:	9c27      	ldr	r4, [sp, #156]	; 0x9c
    39ac:	9d28      	ldr	r5, [sp, #160]	; 0xa0
    39ae:	a833      	add	r0, sp, #204	; 0xcc
    39b0:	a930      	add	r1, sp, #192	; 0xc0
    39b2:	911d      	str	r1, [sp, #116]	; 0x74
    39b4:	aa3f      	add	r2, sp, #252	; 0xfc
    39b6:	f000 fb58 	bl	406a <StrFormatExaminedi>
    39ba:	991d      	ldr	r1, [sp, #116]	; 0x74
    39bc:	4668      	mov	r0, sp
    39be:	2201      	movs	r2, #1
    39c0:	6002      	str	r2, [r0, #0]
    39c2:	f1a7 0039 	sub.w	r0, r7, #57	; 0x39
    39c6:	901e      	str	r0, [sp, #120]	; 0x78
    39c8:	230a      	movs	r3, #10
    39ca:	f000 fb81 	bl	40d0 <ConvertRadixNumToString>
    39ce:	4601      	mov	r1, r0
    39d0:	981e      	ldr	r0, [sp, #120]	; 0x78
    39d2:	9120      	str	r1, [sp, #128]	; 0x80
    39d4:	4408      	add	r0, r1
    39d6:	901f      	str	r0, [sp, #124]	; 0x7c
    39d8:	9830      	ldr	r0, [sp, #192]	; 0xc0
    39da:	9931      	ldr	r1, [sp, #196]	; 0xc4
    39dc:	9a33      	ldr	r2, [sp, #204]	; 0xcc
    39de:	f1a7 0345 	sub.w	r3, r7, #69	; 0x45
    39e2:	f000 fc61 	bl	42a8 <PrintGetSignChar>
    39e6:	f8dd c07c 	ldr.w	ip, [sp, #124]	; 0x7c
    39ea:	9922      	ldr	r1, [sp, #136]	; 0x88
    39ec:	4602      	mov	r2, r0
    39ee:	9820      	ldr	r0, [sp, #128]	; 0x80
    39f0:	4402      	add	r2, r0
    39f2:	9833      	ldr	r0, [sp, #204]	; 0xcc
    39f4:	f817 3c45 	ldrb.w	r3, [r7, #-69]
    39f8:	46ee      	mov	lr, sp
    39fa:	ae34      	add	r6, sp, #208	; 0xd0
    39fc:	f8ce 600c 	str.w	r6, [lr, #12]
    3a00:	f8ce 5008 	str.w	r5, [lr, #8]
    3a04:	f8ce 4004 	str.w	r4, [lr, #4]
    3a08:	f8ce c000 	str.w	ip, [lr]
    3a0c:	f000 fc7e 	bl	430c <PrintOutputdifFobpu>
    3a10:	e176      	b.n	3d00 <StrFormatPrintf+0x3f0>
    3a12:	9825      	ldr	r0, [sp, #148]	; 0x94
    3a14:	b2c0      	uxtb	r0, r0
    3a16:	f000 fd0a 	bl	442e <PrintIsfF>
    3a1a:	2801      	cmp	r0, #1
    3a1c:	d14f      	bne.n	3abe <StrFormatPrintf+0x1ae>
    3a1e:	e7ff      	b.n	3a20 <StrFormatPrintf+0x110>
    3a20:	9b24      	ldr	r3, [sp, #144]	; 0x90
    3a22:	983f      	ldr	r0, [sp, #252]	; 0xfc
    3a24:	3007      	adds	r0, #7
    3a26:	f020 0007 	bic.w	r0, r0, #7
    3a2a:	f100 0108 	add.w	r1, r0, #8
    3a2e:	913f      	str	r1, [sp, #252]	; 0xfc
    3a30:	ed90 0b00 	vldr	d0, [r0]
    3a34:	ed8d 0b2a 	vstr	d0, [sp, #168]	; 0xa8
    3a38:	f1a7 0039 	sub.w	r0, r7, #57	; 0x39
    3a3c:	901a      	str	r0, [sp, #104]	; 0x68
    3a3e:	a92a      	add	r1, sp, #168	; 0xa8
    3a40:	220a      	movs	r2, #10
    3a42:	f000 fd09 	bl	4458 <ConvertFloatRadixNumToString>
    3a46:	4601      	mov	r1, r0
    3a48:	981a      	ldr	r0, [sp, #104]	; 0x68
    3a4a:	460a      	mov	r2, r1
    3a4c:	921b      	str	r2, [sp, #108]	; 0x6c
    3a4e:	4408      	add	r0, r1
    3a50:	901c      	str	r0, [sp, #112]	; 0x70
    3a52:	982a      	ldr	r0, [sp, #168]	; 0xa8
    3a54:	992b      	ldr	r1, [sp, #172]	; 0xac
    3a56:	ed9f 0bb0 	vldr	d0, [pc, #704]	; 3d18 <StrFormatPrintf+0x408>
    3a5a:	ec53 2b10 	vmov	r2, r3, d0
    3a5e:	f7fd f9ad 	bl	dbc <__aeabi_dcmplt>
    3a62:	b130      	cbz	r0, 3a72 <StrFormatPrintf+0x162>
    3a64:	e7ff      	b.n	3a66 <StrFormatPrintf+0x156>
    3a66:	f04f 30ff 	mov.w	r0, #4294967295	; 0xffffffff
    3a6a:	4601      	mov	r1, r0
    3a6c:	9018      	str	r0, [sp, #96]	; 0x60
    3a6e:	9119      	str	r1, [sp, #100]	; 0x64
    3a70:	e006      	b.n	3a80 <StrFormatPrintf+0x170>
    3a72:	982a      	ldr	r0, [sp, #168]	; 0xa8
    3a74:	992b      	ldr	r1, [sp, #172]	; 0xac
    3a76:	f7fd fabf 	bl	ff8 <__aeabi_d2lz>
    3a7a:	9018      	str	r0, [sp, #96]	; 0x60
    3a7c:	9119      	str	r1, [sp, #100]	; 0x64
    3a7e:	e7ff      	b.n	3a80 <StrFormatPrintf+0x170>
    3a80:	9c27      	ldr	r4, [sp, #156]	; 0x9c
    3a82:	9d28      	ldr	r5, [sp, #160]	; 0xa0
    3a84:	9818      	ldr	r0, [sp, #96]	; 0x60
    3a86:	9919      	ldr	r1, [sp, #100]	; 0x64
    3a88:	9a33      	ldr	r2, [sp, #204]	; 0xcc
    3a8a:	f1a7 0345 	sub.w	r3, r7, #69	; 0x45
    3a8e:	f000 fc0b 	bl	42a8 <PrintGetSignChar>
    3a92:	f8dd c070 	ldr.w	ip, [sp, #112]	; 0x70
    3a96:	9922      	ldr	r1, [sp, #136]	; 0x88
    3a98:	4602      	mov	r2, r0
    3a9a:	981b      	ldr	r0, [sp, #108]	; 0x6c
    3a9c:	4402      	add	r2, r0
    3a9e:	9833      	ldr	r0, [sp, #204]	; 0xcc
    3aa0:	f817 3c45 	ldrb.w	r3, [r7, #-69]
    3aa4:	46ee      	mov	lr, sp
    3aa6:	ae34      	add	r6, sp, #208	; 0xd0
    3aa8:	f8ce 600c 	str.w	r6, [lr, #12]
    3aac:	f8ce 5008 	str.w	r5, [lr, #8]
    3ab0:	f8ce 4004 	str.w	r4, [lr, #4]
    3ab4:	f8ce c000 	str.w	ip, [lr]
    3ab8:	f000 fc28 	bl	430c <PrintOutputdifFobpu>
    3abc:	e11f      	b.n	3cfe <StrFormatPrintf+0x3ee>
    3abe:	9825      	ldr	r0, [sp, #148]	; 0x94
    3ac0:	b2c0      	uxtb	r0, r0
    3ac2:	f000 fe79 	bl	47b8 <PrintIsxX>
    3ac6:	2801      	cmp	r0, #1
    3ac8:	d136      	bne.n	3b38 <StrFormatPrintf+0x228>
    3aca:	e7ff      	b.n	3acc <StrFormatPrintf+0x1bc>
    3acc:	9825      	ldr	r0, [sp, #148]	; 0x94
    3ace:	b2c1      	uxtb	r1, r0
    3ad0:	2001      	movs	r0, #1
    3ad2:	2978      	cmp	r1, #120	; 0x78
    3ad4:	9017      	str	r0, [sp, #92]	; 0x5c
    3ad6:	d103      	bne.n	3ae0 <StrFormatPrintf+0x1d0>
    3ad8:	e7ff      	b.n	3ada <StrFormatPrintf+0x1ca>
    3ada:	2000      	movs	r0, #0
    3adc:	9017      	str	r0, [sp, #92]	; 0x5c
    3ade:	e7ff      	b.n	3ae0 <StrFormatPrintf+0x1d0>
    3ae0:	9c27      	ldr	r4, [sp, #156]	; 0x9c
    3ae2:	9d28      	ldr	r5, [sp, #160]	; 0xa0
    3ae4:	9817      	ldr	r0, [sp, #92]	; 0x5c
    3ae6:	9013      	str	r0, [sp, #76]	; 0x4c
    3ae8:	a833      	add	r0, sp, #204	; 0xcc
    3aea:	a92e      	add	r1, sp, #184	; 0xb8
    3aec:	9114      	str	r1, [sp, #80]	; 0x50
    3aee:	aa3f      	add	r2, sp, #252	; 0xfc
    3af0:	f000 fe75 	bl	47de <StrFormatExaminexX>
    3af4:	9813      	ldr	r0, [sp, #76]	; 0x4c
    3af6:	9914      	ldr	r1, [sp, #80]	; 0x50
    3af8:	f000 0001 	and.w	r0, r0, #1
    3afc:	9015      	str	r0, [sp, #84]	; 0x54
    3afe:	466a      	mov	r2, sp
    3b00:	6010      	str	r0, [r2, #0]
    3b02:	f1a7 0039 	sub.w	r0, r7, #57	; 0x39
    3b06:	9016      	str	r0, [sp, #88]	; 0x58
    3b08:	2200      	movs	r2, #0
    3b0a:	2310      	movs	r3, #16
    3b0c:	f000 fae0 	bl	40d0 <ConvertRadixNumToString>
    3b10:	9922      	ldr	r1, [sp, #136]	; 0x88
    3b12:	9b15      	ldr	r3, [sp, #84]	; 0x54
    3b14:	4602      	mov	r2, r0
    3b16:	9816      	ldr	r0, [sp, #88]	; 0x58
    3b18:	eb00 0c02 	add.w	ip, r0, r2
    3b1c:	9833      	ldr	r0, [sp, #204]	; 0xcc
    3b1e:	46ee      	mov	lr, sp
    3b20:	ae34      	add	r6, sp, #208	; 0xd0
    3b22:	f8ce 600c 	str.w	r6, [lr, #12]
    3b26:	f8ce 5008 	str.w	r5, [lr, #8]
    3b2a:	f8ce 4004 	str.w	r4, [lr, #4]
    3b2e:	f8ce c000 	str.w	ip, [lr]
    3b32:	f000 fe87 	bl	4844 <PrintOutputxX>
    3b36:	e0e1      	b.n	3cfc <StrFormatPrintf+0x3ec>
    3b38:	9825      	ldr	r0, [sp, #148]	; 0x94
    3b3a:	b2c0      	uxtb	r0, r0
    3b3c:	f000 ff5f 	bl	49fe <PrintIsobpu>
    3b40:	2801      	cmp	r0, #1
    3b42:	d13c      	bne.n	3bbe <StrFormatPrintf+0x2ae>
    3b44:	e7ff      	b.n	3b46 <StrFormatPrintf+0x236>
    3b46:	9825      	ldr	r0, [sp, #148]	; 0x94
    3b48:	b2c0      	uxtb	r0, r0
    3b4a:	2870      	cmp	r0, #112	; 0x70
    3b4c:	d10b      	bne.n	3b66 <StrFormatPrintf+0x256>
    3b4e:	e7ff      	b.n	3b50 <StrFormatPrintf+0x240>
    3b50:	983f      	ldr	r0, [sp, #252]	; 0xfc
    3b52:	1d01      	adds	r1, r0, #4
    3b54:	913f      	str	r1, [sp, #252]	; 0xfc
    3b56:	6800      	ldr	r0, [r0, #0]
    3b58:	9029      	str	r0, [sp, #164]	; 0xa4
    3b5a:	a82e      	add	r0, sp, #184	; 0xb8
    3b5c:	a929      	add	r1, sp, #164	; 0xa4
    3b5e:	2204      	movs	r2, #4
    3b60:	f7fd fc66 	bl	1430 <memcpy>
    3b64:	e005      	b.n	3b72 <StrFormatPrintf+0x262>
    3b66:	a833      	add	r0, sp, #204	; 0xcc
    3b68:	a92e      	add	r1, sp, #184	; 0xb8
    3b6a:	aa3f      	add	r2, sp, #252	; 0xfc
    3b6c:	f000 ff64 	bl	4a38 <StrFormatExamineobpu>
    3b70:	e7ff      	b.n	3b72 <StrFormatPrintf+0x262>
    3b72:	9c27      	ldr	r4, [sp, #156]	; 0x9c
    3b74:	9d28      	ldr	r5, [sp, #160]	; 0xa0
    3b76:	9825      	ldr	r0, [sp, #148]	; 0x94
    3b78:	b2c0      	uxtb	r0, r0
    3b7a:	f000 ff90 	bl	4a9e <PrintGetRadixFromobpu>
    3b7e:	4603      	mov	r3, r0
    3b80:	4669      	mov	r1, sp
    3b82:	2001      	movs	r0, #1
    3b84:	6008      	str	r0, [r1, #0]
    3b86:	f1a7 0039 	sub.w	r0, r7, #57	; 0x39
    3b8a:	9012      	str	r0, [sp, #72]	; 0x48
    3b8c:	a92e      	add	r1, sp, #184	; 0xb8
    3b8e:	2200      	movs	r2, #0
    3b90:	9211      	str	r2, [sp, #68]	; 0x44
    3b92:	f000 fa9d 	bl	40d0 <ConvertRadixNumToString>
    3b96:	9922      	ldr	r1, [sp, #136]	; 0x88
    3b98:	9b11      	ldr	r3, [sp, #68]	; 0x44
    3b9a:	4602      	mov	r2, r0
    3b9c:	9812      	ldr	r0, [sp, #72]	; 0x48
    3b9e:	eb00 0c02 	add.w	ip, r0, r2
    3ba2:	9833      	ldr	r0, [sp, #204]	; 0xcc
    3ba4:	46ee      	mov	lr, sp
    3ba6:	ae34      	add	r6, sp, #208	; 0xd0
    3ba8:	f8ce 600c 	str.w	r6, [lr, #12]
    3bac:	f8ce 5008 	str.w	r5, [lr, #8]
    3bb0:	f8ce 4004 	str.w	r4, [lr, #4]
    3bb4:	f8ce c000 	str.w	ip, [lr]
    3bb8:	f000 fba8 	bl	430c <PrintOutputdifFobpu>
    3bbc:	e09d      	b.n	3cfa <StrFormatPrintf+0x3ea>
    3bbe:	9825      	ldr	r0, [sp, #148]	; 0x94
    3bc0:	b2c0      	uxtb	r0, r0
    3bc2:	2863      	cmp	r0, #99	; 0x63
    3bc4:	d10b      	bne.n	3bde <StrFormatPrintf+0x2ce>
    3bc6:	e7ff      	b.n	3bc8 <StrFormatPrintf+0x2b8>
    3bc8:	f8dd c09c 	ldr.w	ip, [sp, #156]	; 0x9c
    3bcc:	9828      	ldr	r0, [sp, #160]	; 0xa0
    3bce:	993f      	ldr	r1, [sp, #252]	; 0xfc
    3bd0:	1d0a      	adds	r2, r1, #4
    3bd2:	923f      	str	r2, [sp, #252]	; 0xfc
    3bd4:	780a      	ldrb	r2, [r1, #0]
    3bd6:	a934      	add	r1, sp, #208	; 0xd0
    3bd8:	2301      	movs	r3, #1
    3bda:	47e0      	blx	ip
    3bdc:	e08c      	b.n	3cf8 <StrFormatPrintf+0x3e8>
    3bde:	9825      	ldr	r0, [sp, #148]	; 0x94
    3be0:	b2c0      	uxtb	r0, r0
    3be2:	2873      	cmp	r0, #115	; 0x73
    3be4:	d17e      	bne.n	3ce4 <StrFormatPrintf+0x3d4>
    3be6:	e7ff      	b.n	3be8 <StrFormatPrintf+0x2d8>
    3be8:	983f      	ldr	r0, [sp, #252]	; 0xfc
    3bea:	1d01      	adds	r1, r0, #4
    3bec:	913f      	str	r1, [sp, #252]	; 0xfc
    3bee:	6800      	ldr	r0, [r0, #0]
    3bf0:	9010      	str	r0, [sp, #64]	; 0x40
    3bf2:	2800      	cmp	r0, #0
    3bf4:	d075      	beq.n	3ce2 <StrFormatPrintf+0x3d2>
    3bf6:	e7ff      	b.n	3bf8 <StrFormatPrintf+0x2e8>
    3bf8:	9a10      	ldr	r2, [sp, #64]	; 0x40
    3bfa:	9924      	ldr	r1, [sp, #144]	; 0x90
    3bfc:	f817 0c59 	ldrb.w	r0, [r7, #-89]
    3c00:	f000 0001 	and.w	r0, r0, #1
    3c04:	f000 ff71 	bl	4aea <ConvertPrecisionWidthToLength>
    3c08:	900f      	str	r0, [sp, #60]	; 0x3c
    3c0a:	f89d 00cc 	ldrb.w	r0, [sp, #204]	; 0xcc
    3c0e:	07c0      	lsls	r0, r0, #31
    3c10:	b950      	cbnz	r0, 3c28 <StrFormatPrintf+0x318>
    3c12:	e7ff      	b.n	3c14 <StrFormatPrintf+0x304>
    3c14:	f8dd c09c 	ldr.w	ip, [sp, #156]	; 0x9c
    3c18:	9828      	ldr	r0, [sp, #160]	; 0xa0
    3c1a:	9922      	ldr	r1, [sp, #136]	; 0x88
    3c1c:	9a0f      	ldr	r2, [sp, #60]	; 0x3c
    3c1e:	1a8b      	subs	r3, r1, r2
    3c20:	a934      	add	r1, sp, #208	; 0xd0
    3c22:	2220      	movs	r2, #32
    3c24:	47e0      	blx	ip
    3c26:	e7ff      	b.n	3c28 <StrFormatPrintf+0x318>
    3c28:	f817 0c59 	ldrb.w	r0, [r7, #-89]
    3c2c:	07c0      	lsls	r0, r0, #31
    3c2e:	b370      	cbz	r0, 3c8e <StrFormatPrintf+0x37e>
    3c30:	e7ff      	b.n	3c32 <StrFormatPrintf+0x322>
    3c32:	9810      	ldr	r0, [sp, #64]	; 0x40
    3c34:	990f      	ldr	r1, [sp, #60]	; 0x3c
    3c36:	910d      	str	r1, [sp, #52]	; 0x34
    3c38:	900e      	str	r0, [sp, #56]	; 0x38
    3c3a:	e7ff      	b.n	3c3c <StrFormatPrintf+0x32c>
    3c3c:	990d      	ldr	r1, [sp, #52]	; 0x34
    3c3e:	980e      	ldr	r0, [sp, #56]	; 0x38
    3c40:	900a      	str	r0, [sp, #40]	; 0x28
    3c42:	910b      	str	r1, [sp, #44]	; 0x2c
    3c44:	7801      	ldrb	r1, [r0, #0]
    3c46:	2000      	movs	r0, #0
    3c48:	900c      	str	r0, [sp, #48]	; 0x30
    3c4a:	b139      	cbz	r1, 3c5c <StrFormatPrintf+0x34c>
    3c4c:	e7ff      	b.n	3c4e <StrFormatPrintf+0x33e>
    3c4e:	990b      	ldr	r1, [sp, #44]	; 0x2c
    3c50:	2000      	movs	r0, #0
    3c52:	2900      	cmp	r1, #0
    3c54:	bfc8      	it	gt
    3c56:	2001      	movgt	r0, #1
    3c58:	900c      	str	r0, [sp, #48]	; 0x30
    3c5a:	e7ff      	b.n	3c5c <StrFormatPrintf+0x34c>
    3c5c:	980c      	ldr	r0, [sp, #48]	; 0x30
    3c5e:	07c0      	lsls	r0, r0, #31
    3c60:	b180      	cbz	r0, 3c84 <StrFormatPrintf+0x374>
    3c62:	e7ff      	b.n	3c64 <StrFormatPrintf+0x354>
    3c64:	f8dd c09c 	ldr.w	ip, [sp, #156]	; 0x9c
    3c68:	9828      	ldr	r0, [sp, #160]	; 0xa0
    3c6a:	990a      	ldr	r1, [sp, #40]	; 0x28
    3c6c:	f811 2b01 	ldrb.w	r2, [r1], #1
    3c70:	9109      	str	r1, [sp, #36]	; 0x24
    3c72:	a934      	add	r1, sp, #208	; 0xd0
    3c74:	2301      	movs	r3, #1
    3c76:	47e0      	blx	ip
    3c78:	990b      	ldr	r1, [sp, #44]	; 0x2c
    3c7a:	9809      	ldr	r0, [sp, #36]	; 0x24
    3c7c:	3901      	subs	r1, #1
    3c7e:	910d      	str	r1, [sp, #52]	; 0x34
    3c80:	900e      	str	r0, [sp, #56]	; 0x38
    3c82:	e7db      	b.n	3c3c <StrFormatPrintf+0x32c>
    3c84:	9824      	ldr	r0, [sp, #144]	; 0x90
    3c86:	990b      	ldr	r1, [sp, #44]	; 0x2c
    3c88:	1a40      	subs	r0, r0, r1
    3c8a:	9008      	str	r0, [sp, #32]
    3c8c:	e017      	b.n	3cbe <StrFormatPrintf+0x3ae>
    3c8e:	9810      	ldr	r0, [sp, #64]	; 0x40
    3c90:	9007      	str	r0, [sp, #28]
    3c92:	e7ff      	b.n	3c94 <StrFormatPrintf+0x384>
    3c94:	9807      	ldr	r0, [sp, #28]
    3c96:	9006      	str	r0, [sp, #24]
    3c98:	7800      	ldrb	r0, [r0, #0]
    3c9a:	b168      	cbz	r0, 3cb8 <StrFormatPrintf+0x3a8>
    3c9c:	e7ff      	b.n	3c9e <StrFormatPrintf+0x38e>
    3c9e:	f8dd c09c 	ldr.w	ip, [sp, #156]	; 0x9c
    3ca2:	9828      	ldr	r0, [sp, #160]	; 0xa0
    3ca4:	9906      	ldr	r1, [sp, #24]
    3ca6:	f811 2b01 	ldrb.w	r2, [r1], #1
    3caa:	9105      	str	r1, [sp, #20]
    3cac:	a934      	add	r1, sp, #208	; 0xd0
    3cae:	2301      	movs	r3, #1
    3cb0:	47e0      	blx	ip
    3cb2:	9805      	ldr	r0, [sp, #20]
    3cb4:	9007      	str	r0, [sp, #28]
    3cb6:	e7ed      	b.n	3c94 <StrFormatPrintf+0x384>
    3cb8:	980f      	ldr	r0, [sp, #60]	; 0x3c
    3cba:	9008      	str	r0, [sp, #32]
    3cbc:	e7ff      	b.n	3cbe <StrFormatPrintf+0x3ae>
    3cbe:	9808      	ldr	r0, [sp, #32]
    3cc0:	9004      	str	r0, [sp, #16]
    3cc2:	f89d 00cc 	ldrb.w	r0, [sp, #204]	; 0xcc
    3cc6:	07c0      	lsls	r0, r0, #31
    3cc8:	b150      	cbz	r0, 3ce0 <StrFormatPrintf+0x3d0>
    3cca:	e7ff      	b.n	3ccc <StrFormatPrintf+0x3bc>
    3ccc:	f8dd c09c 	ldr.w	ip, [sp, #156]	; 0x9c
    3cd0:	9828      	ldr	r0, [sp, #160]	; 0xa0
    3cd2:	9922      	ldr	r1, [sp, #136]	; 0x88
    3cd4:	9a04      	ldr	r2, [sp, #16]
    3cd6:	1a8b      	subs	r3, r1, r2
    3cd8:	a934      	add	r1, sp, #208	; 0xd0
    3cda:	2220      	movs	r2, #32
    3cdc:	47e0      	blx	ip
    3cde:	e7ff      	b.n	3ce0 <StrFormatPrintf+0x3d0>
    3ce0:	e7ff      	b.n	3ce2 <StrFormatPrintf+0x3d2>
    3ce2:	e008      	b.n	3cf6 <StrFormatPrintf+0x3e6>
    3ce4:	f8dd c09c 	ldr.w	ip, [sp, #156]	; 0x9c
    3ce8:	9828      	ldr	r0, [sp, #160]	; 0xa0
    3cea:	9925      	ldr	r1, [sp, #148]	; 0x94
    3cec:	b2ca      	uxtb	r2, r1
    3cee:	a934      	add	r1, sp, #208	; 0xd0
    3cf0:	2301      	movs	r3, #1
    3cf2:	47e0      	blx	ip
    3cf4:	e7ff      	b.n	3cf6 <StrFormatPrintf+0x3e6>
    3cf6:	e7ff      	b.n	3cf8 <StrFormatPrintf+0x3e8>
    3cf8:	e7ff      	b.n	3cfa <StrFormatPrintf+0x3ea>
    3cfa:	e7ff      	b.n	3cfc <StrFormatPrintf+0x3ec>
    3cfc:	e7ff      	b.n	3cfe <StrFormatPrintf+0x3ee>
    3cfe:	e7ff      	b.n	3d00 <StrFormatPrintf+0x3f0>
    3d00:	983e      	ldr	r0, [sp, #248]	; 0xf8
    3d02:	3001      	adds	r0, #1
