
../lpc_firmware/freertos_spi_sensor/output/freertos_spi_sensor.elf:     file format elf32-littlearm


Disassembly of section .text:

00000200 <__do_global_dtors_aux>:
     200:	b510      	push	{r4, lr}
     202:	4c05      	ldr	r4, [pc, #20]	; (218 <__do_global_dtors_aux+0x18>)
     204:	7823      	ldrb	r3, [r4, #0]
     206:	b933      	cbnz	r3, 216 <__do_global_dtors_aux+0x16>
     208:	4b04      	ldr	r3, [pc, #16]	; (21c <__do_global_dtors_aux+0x1c>)
     20a:	b113      	cbz	r3, 212 <__do_global_dtors_aux+0x12>
     20c:	4804      	ldr	r0, [pc, #16]	; (220 <__do_global_dtors_aux+0x20>)
     20e:	f3af 8000 	nop.w
     212:	2301      	movs	r3, #1
     214:	7023      	strb	r3, [r4, #0]
     216:	bd10      	pop	{r4, pc}
     218:	2000043c 	.word	0x2000043c
     21c:	00000000 	.word	0x00000000
     220:	00009b1c 	.word	0x00009b1c

00000224 <frame_dummy>:
     224:	b508      	push	{r3, lr}
     226:	4b03      	ldr	r3, [pc, #12]	; (234 <frame_dummy+0x10>)
     228:	b11b      	cbz	r3, 232 <frame_dummy+0xe>
     22a:	4903      	ldr	r1, [pc, #12]	; (238 <frame_dummy+0x14>)
     22c:	4803      	ldr	r0, [pc, #12]	; (23c <frame_dummy+0x18>)
     22e:	f3af 8000 	nop.w
     232:	bd08      	pop	{r3, pc}
     234:	00000000 	.word	0x00000000
     238:	20000440 	.word	0x20000440
     23c:	00009b1c 	.word	0x00009b1c

00000240 <_stack_init>:
     240:	f5a3 3a80 	sub.w	sl, r3, #65536	; 0x10000
     244:	4770      	bx	lr
     246:	bf00      	nop

00000248 <_mainCRTStartup>:
     248:	4b17      	ldr	r3, [pc, #92]	; (2a8 <_mainCRTStartup+0x60>)
     24a:	2b00      	cmp	r3, #0
     24c:	bf08      	it	eq
     24e:	4b13      	ldreq	r3, [pc, #76]	; (29c <_mainCRTStartup+0x54>)
     250:	469d      	mov	sp, r3
     252:	f7ff fff5 	bl	240 <_stack_init>
     256:	2100      	movs	r1, #0
     258:	468b      	mov	fp, r1
     25a:	460f      	mov	r7, r1
     25c:	4813      	ldr	r0, [pc, #76]	; (2ac <_mainCRTStartup+0x64>)
     25e:	4a14      	ldr	r2, [pc, #80]	; (2b0 <_mainCRTStartup+0x68>)
     260:	1a12      	subs	r2, r2, r0
     262:	f008 fbd3 	bl	8a0c <memset>
     266:	4b0e      	ldr	r3, [pc, #56]	; (2a0 <_mainCRTStartup+0x58>)
     268:	2b00      	cmp	r3, #0
     26a:	d000      	beq.n	26e <_mainCRTStartup+0x26>
     26c:	4798      	blx	r3
     26e:	4b0d      	ldr	r3, [pc, #52]	; (2a4 <_mainCRTStartup+0x5c>)
     270:	2b00      	cmp	r3, #0
     272:	d000      	beq.n	276 <_mainCRTStartup+0x2e>
     274:	4798      	blx	r3
     276:	2000      	movs	r0, #0
     278:	2100      	movs	r1, #0
     27a:	0004      	movs	r4, r0
     27c:	000d      	movs	r5, r1
     27e:	480d      	ldr	r0, [pc, #52]	; (2b4 <_mainCRTStartup+0x6c>)
     280:	2800      	cmp	r0, #0
     282:	d002      	beq.n	28a <_mainCRTStartup+0x42>
     284:	480c      	ldr	r0, [pc, #48]	; (2b8 <_mainCRTStartup+0x70>)
     286:	f008 fca9 	bl	8bdc <atexit>
     28a:	f008 fb9b 	bl	89c4 <__libc_init_array>
     28e:	0020      	movs	r0, r4
     290:	0029      	movs	r1, r5
     292:	f007 fb0b 	bl	78ac <main>
     296:	f008 fb85 	bl	89a4 <exit>
     29a:	bf00      	nop
     29c:	00080000 	.word	0x00080000
	...
     2a8:	20033000 	.word	0x20033000
     2ac:	2000043c 	.word	0x2000043c
     2b0:	20002eb8 	.word	0x20002eb8
     2b4:	00008bdd 	.word	0x00008bdd
     2b8:	00008be9 	.word	0x00008be9

000002bc <Reset_Handler>:
     2bc:	b672      	cpsid	i
     2be:	4817      	ldr	r0, [pc, #92]	; (31c <Reset_Handler+0x60>)
     2c0:	4917      	ldr	r1, [pc, #92]	; (320 <Reset_Handler+0x64>)
     2c2:	6001      	str	r1, [r0, #0]
     2c4:	680a      	ldr	r2, [r1, #0]
     2c6:	f382 8808 	msr	MSP, r2
     2ca:	4816      	ldr	r0, [pc, #88]	; (324 <Reset_Handler+0x68>)
     2cc:	f380 880a 	msr	MSPLIM, r0
     2d0:	4815      	ldr	r0, [pc, #84]	; (328 <Reset_Handler+0x6c>)
     2d2:	4780      	blx	r0
     2d4:	4915      	ldr	r1, [pc, #84]	; (32c <Reset_Handler+0x70>)
     2d6:	4a16      	ldr	r2, [pc, #88]	; (330 <Reset_Handler+0x74>)
     2d8:	4b16      	ldr	r3, [pc, #88]	; (334 <Reset_Handler+0x78>)
     2da:	429a      	cmp	r2, r3
     2dc:	bfbe      	ittt	lt
     2de:	f851 0b04 	ldrlt.w	r0, [r1], #4
     2e2:	f842 0b04 	strlt.w	r0, [r2], #4
     2e6:	e7f8      	blt.n	2da <Reset_Handler+0x1e>
     2e8:	4913      	ldr	r1, [pc, #76]	; (338 <Reset_Handler+0x7c>)
     2ea:	4a14      	ldr	r2, [pc, #80]	; (33c <Reset_Handler+0x80>)
     2ec:	2000      	movs	r0, #0
     2ee:	4291      	cmp	r1, r2
     2f0:	bfbc      	itt	lt
     2f2:	f841 0b04 	strlt.w	r0, [r1], #4
     2f6:	e7fa      	blt.n	2ee <Reset_Handler+0x32>
     2f8:	2000      	movs	r0, #0
     2fa:	4911      	ldr	r1, [pc, #68]	; (340 <Reset_Handler+0x84>)
     2fc:	4a11      	ldr	r2, [pc, #68]	; (344 <Reset_Handler+0x88>)
     2fe:	4291      	cmp	r1, r2
     300:	bfbc      	itt	lt
     302:	f841 0b04 	strlt.w	r0, [r1], #4
     306:	e7fa      	blt.n	2fe <Reset_Handler+0x42>
     308:	490f      	ldr	r1, [pc, #60]	; (348 <Reset_Handler+0x8c>)
     30a:	4a10      	ldr	r2, [pc, #64]	; (34c <Reset_Handler+0x90>)
     30c:	4291      	cmp	r1, r2
     30e:	bfbc      	itt	lt
     310:	f841 0b04 	strlt.w	r0, [r1], #4
     314:	e7fa      	blt.n	30c <Reset_Handler+0x50>
     316:	b662      	cpsie	i
     318:	480d      	ldr	r0, [pc, #52]	; (350 <Reset_Handler+0x94>)
     31a:	4780      	blx	r0
     31c:	e000ed08 	.word	0xe000ed08
     320:	00000000 	.word	0x00000000
     324:	20032800 	.word	0x20032800
     328:	0000147d 	.word	0x0000147d
     32c:	00009b48 	.word	0x00009b48
     330:	20000000 	.word	0x20000000
     334:	2000043c 	.word	0x2000043c
     338:	2000043c 	.word	0x2000043c
     33c:	20002eb8 	.word	0x20002eb8
     340:	20002eb8 	.word	0x20002eb8
     344:	200032b8 	.word	0x200032b8
     348:	20032800 	.word	0x20032800
     34c:	20033000 	.word	0x20033000
     350:	00000249 	.word	0x00000249

00000354 <ACMP_DriverIRQHandler>:
     354:	f7ff bffe 	b.w	354 <ACMP_DriverIRQHandler>

00000358 <NMI_Handler>:
     358:	4840      	ldr	r0, [pc, #256]	; (45c <FLEXCOMM8_IRQHandler+0x4>)
     35a:	4700      	bx	r0

0000035c <HardFault_Handler>:
     35c:	4840      	ldr	r0, [pc, #256]	; (460 <FLEXCOMM8_IRQHandler+0x8>)
     35e:	4700      	bx	r0
     360:	4840      	ldr	r0, [pc, #256]	; (464 <FLEXCOMM8_IRQHandler+0xc>)
     362:	4700      	bx	r0
     364:	4840      	ldr	r0, [pc, #256]	; (468 <FLEXCOMM8_IRQHandler+0x10>)
     366:	4700      	bx	r0
     368:	4840      	ldr	r0, [pc, #256]	; (46c <FLEXCOMM8_IRQHandler+0x14>)
     36a:	4700      	bx	r0

0000036c <WDT_BOD_IRQHandler>:
     36c:	4840      	ldr	r0, [pc, #256]	; (470 <FLEXCOMM8_IRQHandler+0x18>)
     36e:	4700      	bx	r0

00000370 <DMA0_IRQHandler>:
     370:	4840      	ldr	r0, [pc, #256]	; (474 <FLEXCOMM8_IRQHandler+0x1c>)
     372:	4700      	bx	r0

00000374 <GINT0_IRQHandler>:
     374:	4840      	ldr	r0, [pc, #256]	; (478 <FLEXCOMM8_IRQHandler+0x20>)
     376:	4700      	bx	r0

00000378 <GINT1_IRQHandler>:
     378:	4840      	ldr	r0, [pc, #256]	; (47c <FLEXCOMM8_IRQHandler+0x24>)
     37a:	4700      	bx	r0

0000037c <PIN_INT0_IRQHandler>:
     37c:	4840      	ldr	r0, [pc, #256]	; (480 <FLEXCOMM8_IRQHandler+0x28>)
     37e:	4700      	bx	r0

00000380 <PIN_INT1_IRQHandler>:
     380:	4840      	ldr	r0, [pc, #256]	; (484 <FLEXCOMM8_IRQHandler+0x2c>)
     382:	4700      	bx	r0

00000384 <PIN_INT2_IRQHandler>:
     384:	4840      	ldr	r0, [pc, #256]	; (488 <FLEXCOMM8_IRQHandler+0x30>)
     386:	4700      	bx	r0

00000388 <PIN_INT3_IRQHandler>:
     388:	4840      	ldr	r0, [pc, #256]	; (48c <FLEXCOMM8_IRQHandler+0x34>)
     38a:	4700      	bx	r0

0000038c <UTICK0_IRQHandler>:
     38c:	4840      	ldr	r0, [pc, #256]	; (490 <FLEXCOMM8_IRQHandler+0x38>)
     38e:	4700      	bx	r0

00000390 <MRT0_IRQHandler>:
     390:	4840      	ldr	r0, [pc, #256]	; (494 <FLEXCOMM8_IRQHandler+0x3c>)
     392:	4700      	bx	r0

00000394 <CTIMER0_IRQHandler>:
     394:	4840      	ldr	r0, [pc, #256]	; (498 <FLEXCOMM8_IRQHandler+0x40>)
     396:	4700      	bx	r0

00000398 <CTIMER1_IRQHandler>:
     398:	4840      	ldr	r0, [pc, #256]	; (49c <FLEXCOMM8_IRQHandler+0x44>)
     39a:	4700      	bx	r0

0000039c <SCT0_IRQHandler>:
     39c:	4840      	ldr	r0, [pc, #256]	; (4a0 <FLEXCOMM8_IRQHandler+0x48>)
     39e:	4700      	bx	r0

000003a0 <CTIMER3_IRQHandler>:
     3a0:	4840      	ldr	r0, [pc, #256]	; (4a4 <FLEXCOMM8_IRQHandler+0x4c>)
     3a2:	4700      	bx	r0

000003a4 <FLEXCOMM0_IRQHandler>:
     3a4:	4840      	ldr	r0, [pc, #256]	; (4a8 <FLEXCOMM8_IRQHandler+0x50>)
     3a6:	4700      	bx	r0

000003a8 <FLEXCOMM1_IRQHandler>:
     3a8:	4840      	ldr	r0, [pc, #256]	; (4ac <FLEXCOMM8_IRQHandler+0x54>)
     3aa:	4700      	bx	r0

000003ac <FLEXCOMM2_IRQHandler>:
     3ac:	4840      	ldr	r0, [pc, #256]	; (4b0 <FLEXCOMM8_IRQHandler+0x58>)
     3ae:	4700      	bx	r0

000003b0 <FLEXCOMM3_IRQHandler>:
     3b0:	4840      	ldr	r0, [pc, #256]	; (4b4 <FLEXCOMM8_IRQHandler+0x5c>)
     3b2:	4700      	bx	r0

000003b4 <FLEXCOMM4_IRQHandler>:
     3b4:	4840      	ldr	r0, [pc, #256]	; (4b8 <FLEXCOMM8_IRQHandler+0x60>)
     3b6:	4700      	bx	r0

000003b8 <FLEXCOMM5_IRQHandler>:
     3b8:	4840      	ldr	r0, [pc, #256]	; (4bc <FLEXCOMM8_IRQHandler+0x64>)
     3ba:	4700      	bx	r0

000003bc <FLEXCOMM6_IRQHandler>:
     3bc:	4840      	ldr	r0, [pc, #256]	; (4c0 <FLEXCOMM8_IRQHandler+0x68>)
     3be:	4700      	bx	r0

000003c0 <FLEXCOMM7_IRQHandler>:
     3c0:	4840      	ldr	r0, [pc, #256]	; (4c4 <FLEXCOMM8_IRQHandler+0x6c>)
     3c2:	4700      	bx	r0

000003c4 <ADC0_IRQHandler>:
     3c4:	4840      	ldr	r0, [pc, #256]	; (4c8 <FLEXCOMM8_IRQHandler+0x70>)
     3c6:	4700      	bx	r0

000003c8 <Reserved39_IRQHandler>:
     3c8:	4840      	ldr	r0, [pc, #256]	; (4cc <FLEXCOMM8_IRQHandler+0x74>)
     3ca:	4700      	bx	r0

000003cc <ACMP_IRQHandler>:
     3cc:	4840      	ldr	r0, [pc, #256]	; (4d0 <FLEXCOMM8_IRQHandler+0x78>)
     3ce:	4700      	bx	r0

000003d0 <Reserved41_IRQHandler>:
     3d0:	4840      	ldr	r0, [pc, #256]	; (4d4 <FLEXCOMM8_IRQHandler+0x7c>)
     3d2:	4700      	bx	r0

000003d4 <Reserved42_IRQHandler>:
     3d4:	4840      	ldr	r0, [pc, #256]	; (4d8 <FLEXCOMM8_IRQHandler+0x80>)
     3d6:	4700      	bx	r0

000003d8 <USB0_NEEDCLK_IRQHandler>:
     3d8:	4840      	ldr	r0, [pc, #256]	; (4dc <FLEXCOMM8_IRQHandler+0x84>)
     3da:	4700      	bx	r0

000003dc <USB0_IRQHandler>:
     3dc:	4840      	ldr	r0, [pc, #256]	; (4e0 <FLEXCOMM8_IRQHandler+0x88>)
     3de:	4700      	bx	r0

000003e0 <RTC_IRQHandler>:
     3e0:	4840      	ldr	r0, [pc, #256]	; (4e4 <FLEXCOMM8_IRQHandler+0x8c>)
     3e2:	4700      	bx	r0

000003e4 <Reserved46_IRQHandler>:
     3e4:	4840      	ldr	r0, [pc, #256]	; (4e8 <FLEXCOMM8_IRQHandler+0x90>)
     3e6:	4700      	bx	r0

000003e8 <MAILBOX_IRQHandler>:
     3e8:	4840      	ldr	r0, [pc, #256]	; (4ec <FLEXCOMM8_IRQHandler+0x94>)
     3ea:	4700      	bx	r0

000003ec <PIN_INT4_IRQHandler>:
     3ec:	4840      	ldr	r0, [pc, #256]	; (4f0 <FLEXCOMM8_IRQHandler+0x98>)
     3ee:	4700      	bx	r0

000003f0 <PIN_INT5_IRQHandler>:
     3f0:	4840      	ldr	r0, [pc, #256]	; (4f4 <FLEXCOMM8_IRQHandler+0x9c>)
     3f2:	4700      	bx	r0

000003f4 <PIN_INT6_IRQHandler>:
     3f4:	4840      	ldr	r0, [pc, #256]	; (4f8 <FLEXCOMM8_IRQHandler+0xa0>)
     3f6:	4700      	bx	r0

000003f8 <PIN_INT7_IRQHandler>:
     3f8:	4840      	ldr	r0, [pc, #256]	; (4fc <FLEXCOMM8_IRQHandler+0xa4>)
     3fa:	4700      	bx	r0

000003fc <CTIMER2_IRQHandler>:
     3fc:	4840      	ldr	r0, [pc, #256]	; (500 <FLEXCOMM8_IRQHandler+0xa8>)
     3fe:	4700      	bx	r0

00000400 <CTIMER4_IRQHandler>:
     400:	4840      	ldr	r0, [pc, #256]	; (504 <FLEXCOMM8_IRQHandler+0xac>)
     402:	4700      	bx	r0

00000404 <OS_EVENT_IRQHandler>:
     404:	4840      	ldr	r0, [pc, #256]	; (508 <FLEXCOMM8_IRQHandler+0xb0>)
     406:	4700      	bx	r0

00000408 <Reserved55_IRQHandler>:
     408:	4840      	ldr	r0, [pc, #256]	; (50c <FLEXCOMM8_IRQHandler+0xb4>)
     40a:	4700      	bx	r0

0000040c <Reserved56_IRQHandler>:
     40c:	4840      	ldr	r0, [pc, #256]	; (510 <FLEXCOMM8_IRQHandler+0xb8>)
     40e:	4700      	bx	r0

00000410 <Reserved57_IRQHandler>:
     410:	4840      	ldr	r0, [pc, #256]	; (514 <FLEXCOMM8_IRQHandler+0xbc>)
     412:	4700      	bx	r0

00000414 <SDIO_IRQHandler>:
     414:	4840      	ldr	r0, [pc, #256]	; (518 <FLEXCOMM8_IRQHandler+0xc0>)
     416:	4700      	bx	r0

00000418 <Reserved59_IRQHandler>:
     418:	4840      	ldr	r0, [pc, #256]	; (51c <FLEXCOMM8_IRQHandler+0xc4>)
     41a:	4700      	bx	r0

0000041c <Reserved60_IRQHandler>:
     41c:	4840      	ldr	r0, [pc, #256]	; (520 <FLEXCOMM8_IRQHandler+0xc8>)
     41e:	4700      	bx	r0

00000420 <Reserved61_IRQHandler>:
     420:	4840      	ldr	r0, [pc, #256]	; (524 <FLEXCOMM8_IRQHandler+0xcc>)
     422:	4700      	bx	r0

00000424 <USB1_PHY_IRQHandler>:
     424:	4840      	ldr	r0, [pc, #256]	; (528 <FLEXCOMM8_IRQHandler+0xd0>)
     426:	4700      	bx	r0

00000428 <USB1_IRQHandler>:
     428:	4840      	ldr	r0, [pc, #256]	; (52c <FLEXCOMM8_IRQHandler+0xd4>)
     42a:	4700      	bx	r0

0000042c <USB1_NEEDCLK_IRQHandler>:
     42c:	4840      	ldr	r0, [pc, #256]	; (530 <FLEXCOMM8_IRQHandler+0xd8>)
     42e:	4700      	bx	r0

00000430 <SEC_HYPERVISOR_CALL_IRQHandler>:
     430:	4840      	ldr	r0, [pc, #256]	; (534 <FLEXCOMM8_IRQHandler+0xdc>)
     432:	4700      	bx	r0

00000434 <SEC_GPIO_INT0_IRQ0_IRQHandler>:
     434:	4840      	ldr	r0, [pc, #256]	; (538 <FLEXCOMM8_IRQHandler+0xe0>)
     436:	4700      	bx	r0

00000438 <SEC_GPIO_INT0_IRQ1_IRQHandler>:
     438:	4840      	ldr	r0, [pc, #256]	; (53c <FLEXCOMM8_IRQHandler+0xe4>)
     43a:	4700      	bx	r0

0000043c <PLU_IRQHandler>:
     43c:	4840      	ldr	r0, [pc, #256]	; (540 <FLEXCOMM8_IRQHandler+0xe8>)
     43e:	4700      	bx	r0

00000440 <SEC_VIO_IRQHandler>:
     440:	4840      	ldr	r0, [pc, #256]	; (544 <FLEXCOMM8_IRQHandler+0xec>)
     442:	4700      	bx	r0

00000444 <HASHCRYPT_IRQHandler>:
     444:	4840      	ldr	r0, [pc, #256]	; (548 <FLEXCOMM8_IRQHandler+0xf0>)
     446:	4700      	bx	r0

00000448 <CASER_IRQHandler>:
     448:	4840      	ldr	r0, [pc, #256]	; (54c <FLEXCOMM8_IRQHandler+0xf4>)
     44a:	4700      	bx	r0

0000044c <PUF_IRQHandler>:
     44c:	4840      	ldr	r0, [pc, #256]	; (550 <FLEXCOMM8_IRQHandler+0xf8>)
     44e:	4700      	bx	r0

00000450 <PQ_IRQHandler>:
     450:	4840      	ldr	r0, [pc, #256]	; (554 <FLEXCOMM8_IRQHandler+0xfc>)
     452:	4700      	bx	r0

00000454 <DMA1_IRQHandler>:
     454:	4840      	ldr	r0, [pc, #256]	; (558 <FLEXCOMM8_IRQHandler+0x100>)
     456:	4700      	bx	r0

00000458 <FLEXCOMM8_IRQHandler>:
     458:	4840      	ldr	r0, [pc, #256]	; (55c <FLEXCOMM8_IRQHandler+0x104>)
     45a:	4700      	bx	r0
     45c:	00000359 	.word	0x00000359
     460:	0000035d 	.word	0x0000035d
     464:	00005631 	.word	0x00005631
     468:	000055c1 	.word	0x000055c1
     46c:	000053b3 	.word	0x000053b3
     470:	00000355 	.word	0x00000355
     474:	00000355 	.word	0x00000355
     478:	00000355 	.word	0x00000355
     47c:	00000355 	.word	0x00000355
     480:	0000257b 	.word	0x0000257b
     484:	000025c7 	.word	0x000025c7
     488:	00002615 	.word	0x00002615
     48c:	00002663 	.word	0x00002663
     490:	00000355 	.word	0x00000355
     494:	00000355 	.word	0x00000355
     498:	00000355 	.word	0x00000355
     49c:	00000355 	.word	0x00000355
     4a0:	00000355 	.word	0x00000355
     4a4:	00000355 	.word	0x00000355
     4a8:	0000291b 	.word	0x0000291b
     4ac:	0000298f 	.word	0x0000298f
     4b0:	00002a03 	.word	0x00002a03
     4b4:	00002a77 	.word	0x00002a77
     4b8:	00002aeb 	.word	0x00002aeb
     4bc:	00002b5f 	.word	0x00002b5f
     4c0:	00002bd3 	.word	0x00002bd3
     4c4:	00002c49 	.word	0x00002c49
     4c8:	00000355 	.word	0x00000355
     4cc:	00000355 	.word	0x00000355
     4d0:	00000355 	.word	0x00000355
     4d4:	00000355 	.word	0x00000355
     4d8:	00000355 	.word	0x00000355
     4dc:	00000355 	.word	0x00000355
     4e0:	00000355 	.word	0x00000355
     4e4:	00000355 	.word	0x00000355
     4e8:	00000355 	.word	0x00000355
     4ec:	00000355 	.word	0x00000355
     4f0:	000026b1 	.word	0x000026b1
     4f4:	000026ff 	.word	0x000026ff
     4f8:	0000274d 	.word	0x0000274d
     4fc:	0000279b 	.word	0x0000279b
     500:	00000355 	.word	0x00000355
     504:	00000355 	.word	0x00000355
     508:	00000355 	.word	0x00000355
     50c:	00000355 	.word	0x00000355
     510:	00000355 	.word	0x00000355
     514:	00000355 	.word	0x00000355
     518:	00000355 	.word	0x00000355
     51c:	00000355 	.word	0x00000355
     520:	00000355 	.word	0x00000355
     524:	00000355 	.word	0x00000355
     528:	00000355 	.word	0x00000355
     52c:	00000355 	.word	0x00000355
     530:	00000355 	.word	0x00000355
     534:	00000355 	.word	0x00000355
     538:	000024cb 	.word	0x000024cb
     53c:	00002523 	.word	0x00002523
     540:	00000355 	.word	0x00000355
     544:	00000355 	.word	0x00000355
     548:	00000355 	.word	0x00000355
     54c:	00000355 	.word	0x00000355
     550:	00000355 	.word	0x00000355
     554:	00000355 	.word	0x00000355
     558:	00000355 	.word	0x00000355
     55c:	00002cbf 	.word	0x00002cbf

00000560 <__aeabi_drsub>:
     560:	f081 4100 	eor.w	r1, r1, #2147483648	; 0x80000000
     564:	e002      	b.n	56c <__adddf3>
     566:	bf00      	nop

00000568 <__aeabi_dsub>:
     568:	f083 4300 	eor.w	r3, r3, #2147483648	; 0x80000000

0000056c <__adddf3>:
     56c:	b530      	push	{r4, r5, lr}
     56e:	ea4f 0441 	mov.w	r4, r1, lsl #1
     572:	ea4f 0543 	mov.w	r5, r3, lsl #1
     576:	ea94 0f05 	teq	r4, r5
     57a:	bf08      	it	eq
     57c:	ea90 0f02 	teqeq	r0, r2
     580:	bf1f      	itttt	ne
     582:	ea54 0c00 	orrsne.w	ip, r4, r0
     586:	ea55 0c02 	orrsne.w	ip, r5, r2
     58a:	ea7f 5c64 	mvnsne.w	ip, r4, asr #21
     58e:	ea7f 5c65 	mvnsne.w	ip, r5, asr #21
     592:	f000 80e2 	beq.w	75a <__adddf3+0x1ee>
     596:	ea4f 5454 	mov.w	r4, r4, lsr #21
     59a:	ebd4 5555 	rsbs	r5, r4, r5, lsr #21
     59e:	bfb8      	it	lt
     5a0:	426d      	neglt	r5, r5
     5a2:	dd0c      	ble.n	5be <__adddf3+0x52>
     5a4:	442c      	add	r4, r5
     5a6:	ea80 0202 	eor.w	r2, r0, r2
     5aa:	ea81 0303 	eor.w	r3, r1, r3
     5ae:	ea82 0000 	eor.w	r0, r2, r0
     5b2:	ea83 0101 	eor.w	r1, r3, r1
     5b6:	ea80 0202 	eor.w	r2, r0, r2
     5ba:	ea81 0303 	eor.w	r3, r1, r3
     5be:	2d36      	cmp	r5, #54	; 0x36
     5c0:	bf88      	it	hi
     5c2:	bd30      	pophi	{r4, r5, pc}
     5c4:	f011 4f00 	tst.w	r1, #2147483648	; 0x80000000
     5c8:	ea4f 3101 	mov.w	r1, r1, lsl #12
     5cc:	f44f 1c80 	mov.w	ip, #1048576	; 0x100000
     5d0:	ea4c 3111 	orr.w	r1, ip, r1, lsr #12
     5d4:	d002      	beq.n	5dc <__adddf3+0x70>
     5d6:	4240      	negs	r0, r0
     5d8:	eb61 0141 	sbc.w	r1, r1, r1, lsl #1
     5dc:	f013 4f00 	tst.w	r3, #2147483648	; 0x80000000
     5e0:	ea4f 3303 	mov.w	r3, r3, lsl #12
     5e4:	ea4c 3313 	orr.w	r3, ip, r3, lsr #12
     5e8:	d002      	beq.n	5f0 <__adddf3+0x84>
     5ea:	4252      	negs	r2, r2
     5ec:	eb63 0343 	sbc.w	r3, r3, r3, lsl #1
     5f0:	ea94 0f05 	teq	r4, r5
     5f4:	f000 80a7 	beq.w	746 <__adddf3+0x1da>
     5f8:	f1a4 0401 	sub.w	r4, r4, #1
     5fc:	f1d5 0e20 	rsbs	lr, r5, #32
     600:	db0d      	blt.n	61e <__adddf3+0xb2>
     602:	fa02 fc0e 	lsl.w	ip, r2, lr
     606:	fa22 f205 	lsr.w	r2, r2, r5
     60a:	1880      	adds	r0, r0, r2
     60c:	f141 0100 	adc.w	r1, r1, #0
     610:	fa03 f20e 	lsl.w	r2, r3, lr
     614:	1880      	adds	r0, r0, r2
     616:	fa43 f305 	asr.w	r3, r3, r5
     61a:	4159      	adcs	r1, r3
     61c:	e00e      	b.n	63c <__adddf3+0xd0>
     61e:	f1a5 0520 	sub.w	r5, r5, #32
     622:	f10e 0e20 	add.w	lr, lr, #32
     626:	2a01      	cmp	r2, #1
     628:	fa03 fc0e 	lsl.w	ip, r3, lr
     62c:	bf28      	it	cs
     62e:	f04c 0c02 	orrcs.w	ip, ip, #2
     632:	fa43 f305 	asr.w	r3, r3, r5
     636:	18c0      	adds	r0, r0, r3
     638:	eb51 71e3 	adcs.w	r1, r1, r3, asr #31
     63c:	f001 4500 	and.w	r5, r1, #2147483648	; 0x80000000
     640:	d507      	bpl.n	652 <__adddf3+0xe6>
     642:	f04f 0e00 	mov.w	lr, #0
     646:	f1dc 0c00 	rsbs	ip, ip, #0
     64a:	eb7e 0000 	sbcs.w	r0, lr, r0
     64e:	eb6e 0101 	sbc.w	r1, lr, r1
     652:	f5b1 1f80 	cmp.w	r1, #1048576	; 0x100000
     656:	d31b      	bcc.n	690 <__adddf3+0x124>
     658:	f5b1 1f00 	cmp.w	r1, #2097152	; 0x200000
     65c:	d30c      	bcc.n	678 <__adddf3+0x10c>
     65e:	0849      	lsrs	r1, r1, #1
     660:	ea5f 0030 	movs.w	r0, r0, rrx
     664:	ea4f 0c3c 	mov.w	ip, ip, rrx
     668:	f104 0401 	add.w	r4, r4, #1
     66c:	ea4f 5244 	mov.w	r2, r4, lsl #21
     670:	f512 0f80 	cmn.w	r2, #4194304	; 0x400000
     674:	f080 809a 	bcs.w	7ac <__adddf3+0x240>
     678:	f1bc 4f00 	cmp.w	ip, #2147483648	; 0x80000000
     67c:	bf08      	it	eq
     67e:	ea5f 0c50 	movseq.w	ip, r0, lsr #1
     682:	f150 0000 	adcs.w	r0, r0, #0
     686:	eb41 5104 	adc.w	r1, r1, r4, lsl #20
     68a:	ea41 0105 	orr.w	r1, r1, r5
     68e:	bd30      	pop	{r4, r5, pc}
     690:	ea5f 0c4c 	movs.w	ip, ip, lsl #1
     694:	4140      	adcs	r0, r0
     696:	eb41 0101 	adc.w	r1, r1, r1
     69a:	3c01      	subs	r4, #1
     69c:	bf28      	it	cs
     69e:	f5b1 1f80 	cmpcs.w	r1, #1048576	; 0x100000
     6a2:	d2e9      	bcs.n	678 <__adddf3+0x10c>
     6a4:	f091 0f00 	teq	r1, #0
     6a8:	bf04      	itt	eq
     6aa:	4601      	moveq	r1, r0
     6ac:	2000      	moveq	r0, #0
     6ae:	fab1 f381 	clz	r3, r1
     6b2:	bf08      	it	eq
     6b4:	3320      	addeq	r3, #32
     6b6:	f1a3 030b 	sub.w	r3, r3, #11
     6ba:	f1b3 0220 	subs.w	r2, r3, #32
     6be:	da0c      	bge.n	6da <__adddf3+0x16e>
     6c0:	320c      	adds	r2, #12
     6c2:	dd08      	ble.n	6d6 <__adddf3+0x16a>
     6c4:	f102 0c14 	add.w	ip, r2, #20
     6c8:	f1c2 020c 	rsb	r2, r2, #12
     6cc:	fa01 f00c 	lsl.w	r0, r1, ip
     6d0:	fa21 f102 	lsr.w	r1, r1, r2
     6d4:	e00c      	b.n	6f0 <__adddf3+0x184>
     6d6:	f102 0214 	add.w	r2, r2, #20
     6da:	bfd8      	it	le
     6dc:	f1c2 0c20 	rsble	ip, r2, #32
     6e0:	fa01 f102 	lsl.w	r1, r1, r2
     6e4:	fa20 fc0c 	lsr.w	ip, r0, ip
     6e8:	bfdc      	itt	le
     6ea:	ea41 010c 	orrle.w	r1, r1, ip
     6ee:	4090      	lslle	r0, r2
     6f0:	1ae4      	subs	r4, r4, r3
     6f2:	bfa2      	ittt	ge
     6f4:	eb01 5104 	addge.w	r1, r1, r4, lsl #20
     6f8:	4329      	orrge	r1, r5
     6fa:	bd30      	popge	{r4, r5, pc}
     6fc:	ea6f 0404 	mvn.w	r4, r4
     700:	3c1f      	subs	r4, #31
     702:	da1c      	bge.n	73e <__adddf3+0x1d2>
     704:	340c      	adds	r4, #12
     706:	dc0e      	bgt.n	726 <__adddf3+0x1ba>
     708:	f104 0414 	add.w	r4, r4, #20
     70c:	f1c4 0220 	rsb	r2, r4, #32
     710:	fa20 f004 	lsr.w	r0, r0, r4
     714:	fa01 f302 	lsl.w	r3, r1, r2
     718:	ea40 0003 	orr.w	r0, r0, r3
     71c:	fa21 f304 	lsr.w	r3, r1, r4
     720:	ea45 0103 	orr.w	r1, r5, r3
     724:	bd30      	pop	{r4, r5, pc}
     726:	f1c4 040c 	rsb	r4, r4, #12
     72a:	f1c4 0220 	rsb	r2, r4, #32
     72e:	fa20 f002 	lsr.w	r0, r0, r2
     732:	fa01 f304 	lsl.w	r3, r1, r4
     736:	ea40 0003 	orr.w	r0, r0, r3
     73a:	4629      	mov	r1, r5
     73c:	bd30      	pop	{r4, r5, pc}
     73e:	fa21 f004 	lsr.w	r0, r1, r4
     742:	4629      	mov	r1, r5
     744:	bd30      	pop	{r4, r5, pc}
     746:	f094 0f00 	teq	r4, #0
     74a:	f483 1380 	eor.w	r3, r3, #1048576	; 0x100000
     74e:	bf06      	itte	eq
     750:	f481 1180 	eoreq.w	r1, r1, #1048576	; 0x100000
     754:	3401      	addeq	r4, #1
     756:	3d01      	subne	r5, #1
     758:	e74e      	b.n	5f8 <__adddf3+0x8c>
     75a:	ea7f 5c64 	mvns.w	ip, r4, asr #21
     75e:	bf18      	it	ne
     760:	ea7f 5c65 	mvnsne.w	ip, r5, asr #21
     764:	d029      	beq.n	7ba <__adddf3+0x24e>
     766:	ea94 0f05 	teq	r4, r5
     76a:	bf08      	it	eq
     76c:	ea90 0f02 	teqeq	r0, r2
     770:	d005      	beq.n	77e <__adddf3+0x212>
     772:	ea54 0c00 	orrs.w	ip, r4, r0
     776:	bf04      	itt	eq
     778:	4619      	moveq	r1, r3
     77a:	4610      	moveq	r0, r2
     77c:	bd30      	pop	{r4, r5, pc}
     77e:	ea91 0f03 	teq	r1, r3
     782:	bf1e      	ittt	ne
     784:	2100      	movne	r1, #0
     786:	2000      	movne	r0, #0
     788:	bd30      	popne	{r4, r5, pc}
     78a:	ea5f 5c54 	movs.w	ip, r4, lsr #21
     78e:	d105      	bne.n	79c <__adddf3+0x230>
     790:	0040      	lsls	r0, r0, #1
     792:	4149      	adcs	r1, r1
     794:	bf28      	it	cs
     796:	f041 4100 	orrcs.w	r1, r1, #2147483648	; 0x80000000
     79a:	bd30      	pop	{r4, r5, pc}
     79c:	f514 0480 	adds.w	r4, r4, #4194304	; 0x400000
     7a0:	bf3c      	itt	cc
     7a2:	f501 1180 	addcc.w	r1, r1, #1048576	; 0x100000
     7a6:	bd30      	popcc	{r4, r5, pc}
     7a8:	f001 4500 	and.w	r5, r1, #2147483648	; 0x80000000
     7ac:	f045 41fe 	orr.w	r1, r5, #2130706432	; 0x7f000000
     7b0:	f441 0170 	orr.w	r1, r1, #15728640	; 0xf00000
     7b4:	f04f 0000 	mov.w	r0, #0
     7b8:	bd30      	pop	{r4, r5, pc}
     7ba:	ea7f 5c64 	mvns.w	ip, r4, asr #21
     7be:	bf1a      	itte	ne
     7c0:	4619      	movne	r1, r3
     7c2:	4610      	movne	r0, r2
     7c4:	ea7f 5c65 	mvnseq.w	ip, r5, asr #21
     7c8:	bf1c      	itt	ne
     7ca:	460b      	movne	r3, r1
     7cc:	4602      	movne	r2, r0
     7ce:	ea50 3401 	orrs.w	r4, r0, r1, lsl #12
     7d2:	bf06      	itte	eq
     7d4:	ea52 3503 	orrseq.w	r5, r2, r3, lsl #12
     7d8:	ea91 0f03 	teqeq	r1, r3
     7dc:	f441 2100 	orrne.w	r1, r1, #524288	; 0x80000
     7e0:	bd30      	pop	{r4, r5, pc}
     7e2:	bf00      	nop

000007e4 <__aeabi_ui2d>:
     7e4:	f090 0f00 	teq	r0, #0
     7e8:	bf04      	itt	eq
     7ea:	2100      	moveq	r1, #0
     7ec:	4770      	bxeq	lr
     7ee:	b530      	push	{r4, r5, lr}
     7f0:	f44f 6480 	mov.w	r4, #1024	; 0x400
     7f4:	f104 0432 	add.w	r4, r4, #50	; 0x32
     7f8:	f04f 0500 	mov.w	r5, #0
     7fc:	f04f 0100 	mov.w	r1, #0
     800:	e750      	b.n	6a4 <__adddf3+0x138>
     802:	bf00      	nop

00000804 <__aeabi_i2d>:
     804:	f090 0f00 	teq	r0, #0
     808:	bf04      	itt	eq
     80a:	2100      	moveq	r1, #0
     80c:	4770      	bxeq	lr
     80e:	b530      	push	{r4, r5, lr}
     810:	f44f 6480 	mov.w	r4, #1024	; 0x400
     814:	f104 0432 	add.w	r4, r4, #50	; 0x32
     818:	f010 4500 	ands.w	r5, r0, #2147483648	; 0x80000000
     81c:	bf48      	it	mi
     81e:	4240      	negmi	r0, r0
     820:	f04f 0100 	mov.w	r1, #0
     824:	e73e      	b.n	6a4 <__adddf3+0x138>
     826:	bf00      	nop

00000828 <__aeabi_f2d>:
     828:	0042      	lsls	r2, r0, #1
     82a:	ea4f 01e2 	mov.w	r1, r2, asr #3
     82e:	ea4f 0131 	mov.w	r1, r1, rrx
     832:	ea4f 7002 	mov.w	r0, r2, lsl #28
     836:	bf1f      	itttt	ne
     838:	f012 437f 	andsne.w	r3, r2, #4278190080	; 0xff000000
     83c:	f093 4f7f 	teqne	r3, #4278190080	; 0xff000000
     840:	f081 5160 	eorne.w	r1, r1, #939524096	; 0x38000000
     844:	4770      	bxne	lr
     846:	f032 427f 	bics.w	r2, r2, #4278190080	; 0xff000000
     84a:	bf08      	it	eq
     84c:	4770      	bxeq	lr
     84e:	f093 4f7f 	teq	r3, #4278190080	; 0xff000000
     852:	bf04      	itt	eq
     854:	f441 2100 	orreq.w	r1, r1, #524288	; 0x80000
     858:	4770      	bxeq	lr
     85a:	b530      	push	{r4, r5, lr}
     85c:	f44f 7460 	mov.w	r4, #896	; 0x380
     860:	f001 4500 	and.w	r5, r1, #2147483648	; 0x80000000
     864:	f021 4100 	bic.w	r1, r1, #2147483648	; 0x80000000
     868:	e71c      	b.n	6a4 <__adddf3+0x138>
     86a:	bf00      	nop

0000086c <__aeabi_ul2d>:
     86c:	ea50 0201 	orrs.w	r2, r0, r1
     870:	bf08      	it	eq
     872:	4770      	bxeq	lr
     874:	b530      	push	{r4, r5, lr}
     876:	f04f 0500 	mov.w	r5, #0
     87a:	e00a      	b.n	892 <__aeabi_l2d+0x16>

0000087c <__aeabi_l2d>:
     87c:	ea50 0201 	orrs.w	r2, r0, r1
     880:	bf08      	it	eq
     882:	4770      	bxeq	lr
     884:	b530      	push	{r4, r5, lr}
     886:	f011 4500 	ands.w	r5, r1, #2147483648	; 0x80000000
     88a:	d502      	bpl.n	892 <__aeabi_l2d+0x16>
     88c:	4240      	negs	r0, r0
     88e:	eb61 0141 	sbc.w	r1, r1, r1, lsl #1
     892:	f44f 6480 	mov.w	r4, #1024	; 0x400
     896:	f104 0432 	add.w	r4, r4, #50	; 0x32
     89a:	ea5f 5c91 	movs.w	ip, r1, lsr #22
     89e:	f43f aed8 	beq.w	652 <__adddf3+0xe6>
     8a2:	f04f 0203 	mov.w	r2, #3
     8a6:	ea5f 0cdc 	movs.w	ip, ip, lsr #3
     8aa:	bf18      	it	ne
     8ac:	3203      	addne	r2, #3
     8ae:	ea5f 0cdc 	movs.w	ip, ip, lsr #3
     8b2:	bf18      	it	ne
     8b4:	3203      	addne	r2, #3
     8b6:	eb02 02dc 	add.w	r2, r2, ip, lsr #3
     8ba:	f1c2 0320 	rsb	r3, r2, #32
     8be:	fa00 fc03 	lsl.w	ip, r0, r3
     8c2:	fa20 f002 	lsr.w	r0, r0, r2
     8c6:	fa01 fe03 	lsl.w	lr, r1, r3
     8ca:	ea40 000e 	orr.w	r0, r0, lr
     8ce:	fa21 f102 	lsr.w	r1, r1, r2
     8d2:	4414      	add	r4, r2
     8d4:	e6bd      	b.n	652 <__adddf3+0xe6>
     8d6:	bf00      	nop

000008d8 <__aeabi_dmul>:
     8d8:	b570      	push	{r4, r5, r6, lr}
     8da:	f04f 0cff 	mov.w	ip, #255	; 0xff
     8de:	f44c 6ce0 	orr.w	ip, ip, #1792	; 0x700
     8e2:	ea1c 5411 	ands.w	r4, ip, r1, lsr #20
     8e6:	bf1d      	ittte	ne
     8e8:	ea1c 5513 	andsne.w	r5, ip, r3, lsr #20
     8ec:	ea94 0f0c 	teqne	r4, ip
     8f0:	ea95 0f0c 	teqne	r5, ip
     8f4:	f000 f8de 	bleq	ab4 <__aeabi_dmul+0x1dc>
     8f8:	442c      	add	r4, r5
     8fa:	ea81 0603 	eor.w	r6, r1, r3
     8fe:	ea21 514c 	bic.w	r1, r1, ip, lsl #21
     902:	ea23 534c 	bic.w	r3, r3, ip, lsl #21
     906:	ea50 3501 	orrs.w	r5, r0, r1, lsl #12
     90a:	bf18      	it	ne
     90c:	ea52 3503 	orrsne.w	r5, r2, r3, lsl #12
     910:	f441 1180 	orr.w	r1, r1, #1048576	; 0x100000
     914:	f443 1380 	orr.w	r3, r3, #1048576	; 0x100000
     918:	d038      	beq.n	98c <__aeabi_dmul+0xb4>
     91a:	fba0 ce02 	umull	ip, lr, r0, r2
     91e:	f04f 0500 	mov.w	r5, #0
     922:	fbe1 e502 	umlal	lr, r5, r1, r2
     926:	f006 4200 	and.w	r2, r6, #2147483648	; 0x80000000
     92a:	fbe0 e503 	umlal	lr, r5, r0, r3
     92e:	f04f 0600 	mov.w	r6, #0
     932:	fbe1 5603 	umlal	r5, r6, r1, r3
     936:	f09c 0f00 	teq	ip, #0
     93a:	bf18      	it	ne
     93c:	f04e 0e01 	orrne.w	lr, lr, #1
     940:	f1a4 04ff 	sub.w	r4, r4, #255	; 0xff
     944:	f5b6 7f00 	cmp.w	r6, #512	; 0x200
     948:	f564 7440 	sbc.w	r4, r4, #768	; 0x300
     94c:	d204      	bcs.n	958 <__aeabi_dmul+0x80>
     94e:	ea5f 0e4e 	movs.w	lr, lr, lsl #1
     952:	416d      	adcs	r5, r5
     954:	eb46 0606 	adc.w	r6, r6, r6
     958:	ea42 21c6 	orr.w	r1, r2, r6, lsl #11
     95c:	ea41 5155 	orr.w	r1, r1, r5, lsr #21
     960:	ea4f 20c5 	mov.w	r0, r5, lsl #11
     964:	ea40 505e 	orr.w	r0, r0, lr, lsr #21
     968:	ea4f 2ece 	mov.w	lr, lr, lsl #11
     96c:	f1b4 0cfd 	subs.w	ip, r4, #253	; 0xfd
     970:	bf88      	it	hi
     972:	f5bc 6fe0 	cmphi.w	ip, #1792	; 0x700
     976:	d81e      	bhi.n	9b6 <__aeabi_dmul+0xde>
     978:	f1be 4f00 	cmp.w	lr, #2147483648	; 0x80000000
     97c:	bf08      	it	eq
     97e:	ea5f 0e50 	movseq.w	lr, r0, lsr #1
     982:	f150 0000 	adcs.w	r0, r0, #0
     986:	eb41 5104 	adc.w	r1, r1, r4, lsl #20
     98a:	bd70      	pop	{r4, r5, r6, pc}
     98c:	f006 4600 	and.w	r6, r6, #2147483648	; 0x80000000
     990:	ea46 0101 	orr.w	r1, r6, r1
     994:	ea40 0002 	orr.w	r0, r0, r2
     998:	ea81 0103 	eor.w	r1, r1, r3
     99c:	ebb4 045c 	subs.w	r4, r4, ip, lsr #1
     9a0:	bfc2      	ittt	gt
     9a2:	ebd4 050c 	rsbsgt	r5, r4, ip
     9a6:	ea41 5104 	orrgt.w	r1, r1, r4, lsl #20
     9aa:	bd70      	popgt	{r4, r5, r6, pc}
     9ac:	f441 1180 	orr.w	r1, r1, #1048576	; 0x100000
     9b0:	f04f 0e00 	mov.w	lr, #0
     9b4:	3c01      	subs	r4, #1
     9b6:	f300 80ab 	bgt.w	b10 <__aeabi_dmul+0x238>
     9ba:	f114 0f36 	cmn.w	r4, #54	; 0x36
     9be:	bfde      	ittt	le
     9c0:	2000      	movle	r0, #0
     9c2:	f001 4100 	andle.w	r1, r1, #2147483648	; 0x80000000
     9c6:	bd70      	pople	{r4, r5, r6, pc}
     9c8:	f1c4 0400 	rsb	r4, r4, #0
     9cc:	3c20      	subs	r4, #32
     9ce:	da35      	bge.n	a3c <__aeabi_dmul+0x164>
     9d0:	340c      	adds	r4, #12
     9d2:	dc1b      	bgt.n	a0c <__aeabi_dmul+0x134>
     9d4:	f104 0414 	add.w	r4, r4, #20
     9d8:	f1c4 0520 	rsb	r5, r4, #32
     9dc:	fa00 f305 	lsl.w	r3, r0, r5
     9e0:	fa20 f004 	lsr.w	r0, r0, r4
     9e4:	fa01 f205 	lsl.w	r2, r1, r5
     9e8:	ea40 0002 	orr.w	r0, r0, r2
     9ec:	f001 4200 	and.w	r2, r1, #2147483648	; 0x80000000
     9f0:	f021 4100 	bic.w	r1, r1, #2147483648	; 0x80000000
     9f4:	eb10 70d3 	adds.w	r0, r0, r3, lsr #31
     9f8:	fa21 f604 	lsr.w	r6, r1, r4
     9fc:	eb42 0106 	adc.w	r1, r2, r6
     a00:	ea5e 0e43 	orrs.w	lr, lr, r3, lsl #1
     a04:	bf08      	it	eq
     a06:	ea20 70d3 	biceq.w	r0, r0, r3, lsr #31
     a0a:	bd70      	pop	{r4, r5, r6, pc}
     a0c:	f1c4 040c 	rsb	r4, r4, #12
     a10:	f1c4 0520 	rsb	r5, r4, #32
     a14:	fa00 f304 	lsl.w	r3, r0, r4
     a18:	fa20 f005 	lsr.w	r0, r0, r5
     a1c:	fa01 f204 	lsl.w	r2, r1, r4
     a20:	ea40 0002 	orr.w	r0, r0, r2
     a24:	f001 4100 	and.w	r1, r1, #2147483648	; 0x80000000
     a28:	eb10 70d3 	adds.w	r0, r0, r3, lsr #31
     a2c:	f141 0100 	adc.w	r1, r1, #0
     a30:	ea5e 0e43 	orrs.w	lr, lr, r3, lsl #1
     a34:	bf08      	it	eq
     a36:	ea20 70d3 	biceq.w	r0, r0, r3, lsr #31
     a3a:	bd70      	pop	{r4, r5, r6, pc}
     a3c:	f1c4 0520 	rsb	r5, r4, #32
     a40:	fa00 f205 	lsl.w	r2, r0, r5
     a44:	ea4e 0e02 	orr.w	lr, lr, r2
     a48:	fa20 f304 	lsr.w	r3, r0, r4
     a4c:	fa01 f205 	lsl.w	r2, r1, r5
     a50:	ea43 0302 	orr.w	r3, r3, r2
     a54:	fa21 f004 	lsr.w	r0, r1, r4
     a58:	f001 4100 	and.w	r1, r1, #2147483648	; 0x80000000
     a5c:	fa21 f204 	lsr.w	r2, r1, r4
     a60:	ea20 0002 	bic.w	r0, r0, r2
     a64:	eb00 70d3 	add.w	r0, r0, r3, lsr #31
     a68:	ea5e 0e43 	orrs.w	lr, lr, r3, lsl #1
     a6c:	bf08      	it	eq
     a6e:	ea20 70d3 	biceq.w	r0, r0, r3, lsr #31
     a72:	bd70      	pop	{r4, r5, r6, pc}
     a74:	f094 0f00 	teq	r4, #0
     a78:	d10f      	bne.n	a9a <__aeabi_dmul+0x1c2>
     a7a:	f001 4600 	and.w	r6, r1, #2147483648	; 0x80000000
     a7e:	0040      	lsls	r0, r0, #1
     a80:	eb41 0101 	adc.w	r1, r1, r1
     a84:	f411 1f80 	tst.w	r1, #1048576	; 0x100000
     a88:	bf08      	it	eq
     a8a:	3c01      	subeq	r4, #1
     a8c:	d0f7      	beq.n	a7e <__aeabi_dmul+0x1a6>
     a8e:	ea41 0106 	orr.w	r1, r1, r6
     a92:	f095 0f00 	teq	r5, #0
     a96:	bf18      	it	ne
     a98:	4770      	bxne	lr
     a9a:	f003 4600 	and.w	r6, r3, #2147483648	; 0x80000000
     a9e:	0052      	lsls	r2, r2, #1
     aa0:	eb43 0303 	adc.w	r3, r3, r3
     aa4:	f413 1f80 	tst.w	r3, #1048576	; 0x100000
     aa8:	bf08      	it	eq
     aaa:	3d01      	subeq	r5, #1
     aac:	d0f7      	beq.n	a9e <__aeabi_dmul+0x1c6>
     aae:	ea43 0306 	orr.w	r3, r3, r6
     ab2:	4770      	bx	lr
     ab4:	ea94 0f0c 	teq	r4, ip
     ab8:	ea0c 5513 	and.w	r5, ip, r3, lsr #20
     abc:	bf18      	it	ne
     abe:	ea95 0f0c 	teqne	r5, ip
     ac2:	d00c      	beq.n	ade <__aeabi_dmul+0x206>
     ac4:	ea50 0641 	orrs.w	r6, r0, r1, lsl #1
     ac8:	bf18      	it	ne
     aca:	ea52 0643 	orrsne.w	r6, r2, r3, lsl #1
     ace:	d1d1      	bne.n	a74 <__aeabi_dmul+0x19c>
     ad0:	ea81 0103 	eor.w	r1, r1, r3
     ad4:	f001 4100 	and.w	r1, r1, #2147483648	; 0x80000000
     ad8:	f04f 0000 	mov.w	r0, #0
     adc:	bd70      	pop	{r4, r5, r6, pc}
     ade:	ea50 0641 	orrs.w	r6, r0, r1, lsl #1
     ae2:	bf06      	itte	eq
     ae4:	4610      	moveq	r0, r2
     ae6:	4619      	moveq	r1, r3
     ae8:	ea52 0643 	orrsne.w	r6, r2, r3, lsl #1
     aec:	d019      	beq.n	b22 <__aeabi_dmul+0x24a>
     aee:	ea94 0f0c 	teq	r4, ip
     af2:	d102      	bne.n	afa <__aeabi_dmul+0x222>
     af4:	ea50 3601 	orrs.w	r6, r0, r1, lsl #12
     af8:	d113      	bne.n	b22 <__aeabi_dmul+0x24a>
     afa:	ea95 0f0c 	teq	r5, ip
     afe:	d105      	bne.n	b0c <__aeabi_dmul+0x234>
     b00:	ea52 3603 	orrs.w	r6, r2, r3, lsl #12
     b04:	bf1c      	itt	ne
     b06:	4610      	movne	r0, r2
     b08:	4619      	movne	r1, r3
     b0a:	d10a      	bne.n	b22 <__aeabi_dmul+0x24a>
     b0c:	ea81 0103 	eor.w	r1, r1, r3
     b10:	f001 4100 	and.w	r1, r1, #2147483648	; 0x80000000
     b14:	f041 41fe 	orr.w	r1, r1, #2130706432	; 0x7f000000
     b18:	f441 0170 	orr.w	r1, r1, #15728640	; 0xf00000
     b1c:	f04f 0000 	mov.w	r0, #0
     b20:	bd70      	pop	{r4, r5, r6, pc}
     b22:	f041 41fe 	orr.w	r1, r1, #2130706432	; 0x7f000000
     b26:	f441 0178 	orr.w	r1, r1, #16252928	; 0xf80000
     b2a:	bd70      	pop	{r4, r5, r6, pc}

00000b2c <__aeabi_ddiv>:
     b2c:	b570      	push	{r4, r5, r6, lr}
     b2e:	f04f 0cff 	mov.w	ip, #255	; 0xff
     b32:	f44c 6ce0 	orr.w	ip, ip, #1792	; 0x700
     b36:	ea1c 5411 	ands.w	r4, ip, r1, lsr #20
     b3a:	bf1d      	ittte	ne
     b3c:	ea1c 5513 	andsne.w	r5, ip, r3, lsr #20
     b40:	ea94 0f0c 	teqne	r4, ip
     b44:	ea95 0f0c 	teqne	r5, ip
     b48:	f000 f8a7 	bleq	c9a <__aeabi_ddiv+0x16e>
     b4c:	eba4 0405 	sub.w	r4, r4, r5
     b50:	ea81 0e03 	eor.w	lr, r1, r3
     b54:	ea52 3503 	orrs.w	r5, r2, r3, lsl #12
     b58:	ea4f 3101 	mov.w	r1, r1, lsl #12
     b5c:	f000 8088 	beq.w	c70 <__aeabi_ddiv+0x144>
     b60:	ea4f 3303 	mov.w	r3, r3, lsl #12
     b64:	f04f 5580 	mov.w	r5, #268435456	; 0x10000000
     b68:	ea45 1313 	orr.w	r3, r5, r3, lsr #4
     b6c:	ea43 6312 	orr.w	r3, r3, r2, lsr #24
     b70:	ea4f 2202 	mov.w	r2, r2, lsl #8
     b74:	ea45 1511 	orr.w	r5, r5, r1, lsr #4
     b78:	ea45 6510 	orr.w	r5, r5, r0, lsr #24
     b7c:	ea4f 2600 	mov.w	r6, r0, lsl #8
     b80:	f00e 4100 	and.w	r1, lr, #2147483648	; 0x80000000
     b84:	429d      	cmp	r5, r3
     b86:	bf08      	it	eq
     b88:	4296      	cmpeq	r6, r2
     b8a:	f144 04fd 	adc.w	r4, r4, #253	; 0xfd
     b8e:	f504 7440 	add.w	r4, r4, #768	; 0x300
     b92:	d202      	bcs.n	b9a <__aeabi_ddiv+0x6e>
     b94:	085b      	lsrs	r3, r3, #1
     b96:	ea4f 0232 	mov.w	r2, r2, rrx
     b9a:	1ab6      	subs	r6, r6, r2
     b9c:	eb65 0503 	sbc.w	r5, r5, r3
     ba0:	085b      	lsrs	r3, r3, #1
     ba2:	ea4f 0232 	mov.w	r2, r2, rrx
     ba6:	f44f 1080 	mov.w	r0, #1048576	; 0x100000
     baa:	f44f 2c00 	mov.w	ip, #524288	; 0x80000
     bae:	ebb6 0e02 	subs.w	lr, r6, r2
     bb2:	eb75 0e03 	sbcs.w	lr, r5, r3
     bb6:	bf22      	ittt	cs
     bb8:	1ab6      	subcs	r6, r6, r2
     bba:	4675      	movcs	r5, lr
     bbc:	ea40 000c 	orrcs.w	r0, r0, ip
     bc0:	085b      	lsrs	r3, r3, #1
     bc2:	ea4f 0232 	mov.w	r2, r2, rrx
     bc6:	ebb6 0e02 	subs.w	lr, r6, r2
     bca:	eb75 0e03 	sbcs.w	lr, r5, r3
     bce:	bf22      	ittt	cs
     bd0:	1ab6      	subcs	r6, r6, r2
     bd2:	4675      	movcs	r5, lr
     bd4:	ea40 005c 	orrcs.w	r0, r0, ip, lsr #1
     bd8:	085b      	lsrs	r3, r3, #1
     bda:	ea4f 0232 	mov.w	r2, r2, rrx
     bde:	ebb6 0e02 	subs.w	lr, r6, r2
     be2:	eb75 0e03 	sbcs.w	lr, r5, r3
     be6:	bf22      	ittt	cs
     be8:	1ab6      	subcs	r6, r6, r2
     bea:	4675      	movcs	r5, lr
     bec:	ea40 009c 	orrcs.w	r0, r0, ip, lsr #2
     bf0:	085b      	lsrs	r3, r3, #1
     bf2:	ea4f 0232 	mov.w	r2, r2, rrx
     bf6:	ebb6 0e02 	subs.w	lr, r6, r2
     bfa:	eb75 0e03 	sbcs.w	lr, r5, r3
     bfe:	bf22      	ittt	cs
     c00:	1ab6      	subcs	r6, r6, r2
     c02:	4675      	movcs	r5, lr
     c04:	ea40 00dc 	orrcs.w	r0, r0, ip, lsr #3
     c08:	ea55 0e06 	orrs.w	lr, r5, r6
     c0c:	d018      	beq.n	c40 <__aeabi_ddiv+0x114>
     c0e:	ea4f 1505 	mov.w	r5, r5, lsl #4
     c12:	ea45 7516 	orr.w	r5, r5, r6, lsr #28
     c16:	ea4f 1606 	mov.w	r6, r6, lsl #4
     c1a:	ea4f 03c3 	mov.w	r3, r3, lsl #3
     c1e:	ea43 7352 	orr.w	r3, r3, r2, lsr #29
     c22:	ea4f 02c2 	mov.w	r2, r2, lsl #3
     c26:	ea5f 1c1c 	movs.w	ip, ip, lsr #4
     c2a:	d1c0      	bne.n	bae <__aeabi_ddiv+0x82>
     c2c:	f411 1f80 	tst.w	r1, #1048576	; 0x100000
     c30:	d10b      	bne.n	c4a <__aeabi_ddiv+0x11e>
     c32:	ea41 0100 	orr.w	r1, r1, r0
     c36:	f04f 0000 	mov.w	r0, #0
     c3a:	f04f 4c00 	mov.w	ip, #2147483648	; 0x80000000
     c3e:	e7b6      	b.n	bae <__aeabi_ddiv+0x82>
     c40:	f411 1f80 	tst.w	r1, #1048576	; 0x100000
     c44:	bf04      	itt	eq
     c46:	4301      	orreq	r1, r0
     c48:	2000      	moveq	r0, #0
     c4a:	f1b4 0cfd 	subs.w	ip, r4, #253	; 0xfd
     c4e:	bf88      	it	hi
     c50:	f5bc 6fe0 	cmphi.w	ip, #1792	; 0x700
     c54:	f63f aeaf 	bhi.w	9b6 <__aeabi_dmul+0xde>
     c58:	ebb5 0c03 	subs.w	ip, r5, r3
     c5c:	bf04      	itt	eq
     c5e:	ebb6 0c02 	subseq.w	ip, r6, r2
     c62:	ea5f 0c50 	movseq.w	ip, r0, lsr #1
     c66:	f150 0000 	adcs.w	r0, r0, #0
     c6a:	eb41 5104 	adc.w	r1, r1, r4, lsl #20
     c6e:	bd70      	pop	{r4, r5, r6, pc}
     c70:	f00e 4e00 	and.w	lr, lr, #2147483648	; 0x80000000
     c74:	ea4e 3111 	orr.w	r1, lr, r1, lsr #12
     c78:	eb14 045c 	adds.w	r4, r4, ip, lsr #1
     c7c:	bfc2      	ittt	gt
     c7e:	ebd4 050c 	rsbsgt	r5, r4, ip
     c82:	ea41 5104 	orrgt.w	r1, r1, r4, lsl #20
     c86:	bd70      	popgt	{r4, r5, r6, pc}
     c88:	f441 1180 	orr.w	r1, r1, #1048576	; 0x100000
     c8c:	f04f 0e00 	mov.w	lr, #0
     c90:	3c01      	subs	r4, #1
     c92:	e690      	b.n	9b6 <__aeabi_dmul+0xde>
     c94:	ea45 0e06 	orr.w	lr, r5, r6
     c98:	e68d      	b.n	9b6 <__aeabi_dmul+0xde>
     c9a:	ea0c 5513 	and.w	r5, ip, r3, lsr #20
     c9e:	ea94 0f0c 	teq	r4, ip
     ca2:	bf08      	it	eq
     ca4:	ea95 0f0c 	teqeq	r5, ip
     ca8:	f43f af3b 	beq.w	b22 <__aeabi_dmul+0x24a>
     cac:	ea94 0f0c 	teq	r4, ip
     cb0:	d10a      	bne.n	cc8 <__aeabi_ddiv+0x19c>
     cb2:	ea50 3401 	orrs.w	r4, r0, r1, lsl #12
     cb6:	f47f af34 	bne.w	b22 <__aeabi_dmul+0x24a>
     cba:	ea95 0f0c 	teq	r5, ip
     cbe:	f47f af25 	bne.w	b0c <__aeabi_dmul+0x234>
     cc2:	4610      	mov	r0, r2
     cc4:	4619      	mov	r1, r3
     cc6:	e72c      	b.n	b22 <__aeabi_dmul+0x24a>
     cc8:	ea95 0f0c 	teq	r5, ip
     ccc:	d106      	bne.n	cdc <__aeabi_ddiv+0x1b0>
     cce:	ea52 3503 	orrs.w	r5, r2, r3, lsl #12
     cd2:	f43f aefd 	beq.w	ad0 <__aeabi_dmul+0x1f8>
     cd6:	4610      	mov	r0, r2
     cd8:	4619      	mov	r1, r3
     cda:	e722      	b.n	b22 <__aeabi_dmul+0x24a>
     cdc:	ea50 0641 	orrs.w	r6, r0, r1, lsl #1
     ce0:	bf18      	it	ne
     ce2:	ea52 0643 	orrsne.w	r6, r2, r3, lsl #1
     ce6:	f47f aec5 	bne.w	a74 <__aeabi_dmul+0x19c>
     cea:	ea50 0441 	orrs.w	r4, r0, r1, lsl #1
     cee:	f47f af0d 	bne.w	b0c <__aeabi_dmul+0x234>
     cf2:	ea52 0543 	orrs.w	r5, r2, r3, lsl #1
     cf6:	f47f aeeb 	bne.w	ad0 <__aeabi_dmul+0x1f8>
     cfa:	e712      	b.n	b22 <__aeabi_dmul+0x24a>

00000cfc <__gedf2>:
     cfc:	f04f 3cff 	mov.w	ip, #4294967295	; 0xffffffff
     d00:	e006      	b.n	d10 <__cmpdf2+0x4>
     d02:	bf00      	nop

00000d04 <__ledf2>:
     d04:	f04f 0c01 	mov.w	ip, #1
     d08:	e002      	b.n	d10 <__cmpdf2+0x4>
     d0a:	bf00      	nop

00000d0c <__cmpdf2>:
     d0c:	f04f 0c01 	mov.w	ip, #1
     d10:	f84d cd04 	str.w	ip, [sp, #-4]!
     d14:	ea4f 0c41 	mov.w	ip, r1, lsl #1
     d18:	ea7f 5c6c 	mvns.w	ip, ip, asr #21
     d1c:	ea4f 0c43 	mov.w	ip, r3, lsl #1
     d20:	bf18      	it	ne
     d22:	ea7f 5c6c 	mvnsne.w	ip, ip, asr #21
     d26:	d01b      	beq.n	d60 <__cmpdf2+0x54>
     d28:	b001      	add	sp, #4
     d2a:	ea50 0c41 	orrs.w	ip, r0, r1, lsl #1
     d2e:	bf0c      	ite	eq
     d30:	ea52 0c43 	orrseq.w	ip, r2, r3, lsl #1
     d34:	ea91 0f03 	teqne	r1, r3
     d38:	bf02      	ittt	eq
     d3a:	ea90 0f02 	teqeq	r0, r2
     d3e:	2000      	moveq	r0, #0
     d40:	4770      	bxeq	lr
     d42:	f110 0f00 	cmn.w	r0, #0
     d46:	ea91 0f03 	teq	r1, r3
     d4a:	bf58      	it	pl
     d4c:	4299      	cmppl	r1, r3
     d4e:	bf08      	it	eq
     d50:	4290      	cmpeq	r0, r2
     d52:	bf2c      	ite	cs
     d54:	17d8      	asrcs	r0, r3, #31
     d56:	ea6f 70e3 	mvncc.w	r0, r3, asr #31
     d5a:	f040 0001 	orr.w	r0, r0, #1
     d5e:	4770      	bx	lr
     d60:	ea4f 0c41 	mov.w	ip, r1, lsl #1
     d64:	ea7f 5c6c 	mvns.w	ip, ip, asr #21
     d68:	d102      	bne.n	d70 <__cmpdf2+0x64>
     d6a:	ea50 3c01 	orrs.w	ip, r0, r1, lsl #12
     d6e:	d107      	bne.n	d80 <__cmpdf2+0x74>
     d70:	ea4f 0c43 	mov.w	ip, r3, lsl #1
     d74:	ea7f 5c6c 	mvns.w	ip, ip, asr #21
     d78:	d1d6      	bne.n	d28 <__cmpdf2+0x1c>
     d7a:	ea52 3c03 	orrs.w	ip, r2, r3, lsl #12
     d7e:	d0d3      	beq.n	d28 <__cmpdf2+0x1c>
     d80:	f85d 0b04 	ldr.w	r0, [sp], #4
     d84:	4770      	bx	lr
     d86:	bf00      	nop

00000d88 <__aeabi_cdrcmple>:
     d88:	4684      	mov	ip, r0
     d8a:	4610      	mov	r0, r2
     d8c:	4662      	mov	r2, ip
     d8e:	468c      	mov	ip, r1
     d90:	4619      	mov	r1, r3
     d92:	4663      	mov	r3, ip
     d94:	e000      	b.n	d98 <__aeabi_cdcmpeq>
     d96:	bf00      	nop

00000d98 <__aeabi_cdcmpeq>:
     d98:	b501      	push	{r0, lr}
     d9a:	f7ff ffb7 	bl	d0c <__cmpdf2>
     d9e:	2800      	cmp	r0, #0
     da0:	bf48      	it	mi
     da2:	f110 0f00 	cmnmi.w	r0, #0
     da6:	bd01      	pop	{r0, pc}

00000da8 <__aeabi_dcmpeq>:
     da8:	f84d ed08 	str.w	lr, [sp, #-8]!
     dac:	f7ff fff4 	bl	d98 <__aeabi_cdcmpeq>
     db0:	bf0c      	ite	eq
     db2:	2001      	moveq	r0, #1
     db4:	2000      	movne	r0, #0
     db6:	f85d fb08 	ldr.w	pc, [sp], #8
     dba:	bf00      	nop

00000dbc <__aeabi_dcmplt>:
     dbc:	f84d ed08 	str.w	lr, [sp, #-8]!
     dc0:	f7ff ffea 	bl	d98 <__aeabi_cdcmpeq>
     dc4:	bf34      	ite	cc
     dc6:	2001      	movcc	r0, #1
     dc8:	2000      	movcs	r0, #0
     dca:	f85d fb08 	ldr.w	pc, [sp], #8
     dce:	bf00      	nop

00000dd0 <__aeabi_dcmple>:
     dd0:	f84d ed08 	str.w	lr, [sp, #-8]!
     dd4:	f7ff ffe0 	bl	d98 <__aeabi_cdcmpeq>
     dd8:	bf94      	ite	ls
     dda:	2001      	movls	r0, #1
     ddc:	2000      	movhi	r0, #0
     dde:	f85d fb08 	ldr.w	pc, [sp], #8
     de2:	bf00      	nop

00000de4 <__aeabi_dcmpge>:
     de4:	f84d ed08 	str.w	lr, [sp, #-8]!
     de8:	f7ff ffce 	bl	d88 <__aeabi_cdrcmple>
     dec:	bf94      	ite	ls
     dee:	2001      	movls	r0, #1
     df0:	2000      	movhi	r0, #0
     df2:	f85d fb08 	ldr.w	pc, [sp], #8
     df6:	bf00      	nop

00000df8 <__aeabi_dcmpgt>:
     df8:	f84d ed08 	str.w	lr, [sp, #-8]!
     dfc:	f7ff ffc4 	bl	d88 <__aeabi_cdrcmple>
     e00:	bf34      	ite	cc
     e02:	2001      	movcc	r0, #1
     e04:	2000      	movcs	r0, #0
     e06:	f85d fb08 	ldr.w	pc, [sp], #8
     e0a:	bf00      	nop

00000e0c <__aeabi_dcmpun>:
     e0c:	ea4f 0c41 	mov.w	ip, r1, lsl #1
     e10:	ea7f 5c6c 	mvns.w	ip, ip, asr #21
     e14:	d102      	bne.n	e1c <__aeabi_dcmpun+0x10>
     e16:	ea50 3c01 	orrs.w	ip, r0, r1, lsl #12
     e1a:	d10a      	bne.n	e32 <__aeabi_dcmpun+0x26>
     e1c:	ea4f 0c43 	mov.w	ip, r3, lsl #1
     e20:	ea7f 5c6c 	mvns.w	ip, ip, asr #21
     e24:	d102      	bne.n	e2c <__aeabi_dcmpun+0x20>
     e26:	ea52 3c03 	orrs.w	ip, r2, r3, lsl #12
     e2a:	d102      	bne.n	e32 <__aeabi_dcmpun+0x26>
     e2c:	f04f 0000 	mov.w	r0, #0
     e30:	4770      	bx	lr
     e32:	f04f 0001 	mov.w	r0, #1
     e36:	4770      	bx	lr

00000e38 <__aeabi_d2iz>:
     e38:	ea4f 0241 	mov.w	r2, r1, lsl #1
     e3c:	f512 1200 	adds.w	r2, r2, #2097152	; 0x200000
     e40:	d215      	bcs.n	e6e <__aeabi_d2iz+0x36>
     e42:	d511      	bpl.n	e68 <__aeabi_d2iz+0x30>
     e44:	f46f 7378 	mvn.w	r3, #992	; 0x3e0
     e48:	ebb3 5262 	subs.w	r2, r3, r2, asr #21
     e4c:	d912      	bls.n	e74 <__aeabi_d2iz+0x3c>
     e4e:	ea4f 23c1 	mov.w	r3, r1, lsl #11
     e52:	f043 4300 	orr.w	r3, r3, #2147483648	; 0x80000000
     e56:	ea43 5350 	orr.w	r3, r3, r0, lsr #21
     e5a:	f011 4f00 	tst.w	r1, #2147483648	; 0x80000000
     e5e:	fa23 f002 	lsr.w	r0, r3, r2
     e62:	bf18      	it	ne
     e64:	4240      	negne	r0, r0
     e66:	4770      	bx	lr
     e68:	f04f 0000 	mov.w	r0, #0
     e6c:	4770      	bx	lr
     e6e:	ea50 3001 	orrs.w	r0, r0, r1, lsl #12
     e72:	d105      	bne.n	e80 <__aeabi_d2iz+0x48>
     e74:	f011 4000 	ands.w	r0, r1, #2147483648	; 0x80000000
     e78:	bf08      	it	eq
     e7a:	f06f 4000 	mvneq.w	r0, #2147483648	; 0x80000000
     e7e:	4770      	bx	lr
     e80:	f04f 0000 	mov.w	r0, #0
     e84:	4770      	bx	lr
     e86:	bf00      	nop

00000e88 <__aeabi_ldivmod>:
     e88:	b97b      	cbnz	r3, eaa <__aeabi_ldivmod+0x22>
     e8a:	b972      	cbnz	r2, eaa <__aeabi_ldivmod+0x22>
     e8c:	2900      	cmp	r1, #0
     e8e:	bfbe      	ittt	lt
     e90:	2000      	movlt	r0, #0
     e92:	f04f 4100 	movlt.w	r1, #2147483648	; 0x80000000
     e96:	e006      	blt.n	ea6 <__aeabi_ldivmod+0x1e>
     e98:	bf08      	it	eq
     e9a:	2800      	cmpeq	r0, #0
     e9c:	bf1c      	itt	ne
     e9e:	f06f 4100 	mvnne.w	r1, #2147483648	; 0x80000000
     ea2:	f04f 30ff 	movne.w	r0, #4294967295	; 0xffffffff
     ea6:	f000 ba03 	b.w	12b0 <__aeabi_idiv0>
     eaa:	f1ad 0c08 	sub.w	ip, sp, #8
     eae:	e96d ce04 	strd	ip, lr, [sp, #-16]!
     eb2:	2900      	cmp	r1, #0
     eb4:	db09      	blt.n	eca <__aeabi_ldivmod+0x42>
     eb6:	2b00      	cmp	r3, #0
     eb8:	db1a      	blt.n	ef0 <__aeabi_ldivmod+0x68>
     eba:	f000 f883 	bl	fc4 <__udivmoddi4>
     ebe:	f8dd e004 	ldr.w	lr, [sp, #4]
     ec2:	e9dd 2302 	ldrd	r2, r3, [sp, #8]
     ec6:	b004      	add	sp, #16
     ec8:	4770      	bx	lr
     eca:	4240      	negs	r0, r0
     ecc:	eb61 0141 	sbc.w	r1, r1, r1, lsl #1
     ed0:	2b00      	cmp	r3, #0
     ed2:	db1b      	blt.n	f0c <__aeabi_ldivmod+0x84>
     ed4:	f000 f876 	bl	fc4 <__udivmoddi4>
     ed8:	f8dd e004 	ldr.w	lr, [sp, #4]
     edc:	e9dd 2302 	ldrd	r2, r3, [sp, #8]
     ee0:	b004      	add	sp, #16
     ee2:	4240      	negs	r0, r0
     ee4:	eb61 0141 	sbc.w	r1, r1, r1, lsl #1
     ee8:	4252      	negs	r2, r2
     eea:	eb63 0343 	sbc.w	r3, r3, r3, lsl #1
     eee:	4770      	bx	lr
     ef0:	4252      	negs	r2, r2
     ef2:	eb63 0343 	sbc.w	r3, r3, r3, lsl #1
     ef6:	f000 f865 	bl	fc4 <__udivmoddi4>
     efa:	f8dd e004 	ldr.w	lr, [sp, #4]
     efe:	e9dd 2302 	ldrd	r2, r3, [sp, #8]
     f02:	b004      	add	sp, #16
     f04:	4240      	negs	r0, r0
     f06:	eb61 0141 	sbc.w	r1, r1, r1, lsl #1
     f0a:	4770      	bx	lr
     f0c:	4252      	negs	r2, r2
     f0e:	eb63 0343 	sbc.w	r3, r3, r3, lsl #1
     f12:	f000 f857 	bl	fc4 <__udivmoddi4>
     f16:	f8dd e004 	ldr.w	lr, [sp, #4]
     f1a:	e9dd 2302 	ldrd	r2, r3, [sp, #8]
     f1e:	b004      	add	sp, #16
     f20:	4252      	negs	r2, r2
     f22:	eb63 0343 	sbc.w	r3, r3, r3, lsl #1
     f26:	4770      	bx	lr

00000f28 <__aeabi_uldivmod>:
     f28:	b953      	cbnz	r3, f40 <__aeabi_uldivmod+0x18>
     f2a:	b94a      	cbnz	r2, f40 <__aeabi_uldivmod+0x18>
     f2c:	2900      	cmp	r1, #0
     f2e:	bf08      	it	eq
     f30:	2800      	cmpeq	r0, #0
     f32:	bf1c      	itt	ne
     f34:	f04f 31ff 	movne.w	r1, #4294967295	; 0xffffffff
     f38:	f04f 30ff 	movne.w	r0, #4294967295	; 0xffffffff
     f3c:	f000 b9b8 	b.w	12b0 <__aeabi_idiv0>
     f40:	f1ad 0c08 	sub.w	ip, sp, #8
     f44:	e96d ce04 	strd	ip, lr, [sp, #-16]!
     f48:	f000 f83c 	bl	fc4 <__udivmoddi4>
     f4c:	f8dd e004 	ldr.w	lr, [sp, #4]
     f50:	e9dd 2302 	ldrd	r2, r3, [sp, #8]
     f54:	b004      	add	sp, #16
     f56:	4770      	bx	lr

00000f58 <__aeabi_d2lz>:
     f58:	b538      	push	{r3, r4, r5, lr}
     f5a:	2200      	movs	r2, #0
     f5c:	2300      	movs	r3, #0
     f5e:	4604      	mov	r4, r0
     f60:	460d      	mov	r5, r1
     f62:	f7ff ff2b 	bl	dbc <__aeabi_dcmplt>
     f66:	b928      	cbnz	r0, f74 <__aeabi_d2lz+0x1c>
     f68:	4620      	mov	r0, r4
     f6a:	4629      	mov	r1, r5
     f6c:	e8bd 4038 	ldmia.w	sp!, {r3, r4, r5, lr}
     f70:	f000 b80a 	b.w	f88 <__aeabi_d2ulz>
     f74:	4620      	mov	r0, r4
     f76:	f105 4100 	add.w	r1, r5, #2147483648	; 0x80000000
     f7a:	f000 f805 	bl	f88 <__aeabi_d2ulz>
     f7e:	4240      	negs	r0, r0
     f80:	eb61 0141 	sbc.w	r1, r1, r1, lsl #1
     f84:	bd38      	pop	{r3, r4, r5, pc}
     f86:	bf00      	nop

00000f88 <__aeabi_d2ulz>:
     f88:	b5d0      	push	{r4, r6, r7, lr}
     f8a:	2200      	movs	r2, #0
     f8c:	4b0b      	ldr	r3, [pc, #44]	; (fbc <__aeabi_d2ulz+0x34>)
     f8e:	4606      	mov	r6, r0
     f90:	460f      	mov	r7, r1
     f92:	f7ff fca1 	bl	8d8 <__aeabi_dmul>
     f96:	f000 f98d 	bl	12b4 <__aeabi_d2uiz>
     f9a:	4604      	mov	r4, r0
     f9c:	f7ff fc22 	bl	7e4 <__aeabi_ui2d>
     fa0:	2200      	movs	r2, #0
     fa2:	4b07      	ldr	r3, [pc, #28]	; (fc0 <__aeabi_d2ulz+0x38>)
     fa4:	f7ff fc98 	bl	8d8 <__aeabi_dmul>
     fa8:	4602      	mov	r2, r0
     faa:	460b      	mov	r3, r1
     fac:	4630      	mov	r0, r6
     fae:	4639      	mov	r1, r7
     fb0:	f7ff fada 	bl	568 <__aeabi_dsub>
     fb4:	f000 f97e 	bl	12b4 <__aeabi_d2uiz>
     fb8:	4621      	mov	r1, r4
     fba:	bdd0      	pop	{r4, r6, r7, pc}
     fbc:	3df00000 	.word	0x3df00000
     fc0:	41f00000 	.word	0x41f00000

00000fc4 <__udivmoddi4>:
     fc4:	e92d 4ff0 	stmdb	sp!, {r4, r5, r6, r7, r8, r9, sl, fp, lr}
     fc8:	9d09      	ldr	r5, [sp, #36]	; 0x24
     fca:	460e      	mov	r6, r1
     fcc:	4604      	mov	r4, r0
     fce:	460f      	mov	r7, r1
     fd0:	2b00      	cmp	r3, #0
     fd2:	d147      	bne.n	1064 <__udivmoddi4+0xa0>
     fd4:	428a      	cmp	r2, r1
     fd6:	4694      	mov	ip, r2
     fd8:	d95f      	bls.n	109a <__udivmoddi4+0xd6>
     fda:	fab2 f382 	clz	r3, r2
     fde:	b143      	cbz	r3, ff2 <__udivmoddi4+0x2e>
     fe0:	fa02 fc03 	lsl.w	ip, r2, r3
     fe4:	f1c3 0220 	rsb	r2, r3, #32
     fe8:	409f      	lsls	r7, r3
     fea:	409c      	lsls	r4, r3
     fec:	fa20 f202 	lsr.w	r2, r0, r2
     ff0:	4317      	orrs	r7, r2
     ff2:	ea4f 461c 	mov.w	r6, ip, lsr #16
     ff6:	fa1f fe8c 	uxth.w	lr, ip
     ffa:	0c22      	lsrs	r2, r4, #16
     ffc:	fbb7 f1f6 	udiv	r1, r7, r6
    1000:	fb06 7711 	mls	r7, r6, r1, r7
    1004:	fb01 f00e 	mul.w	r0, r1, lr
    1008:	ea42 4207 	orr.w	r2, r2, r7, lsl #16
    100c:	4290      	cmp	r0, r2
    100e:	d908      	bls.n	1022 <__udivmoddi4+0x5e>
    1010:	eb1c 0202 	adds.w	r2, ip, r2
    1014:	f101 37ff 	add.w	r7, r1, #4294967295	; 0xffffffff
    1018:	d202      	bcs.n	1020 <__udivmoddi4+0x5c>
    101a:	4290      	cmp	r0, r2
    101c:	f200 8137 	bhi.w	128e <__udivmoddi4+0x2ca>
    1020:	4639      	mov	r1, r7
    1022:	1a12      	subs	r2, r2, r0
    1024:	b2a4      	uxth	r4, r4
    1026:	fbb2 f0f6 	udiv	r0, r2, r6
    102a:	fb06 2210 	mls	r2, r6, r0, r2
    102e:	fb00 fe0e 	mul.w	lr, r0, lr
    1032:	ea44 4402 	orr.w	r4, r4, r2, lsl #16
    1036:	45a6      	cmp	lr, r4
    1038:	d908      	bls.n	104c <__udivmoddi4+0x88>
    103a:	eb1c 0404 	adds.w	r4, ip, r4
    103e:	f100 32ff 	add.w	r2, r0, #4294967295	; 0xffffffff
    1042:	d202      	bcs.n	104a <__udivmoddi4+0x86>
    1044:	45a6      	cmp	lr, r4
    1046:	f200 811c 	bhi.w	1282 <__udivmoddi4+0x2be>
    104a:	4610      	mov	r0, r2
    104c:	ea40 4001 	orr.w	r0, r0, r1, lsl #16
    1050:	eba4 040e 	sub.w	r4, r4, lr
    1054:	2100      	movs	r1, #0
    1056:	b11d      	cbz	r5, 1060 <__udivmoddi4+0x9c>
    1058:	40dc      	lsrs	r4, r3
    105a:	2300      	movs	r3, #0
    105c:	e9c5 4300 	strd	r4, r3, [r5]
    1060:	e8bd 8ff0 	ldmia.w	sp!, {r4, r5, r6, r7, r8, r9, sl, fp, pc}
    1064:	428b      	cmp	r3, r1
    1066:	d908      	bls.n	107a <__udivmoddi4+0xb6>
    1068:	2d00      	cmp	r5, #0
    106a:	f000 80fe 	beq.w	126a <__udivmoddi4+0x2a6>
    106e:	2100      	movs	r1, #0
    1070:	e9c5 0600 	strd	r0, r6, [r5]
    1074:	4608      	mov	r0, r1
    1076:	e8bd 8ff0 	ldmia.w	sp!, {r4, r5, r6, r7, r8, r9, sl, fp, pc}
    107a:	fab3 f183 	clz	r1, r3
    107e:	2900      	cmp	r1, #0
    1080:	d14c      	bne.n	111c <__udivmoddi4+0x158>
    1082:	42b3      	cmp	r3, r6
    1084:	f0c0 80f4 	bcc.w	1270 <__udivmoddi4+0x2ac>
    1088:	4282      	cmp	r2, r0
    108a:	f240 80f1 	bls.w	1270 <__udivmoddi4+0x2ac>
    108e:	4608      	mov	r0, r1
    1090:	2d00      	cmp	r5, #0
    1092:	d0e5      	beq.n	1060 <__udivmoddi4+0x9c>
    1094:	e9c5 4700 	strd	r4, r7, [r5]
    1098:	e7e2      	b.n	1060 <__udivmoddi4+0x9c>
    109a:	b902      	cbnz	r2, 109e <__udivmoddi4+0xda>
    109c:	deff      	udf	#255	; 0xff
    109e:	fab2 f382 	clz	r3, r2
    10a2:	2b00      	cmp	r3, #0
    10a4:	f040 80a1 	bne.w	11ea <__udivmoddi4+0x226>
    10a8:	1a8a      	subs	r2, r1, r2
    10aa:	ea4f 4e1c 	mov.w	lr, ip, lsr #16
    10ae:	fa1f f78c 	uxth.w	r7, ip
    10b2:	2101      	movs	r1, #1
    10b4:	fbb2 f6fe 	udiv	r6, r2, lr
    10b8:	fb0e 2016 	mls	r0, lr, r6, r2
    10bc:	0c22      	lsrs	r2, r4, #16
    10be:	ea42 4200 	orr.w	r2, r2, r0, lsl #16
    10c2:	fb07 f006 	mul.w	r0, r7, r6
    10c6:	4290      	cmp	r0, r2
    10c8:	d90f      	bls.n	10ea <__udivmoddi4+0x126>
    10ca:	eb1c 0202 	adds.w	r2, ip, r2
    10ce:	f106 38ff 	add.w	r8, r6, #4294967295	; 0xffffffff
    10d2:	bf2c      	ite	cs
    10d4:	f04f 0901 	movcs.w	r9, #1
    10d8:	f04f 0900 	movcc.w	r9, #0
    10dc:	4290      	cmp	r0, r2
    10de:	d903      	bls.n	10e8 <__udivmoddi4+0x124>
    10e0:	f1b9 0f00 	cmp.w	r9, #0
    10e4:	f000 80d0 	beq.w	1288 <__udivmoddi4+0x2c4>
    10e8:	4646      	mov	r6, r8
    10ea:	1a12      	subs	r2, r2, r0
    10ec:	b2a4      	uxth	r4, r4
    10ee:	fbb2 f0fe 	udiv	r0, r2, lr
    10f2:	fb0e 2210 	mls	r2, lr, r0, r2
    10f6:	fb00 f707 	mul.w	r7, r0, r7
    10fa:	ea44 4402 	orr.w	r4, r4, r2, lsl #16
    10fe:	42a7      	cmp	r7, r4
    1100:	d908      	bls.n	1114 <__udivmoddi4+0x150>
    1102:	eb1c 0404 	adds.w	r4, ip, r4
    1106:	f100 32ff 	add.w	r2, r0, #4294967295	; 0xffffffff
    110a:	d202      	bcs.n	1112 <__udivmoddi4+0x14e>
    110c:	42a7      	cmp	r7, r4
    110e:	f200 80b5 	bhi.w	127c <__udivmoddi4+0x2b8>
    1112:	4610      	mov	r0, r2
    1114:	1be4      	subs	r4, r4, r7
    1116:	ea40 4006 	orr.w	r0, r0, r6, lsl #16
    111a:	e79c      	b.n	1056 <__udivmoddi4+0x92>
    111c:	f1c1 0420 	rsb	r4, r1, #32
    1120:	408b      	lsls	r3, r1
    1122:	fa06 fc01 	lsl.w	ip, r6, r1
    1126:	fa00 fe01 	lsl.w	lr, r0, r1
    112a:	fa22 f704 	lsr.w	r7, r2, r4
    112e:	40e6      	lsrs	r6, r4
    1130:	408a      	lsls	r2, r1
    1132:	431f      	orrs	r7, r3
    1134:	fa20 f304 	lsr.w	r3, r0, r4
    1138:	ea4f 4817 	mov.w	r8, r7, lsr #16
    113c:	ea43 030c 	orr.w	r3, r3, ip
    1140:	fa1f fc87 	uxth.w	ip, r7
    1144:	ea4f 4913 	mov.w	r9, r3, lsr #16
    1148:	fbb6 f0f8 	udiv	r0, r6, r8
    114c:	fb08 6610 	mls	r6, r8, r0, r6
    1150:	ea49 4606 	orr.w	r6, r9, r6, lsl #16
    1154:	fb00 f90c 	mul.w	r9, r0, ip
    1158:	45b1      	cmp	r9, r6
    115a:	d90e      	bls.n	117a <__udivmoddi4+0x1b6>
    115c:	19be      	adds	r6, r7, r6
    115e:	f100 3aff 	add.w	sl, r0, #4294967295	; 0xffffffff
    1162:	bf2c      	ite	cs
    1164:	f04f 0b01 	movcs.w	fp, #1
    1168:	f04f 0b00 	movcc.w	fp, #0
    116c:	45b1      	cmp	r9, r6
    116e:	d903      	bls.n	1178 <__udivmoddi4+0x1b4>
    1170:	f1bb 0f00 	cmp.w	fp, #0
    1174:	f000 808e 	beq.w	1294 <__udivmoddi4+0x2d0>
    1178:	4650      	mov	r0, sl
    117a:	eba6 0609 	sub.w	r6, r6, r9
    117e:	fa1f f983 	uxth.w	r9, r3
    1182:	fbb6 f3f8 	udiv	r3, r6, r8
    1186:	fb08 6613 	mls	r6, r8, r3, r6
    118a:	fb03 fc0c 	mul.w	ip, r3, ip
    118e:	ea49 4606 	orr.w	r6, r9, r6, lsl #16
    1192:	45b4      	cmp	ip, r6
    1194:	d906      	bls.n	11a4 <__udivmoddi4+0x1e0>
    1196:	19be      	adds	r6, r7, r6
    1198:	f103 38ff 	add.w	r8, r3, #4294967295	; 0xffffffff
    119c:	d201      	bcs.n	11a2 <__udivmoddi4+0x1de>
    119e:	45b4      	cmp	ip, r6
    11a0:	d87e      	bhi.n	12a0 <__udivmoddi4+0x2dc>
    11a2:	4643      	mov	r3, r8
    11a4:	ea43 4000 	orr.w	r0, r3, r0, lsl #16
    11a8:	eba6 060c 	sub.w	r6, r6, ip
    11ac:	fba0 8c02 	umull	r8, ip, r0, r2
    11b0:	4566      	cmp	r6, ip
    11b2:	4643      	mov	r3, r8
    11b4:	46e1      	mov	r9, ip
    11b6:	d302      	bcc.n	11be <__udivmoddi4+0x1fa>
    11b8:	d107      	bne.n	11ca <__udivmoddi4+0x206>
    11ba:	45c6      	cmp	lr, r8
    11bc:	d205      	bcs.n	11ca <__udivmoddi4+0x206>
    11be:	ebb8 0302 	subs.w	r3, r8, r2
    11c2:	eb6c 0c07 	sbc.w	ip, ip, r7
    11c6:	3801      	subs	r0, #1
    11c8:	46e1      	mov	r9, ip
    11ca:	2d00      	cmp	r5, #0
    11cc:	d06e      	beq.n	12ac <__udivmoddi4+0x2e8>
    11ce:	ebbe 0203 	subs.w	r2, lr, r3
    11d2:	eb66 0609 	sbc.w	r6, r6, r9
    11d6:	fa22 f301 	lsr.w	r3, r2, r1
    11da:	fa06 f404 	lsl.w	r4, r6, r4
    11de:	40ce      	lsrs	r6, r1
    11e0:	2100      	movs	r1, #0
    11e2:	431c      	orrs	r4, r3
    11e4:	e9c5 4600 	strd	r4, r6, [r5]
    11e8:	e73a      	b.n	1060 <__udivmoddi4+0x9c>
    11ea:	fa02 fc03 	lsl.w	ip, r2, r3
    11ee:	f1c3 0220 	rsb	r2, r3, #32
    11f2:	4099      	lsls	r1, r3
    11f4:	409c      	lsls	r4, r3
    11f6:	40d6      	lsrs	r6, r2
    11f8:	ea4f 4e1c 	mov.w	lr, ip, lsr #16
    11fc:	fa20 f202 	lsr.w	r2, r0, r2
    1200:	fa1f f78c 	uxth.w	r7, ip
    1204:	fbb6 f0fe 	udiv	r0, r6, lr
    1208:	430a      	orrs	r2, r1
    120a:	fb0e 6610 	mls	r6, lr, r0, r6
    120e:	0c11      	lsrs	r1, r2, #16
    1210:	ea41 4106 	orr.w	r1, r1, r6, lsl #16
    1214:	fb00 f607 	mul.w	r6, r0, r7
    1218:	428e      	cmp	r6, r1
    121a:	d90e      	bls.n	123a <__udivmoddi4+0x276>
    121c:	eb1c 0101 	adds.w	r1, ip, r1
    1220:	f100 38ff 	add.w	r8, r0, #4294967295	; 0xffffffff
    1224:	bf2c      	ite	cs
    1226:	f04f 0901 	movcs.w	r9, #1
    122a:	f04f 0900 	movcc.w	r9, #0
    122e:	428e      	cmp	r6, r1
    1230:	d902      	bls.n	1238 <__udivmoddi4+0x274>
    1232:	f1b9 0f00 	cmp.w	r9, #0
    1236:	d030      	beq.n	129a <__udivmoddi4+0x2d6>
    1238:	4640      	mov	r0, r8
    123a:	1b89      	subs	r1, r1, r6
    123c:	b292      	uxth	r2, r2
    123e:	fbb1 f6fe 	udiv	r6, r1, lr
    1242:	fb0e 1116 	mls	r1, lr, r6, r1
    1246:	ea42 4201 	orr.w	r2, r2, r1, lsl #16
    124a:	fb06 f107 	mul.w	r1, r6, r7
    124e:	4291      	cmp	r1, r2
    1250:	d907      	bls.n	1262 <__udivmoddi4+0x29e>
    1252:	eb1c 0202 	adds.w	r2, ip, r2
    1256:	f106 38ff 	add.w	r8, r6, #4294967295	; 0xffffffff
    125a:	d201      	bcs.n	1260 <__udivmoddi4+0x29c>
    125c:	4291      	cmp	r1, r2
    125e:	d822      	bhi.n	12a6 <__udivmoddi4+0x2e2>
    1260:	4646      	mov	r6, r8
    1262:	1a52      	subs	r2, r2, r1
    1264:	ea46 4100 	orr.w	r1, r6, r0, lsl #16
    1268:	e724      	b.n	10b4 <__udivmoddi4+0xf0>
    126a:	4629      	mov	r1, r5
    126c:	4628      	mov	r0, r5
    126e:	e6f7      	b.n	1060 <__udivmoddi4+0x9c>
    1270:	1a84      	subs	r4, r0, r2
    1272:	eb66 0203 	sbc.w	r2, r6, r3
    1276:	2001      	movs	r0, #1
    1278:	4617      	mov	r7, r2
    127a:	e709      	b.n	1090 <__udivmoddi4+0xcc>
    127c:	4464      	add	r4, ip
    127e:	3802      	subs	r0, #2
    1280:	e748      	b.n	1114 <__udivmoddi4+0x150>
    1282:	4464      	add	r4, ip
    1284:	3802      	subs	r0, #2
    1286:	e6e1      	b.n	104c <__udivmoddi4+0x88>
    1288:	3e02      	subs	r6, #2
    128a:	4462      	add	r2, ip
    128c:	e72d      	b.n	10ea <__udivmoddi4+0x126>
    128e:	3902      	subs	r1, #2
    1290:	4462      	add	r2, ip
    1292:	e6c6      	b.n	1022 <__udivmoddi4+0x5e>
    1294:	3802      	subs	r0, #2
    1296:	443e      	add	r6, r7
    1298:	e76f      	b.n	117a <__udivmoddi4+0x1b6>
    129a:	3802      	subs	r0, #2
    129c:	4461      	add	r1, ip
    129e:	e7cc      	b.n	123a <__udivmoddi4+0x276>
    12a0:	3b02      	subs	r3, #2
    12a2:	443e      	add	r6, r7
    12a4:	e77e      	b.n	11a4 <__udivmoddi4+0x1e0>
    12a6:	3e02      	subs	r6, #2
    12a8:	4462      	add	r2, ip
    12aa:	e7da      	b.n	1262 <__udivmoddi4+0x29e>
    12ac:	4629      	mov	r1, r5
    12ae:	e6d7      	b.n	1060 <__udivmoddi4+0x9c>

000012b0 <__aeabi_idiv0>:
    12b0:	4770      	bx	lr
    12b2:	bf00      	nop

000012b4 <__aeabi_d2uiz>:
    12b4:	004a      	lsls	r2, r1, #1
    12b6:	d211      	bcs.n	12dc <__aeabi_d2uiz+0x28>
    12b8:	f512 1200 	adds.w	r2, r2, #2097152	; 0x200000
    12bc:	d211      	bcs.n	12e2 <__aeabi_d2uiz+0x2e>
    12be:	d50d      	bpl.n	12dc <__aeabi_d2uiz+0x28>
    12c0:	f46f 7378 	mvn.w	r3, #992	; 0x3e0
    12c4:	ebb3 5262 	subs.w	r2, r3, r2, asr #21
    12c8:	d40e      	bmi.n	12e8 <__aeabi_d2uiz+0x34>
    12ca:	ea4f 23c1 	mov.w	r3, r1, lsl #11
    12ce:	f043 4300 	orr.w	r3, r3, #2147483648	; 0x80000000
    12d2:	ea43 5350 	orr.w	r3, r3, r0, lsr #21
    12d6:	fa23 f002 	lsr.w	r0, r3, r2
    12da:	4770      	bx	lr
    12dc:	f04f 0000 	mov.w	r0, #0
    12e0:	4770      	bx	lr
    12e2:	ea50 3001 	orrs.w	r0, r0, r1, lsl #12
    12e6:	d102      	bne.n	12ee <__aeabi_d2uiz+0x3a>
    12e8:	f04f 30ff 	mov.w	r0, #4294967295	; 0xffffffff
    12ec:	4770      	bx	lr
    12ee:	f04f 0000 	mov.w	r0, #0
    12f2:	4770      	bx	lr

000012f4 <__aeabi_memset>:
    12f4:	b470      	push	{r4, r5, r6}
    12f6:	0784      	lsls	r4, r0, #30
    12f8:	d046      	beq.n	1388 <__aeabi_memset+0x94>
    12fa:	1e4c      	subs	r4, r1, #1
    12fc:	2900      	cmp	r1, #0
    12fe:	d041      	beq.n	1384 <__aeabi_memset+0x90>
    1300:	b2d5      	uxtb	r5, r2
    1302:	4603      	mov	r3, r0
    1304:	e002      	b.n	130c <__aeabi_memset+0x18>
    1306:	1e61      	subs	r1, r4, #1
    1308:	b3e4      	cbz	r4, 1384 <__aeabi_memset+0x90>
    130a:	460c      	mov	r4, r1
    130c:	f803 5b01 	strb.w	r5, [r3], #1
    1310:	0799      	lsls	r1, r3, #30
    1312:	d1f8      	bne.n	1306 <__aeabi_memset+0x12>
    1314:	2c03      	cmp	r4, #3
    1316:	d92e      	bls.n	1376 <__aeabi_memset+0x82>
    1318:	b2d5      	uxtb	r5, r2
    131a:	ea45 2505 	orr.w	r5, r5, r5, lsl #8
    131e:	2c0f      	cmp	r4, #15
    1320:	ea45 4505 	orr.w	r5, r5, r5, lsl #16
    1324:	d919      	bls.n	135a <__aeabi_memset+0x66>
    1326:	4626      	mov	r6, r4
    1328:	f103 0110 	add.w	r1, r3, #16
    132c:	3e10      	subs	r6, #16
    132e:	2e0f      	cmp	r6, #15
    1330:	f841 5c10 	str.w	r5, [r1, #-16]
    1334:	f841 5c0c 	str.w	r5, [r1, #-12]
    1338:	f841 5c08 	str.w	r5, [r1, #-8]
    133c:	f841 5c04 	str.w	r5, [r1, #-4]
    1340:	f101 0110 	add.w	r1, r1, #16
    1344:	d8f2      	bhi.n	132c <__aeabi_memset+0x38>
    1346:	f1a4 0110 	sub.w	r1, r4, #16
    134a:	f021 010f 	bic.w	r1, r1, #15
    134e:	f004 040f 	and.w	r4, r4, #15
    1352:	3110      	adds	r1, #16
    1354:	2c03      	cmp	r4, #3
    1356:	440b      	add	r3, r1
    1358:	d90d      	bls.n	1376 <__aeabi_memset+0x82>
    135a:	461e      	mov	r6, r3
    135c:	4621      	mov	r1, r4
    135e:	3904      	subs	r1, #4
    1360:	2903      	cmp	r1, #3
    1362:	f846 5b04 	str.w	r5, [r6], #4
    1366:	d8fa      	bhi.n	135e <__aeabi_memset+0x6a>
    1368:	1f21      	subs	r1, r4, #4
    136a:	f021 0103 	bic.w	r1, r1, #3
    136e:	3104      	adds	r1, #4
    1370:	440b      	add	r3, r1
    1372:	f004 0403 	and.w	r4, r4, #3
    1376:	b12c      	cbz	r4, 1384 <__aeabi_memset+0x90>
    1378:	b2d2      	uxtb	r2, r2
    137a:	441c      	add	r4, r3
    137c:	f803 2b01 	strb.w	r2, [r3], #1
    1380:	42a3      	cmp	r3, r4
    1382:	d1fb      	bne.n	137c <__aeabi_memset+0x88>
    1384:	bc70      	pop	{r4, r5, r6}
    1386:	4770      	bx	lr
    1388:	460c      	mov	r4, r1
    138a:	4603      	mov	r3, r0
    138c:	e7c2      	b.n	1314 <__aeabi_memset+0x20>
	...

00001390 <memcpy>:
    1390:	4684      	mov	ip, r0
    1392:	ea41 0300 	orr.w	r3, r1, r0
    1396:	f013 0303 	ands.w	r3, r3, #3
    139a:	d149      	bne.n	1430 <memcpy+0xa0>
    139c:	3a40      	subs	r2, #64	; 0x40
    139e:	d323      	bcc.n	13e8 <memcpy+0x58>
    13a0:	680b      	ldr	r3, [r1, #0]
    13a2:	6003      	str	r3, [r0, #0]
    13a4:	684b      	ldr	r3, [r1, #4]
    13a6:	6043      	str	r3, [r0, #4]
    13a8:	688b      	ldr	r3, [r1, #8]
    13aa:	6083      	str	r3, [r0, #8]
    13ac:	68cb      	ldr	r3, [r1, #12]
    13ae:	60c3      	str	r3, [r0, #12]
    13b0:	690b      	ldr	r3, [r1, #16]
    13b2:	6103      	str	r3, [r0, #16]
    13b4:	694b      	ldr	r3, [r1, #20]
    13b6:	6143      	str	r3, [r0, #20]
    13b8:	698b      	ldr	r3, [r1, #24]
    13ba:	6183      	str	r3, [r0, #24]
    13bc:	69cb      	ldr	r3, [r1, #28]
    13be:	61c3      	str	r3, [r0, #28]
    13c0:	6a0b      	ldr	r3, [r1, #32]
    13c2:	6203      	str	r3, [r0, #32]
    13c4:	6a4b      	ldr	r3, [r1, #36]	; 0x24
    13c6:	6243      	str	r3, [r0, #36]	; 0x24
    13c8:	6a8b      	ldr	r3, [r1, #40]	; 0x28
    13ca:	6283      	str	r3, [r0, #40]	; 0x28
    13cc:	6acb      	ldr	r3, [r1, #44]	; 0x2c
    13ce:	62c3      	str	r3, [r0, #44]	; 0x2c
    13d0:	6b0b      	ldr	r3, [r1, #48]	; 0x30
    13d2:	6303      	str	r3, [r0, #48]	; 0x30
    13d4:	6b4b      	ldr	r3, [r1, #52]	; 0x34
    13d6:	6343      	str	r3, [r0, #52]	; 0x34
    13d8:	6b8b      	ldr	r3, [r1, #56]	; 0x38
    13da:	6383      	str	r3, [r0, #56]	; 0x38
    13dc:	6bcb      	ldr	r3, [r1, #60]	; 0x3c
    13de:	63c3      	str	r3, [r0, #60]	; 0x3c
    13e0:	3040      	adds	r0, #64	; 0x40
    13e2:	3140      	adds	r1, #64	; 0x40
    13e4:	3a40      	subs	r2, #64	; 0x40
    13e6:	d2db      	bcs.n	13a0 <memcpy+0x10>
    13e8:	3230      	adds	r2, #48	; 0x30
    13ea:	d30b      	bcc.n	1404 <memcpy+0x74>
    13ec:	680b      	ldr	r3, [r1, #0]
    13ee:	6003      	str	r3, [r0, #0]
    13f0:	684b      	ldr	r3, [r1, #4]
    13f2:	6043      	str	r3, [r0, #4]
    13f4:	688b      	ldr	r3, [r1, #8]
    13f6:	6083      	str	r3, [r0, #8]
    13f8:	68cb      	ldr	r3, [r1, #12]
    13fa:	60c3      	str	r3, [r0, #12]
    13fc:	3010      	adds	r0, #16
    13fe:	3110      	adds	r1, #16
    1400:	3a10      	subs	r2, #16
    1402:	d2f3      	bcs.n	13ec <memcpy+0x5c>
    1404:	320c      	adds	r2, #12
    1406:	d305      	bcc.n	1414 <memcpy+0x84>
    1408:	f851 3b04 	ldr.w	r3, [r1], #4
    140c:	f840 3b04 	str.w	r3, [r0], #4
    1410:	3a04      	subs	r2, #4
    1412:	d2f9      	bcs.n	1408 <memcpy+0x78>
    1414:	3204      	adds	r2, #4
    1416:	d008      	beq.n	142a <memcpy+0x9a>
    1418:	07d2      	lsls	r2, r2, #31
    141a:	bf1c      	itt	ne
    141c:	f811 3b01 	ldrbne.w	r3, [r1], #1
    1420:	f800 3b01 	strbne.w	r3, [r0], #1
    1424:	d301      	bcc.n	142a <memcpy+0x9a>
    1426:	880b      	ldrh	r3, [r1, #0]
    1428:	8003      	strh	r3, [r0, #0]
    142a:	4660      	mov	r0, ip
    142c:	4770      	bx	lr
    142e:	bf00      	nop
    1430:	2a08      	cmp	r2, #8
    1432:	d313      	bcc.n	145c <memcpy+0xcc>
    1434:	078b      	lsls	r3, r1, #30
    1436:	d0b1      	beq.n	139c <memcpy+0xc>
    1438:	f010 0303 	ands.w	r3, r0, #3
    143c:	d0ae      	beq.n	139c <memcpy+0xc>
    143e:	f1c3 0304 	rsb	r3, r3, #4
    1442:	1ad2      	subs	r2, r2, r3
    1444:	07db      	lsls	r3, r3, #31
    1446:	bf1c      	itt	ne
    1448:	f811 3b01 	ldrbne.w	r3, [r1], #1
    144c:	f800 3b01 	strbne.w	r3, [r0], #1
    1450:	d3a4      	bcc.n	139c <memcpy+0xc>
    1452:	f831 3b02 	ldrh.w	r3, [r1], #2
    1456:	f820 3b02 	strh.w	r3, [r0], #2
    145a:	e79f      	b.n	139c <memcpy+0xc>
    145c:	3a04      	subs	r2, #4
    145e:	d3d9      	bcc.n	1414 <memcpy+0x84>
    1460:	3a01      	subs	r2, #1
    1462:	f811 3b01 	ldrb.w	r3, [r1], #1
    1466:	f800 3b01 	strb.w	r3, [r0], #1
    146a:	d2f9      	bcs.n	1460 <memcpy+0xd0>
    146c:	780b      	ldrb	r3, [r1, #0]
    146e:	7003      	strb	r3, [r0, #0]
    1470:	784b      	ldrb	r3, [r1, #1]
    1472:	7043      	strb	r3, [r0, #1]
    1474:	788b      	ldrb	r3, [r1, #2]
    1476:	7083      	strb	r3, [r0, #2]
    1478:	4660      	mov	r0, ip
    147a:	4770      	bx	lr

0000147c <SystemInit>:
    147c:	b580      	push	{r7, lr}
    147e:	466f      	mov	r7, sp
    1480:	f64e 5188 	movw	r1, #60808	; 0xed88
    1484:	f2ce 0100 	movt	r1, #57344	; 0xe000
    1488:	6808      	ldr	r0, [r1, #0]
    148a:	f440 0070 	orr.w	r0, r0, #15728640	; 0xf00000
    148e:	6008      	str	r0, [r1, #0]
    1490:	6808      	ldr	r0, [r1, #0]
    1492:	f040 000f 	orr.w	r0, r0, #15
    1496:	6008      	str	r0, [r1, #0]
    1498:	f64e 518c 	movw	r1, #60812	; 0xed8c
    149c:	f2ce 0100 	movt	r1, #57344	; 0xe000
    14a0:	6808      	ldr	r0, [r1, #0]
    14a2:	f640 4203 	movw	r2, #3075	; 0xc03
    14a6:	4310      	orrs	r0, r2
    14a8:	6008      	str	r0, [r1, #0]
    14aa:	f240 0000 	movw	r0, #0
    14ae:	f2c0 0000 	movt	r0, #0
    14b2:	f64e 5108 	movw	r1, #60680	; 0xed08
    14b6:	f2ce 0100 	movt	r1, #57344	; 0xe000
    14ba:	6008      	str	r0, [r1, #0]
    14bc:	f240 3108 	movw	r1, #776	; 0x308
    14c0:	f2c4 0100 	movt	r1, #16384	; 0x4000
    14c4:	2000      	movs	r0, #0
    14c6:	6008      	str	r0, [r1, #0]
    14c8:	f240 2120 	movw	r1, #544	; 0x220
    14cc:	f2c4 0100 	movt	r1, #16384	; 0x4000
    14d0:	2078      	movs	r0, #120	; 0x78
    14d2:	6008      	str	r0, [r1, #0]
    14d4:	f000 f801 	bl	14da <SystemInitHook>
    14d8:	bd80      	pop	{r7, pc}

000014da <SystemInitHook>:
    14da:	4770      	bx	lr

000014dc <SDK_DelayAtLeastUs>:
    14dc:	b580      	push	{r7, lr}
    14de:	466f      	mov	r7, sp
    14e0:	b084      	sub	sp, #16
    14e2:	9102      	str	r1, [sp, #8]
    14e4:	9003      	str	r0, [sp, #12]
    14e6:	b340      	cbz	r0, 153a <SDK_DelayAtLeastUs+0x5e>
    14e8:	e7ff      	b.n	14ea <SDK_DelayAtLeastUs+0xe>
    14ea:	9803      	ldr	r0, [sp, #12]
    14ec:	9902      	ldr	r1, [sp, #8]
    14ee:	fba0 0101 	umull	r0, r1, r0, r1
    14f2:	f244 2240 	movw	r2, #16960	; 0x4240
    14f6:	f2c0 020f 	movt	r2, #15
    14fa:	2300      	movs	r3, #0
    14fc:	f7ff fd14 	bl	f28 <__aeabi_uldivmod>
    1500:	460a      	mov	r2, r1
    1502:	9200      	str	r2, [sp, #0]
    1504:	9001      	str	r0, [sp, #4]
    1506:	b909      	cbnz	r1, 150c <SDK_DelayAtLeastUs+0x30>
    1508:	e7ff      	b.n	150a <SDK_DelayAtLeastUs+0x2e>
    150a:	e00e      	b.n	152a <SDK_DelayAtLeastUs+0x4e>
    150c:	f648 40a4 	movw	r0, #36004	; 0x8ca4
    1510:	f2c0 0000 	movt	r0, #0
    1514:	f648 5215 	movw	r2, #36117	; 0x8d15
    1518:	f2c0 0200 	movt	r2, #0
    151c:	f648 5328 	movw	r3, #36136	; 0x8d28
    1520:	f2c0 0300 	movt	r3, #0
    1524:	21d5      	movs	r1, #213	; 0xd5
    1526:	f003 fece 	bl	52c6 <__assert_func>
    152a:	9900      	ldr	r1, [sp, #0]
    152c:	9801      	ldr	r0, [sp, #4]
    152e:	0880      	lsrs	r0, r0, #2
    1530:	ea40 7081 	orr.w	r0, r0, r1, lsl #30
    1534:	f000 f803 	bl	153e <DelayLoop>
    1538:	e7ff      	b.n	153a <SDK_DelayAtLeastUs+0x5e>
    153a:	b004      	add	sp, #16
    153c:	bd80      	pop	{r7, pc}

0000153e <DelayLoop>:
    153e:	4600      	mov	r0, r0

00001540 <loop>:
    1540:	f1a0 0001 	sub.w	r0, r0, #1
    1544:	2800      	cmp	r0, #0
    1546:	d1fb      	bne.n	1540 <loop>
    1548:	4770      	bx	lr

0000154a <CLOCK_AttachClk>:
    154a:	b089      	sub	sp, #36	; 0x24
    154c:	9008      	str	r0, [sp, #32]
    154e:	f1b0 4f00 	cmp.w	r0, #2147483648	; 0x80000000
    1552:	d045      	beq.n	15e0 <CLOCK_AttachClk+0x96>
    1554:	e7ff      	b.n	1556 <CLOCK_AttachClk+0xc>
    1556:	9908      	ldr	r1, [sp, #32]
    1558:	2000      	movs	r0, #0
    155a:	9106      	str	r1, [sp, #24]
    155c:	9007      	str	r0, [sp, #28]
    155e:	e7ff      	b.n	1560 <CLOCK_AttachClk+0x16>
    1560:	9906      	ldr	r1, [sp, #24]
    1562:	9807      	ldr	r0, [sp, #28]
    1564:	9004      	str	r0, [sp, #16]
    1566:	9105      	str	r1, [sp, #20]
    1568:	2801      	cmp	r0, #1
    156a:	d838      	bhi.n	15de <CLOCK_AttachClk+0x94>
    156c:	e7ff      	b.n	156e <CLOCK_AttachClk+0x24>
    156e:	9805      	ldr	r0, [sp, #20]
    1570:	b908      	cbnz	r0, 1576 <CLOCK_AttachClk+0x2c>
    1572:	e7ff      	b.n	1574 <CLOCK_AttachClk+0x2a>
    1574:	e033      	b.n	15de <CLOCK_AttachClk+0x94>
    1576:	9805      	ldr	r0, [sp, #20]
    1578:	f36f 301f 	bfc	r0, #12, #20
    157c:	4601      	mov	r1, r0
    157e:	9103      	str	r1, [sp, #12]
    1580:	b318      	cbz	r0, 15ca <CLOCK_AttachClk+0x80>
    1582:	e7ff      	b.n	1584 <CLOCK_AttachClk+0x3a>
    1584:	9903      	ldr	r1, [sp, #12]
    1586:	b2c8      	uxtb	r0, r1
    1588:	4602      	mov	r2, r0
    158a:	9201      	str	r2, [sp, #4]
    158c:	f401 6270 	and.w	r2, r1, #3840	; 0xf00
    1590:	f04f 31ff 	mov.w	r1, #4294967295	; 0xffffffff
    1594:	eb01 2112 	add.w	r1, r1, r2, lsr #8
    1598:	9102      	str	r1, [sp, #8]
    159a:	283f      	cmp	r0, #63	; 0x3f
    159c:	d109      	bne.n	15b2 <CLOCK_AttachClk+0x68>
    159e:	e7ff      	b.n	15a0 <CLOCK_AttachClk+0x56>
    15a0:	9a02      	ldr	r2, [sp, #8]
    15a2:	2198      	movs	r1, #152	; 0x98
    15a4:	f2c4 0102 	movt	r1, #16386	; 0x4002
    15a8:	6808      	ldr	r0, [r1, #0]
    15aa:	f362 0000 	bfi	r0, r2, #0, #1
    15ae:	6008      	str	r0, [r1, #0]
    15b0:	e00a      	b.n	15c8 <CLOCK_AttachClk+0x7e>
    15b2:	9901      	ldr	r1, [sp, #4]
    15b4:	9802      	ldr	r0, [sp, #8]
    15b6:	b2c0      	uxtb	r0, r0
    15b8:	b2ca      	uxtb	r2, r1
    15ba:	f240 2160 	movw	r1, #608	; 0x260
    15be:	f2c4 0100 	movt	r1, #16384	; 0x4000
    15c2:	f841 0022 	str.w	r0, [r1, r2, lsl #2]
    15c6:	e7ff      	b.n	15c8 <CLOCK_AttachClk+0x7e>
    15c8:	e7ff      	b.n	15ca <CLOCK_AttachClk+0x80>
    15ca:	9805      	ldr	r0, [sp, #20]
    15cc:	0b00      	lsrs	r0, r0, #12
    15ce:	9000      	str	r0, [sp, #0]
    15d0:	e7ff      	b.n	15d2 <CLOCK_AttachClk+0x88>
    15d2:	9900      	ldr	r1, [sp, #0]
    15d4:	9804      	ldr	r0, [sp, #16]
    15d6:	3001      	adds	r0, #1
    15d8:	9106      	str	r1, [sp, #24]
    15da:	9007      	str	r0, [sp, #28]
    15dc:	e7c0      	b.n	1560 <CLOCK_AttachClk+0x16>
    15de:	e7ff      	b.n	15e0 <CLOCK_AttachClk+0x96>
    15e0:	b009      	add	sp, #36	; 0x24
    15e2:	4770      	bx	lr

000015e4 <CLOCK_SetClkDiv>:
    15e4:	b083      	sub	sp, #12
    15e6:	9100      	str	r1, [sp, #0]
    15e8:	4601      	mov	r1, r0
    15ea:	9101      	str	r1, [sp, #4]
    15ec:	9202      	str	r2, [sp, #8]
    15ee:	2808      	cmp	r0, #8
    15f0:	db12      	blt.n	1618 <CLOCK_SetClkDiv+0x34>
    15f2:	e7ff      	b.n	15f4 <CLOCK_SetClkDiv+0x10>
    15f4:	9801      	ldr	r0, [sp, #4]
    15f6:	b2c0      	uxtb	r0, r0
    15f8:	280f      	cmp	r0, #15
    15fa:	dc0d      	bgt.n	1618 <CLOCK_SetClkDiv+0x34>
    15fc:	e7ff      	b.n	15fe <CLOCK_SetClkDiv+0x1a>
    15fe:	9901      	ldr	r1, [sp, #4]
    1600:	9a00      	ldr	r2, [sp, #0]
    1602:	20ff      	movs	r0, #255	; 0xff
    1604:	f362 200f 	bfi	r0, r2, #8, #8
    1608:	b2ca      	uxtb	r2, r1
    160a:	f240 3100 	movw	r1, #768	; 0x300
    160e:	f2c4 0100 	movt	r1, #16384	; 0x4000
    1612:	f841 0022 	str.w	r0, [r1, r2, lsl #2]
    1616:	e028      	b.n	166a <CLOCK_SetClkDiv+0x86>
    1618:	9802      	ldr	r0, [sp, #8]
    161a:	07c0      	lsls	r0, r0, #31
    161c:	b158      	cbz	r0, 1636 <CLOCK_SetClkDiv+0x52>
    161e:	e7ff      	b.n	1620 <CLOCK_SetClkDiv+0x3c>
    1620:	9801      	ldr	r0, [sp, #4]
    1622:	b2c2      	uxtb	r2, r0
    1624:	f240 3100 	movw	r1, #768	; 0x300
    1628:	f2c4 0100 	movt	r1, #16384	; 0x4000
    162c:	f04f 5000 	mov.w	r0, #536870912	; 0x20000000
    1630:	f841 0022 	str.w	r0, [r1, r2, lsl #2]
    1634:	e7ff      	b.n	1636 <CLOCK_SetClkDiv+0x52>
    1636:	9800      	ldr	r0, [sp, #0]
    1638:	b958      	cbnz	r0, 1652 <CLOCK_SetClkDiv+0x6e>
    163a:	e7ff      	b.n	163c <CLOCK_SetClkDiv+0x58>
    163c:	9801      	ldr	r0, [sp, #4]
    163e:	b2c2      	uxtb	r2, r0
    1640:	f240 3100 	movw	r1, #768	; 0x300
    1644:	f2c4 0100 	movt	r1, #16384	; 0x4000
    1648:	f04f 4080 	mov.w	r0, #1073741824	; 0x40000000
    164c:	f841 0022 	str.w	r0, [r1, r2, lsl #2]
    1650:	e00a      	b.n	1668 <CLOCK_SetClkDiv+0x84>
    1652:	9901      	ldr	r1, [sp, #4]
    1654:	9800      	ldr	r0, [sp, #0]
    1656:	3801      	subs	r0, #1
    1658:	b2ca      	uxtb	r2, r1
    165a:	f240 3100 	movw	r1, #768	; 0x300
    165e:	f2c4 0100 	movt	r1, #16384	; 0x4000
    1662:	f841 0022 	str.w	r0, [r1, r2, lsl #2]
    1666:	e7ff      	b.n	1668 <CLOCK_SetClkDiv+0x84>
    1668:	e7ff      	b.n	166a <CLOCK_SetClkDiv+0x86>
    166a:	b003      	add	sp, #12
    166c:	4770      	bx	lr

0000166e <CLOCK_SetupFROClocking>:
    166e:	b580      	push	{r7, lr}
    1670:	466f      	mov	r7, sp
    1672:	b082      	sub	sp, #8
    1674:	9001      	str	r0, [sp, #4]
    1676:	f641 3100 	movw	r1, #6912	; 0x1b00
    167a:	f2c0 01b7 	movt	r1, #183	; 0xb7
    167e:	4288      	cmp	r0, r1
    1680:	d013      	beq.n	16aa <CLOCK_SetupFROClocking+0x3c>
    1682:	e7ff      	b.n	1684 <CLOCK_SetupFROClocking+0x16>
    1684:	9801      	ldr	r0, [sp, #4]
    1686:	f646 4100 	movw	r1, #27648	; 0x6c00
    168a:	f2c0 21dc 	movt	r1, #732	; 0x2dc
    168e:	4288      	cmp	r0, r1
    1690:	d00b      	beq.n	16aa <CLOCK_SetupFROClocking+0x3c>
    1692:	e7ff      	b.n	1694 <CLOCK_SetupFROClocking+0x26>
    1694:	9801      	ldr	r0, [sp, #4]
    1696:	f64d 0100 	movw	r1, #55296	; 0xd800
    169a:	f2c0 51b8 	movt	r1, #1464	; 0x5b8
    169e:	4288      	cmp	r0, r1
    16a0:	d003      	beq.n	16aa <CLOCK_SetupFROClocking+0x3c>
    16a2:	e7ff      	b.n	16a4 <CLOCK_SetupFROClocking+0x36>
    16a4:	2001      	movs	r0, #1
    16a6:	9000      	str	r0, [sp, #0]
    16a8:	e02b      	b.n	1702 <CLOCK_SetupFROClocking+0x94>
    16aa:	f240 1148 	movw	r1, #328	; 0x148
    16ae:	f2c4 0100 	movt	r1, #16384	; 0x4000
    16b2:	f04f 6000 	mov.w	r0, #134217728	; 0x8000000
    16b6:	6008      	str	r0, [r1, #0]
    16b8:	f240 2128 	movw	r1, #552	; 0x228
    16bc:	f2c4 0100 	movt	r1, #16384	; 0x4000
    16c0:	6008      	str	r0, [r1, #0]
    16c2:	2020      	movs	r0, #32
    16c4:	f000 f820 	bl	1708 <POWER_DisablePD>
    16c8:	9801      	ldr	r0, [sp, #4]
    16ca:	f64d 0100 	movw	r1, #55296	; 0xd800
    16ce:	f2c0 51b8 	movt	r1, #1464	; 0x5b8
    16d2:	4288      	cmp	r0, r1
    16d4:	d109      	bne.n	16ea <CLOCK_SetupFROClocking+0x7c>
    16d6:	e7ff      	b.n	16d8 <CLOCK_SetupFROClocking+0x6a>
    16d8:	f243 0110 	movw	r1, #12304	; 0x3010
    16dc:	f2c4 0101 	movt	r1, #16385	; 0x4001
    16e0:	6808      	ldr	r0, [r1, #0]
    16e2:	f040 4080 	orr.w	r0, r0, #1073741824	; 0x40000000
    16e6:	6008      	str	r0, [r1, #0]
    16e8:	e008      	b.n	16fc <CLOCK_SetupFROClocking+0x8e>
    16ea:	f243 0110 	movw	r1, #12304	; 0x3010
    16ee:	f2c4 0101 	movt	r1, #16385	; 0x4001
    16f2:	6808      	ldr	r0, [r1, #0]
    16f4:	f440 4080 	orr.w	r0, r0, #16384	; 0x4000
    16f8:	6008      	str	r0, [r1, #0]
    16fa:	e7ff      	b.n	16fc <CLOCK_SetupFROClocking+0x8e>
    16fc:	2000      	movs	r0, #0
    16fe:	9000      	str	r0, [sp, #0]
    1700:	e7ff      	b.n	1702 <CLOCK_SetupFROClocking+0x94>
    1702:	9800      	ldr	r0, [sp, #0]
    1704:	b002      	add	sp, #8
    1706:	bd80      	pop	{r7, pc}

00001708 <POWER_DisablePD>:
    1708:	21c8      	movs	r1, #200	; 0xc8
    170a:	f2c4 0102 	movt	r1, #16386	; 0x4002
    170e:	6008      	str	r0, [r1, #0]
    1710:	4770      	bx	lr

00001712 <CLOCK_SetFLASHAccessCyclesForFreq>:
    1712:	b08f      	sub	sp, #60	; 0x3c
    1714:	900d      	str	r0, [sp, #52]	; 0x34
    1716:	f240 4100 	movw	r1, #1024	; 0x400
    171a:	f2c4 0100 	movt	r1, #16384	; 0x4000
    171e:	6809      	ldr	r1, [r1, #0]
    1720:	f001 0120 	and.w	r1, r1, #32
    1724:	910e      	str	r1, [sp, #56]	; 0x38
    1726:	f64d 01c0 	movw	r1, #55488	; 0xd8c0
    172a:	f2c0 01a7 	movt	r1, #167	; 0xa7
    172e:	4288      	cmp	r0, r1
    1730:	d803      	bhi.n	173a <CLOCK_SetFLASHAccessCyclesForFreq+0x28>
    1732:	e7ff      	b.n	1734 <CLOCK_SetFLASHAccessCyclesForFreq+0x22>
    1734:	2000      	movs	r0, #0
    1736:	900c      	str	r0, [sp, #48]	; 0x30
    1738:	e09c      	b.n	1874 <CLOCK_SetFLASHAccessCyclesForFreq+0x162>
    173a:	980d      	ldr	r0, [sp, #52]	; 0x34
    173c:	f24b 1180 	movw	r1, #45440	; 0xb180
    1740:	f2c0 114f 	movt	r1, #335	; 0x14f
    1744:	4288      	cmp	r0, r1
    1746:	d803      	bhi.n	1750 <CLOCK_SetFLASHAccessCyclesForFreq+0x3e>
    1748:	e7ff      	b.n	174a <CLOCK_SetFLASHAccessCyclesForFreq+0x38>
    174a:	2001      	movs	r0, #1
    174c:	900b      	str	r0, [sp, #44]	; 0x2c
    174e:	e08e      	b.n	186e <CLOCK_SetFLASHAccessCyclesForFreq+0x15c>
    1750:	980d      	ldr	r0, [sp, #52]	; 0x34
    1752:	f648 2140 	movw	r1, #35392	; 0x8a40
    1756:	f2c0 11f7 	movt	r1, #503	; 0x1f7
    175a:	4288      	cmp	r0, r1
    175c:	d803      	bhi.n	1766 <CLOCK_SetFLASHAccessCyclesForFreq+0x54>
    175e:	e7ff      	b.n	1760 <CLOCK_SetFLASHAccessCyclesForFreq+0x4e>
    1760:	2002      	movs	r0, #2
    1762:	900a      	str	r0, [sp, #40]	; 0x28
    1764:	e080      	b.n	1868 <CLOCK_SetFLASHAccessCyclesForFreq+0x156>
    1766:	980d      	ldr	r0, [sp, #52]	; 0x34
    1768:	f246 3100 	movw	r1, #25344	; 0x6300
    176c:	f2c0 219f 	movt	r1, #671	; 0x29f
    1770:	4288      	cmp	r0, r1
    1772:	d803      	bhi.n	177c <CLOCK_SetFLASHAccessCyclesForFreq+0x6a>
    1774:	e7ff      	b.n	1776 <CLOCK_SetFLASHAccessCyclesForFreq+0x64>
    1776:	2003      	movs	r0, #3
    1778:	9009      	str	r0, [sp, #36]	; 0x24
    177a:	e072      	b.n	1862 <CLOCK_SetFLASHAccessCyclesForFreq+0x150>
    177c:	980d      	ldr	r0, [sp, #52]	; 0x34
    177e:	f643 31c0 	movw	r1, #15296	; 0x3bc0
    1782:	f2c0 3147 	movt	r1, #839	; 0x347
    1786:	4288      	cmp	r0, r1
    1788:	d803      	bhi.n	1792 <CLOCK_SetFLASHAccessCyclesForFreq+0x80>
    178a:	e7ff      	b.n	178c <CLOCK_SetFLASHAccessCyclesForFreq+0x7a>
    178c:	2004      	movs	r0, #4
    178e:	9008      	str	r0, [sp, #32]
    1790:	e064      	b.n	185c <CLOCK_SetFLASHAccessCyclesForFreq+0x14a>
    1792:	980d      	ldr	r0, [sp, #52]	; 0x34
    1794:	f241 4180 	movw	r1, #5248	; 0x1480
    1798:	f2c0 31ef 	movt	r1, #1007	; 0x3ef
    179c:	4288      	cmp	r0, r1
    179e:	d803      	bhi.n	17a8 <CLOCK_SetFLASHAccessCyclesForFreq+0x96>
    17a0:	e7ff      	b.n	17a2 <CLOCK_SetFLASHAccessCyclesForFreq+0x90>
    17a2:	2005      	movs	r0, #5
    17a4:	9007      	str	r0, [sp, #28]
    17a6:	e056      	b.n	1856 <CLOCK_SetFLASHAccessCyclesForFreq+0x144>
    17a8:	980d      	ldr	r0, [sp, #52]	; 0x34
    17aa:	f64e 5140 	movw	r1, #60736	; 0xed40
    17ae:	f2c0 4196 	movt	r1, #1174	; 0x496
    17b2:	4288      	cmp	r0, r1
    17b4:	d803      	bhi.n	17be <CLOCK_SetFLASHAccessCyclesForFreq+0xac>
    17b6:	e7ff      	b.n	17b8 <CLOCK_SetFLASHAccessCyclesForFreq+0xa6>
    17b8:	2006      	movs	r0, #6
    17ba:	9006      	str	r0, [sp, #24]
    17bc:	e048      	b.n	1850 <CLOCK_SetFLASHAccessCyclesForFreq+0x13e>
    17be:	980d      	ldr	r0, [sp, #52]	; 0x34
    17c0:	f24c 6100 	movw	r1, #50688	; 0xc600
    17c4:	f2c0 513e 	movt	r1, #1342	; 0x53e
    17c8:	4288      	cmp	r0, r1
    17ca:	d803      	bhi.n	17d4 <CLOCK_SetFLASHAccessCyclesForFreq+0xc2>
    17cc:	e7ff      	b.n	17ce <CLOCK_SetFLASHAccessCyclesForFreq+0xbc>
    17ce:	2007      	movs	r0, #7
    17d0:	9005      	str	r0, [sp, #20]
    17d2:	e03a      	b.n	184a <CLOCK_SetFLASHAccessCyclesForFreq+0x138>
    17d4:	980d      	ldr	r0, [sp, #52]	; 0x34
    17d6:	f24e 1100 	movw	r1, #57600	; 0xe100
    17da:	f2c0 51f5 	movt	r1, #1525	; 0x5f5
    17de:	4288      	cmp	r0, r1
    17e0:	d803      	bhi.n	17ea <CLOCK_SetFLASHAccessCyclesForFreq+0xd8>
    17e2:	e7ff      	b.n	17e4 <CLOCK_SetFLASHAccessCyclesForFreq+0xd2>
    17e4:	2008      	movs	r0, #8
    17e6:	9004      	str	r0, [sp, #16]
    17e8:	e02c      	b.n	1844 <CLOCK_SetFLASHAccessCyclesForFreq+0x132>
    17ea:	980d      	ldr	r0, [sp, #52]	; 0x34
    17ec:	f24c 21c0 	movw	r1, #49856	; 0xc2c0
    17f0:	f2c0 61da 	movt	r1, #1754	; 0x6da
    17f4:	4288      	cmp	r0, r1
    17f6:	d803      	bhi.n	1800 <CLOCK_SetFLASHAccessCyclesForFreq+0xee>
    17f8:	e7ff      	b.n	17fa <CLOCK_SetFLASHAccessCyclesForFreq+0xe8>
    17fa:	2009      	movs	r0, #9
    17fc:	9003      	str	r0, [sp, #12]
    17fe:	e01e      	b.n	183e <CLOCK_SetFLASHAccessCyclesForFreq+0x12c>
    1800:	980d      	ldr	r0, [sp, #52]	; 0x34
    1802:	f24a 4180 	movw	r1, #42112	; 0xa480
    1806:	f2c0 71bf 	movt	r1, #1983	; 0x7bf
    180a:	4288      	cmp	r0, r1
    180c:	d803      	bhi.n	1816 <CLOCK_SetFLASHAccessCyclesForFreq+0x104>
    180e:	e7ff      	b.n	1810 <CLOCK_SetFLASHAccessCyclesForFreq+0xfe>
    1810:	200a      	movs	r0, #10
    1812:	9002      	str	r0, [sp, #8]
    1814:	e010      	b.n	1838 <CLOCK_SetFLASHAccessCyclesForFreq+0x126>
    1816:	980d      	ldr	r0, [sp, #52]	; 0x34
    1818:	f24d 1180 	movw	r1, #53632	; 0xd180
    181c:	f6c0 01f0 	movt	r1, #2288	; 0x8f0
    1820:	4288      	cmp	r0, r1
    1822:	d803      	bhi.n	182c <CLOCK_SetFLASHAccessCyclesForFreq+0x11a>
    1824:	e7ff      	b.n	1826 <CLOCK_SetFLASHAccessCyclesForFreq+0x114>
    1826:	200b      	movs	r0, #11
    1828:	9001      	str	r0, [sp, #4]
    182a:	e002      	b.n	1832 <CLOCK_SetFLASHAccessCyclesForFreq+0x120>
    182c:	200c      	movs	r0, #12
    182e:	9001      	str	r0, [sp, #4]
    1830:	e7ff      	b.n	1832 <CLOCK_SetFLASHAccessCyclesForFreq+0x120>
    1832:	9801      	ldr	r0, [sp, #4]
    1834:	9002      	str	r0, [sp, #8]
    1836:	e7ff      	b.n	1838 <CLOCK_SetFLASHAccessCyclesForFreq+0x126>
    1838:	9802      	ldr	r0, [sp, #8]
    183a:	9003      	str	r0, [sp, #12]
    183c:	e7ff      	b.n	183e <CLOCK_SetFLASHAccessCyclesForFreq+0x12c>
    183e:	9803      	ldr	r0, [sp, #12]
    1840:	9004      	str	r0, [sp, #16]
    1842:	e7ff      	b.n	1844 <CLOCK_SetFLASHAccessCyclesForFreq+0x132>
    1844:	9804      	ldr	r0, [sp, #16]
    1846:	9005      	str	r0, [sp, #20]
    1848:	e7ff      	b.n	184a <CLOCK_SetFLASHAccessCyclesForFreq+0x138>
    184a:	9805      	ldr	r0, [sp, #20]
    184c:	9006      	str	r0, [sp, #24]
    184e:	e7ff      	b.n	1850 <CLOCK_SetFLASHAccessCyclesForFreq+0x13e>
    1850:	9806      	ldr	r0, [sp, #24]
    1852:	9007      	str	r0, [sp, #28]
    1854:	e7ff      	b.n	1856 <CLOCK_SetFLASHAccessCyclesForFreq+0x144>
    1856:	9807      	ldr	r0, [sp, #28]
    1858:	9008      	str	r0, [sp, #32]
    185a:	e7ff      	b.n	185c <CLOCK_SetFLASHAccessCyclesForFreq+0x14a>
    185c:	9808      	ldr	r0, [sp, #32]
    185e:	9009      	str	r0, [sp, #36]	; 0x24
    1860:	e7ff      	b.n	1862 <CLOCK_SetFLASHAccessCyclesForFreq+0x150>
    1862:	9809      	ldr	r0, [sp, #36]	; 0x24
    1864:	900a      	str	r0, [sp, #40]	; 0x28
    1866:	e7ff      	b.n	1868 <CLOCK_SetFLASHAccessCyclesForFreq+0x156>
    1868:	980a      	ldr	r0, [sp, #40]	; 0x28
    186a:	900b      	str	r0, [sp, #44]	; 0x2c
    186c:	e7ff      	b.n	186e <CLOCK_SetFLASHAccessCyclesForFreq+0x15c>
    186e:	980b      	ldr	r0, [sp, #44]	; 0x2c
    1870:	900c      	str	r0, [sp, #48]	; 0x30
    1872:	e7ff      	b.n	1874 <CLOCK_SetFLASHAccessCyclesForFreq+0x162>
    1874:	9a0c      	ldr	r2, [sp, #48]	; 0x30
    1876:	9200      	str	r2, [sp, #0]
    1878:	f240 4100 	movw	r1, #1024	; 0x400
    187c:	f2c4 0100 	movt	r1, #16384	; 0x4000
    1880:	6808      	ldr	r0, [r1, #0]
    1882:	f020 0020 	bic.w	r0, r0, #32
    1886:	6008      	str	r0, [r1, #0]
    1888:	f644 71e8 	movw	r1, #20456	; 0x4fe8
    188c:	f2c4 0103 	movt	r1, #16387	; 0x4003
    1890:	201f      	movs	r0, #31
    1892:	6008      	str	r0, [r1, #0]
    1894:	f244 0180 	movw	r1, #16512	; 0x4080
    1898:	f2c4 0103 	movt	r1, #16387	; 0x4003
    189c:	6808      	ldr	r0, [r1, #0]
    189e:	f362 0003 	bfi	r0, r2, #0, #4
    18a2:	6008      	str	r0, [r1, #0]
    18a4:	f244 0100 	movw	r1, #16384	; 0x4000
    18a8:	f2c4 0103 	movt	r1, #16387	; 0x4003
    18ac:	2002      	movs	r0, #2
    18ae:	6008      	str	r0, [r1, #0]
    18b0:	e7ff      	b.n	18b2 <CLOCK_SetFLASHAccessCyclesForFreq+0x1a0>
    18b2:	f644 70e0 	movw	r0, #20448	; 0x4fe0
    18b6:	f2c4 0003 	movt	r0, #16387	; 0x4003
    18ba:	6800      	ldr	r0, [r0, #0]
    18bc:	0740      	lsls	r0, r0, #29
    18be:	2800      	cmp	r0, #0
    18c0:	d401      	bmi.n	18c6 <CLOCK_SetFLASHAccessCyclesForFreq+0x1b4>
    18c2:	e7ff      	b.n	18c4 <CLOCK_SetFLASHAccessCyclesForFreq+0x1b2>
    18c4:	e7f5      	b.n	18b2 <CLOCK_SetFLASHAccessCyclesForFreq+0x1a0>
    18c6:	9a0e      	ldr	r2, [sp, #56]	; 0x38
    18c8:	9b00      	ldr	r3, [sp, #0]
    18ca:	f240 4100 	movw	r1, #1024	; 0x400
    18ce:	f2c4 0100 	movt	r1, #16384	; 0x4000
    18d2:	6808      	ldr	r0, [r1, #0]
    18d4:	f363 300f 	bfi	r0, r3, #12, #4
    18d8:	6008      	str	r0, [r1, #0]
    18da:	6808      	ldr	r0, [r1, #0]
    18dc:	4310      	orrs	r0, r2
    18de:	6008      	str	r0, [r1, #0]
    18e0:	b00f      	add	sp, #60	; 0x3c
    18e2:	4770      	bx	lr

000018e4 <CLOCK_SetupExtClocking>:
    18e4:	b580      	push	{r7, lr}
    18e6:	466f      	mov	r7, sp
    18e8:	b082      	sub	sp, #8
    18ea:	9001      	str	r0, [sp, #4]
    18ec:	f644 0101 	movw	r1, #18433	; 0x4801
    18f0:	f2c0 11e8 	movt	r1, #488	; 0x1e8
    18f4:	4288      	cmp	r0, r1
    18f6:	d303      	bcc.n	1900 <CLOCK_SetupExtClocking+0x1c>
    18f8:	e7ff      	b.n	18fa <CLOCK_SetupExtClocking+0x16>
    18fa:	2001      	movs	r0, #1
    18fc:	9000      	str	r0, [sp, #0]
    18fe:	e022      	b.n	1946 <CLOCK_SetupExtClocking+0x62>
    1900:	f44f 7080 	mov.w	r0, #256	; 0x100
    1904:	f7ff ff00 	bl	1708 <POWER_DisablePD>
    1908:	f44f 1080 	mov.w	r0, #1048576	; 0x100000
    190c:	f7ff fefc 	bl	1708 <POWER_DisablePD>
    1910:	f640 2118 	movw	r1, #2584	; 0xa18
    1914:	f2c4 0100 	movt	r1, #16384	; 0x4000
    1918:	6808      	ldr	r0, [r1, #0]
    191a:	f040 0020 	orr.w	r0, r0, #32
    191e:	6008      	str	r0, [r1, #0]
    1920:	e7ff      	b.n	1922 <CLOCK_SetupExtClocking+0x3e>
    1922:	f243 0024 	movw	r0, #12324	; 0x3024
    1926:	f2c4 0001 	movt	r0, #16385	; 0x4001
    192a:	6800      	ldr	r0, [r0, #0]
    192c:	07c0      	lsls	r0, r0, #31
    192e:	b908      	cbnz	r0, 1934 <CLOCK_SetupExtClocking+0x50>
    1930:	e7ff      	b.n	1932 <CLOCK_SetupExtClocking+0x4e>
    1932:	e7f6      	b.n	1922 <CLOCK_SetupExtClocking+0x3e>
    1934:	9801      	ldr	r0, [sp, #4]
    1936:	f240 0104 	movw	r1, #4
    193a:	f2c2 0100 	movt	r1, #8192	; 0x2000
    193e:	6008      	str	r0, [r1, #0]
    1940:	2000      	movs	r0, #0
    1942:	9000      	str	r0, [sp, #0]
    1944:	e7ff      	b.n	1946 <CLOCK_SetupExtClocking+0x62>
    1946:	9800      	ldr	r0, [sp, #0]
    1948:	b002      	add	sp, #8
    194a:	bd80      	pop	{r7, pc}

0000194c <CLOCK_GetExtClkFreq>:
    194c:	b081      	sub	sp, #4
    194e:	f243 0020 	movw	r0, #12320	; 0x3020
    1952:	f2c4 0001 	movt	r0, #16385	; 0x4001
    1956:	6800      	ldr	r0, [r0, #0]
    1958:	01c0      	lsls	r0, r0, #7
    195a:	2800      	cmp	r0, #0
    195c:	d507      	bpl.n	196e <CLOCK_GetExtClkFreq+0x22>
    195e:	e7ff      	b.n	1960 <CLOCK_GetExtClkFreq+0x14>
    1960:	f240 0004 	movw	r0, #4
    1964:	f2c2 0000 	movt	r0, #8192	; 0x2000
    1968:	6800      	ldr	r0, [r0, #0]
    196a:	9000      	str	r0, [sp, #0]
    196c:	e002      	b.n	1974 <CLOCK_GetExtClkFreq+0x28>
    196e:	2000      	movs	r0, #0
    1970:	9000      	str	r0, [sp, #0]
    1972:	e7ff      	b.n	1974 <CLOCK_GetExtClkFreq+0x28>
    1974:	9800      	ldr	r0, [sp, #0]
    1976:	b001      	add	sp, #4
    1978:	4770      	bx	lr

0000197a <CLOCK_GetFro1MFreq>:
    197a:	f640 2018 	movw	r0, #2584	; 0xa18
    197e:	f2c4 0000 	movt	r0, #16384	; 0x4000
    1982:	6800      	ldr	r0, [r0, #0]
    1984:	f000 0040 	and.w	r0, r0, #64	; 0x40
    1988:	2800      	cmp	r0, #0
    198a:	bf1c      	itt	ne
    198c:	f244 2040 	movwne	r0, #16960	; 0x4240
    1990:	f2c0 000f 	movtne	r0, #15
    1994:	4770      	bx	lr

00001996 <CLOCK_GetOsc32KFreq>:
    1996:	b082      	sub	sp, #8
    1998:	20b8      	movs	r0, #184	; 0xb8
    199a:	f2c4 0002 	movt	r0, #16386	; 0x4002
    199e:	6800      	ldr	r0, [r0, #0]
    19a0:	0640      	lsls	r0, r0, #25
    19a2:	2800      	cmp	r0, #0
    19a4:	d40b      	bmi.n	19be <CLOCK_GetOsc32KFreq+0x28>
    19a6:	e7ff      	b.n	19a8 <CLOCK_GetOsc32KFreq+0x12>
    19a8:	2098      	movs	r0, #152	; 0x98
    19aa:	f2c4 0002 	movt	r0, #16386	; 0x4002
    19ae:	6800      	ldr	r0, [r0, #0]
    19b0:	07c0      	lsls	r0, r0, #31
    19b2:	b920      	cbnz	r0, 19be <CLOCK_GetOsc32KFreq+0x28>
    19b4:	e7ff      	b.n	19b6 <CLOCK_GetOsc32KFreq+0x20>
    19b6:	f44f 4000 	mov.w	r0, #32768	; 0x8000
    19ba:	9001      	str	r0, [sp, #4]
    19bc:	e01a      	b.n	19f4 <CLOCK_GetOsc32KFreq+0x5e>
    19be:	20b8      	movs	r0, #184	; 0xb8
    19c0:	f2c4 0002 	movt	r0, #16386	; 0x4002
    19c4:	6801      	ldr	r1, [r0, #0]
    19c6:	2000      	movs	r0, #0
    19c8:	0609      	lsls	r1, r1, #24
    19ca:	2900      	cmp	r1, #0
    19cc:	9000      	str	r0, [sp, #0]
    19ce:	d408      	bmi.n	19e2 <CLOCK_GetOsc32KFreq+0x4c>
    19d0:	e7ff      	b.n	19d2 <CLOCK_GetOsc32KFreq+0x3c>
    19d2:	2098      	movs	r0, #152	; 0x98
    19d4:	f2c4 0002 	movt	r0, #16386	; 0x4002
    19d8:	6800      	ldr	r0, [r0, #0]
    19da:	f000 0001 	and.w	r0, r0, #1
    19de:	9000      	str	r0, [sp, #0]
    19e0:	e7ff      	b.n	19e2 <CLOCK_GetOsc32KFreq+0x4c>
    19e2:	9800      	ldr	r0, [sp, #0]
    19e4:	f000 0001 	and.w	r0, r0, #1
    19e8:	2800      	cmp	r0, #0
    19ea:	bf18      	it	ne
    19ec:	f44f 4000 	movne.w	r0, #32768	; 0x8000
    19f0:	9001      	str	r0, [sp, #4]
    19f2:	e7ff      	b.n	19f4 <CLOCK_GetOsc32KFreq+0x5e>
    19f4:	9801      	ldr	r0, [sp, #4]
    19f6:	b002      	add	sp, #8
    19f8:	4770      	bx	lr
	...

000019fc <CLOCK_GetPLL0InClockRate>:
    19fc:	b580      	push	{r7, lr}
    19fe:	466f      	mov	r7, sp
    1a00:	b082      	sub	sp, #8
    1a02:	f240 2090 	movw	r0, #656	; 0x290
    1a06:	f2c4 0000 	movt	r0, #16384	; 0x4000
    1a0a:	6800      	ldr	r0, [r0, #0]
    1a0c:	f000 0007 	and.w	r0, r0, #7
    1a10:	4601      	mov	r1, r0
    1a12:	9101      	str	r1, [sp, #4]
    1a14:	2803      	cmp	r0, #3
    1a16:	d816      	bhi.n	1a46 <CLOCK_GetPLL0InClockRate+0x4a>
    1a18:	9901      	ldr	r1, [sp, #4]
    1a1a:	e8df f001 	tbb	[pc, r1]
    1a1e:	0802      	.short	0x0802
    1a20:	100c      	.short	0x100c
    1a22:	f641 3000 	movw	r0, #6912	; 0x1b00
    1a26:	f2c0 00b7 	movt	r0, #183	; 0xb7
    1a2a:	9000      	str	r0, [sp, #0]
    1a2c:	e00e      	b.n	1a4c <CLOCK_GetPLL0InClockRate+0x50>
    1a2e:	f7ff ff8d 	bl	194c <CLOCK_GetExtClkFreq>
    1a32:	9000      	str	r0, [sp, #0]
    1a34:	e00a      	b.n	1a4c <CLOCK_GetPLL0InClockRate+0x50>
    1a36:	f7ff ffa0 	bl	197a <CLOCK_GetFro1MFreq>
    1a3a:	9000      	str	r0, [sp, #0]
    1a3c:	e006      	b.n	1a4c <CLOCK_GetPLL0InClockRate+0x50>
    1a3e:	f7ff ffaa 	bl	1996 <CLOCK_GetOsc32KFreq>
    1a42:	9000      	str	r0, [sp, #0]
    1a44:	e002      	b.n	1a4c <CLOCK_GetPLL0InClockRate+0x50>
    1a46:	2000      	movs	r0, #0
    1a48:	9000      	str	r0, [sp, #0]
    1a4a:	e7ff      	b.n	1a4c <CLOCK_GetPLL0InClockRate+0x50>
    1a4c:	9800      	ldr	r0, [sp, #0]
    1a4e:	b002      	add	sp, #8
    1a50:	bd80      	pop	{r7, pc}

00001a52 <findPll0PreDiv>:
    1a52:	b082      	sub	sp, #8
    1a54:	f240 5080 	movw	r0, #1408	; 0x580
    1a58:	f2c4 0000 	movt	r0, #16384	; 0x4000
    1a5c:	6801      	ldr	r1, [r0, #0]
    1a5e:	2001      	movs	r0, #1
    1a60:	0309      	lsls	r1, r1, #12
    1a62:	2900      	cmp	r1, #0
    1a64:	9001      	str	r0, [sp, #4]
    1a66:	d410      	bmi.n	1a8a <findPll0PreDiv+0x38>
    1a68:	e7ff      	b.n	1a6a <findPll0PreDiv+0x18>
    1a6a:	f240 5088 	movw	r0, #1416	; 0x588
    1a6e:	f2c4 0000 	movt	r0, #16384	; 0x4000
    1a72:	6800      	ldr	r0, [r0, #0]
    1a74:	b2c1      	uxtb	r1, r0
    1a76:	4608      	mov	r0, r1
    1a78:	9000      	str	r0, [sp, #0]
    1a7a:	b919      	cbnz	r1, 1a84 <findPll0PreDiv+0x32>
    1a7c:	e7ff      	b.n	1a7e <findPll0PreDiv+0x2c>
    1a7e:	2001      	movs	r0, #1
    1a80:	9000      	str	r0, [sp, #0]
    1a82:	e7ff      	b.n	1a84 <findPll0PreDiv+0x32>
    1a84:	9800      	ldr	r0, [sp, #0]
    1a86:	9001      	str	r0, [sp, #4]
    1a88:	e7ff      	b.n	1a8a <findPll0PreDiv+0x38>
    1a8a:	9801      	ldr	r0, [sp, #4]
    1a8c:	b002      	add	sp, #8
    1a8e:	4770      	bx	lr

00001a90 <POWER_EnablePD>:
    1a90:	21c0      	movs	r1, #192	; 0xc0
    1a92:	f2c4 0102 	movt	r1, #16386	; 0x4002
    1a96:	6008      	str	r0, [r1, #0]
    1a98:	4770      	bx	lr

00001a9a <CLOCK_IsPLL0Locked>:
    1a9a:	f240 5084 	movw	r0, #1412	; 0x584
    1a9e:	f2c4 0000 	movt	r0, #16384	; 0x4000
    1aa2:	6800      	ldr	r0, [r0, #0]
    1aa4:	f000 0001 	and.w	r0, r0, #1
    1aa8:	4770      	bx	lr

00001aaa <CLOCK_SetPLL0Freq>:
    1aaa:	b580      	push	{r7, lr}
    1aac:	466f      	mov	r7, sp
    1aae:	b08a      	sub	sp, #40	; 0x28
    1ab0:	9009      	str	r0, [sp, #36]	; 0x24
    1ab2:	f44f 7000 	mov.w	r0, #512	; 0x200
    1ab6:	9007      	str	r0, [sp, #28]
    1ab8:	f7ff ffea 	bl	1a90 <POWER_EnablePD>
    1abc:	f44f 0000 	mov.w	r0, #8388608	; 0x800000
    1ac0:	9008      	str	r0, [sp, #32]
    1ac2:	f7ff ffe5 	bl	1a90 <POWER_EnablePD>
    1ac6:	9807      	ldr	r0, [sp, #28]
    1ac8:	9909      	ldr	r1, [sp, #36]	; 0x24
    1aca:	680a      	ldr	r2, [r1, #0]
    1acc:	f240 5380 	movw	r3, #1408	; 0x580
    1ad0:	f2c4 0300 	movt	r3, #16384	; 0x4000
    1ad4:	601a      	str	r2, [r3, #0]
    1ad6:	684a      	ldr	r2, [r1, #4]
    1ad8:	f240 5388 	movw	r3, #1416	; 0x588
    1adc:	f2c4 0300 	movt	r3, #16384	; 0x4000
    1ae0:	601a      	str	r2, [r3, #0]
    1ae2:	684a      	ldr	r2, [r1, #4]
    1ae4:	f442 7280 	orr.w	r2, r2, #256	; 0x100
    1ae8:	601a      	str	r2, [r3, #0]
    1aea:	688a      	ldr	r2, [r1, #8]
    1aec:	f240 538c 	movw	r3, #1420	; 0x58c
    1af0:	f2c4 0300 	movt	r3, #16384	; 0x4000
    1af4:	601a      	str	r2, [r3, #0]
    1af6:	688a      	ldr	r2, [r1, #8]
    1af8:	f042 0220 	orr.w	r2, r2, #32
    1afc:	601a      	str	r2, [r3, #0]
    1afe:	690a      	ldr	r2, [r1, #16]
    1b00:	f240 5390 	movw	r3, #1424	; 0x590
    1b04:	f2c4 0300 	movt	r3, #16384	; 0x4000
    1b08:	601a      	str	r2, [r3, #0]
    1b0a:	694b      	ldr	r3, [r1, #20]
    1b0c:	f240 5294 	movw	r2, #1428	; 0x594
    1b10:	f2c4 0200 	movt	r2, #16384	; 0x4000
    1b14:	6013      	str	r3, [r2, #0]
    1b16:	6949      	ldr	r1, [r1, #20]
    1b18:	2302      	movs	r3, #2
    1b1a:	f2c0 4300 	movt	r3, #1024	; 0x400
    1b1e:	4319      	orrs	r1, r3
    1b20:	6011      	str	r1, [r2, #0]
    1b22:	f7ff fdf1 	bl	1708 <POWER_DisablePD>
    1b26:	9808      	ldr	r0, [sp, #32]
    1b28:	f7ff fdee 	bl	1708 <POWER_DisablePD>
    1b2c:	9809      	ldr	r0, [sp, #36]	; 0x24
    1b2e:	7f00      	ldrb	r0, [r0, #28]
    1b30:	0780      	lsls	r0, r0, #30
    1b32:	2800      	cmp	r0, #0
    1b34:	d55b      	bpl.n	1bee <CLOCK_SetPLL0Freq+0x144>
    1b36:	e7ff      	b.n	1b38 <CLOCK_SetPLL0Freq+0x8e>
    1b38:	f240 5094 	movw	r0, #1428	; 0x594
    1b3c:	f2c4 0000 	movt	r0, #16384	; 0x4000
    1b40:	6800      	ldr	r0, [r0, #0]
    1b42:	00c0      	lsls	r0, r0, #3
    1b44:	2800      	cmp	r0, #0
    1b46:	d548      	bpl.n	1bda <CLOCK_SetPLL0Freq+0x130>
    1b48:	e7ff      	b.n	1b4a <CLOCK_SetPLL0Freq+0xa0>
    1b4a:	f7ff ff57 	bl	19fc <CLOCK_GetPLL0InClockRate>
    1b4e:	9005      	str	r0, [sp, #20]
    1b50:	f7ff ff7f 	bl	1a52 <findPll0PreDiv>
    1b54:	4601      	mov	r1, r0
    1b56:	9805      	ldr	r0, [sp, #20]
    1b58:	fbb0 f0f1 	udiv	r0, r0, r1
    1b5c:	f248 4100 	movw	r1, #33792	; 0x8400
    1b60:	f2c1 71d7 	movt	r1, #6103	; 0x17d7
    1b64:	fbb1 f1f0 	udiv	r1, r1, r0
    1b68:	f501 71fa 	add.w	r1, r1, #500	; 0x1f4
    1b6c:	9106      	str	r1, [sp, #24]
    1b6e:	f642 41ff 	movw	r1, #11519	; 0x2cff
    1b72:	f2c0 1131 	movt	r1, #305	; 0x131
    1b76:	4288      	cmp	r0, r1
    1b78:	d826      	bhi.n	1bc8 <CLOCK_SetPLL0Freq+0x11e>
    1b7a:	e7ff      	b.n	1b7c <CLOCK_SetPLL0Freq+0xd2>
    1b7c:	2000      	movs	r0, #0
    1b7e:	9004      	str	r0, [sp, #16]
    1b80:	e7ff      	b.n	1b82 <CLOCK_SetPLL0Freq+0xd8>
    1b82:	9804      	ldr	r0, [sp, #16]
    1b84:	9002      	str	r0, [sp, #8]
    1b86:	f7ff ff88 	bl	1a9a <CLOCK_IsPLL0Locked>
    1b8a:	4601      	mov	r1, r0
    1b8c:	2000      	movs	r0, #0
    1b8e:	9003      	str	r0, [sp, #12]
    1b90:	b941      	cbnz	r1, 1ba4 <CLOCK_SetPLL0Freq+0xfa>
    1b92:	e7ff      	b.n	1b94 <CLOCK_SetPLL0Freq+0xea>
    1b94:	9902      	ldr	r1, [sp, #8]
    1b96:	9a06      	ldr	r2, [sp, #24]
    1b98:	2000      	movs	r0, #0
    1b9a:	4291      	cmp	r1, r2
    1b9c:	bf38      	it	cc
    1b9e:	2001      	movcc	r0, #1
    1ba0:	9003      	str	r0, [sp, #12]
    1ba2:	e7ff      	b.n	1ba4 <CLOCK_SetPLL0Freq+0xfa>
    1ba4:	9803      	ldr	r0, [sp, #12]
    1ba6:	07c0      	lsls	r0, r0, #31
    1ba8:	b168      	cbz	r0, 1bc6 <CLOCK_SetPLL0Freq+0x11c>
    1baa:	e7ff      	b.n	1bac <CLOCK_SetPLL0Freq+0x102>
    1bac:	9802      	ldr	r0, [sp, #8]
    1bae:	3064      	adds	r0, #100	; 0x64
    1bb0:	9001      	str	r0, [sp, #4]
    1bb2:	2064      	movs	r0, #100	; 0x64
    1bb4:	f24d 1180 	movw	r1, #53632	; 0xd180
    1bb8:	f6c0 01f0 	movt	r1, #2288	; 0x8f0
    1bbc:	f7ff fc8e 	bl	14dc <SDK_DelayAtLeastUs>
    1bc0:	9801      	ldr	r0, [sp, #4]
    1bc2:	9004      	str	r0, [sp, #16]
    1bc4:	e7dd      	b.n	1b82 <CLOCK_SetPLL0Freq+0xd8>
    1bc6:	e007      	b.n	1bd8 <CLOCK_SetPLL0Freq+0x12e>
    1bc8:	9806      	ldr	r0, [sp, #24]
    1bca:	f24d 1180 	movw	r1, #53632	; 0xd180
    1bce:	f6c0 01f0 	movt	r1, #2288	; 0x8f0
    1bd2:	f7ff fc83 	bl	14dc <SDK_DelayAtLeastUs>
    1bd6:	e7ff      	b.n	1bd8 <CLOCK_SetPLL0Freq+0x12e>
    1bd8:	e008      	b.n	1bec <CLOCK_SetPLL0Freq+0x142>
    1bda:	f241 7070 	movw	r0, #6000	; 0x1770
    1bde:	f24d 1180 	movw	r1, #53632	; 0xd180
    1be2:	f6c0 01f0 	movt	r1, #2288	; 0x8f0
    1be6:	f7ff fc79 	bl	14dc <SDK_DelayAtLeastUs>
    1bea:	e7ff      	b.n	1bec <CLOCK_SetPLL0Freq+0x142>
    1bec:	e7ff      	b.n	1bee <CLOCK_SetPLL0Freq+0x144>
    1bee:	9809      	ldr	r0, [sp, #36]	; 0x24
    1bf0:	6980      	ldr	r0, [r0, #24]
    1bf2:	f240 4158 	movw	r1, #1112	; 0x458
    1bf6:	f2c2 0100 	movt	r1, #8192	; 0x2000
    1bfa:	6008      	str	r0, [r1, #0]
    1bfc:	2000      	movs	r0, #0
    1bfe:	b00a      	add	sp, #40	; 0x28
    1c00:	bd80      	pop	{r7, pc}

00001c02 <POWER_SetVoltageForFreq>:
    1c02:	b580      	push	{r7, lr}
    1c04:	466f      	mov	r7, sp
    1c06:	b084      	sub	sp, #16
    1c08:	9003      	str	r0, [sp, #12]
    1c0a:	f24e 1100 	movw	r1, #57600	; 0xe100
    1c0e:	f2c0 51f5 	movt	r1, #1525	; 0x5f5
    1c12:	4288      	cmp	r0, r1
    1c14:	d808      	bhi.n	1c28 <POWER_SetVoltageForFreq+0x26>
    1c16:	e7ff      	b.n	1c18 <POWER_SetVoltageForFreq+0x16>
    1c18:	2000      	movs	r0, #0
    1c1a:	9002      	str	r0, [sp, #8]
    1c1c:	f000 f81f 	bl	1c5e <lowpower_set_dcdc_power_profile>
    1c20:	9802      	ldr	r0, [sp, #8]
    1c22:	f000 f890 	bl	1d46 <lowpower_set_voltage_for_process>
    1c26:	e018      	b.n	1c5a <POWER_SetVoltageForFreq+0x58>
    1c28:	9803      	ldr	r0, [sp, #12]
    1c2a:	f24a 4180 	movw	r1, #42112	; 0xa480
    1c2e:	f2c0 71bf 	movt	r1, #1983	; 0x7bf
    1c32:	4288      	cmp	r0, r1
    1c34:	d808      	bhi.n	1c48 <POWER_SetVoltageForFreq+0x46>
    1c36:	e7ff      	b.n	1c38 <POWER_SetVoltageForFreq+0x36>
    1c38:	2001      	movs	r0, #1
    1c3a:	9001      	str	r0, [sp, #4]
    1c3c:	f000 f80f 	bl	1c5e <lowpower_set_dcdc_power_profile>
    1c40:	9801      	ldr	r0, [sp, #4]
    1c42:	f000 f880 	bl	1d46 <lowpower_set_voltage_for_process>
    1c46:	e007      	b.n	1c58 <POWER_SetVoltageForFreq+0x56>
    1c48:	2002      	movs	r0, #2
    1c4a:	9000      	str	r0, [sp, #0]
    1c4c:	f000 f807 	bl	1c5e <lowpower_set_dcdc_power_profile>
    1c50:	9800      	ldr	r0, [sp, #0]
    1c52:	f000 f878 	bl	1d46 <lowpower_set_voltage_for_process>
    1c56:	e7ff      	b.n	1c58 <POWER_SetVoltageForFreq+0x56>
    1c58:	e7ff      	b.n	1c5a <POWER_SetVoltageForFreq+0x58>
    1c5a:	b004      	add	sp, #16
    1c5c:	bd80      	pop	{r7, pc}

00001c5e <lowpower_set_dcdc_power_profile>:
    1c5e:	b087      	sub	sp, #28
    1c60:	4601      	mov	r1, r0
    1c62:	9106      	str	r1, [sp, #24]
    1c64:	b140      	cbz	r0, 1c78 <lowpower_set_dcdc_power_profile+0x1a>
    1c66:	e7ff      	b.n	1c68 <lowpower_set_dcdc_power_profile+0xa>
    1c68:	9806      	ldr	r0, [sp, #24]
    1c6a:	2801      	cmp	r0, #1
    1c6c:	d020      	beq.n	1cb0 <lowpower_set_dcdc_power_profile+0x52>
    1c6e:	e7ff      	b.n	1c70 <lowpower_set_dcdc_power_profile+0x12>
    1c70:	9806      	ldr	r0, [sp, #24]
    1c72:	2802      	cmp	r0, #2
    1c74:	d038      	beq.n	1ce8 <lowpower_set_dcdc_power_profile+0x8a>
    1c76:	e053      	b.n	1d20 <lowpower_set_dcdc_power_profile+0xc2>
    1c78:	f64f 40e0 	movw	r0, #64736	; 0xfce0
    1c7c:	f2c0 0009 	movt	r0, #9
    1c80:	6800      	ldr	r0, [r0, #0]
    1c82:	9004      	str	r0, [sp, #16]
    1c84:	f64f 41e4 	movw	r1, #64740	; 0xfce4
    1c88:	f2c0 0109 	movt	r1, #9
    1c8c:	6809      	ldr	r1, [r1, #0]
    1c8e:	9105      	str	r1, [sp, #20]
    1c90:	07c0      	lsls	r0, r0, #31
    1c92:	b160      	cbz	r0, 1cae <lowpower_set_dcdc_power_profile+0x50>
    1c94:	e7ff      	b.n	1c96 <lowpower_set_dcdc_power_profile+0x38>
    1c96:	9805      	ldr	r0, [sp, #20]
    1c98:	9904      	ldr	r1, [sp, #16]
    1c9a:	0849      	lsrs	r1, r1, #1
    1c9c:	2210      	movs	r2, #16
    1c9e:	f2c4 0202 	movt	r2, #16386	; 0x4002
    1ca2:	6011      	str	r1, [r2, #0]
    1ca4:	2114      	movs	r1, #20
    1ca6:	f2c4 0102 	movt	r1, #16386	; 0x4002
    1caa:	6008      	str	r0, [r1, #0]
    1cac:	e7ff      	b.n	1cae <lowpower_set_dcdc_power_profile+0x50>
    1cae:	e048      	b.n	1d42 <lowpower_set_dcdc_power_profile+0xe4>
    1cb0:	f64f 40e8 	movw	r0, #64744	; 0xfce8
    1cb4:	f2c0 0009 	movt	r0, #9
    1cb8:	6800      	ldr	r0, [r0, #0]
    1cba:	9002      	str	r0, [sp, #8]
    1cbc:	f64f 41ec 	movw	r1, #64748	; 0xfcec
    1cc0:	f2c0 0109 	movt	r1, #9
    1cc4:	6809      	ldr	r1, [r1, #0]
    1cc6:	9103      	str	r1, [sp, #12]
    1cc8:	07c0      	lsls	r0, r0, #31
    1cca:	b160      	cbz	r0, 1ce6 <lowpower_set_dcdc_power_profile+0x88>
    1ccc:	e7ff      	b.n	1cce <lowpower_set_dcdc_power_profile+0x70>
    1cce:	9803      	ldr	r0, [sp, #12]
    1cd0:	9902      	ldr	r1, [sp, #8]
    1cd2:	0849      	lsrs	r1, r1, #1
    1cd4:	2210      	movs	r2, #16
    1cd6:	f2c4 0202 	movt	r2, #16386	; 0x4002
    1cda:	6011      	str	r1, [r2, #0]
    1cdc:	2114      	movs	r1, #20
    1cde:	f2c4 0102 	movt	r1, #16386	; 0x4002
    1ce2:	6008      	str	r0, [r1, #0]
    1ce4:	e7ff      	b.n	1ce6 <lowpower_set_dcdc_power_profile+0x88>
    1ce6:	e02c      	b.n	1d42 <lowpower_set_dcdc_power_profile+0xe4>
    1ce8:	f64f 40d8 	movw	r0, #64728	; 0xfcd8
    1cec:	f2c0 0009 	movt	r0, #9
    1cf0:	6800      	ldr	r0, [r0, #0]
    1cf2:	9000      	str	r0, [sp, #0]
    1cf4:	f64f 41dc 	movw	r1, #64732	; 0xfcdc
    1cf8:	f2c0 0109 	movt	r1, #9
    1cfc:	6809      	ldr	r1, [r1, #0]
    1cfe:	9101      	str	r1, [sp, #4]
    1d00:	07c0      	lsls	r0, r0, #31
    1d02:	b160      	cbz	r0, 1d1e <lowpower_set_dcdc_power_profile+0xc0>
    1d04:	e7ff      	b.n	1d06 <lowpower_set_dcdc_power_profile+0xa8>
    1d06:	9801      	ldr	r0, [sp, #4]
    1d08:	9900      	ldr	r1, [sp, #0]
    1d0a:	0849      	lsrs	r1, r1, #1
    1d0c:	2210      	movs	r2, #16
    1d0e:	f2c4 0202 	movt	r2, #16386	; 0x4002
    1d12:	6011      	str	r1, [r2, #0]
    1d14:	2114      	movs	r1, #20
    1d16:	f2c4 0102 	movt	r1, #16386	; 0x4002
    1d1a:	6008      	str	r0, [r1, #0]
    1d1c:	e7ff      	b.n	1d1e <lowpower_set_dcdc_power_profile+0xc0>
    1d1e:	e010      	b.n	1d42 <lowpower_set_dcdc_power_profile+0xe4>
    1d20:	2110      	movs	r1, #16
    1d22:	f2c4 0102 	movt	r1, #16386	; 0x4002
    1d26:	f644 6068 	movw	r0, #20072	; 0x4e68
    1d2a:	f2c0 100c 	movt	r0, #268	; 0x10c
    1d2e:	6008      	str	r0, [r1, #0]
    1d30:	2114      	movs	r1, #20
    1d32:	f2c4 0102 	movt	r1, #16386	; 0x4002
    1d36:	f643 2098 	movw	r0, #15000	; 0x3a98
    1d3a:	f2c0 1080 	movt	r0, #384	; 0x180
    1d3e:	6008      	str	r0, [r1, #0]
    1d40:	e7ff      	b.n	1d42 <lowpower_set_dcdc_power_profile+0xe4>
    1d42:	b007      	add	sp, #28
    1d44:	4770      	bx	lr

00001d46 <lowpower_set_voltage_for_process>:
    1d46:	b580      	push	{r7, lr}
    1d48:	466f      	mov	r7, sp
    1d4a:	b086      	sub	sp, #24
    1d4c:	9004      	str	r0, [sp, #16]
    1d4e:	f000 f85b 	bl	1e08 <lowpower_get_part_process_corner>
    1d52:	4601      	mov	r1, r0
    1d54:	9105      	str	r1, [sp, #20]
    1d56:	b120      	cbz	r0, 1d62 <lowpower_set_voltage_for_process+0x1c>
    1d58:	e7ff      	b.n	1d5a <lowpower_set_voltage_for_process+0x14>
    1d5a:	9805      	ldr	r0, [sp, #20]
    1d5c:	2802      	cmp	r0, #2
    1d5e:	d01b      	beq.n	1d98 <lowpower_set_voltage_for_process+0x52>
    1d60:	e035      	b.n	1dce <lowpower_set_voltage_for_process+0x88>
    1d62:	9804      	ldr	r0, [sp, #16]
    1d64:	b2c0      	uxtb	r0, r0
    1d66:	4601      	mov	r1, r0
    1d68:	9103      	str	r1, [sp, #12]
    1d6a:	2801      	cmp	r0, #1
    1d6c:	d004      	beq.n	1d78 <lowpower_set_voltage_for_process+0x32>
    1d6e:	e7ff      	b.n	1d70 <lowpower_set_voltage_for_process+0x2a>
    1d70:	9803      	ldr	r0, [sp, #12]
    1d72:	2802      	cmp	r0, #2
    1d74:	d005      	beq.n	1d82 <lowpower_set_voltage_for_process+0x3c>
    1d76:	e009      	b.n	1d8c <lowpower_set_voltage_for_process+0x46>
    1d78:	f240 407e 	movw	r0, #1150	; 0x47e
    1d7c:	f000 f89b 	bl	1eb6 <lowpower_set_system_voltage>
    1d80:	e009      	b.n	1d96 <lowpower_set_voltage_for_process+0x50>
    1d82:	f44f 6096 	mov.w	r0, #1200	; 0x4b0
    1d86:	f000 f896 	bl	1eb6 <lowpower_set_system_voltage>
    1d8a:	e004      	b.n	1d96 <lowpower_set_voltage_for_process+0x50>
    1d8c:	f240 4033 	movw	r0, #1075	; 0x433
    1d90:	f000 f891 	bl	1eb6 <lowpower_set_system_voltage>
    1d94:	e7ff      	b.n	1d96 <lowpower_set_voltage_for_process+0x50>
    1d96:	e035      	b.n	1e04 <lowpower_set_voltage_for_process+0xbe>
    1d98:	9804      	ldr	r0, [sp, #16]
    1d9a:	b2c0      	uxtb	r0, r0
    1d9c:	4601      	mov	r1, r0
    1d9e:	9102      	str	r1, [sp, #8]
    1da0:	2801      	cmp	r0, #1
    1da2:	d004      	beq.n	1dae <lowpower_set_voltage_for_process+0x68>
    1da4:	e7ff      	b.n	1da6 <lowpower_set_voltage_for_process+0x60>
    1da6:	9802      	ldr	r0, [sp, #8]
    1da8:	2802      	cmp	r0, #2
    1daa:	d005      	beq.n	1db8 <lowpower_set_voltage_for_process+0x72>
    1dac:	e009      	b.n	1dc2 <lowpower_set_voltage_for_process+0x7c>
    1dae:	f240 4001 	movw	r0, #1025	; 0x401
    1db2:	f000 f880 	bl	1eb6 <lowpower_set_system_voltage>
    1db6:	e009      	b.n	1dcc <lowpower_set_voltage_for_process+0x86>
    1db8:	f240 401a 	movw	r0, #1050	; 0x41a
    1dbc:	f000 f87b 	bl	1eb6 <lowpower_set_system_voltage>
    1dc0:	e004      	b.n	1dcc <lowpower_set_voltage_for_process+0x86>
    1dc2:	f44f 707a 	mov.w	r0, #1000	; 0x3e8
    1dc6:	f000 f876 	bl	1eb6 <lowpower_set_system_voltage>
    1dca:	e7ff      	b.n	1dcc <lowpower_set_voltage_for_process+0x86>
    1dcc:	e01a      	b.n	1e04 <lowpower_set_voltage_for_process+0xbe>
    1dce:	9804      	ldr	r0, [sp, #16]
    1dd0:	b2c0      	uxtb	r0, r0
    1dd2:	4601      	mov	r1, r0
    1dd4:	9101      	str	r1, [sp, #4]
    1dd6:	2801      	cmp	r0, #1
    1dd8:	d004      	beq.n	1de4 <lowpower_set_voltage_for_process+0x9e>
    1dda:	e7ff      	b.n	1ddc <lowpower_set_voltage_for_process+0x96>
    1ddc:	9801      	ldr	r0, [sp, #4]
    1dde:	2802      	cmp	r0, #2
    1de0:	d005      	beq.n	1dee <lowpower_set_voltage_for_process+0xa8>
    1de2:	e009      	b.n	1df8 <lowpower_set_voltage_for_process+0xb2>
    1de4:	f240 404c 	movw	r0, #1100	; 0x44c
    1de8:	f000 f865 	bl	1eb6 <lowpower_set_system_voltage>
    1dec:	e009      	b.n	1e02 <lowpower_set_voltage_for_process+0xbc>
    1dee:	f240 407e 	movw	r0, #1150	; 0x47e
    1df2:	f000 f860 	bl	1eb6 <lowpower_set_system_voltage>
    1df6:	e004      	b.n	1e02 <lowpower_set_voltage_for_process+0xbc>
    1df8:	f44f 707a 	mov.w	r0, #1000	; 0x3e8
    1dfc:	f000 f85b 	bl	1eb6 <lowpower_set_system_voltage>
    1e00:	e7ff      	b.n	1e02 <lowpower_set_voltage_for_process+0xbc>
    1e02:	e7ff      	b.n	1e04 <lowpower_set_voltage_for_process+0xbe>
    1e04:	b006      	add	sp, #24
    1e06:	bd80      	pop	{r7, pc}

00001e08 <lowpower_get_part_process_corner>:
    1e08:	b08a      	sub	sp, #40	; 0x28
    1e0a:	f64f 5030 	movw	r0, #64816	; 0xfd30
    1e0e:	f2c0 0009 	movt	r0, #9
    1e12:	6800      	ldr	r0, [r0, #0]
    1e14:	9008      	str	r0, [sp, #32]
    1e16:	f64f 5140 	movw	r1, #64832	; 0xfd40
    1e1a:	f2c0 0109 	movt	r1, #9
    1e1e:	6809      	ldr	r1, [r1, #0]
    1e20:	9109      	str	r1, [sp, #36]	; 0x24
    1e22:	07c0      	lsls	r0, r0, #31
    1e24:	b120      	cbz	r0, 1e30 <lowpower_get_part_process_corner+0x28>
    1e26:	e7ff      	b.n	1e28 <lowpower_get_part_process_corner+0x20>
    1e28:	9808      	ldr	r0, [sp, #32]
    1e2a:	0840      	lsrs	r0, r0, #1
    1e2c:	9007      	str	r0, [sp, #28]
    1e2e:	e005      	b.n	1e3c <lowpower_get_part_process_corner+0x34>
    1e30:	f647 60a0 	movw	r0, #32416	; 0x7ea0
    1e34:	f2c0 1026 	movt	r0, #294	; 0x126
    1e38:	9007      	str	r0, [sp, #28]
    1e3a:	e7ff      	b.n	1e3c <lowpower_get_part_process_corner+0x34>
    1e3c:	9809      	ldr	r0, [sp, #36]	; 0x24
    1e3e:	9907      	ldr	r1, [sp, #28]
    1e40:	9106      	str	r1, [sp, #24]
    1e42:	07c0      	lsls	r0, r0, #31
    1e44:	b120      	cbz	r0, 1e50 <lowpower_get_part_process_corner+0x48>
    1e46:	e7ff      	b.n	1e48 <lowpower_get_part_process_corner+0x40>
    1e48:	9809      	ldr	r0, [sp, #36]	; 0x24
    1e4a:	0840      	lsrs	r0, r0, #1
    1e4c:	9005      	str	r0, [sp, #20]
    1e4e:	e005      	b.n	1e5c <lowpower_get_part_process_corner+0x54>
    1e50:	f647 60a0 	movw	r0, #32416	; 0x7ea0
    1e54:	f2c0 1026 	movt	r0, #294	; 0x126
    1e58:	9005      	str	r0, [sp, #20]
    1e5a:	e7ff      	b.n	1e5c <lowpower_get_part_process_corner+0x54>
    1e5c:	9906      	ldr	r1, [sp, #24]
    1e5e:	9805      	ldr	r0, [sp, #20]
    1e60:	9004      	str	r0, [sp, #16]
    1e62:	4288      	cmp	r0, r1
    1e64:	d803      	bhi.n	1e6e <lowpower_get_part_process_corner+0x66>
    1e66:	e7ff      	b.n	1e68 <lowpower_get_part_process_corner+0x60>
    1e68:	9804      	ldr	r0, [sp, #16]
    1e6a:	9003      	str	r0, [sp, #12]
    1e6c:	e002      	b.n	1e74 <lowpower_get_part_process_corner+0x6c>
    1e6e:	9806      	ldr	r0, [sp, #24]
    1e70:	9003      	str	r0, [sp, #12]
    1e72:	e7ff      	b.n	1e74 <lowpower_get_part_process_corner+0x6c>
    1e74:	9803      	ldr	r0, [sp, #12]
    1e76:	9002      	str	r0, [sp, #8]
    1e78:	f64d 71a0 	movw	r1, #57248	; 0xdfa0
    1e7c:	f2c0 1101 	movt	r1, #257	; 0x101
    1e80:	4288      	cmp	r0, r1
    1e82:	d803      	bhi.n	1e8c <lowpower_get_part_process_corner+0x84>
    1e84:	e7ff      	b.n	1e86 <lowpower_get_part_process_corner+0x7e>
    1e86:	2000      	movs	r0, #0
    1e88:	9001      	str	r0, [sp, #4]
    1e8a:	e010      	b.n	1eae <lowpower_get_part_process_corner+0xa6>
    1e8c:	9802      	ldr	r0, [sp, #8]
    1e8e:	f641 51a0 	movw	r1, #7584	; 0x1da0
    1e92:	f2c0 114b 	movt	r1, #331	; 0x14b
    1e96:	4288      	cmp	r0, r1
    1e98:	d803      	bhi.n	1ea2 <lowpower_get_part_process_corner+0x9a>
    1e9a:	e7ff      	b.n	1e9c <lowpower_get_part_process_corner+0x94>
    1e9c:	2001      	movs	r0, #1
    1e9e:	9000      	str	r0, [sp, #0]
    1ea0:	e002      	b.n	1ea8 <lowpower_get_part_process_corner+0xa0>
    1ea2:	2002      	movs	r0, #2
    1ea4:	9000      	str	r0, [sp, #0]
    1ea6:	e7ff      	b.n	1ea8 <lowpower_get_part_process_corner+0xa0>
    1ea8:	9800      	ldr	r0, [sp, #0]
    1eaa:	9001      	str	r0, [sp, #4]
    1eac:	e7ff      	b.n	1eae <lowpower_get_part_process_corner+0xa6>
    1eae:	9801      	ldr	r0, [sp, #4]
    1eb0:	b2c0      	uxtb	r0, r0
    1eb2:	b00a      	add	sp, #40	; 0x28
    1eb4:	4770      	bx	lr

00001eb6 <lowpower_set_system_voltage>:
    1eb6:	b580      	push	{r7, lr}
    1eb8:	466f      	mov	r7, sp
    1eba:	b09b      	sub	sp, #108	; 0x6c
    1ebc:	901a      	str	r0, [sp, #104]	; 0x68
    1ebe:	f240 31b6 	movw	r1, #950	; 0x3b6
    1ec2:	4288      	cmp	r0, r1
    1ec4:	d807      	bhi.n	1ed6 <lowpower_set_system_voltage+0x20>
    1ec6:	e7ff      	b.n	1ec8 <lowpower_set_system_voltage+0x12>
    1ec8:	2000      	movs	r0, #0
    1eca:	210a      	movs	r1, #10
    1ecc:	220f      	movs	r2, #15
    1ece:	9217      	str	r2, [sp, #92]	; 0x5c
    1ed0:	9118      	str	r1, [sp, #96]	; 0x60
    1ed2:	9019      	str	r0, [sp, #100]	; 0x64
    1ed4:	e0a7      	b.n	2026 <lowpower_set_system_voltage+0x170>
    1ed6:	981a      	ldr	r0, [sp, #104]	; 0x68
    1ed8:	0900      	lsrs	r0, r0, #4
    1eda:	283c      	cmp	r0, #60	; 0x3c
    1edc:	d807      	bhi.n	1eee <lowpower_set_system_voltage+0x38>
    1ede:	e7ff      	b.n	1ee0 <lowpower_set_system_voltage+0x2a>
    1ee0:	2001      	movs	r0, #1
    1ee2:	210c      	movs	r1, #12
    1ee4:	2211      	movs	r2, #17
    1ee6:	9214      	str	r2, [sp, #80]	; 0x50
    1ee8:	9115      	str	r1, [sp, #84]	; 0x54
    1eea:	9016      	str	r0, [sp, #88]	; 0x58
    1eec:	e094      	b.n	2018 <lowpower_set_system_voltage+0x162>
    1eee:	981a      	ldr	r0, [sp, #104]	; 0x68
    1ef0:	f5b0 7f7a 	cmp.w	r0, #1000	; 0x3e8
    1ef4:	d807      	bhi.n	1f06 <lowpower_set_system_voltage+0x50>
    1ef6:	e7ff      	b.n	1ef8 <lowpower_set_system_voltage+0x42>
    1ef8:	2002      	movs	r0, #2
    1efa:	210e      	movs	r1, #14
    1efc:	2213      	movs	r2, #19
    1efe:	9211      	str	r2, [sp, #68]	; 0x44
    1f00:	9112      	str	r1, [sp, #72]	; 0x48
    1f02:	9013      	str	r0, [sp, #76]	; 0x4c
    1f04:	e081      	b.n	200a <lowpower_set_system_voltage+0x154>
    1f06:	981a      	ldr	r0, [sp, #104]	; 0x68
    1f08:	f240 4101 	movw	r1, #1025	; 0x401
    1f0c:	4288      	cmp	r0, r1
    1f0e:	d807      	bhi.n	1f20 <lowpower_set_system_voltage+0x6a>
    1f10:	e7ff      	b.n	1f12 <lowpower_set_system_voltage+0x5c>
    1f12:	2003      	movs	r0, #3
    1f14:	2111      	movs	r1, #17
    1f16:	2216      	movs	r2, #22
    1f18:	920e      	str	r2, [sp, #56]	; 0x38
    1f1a:	910f      	str	r1, [sp, #60]	; 0x3c
    1f1c:	9010      	str	r0, [sp, #64]	; 0x40
    1f1e:	e06d      	b.n	1ffc <lowpower_set_system_voltage+0x146>
    1f20:	981a      	ldr	r0, [sp, #104]	; 0x68
    1f22:	f240 411a 	movw	r1, #1050	; 0x41a
    1f26:	4288      	cmp	r0, r1
    1f28:	d807      	bhi.n	1f3a <lowpower_set_system_voltage+0x84>
    1f2a:	e7ff      	b.n	1f2c <lowpower_set_system_voltage+0x76>
    1f2c:	2004      	movs	r0, #4
    1f2e:	2114      	movs	r1, #20
    1f30:	2219      	movs	r2, #25
    1f32:	920b      	str	r2, [sp, #44]	; 0x2c
    1f34:	910c      	str	r1, [sp, #48]	; 0x30
    1f36:	900d      	str	r0, [sp, #52]	; 0x34
    1f38:	e059      	b.n	1fee <lowpower_set_system_voltage+0x138>
    1f3a:	981a      	ldr	r0, [sp, #104]	; 0x68
    1f3c:	f240 4133 	movw	r1, #1075	; 0x433
    1f40:	4288      	cmp	r0, r1
    1f42:	d807      	bhi.n	1f54 <lowpower_set_system_voltage+0x9e>
    1f44:	e7ff      	b.n	1f46 <lowpower_set_system_voltage+0x90>
    1f46:	2005      	movs	r0, #5
    1f48:	2116      	movs	r1, #22
    1f4a:	221b      	movs	r2, #27
    1f4c:	9208      	str	r2, [sp, #32]
    1f4e:	9109      	str	r1, [sp, #36]	; 0x24
    1f50:	900a      	str	r0, [sp, #40]	; 0x28
    1f52:	e045      	b.n	1fe0 <lowpower_set_system_voltage+0x12a>
    1f54:	981a      	ldr	r0, [sp, #104]	; 0x68
    1f56:	f240 414c 	movw	r1, #1100	; 0x44c
    1f5a:	4288      	cmp	r0, r1
    1f5c:	d807      	bhi.n	1f6e <lowpower_set_system_voltage+0xb8>
    1f5e:	e7ff      	b.n	1f60 <lowpower_set_system_voltage+0xaa>
    1f60:	2006      	movs	r0, #6
    1f62:	2118      	movs	r1, #24
    1f64:	221d      	movs	r2, #29
    1f66:	9205      	str	r2, [sp, #20]
    1f68:	9106      	str	r1, [sp, #24]
    1f6a:	9007      	str	r0, [sp, #28]
    1f6c:	e031      	b.n	1fd2 <lowpower_set_system_voltage+0x11c>
    1f6e:	981a      	ldr	r0, [sp, #104]	; 0x68
    1f70:	f240 4165 	movw	r1, #1125	; 0x465
    1f74:	4288      	cmp	r0, r1
    1f76:	d807      	bhi.n	1f88 <lowpower_set_system_voltage+0xd2>
    1f78:	e7ff      	b.n	1f7a <lowpower_set_system_voltage+0xc4>
    1f7a:	2007      	movs	r0, #7
    1f7c:	211b      	movs	r1, #27
    1f7e:	221e      	movs	r2, #30
    1f80:	9202      	str	r2, [sp, #8]
    1f82:	9103      	str	r1, [sp, #12]
    1f84:	9004      	str	r0, [sp, #16]
    1f86:	e01d      	b.n	1fc4 <lowpower_set_system_voltage+0x10e>
    1f88:	981a      	ldr	r0, [sp, #104]	; 0x68
    1f8a:	f240 417e 	movw	r1, #1150	; 0x47e
    1f8e:	4288      	cmp	r0, r1
    1f90:	d803      	bhi.n	1f9a <lowpower_set_system_voltage+0xe4>
    1f92:	e7ff      	b.n	1f94 <lowpower_set_system_voltage+0xde>
    1f94:	2008      	movs	r0, #8
    1f96:	9001      	str	r0, [sp, #4]
    1f98:	e00d      	b.n	1fb6 <lowpower_set_system_voltage+0x100>
    1f9a:	981a      	ldr	r0, [sp, #104]	; 0x68
    1f9c:	08c0      	lsrs	r0, r0, #3
    1f9e:	2892      	cmp	r0, #146	; 0x92
    1fa0:	d803      	bhi.n	1faa <lowpower_set_system_voltage+0xf4>
    1fa2:	e7ff      	b.n	1fa4 <lowpower_set_system_voltage+0xee>
    1fa4:	2009      	movs	r0, #9
    1fa6:	9000      	str	r0, [sp, #0]
    1fa8:	e002      	b.n	1fb0 <lowpower_set_system_voltage+0xfa>
    1faa:	200a      	movs	r0, #10
    1fac:	9000      	str	r0, [sp, #0]
    1fae:	e7ff      	b.n	1fb0 <lowpower_set_system_voltage+0xfa>
    1fb0:	9800      	ldr	r0, [sp, #0]
    1fb2:	9001      	str	r0, [sp, #4]
    1fb4:	e7ff      	b.n	1fb6 <lowpower_set_system_voltage+0x100>
    1fb6:	9801      	ldr	r0, [sp, #4]
    1fb8:	211e      	movs	r1, #30
    1fba:	221f      	movs	r2, #31
    1fbc:	9202      	str	r2, [sp, #8]
    1fbe:	9103      	str	r1, [sp, #12]
    1fc0:	9004      	str	r0, [sp, #16]
    1fc2:	e7ff      	b.n	1fc4 <lowpower_set_system_voltage+0x10e>
    1fc4:	9a02      	ldr	r2, [sp, #8]
    1fc6:	9903      	ldr	r1, [sp, #12]
    1fc8:	9804      	ldr	r0, [sp, #16]
    1fca:	9205      	str	r2, [sp, #20]
    1fcc:	9106      	str	r1, [sp, #24]
    1fce:	9007      	str	r0, [sp, #28]
    1fd0:	e7ff      	b.n	1fd2 <lowpower_set_system_voltage+0x11c>
    1fd2:	9a05      	ldr	r2, [sp, #20]
    1fd4:	9906      	ldr	r1, [sp, #24]
    1fd6:	9807      	ldr	r0, [sp, #28]
    1fd8:	9208      	str	r2, [sp, #32]
    1fda:	9109      	str	r1, [sp, #36]	; 0x24
    1fdc:	900a      	str	r0, [sp, #40]	; 0x28
    1fde:	e7ff      	b.n	1fe0 <lowpower_set_system_voltage+0x12a>
    1fe0:	9a08      	ldr	r2, [sp, #32]
    1fe2:	9909      	ldr	r1, [sp, #36]	; 0x24
    1fe4:	980a      	ldr	r0, [sp, #40]	; 0x28
    1fe6:	920b      	str	r2, [sp, #44]	; 0x2c
    1fe8:	910c      	str	r1, [sp, #48]	; 0x30
    1fea:	900d      	str	r0, [sp, #52]	; 0x34
    1fec:	e7ff      	b.n	1fee <lowpower_set_system_voltage+0x138>
    1fee:	9a0b      	ldr	r2, [sp, #44]	; 0x2c
    1ff0:	990c      	ldr	r1, [sp, #48]	; 0x30
    1ff2:	980d      	ldr	r0, [sp, #52]	; 0x34
    1ff4:	920e      	str	r2, [sp, #56]	; 0x38
    1ff6:	910f      	str	r1, [sp, #60]	; 0x3c
    1ff8:	9010      	str	r0, [sp, #64]	; 0x40
    1ffa:	e7ff      	b.n	1ffc <lowpower_set_system_voltage+0x146>
    1ffc:	9a0e      	ldr	r2, [sp, #56]	; 0x38
    1ffe:	990f      	ldr	r1, [sp, #60]	; 0x3c
    2000:	9810      	ldr	r0, [sp, #64]	; 0x40
    2002:	9211      	str	r2, [sp, #68]	; 0x44
    2004:	9112      	str	r1, [sp, #72]	; 0x48
    2006:	9013      	str	r0, [sp, #76]	; 0x4c
    2008:	e7ff      	b.n	200a <lowpower_set_system_voltage+0x154>
    200a:	9a11      	ldr	r2, [sp, #68]	; 0x44
    200c:	9912      	ldr	r1, [sp, #72]	; 0x48
    200e:	9813      	ldr	r0, [sp, #76]	; 0x4c
    2010:	9214      	str	r2, [sp, #80]	; 0x50
    2012:	9115      	str	r1, [sp, #84]	; 0x54
    2014:	9016      	str	r0, [sp, #88]	; 0x58
    2016:	e7ff      	b.n	2018 <lowpower_set_system_voltage+0x162>
    2018:	9a14      	ldr	r2, [sp, #80]	; 0x50
    201a:	9915      	ldr	r1, [sp, #84]	; 0x54
    201c:	9816      	ldr	r0, [sp, #88]	; 0x58
    201e:	9217      	str	r2, [sp, #92]	; 0x5c
    2020:	9118      	str	r1, [sp, #96]	; 0x60
    2022:	9019      	str	r0, [sp, #100]	; 0x64
    2024:	e7ff      	b.n	2026 <lowpower_set_system_voltage+0x170>
    2026:	9b17      	ldr	r3, [sp, #92]	; 0x5c
    2028:	f8dd c060 	ldr.w	ip, [sp, #96]	; 0x60
    202c:	9a19      	ldr	r2, [sp, #100]	; 0x64
    202e:	211c      	movs	r1, #28
    2030:	f2c4 0102 	movt	r1, #16386	; 0x4002
    2034:	6808      	ldr	r0, [r1, #0]
    2036:	f647 4e1f 	movw	lr, #31775	; 0x7c1f
    203a:	ea20 000e 	bic.w	r0, r0, lr
    203e:	f00c 0c1f 	and.w	ip, ip, #31
    2042:	4460      	add	r0, ip
    2044:	f003 031f 	and.w	r3, r3, #31
    2048:	ea40 2083 	orr.w	r0, r0, r3, lsl #10
    204c:	6008      	str	r0, [r1, #0]
    204e:	2110      	movs	r1, #16
    2050:	f2c4 0102 	movt	r1, #16386	; 0x4002
    2054:	6808      	ldr	r0, [r1, #0]
    2056:	f362 4054 	bfi	r0, r2, #17, #4
    205a:	6008      	str	r0, [r1, #0]
    205c:	b01b      	add	sp, #108	; 0x6c
    205e:	bd80      	pop	{r7, pc}

00002060 <RESET_SetPeripheralReset>:
    2060:	b580      	push	{r7, lr}
    2062:	466f      	mov	r7, sp
    2064:	b082      	sub	sp, #8
    2066:	0c01      	lsrs	r1, r0, #16
    2068:	9100      	str	r1, [sp, #0]
    206a:	b280      	uxth	r0, r0
    206c:	2101      	movs	r1, #1
    206e:	4081      	lsls	r1, r0
    2070:	9101      	str	r1, [sp, #4]
    2072:	281f      	cmp	r0, #31
    2074:	d801      	bhi.n	207a <RESET_SetPeripheralReset+0x1a>
    2076:	e7ff      	b.n	2078 <RESET_SetPeripheralReset+0x18>
    2078:	e00e      	b.n	2098 <RESET_SetPeripheralReset+0x38>
    207a:	f648 503c 	movw	r0, #36156	; 0x8d3c
    207e:	f2c0 0000 	movt	r0, #0
    2082:	f648 5250 	movw	r2, #36176	; 0x8d50
    2086:	f2c0 0200 	movt	r2, #0
    208a:	f648 5369 	movw	r3, #36201	; 0x8d69
    208e:	f2c0 0300 	movt	r3, #0
    2092:	2130      	movs	r1, #48	; 0x30
    2094:	f003 f917 	bl	52c6 <__assert_func>
    2098:	9801      	ldr	r0, [sp, #4]
    209a:	9a00      	ldr	r2, [sp, #0]
    209c:	f240 1120 	movw	r1, #288	; 0x120
    20a0:	f2c4 0100 	movt	r1, #16384	; 0x4000
    20a4:	f841 0022 	str.w	r0, [r1, r2, lsl #2]
    20a8:	e7ff      	b.n	20aa <RESET_SetPeripheralReset+0x4a>
    20aa:	9901      	ldr	r1, [sp, #4]
    20ac:	9a00      	ldr	r2, [sp, #0]
    20ae:	f240 1000 	movw	r0, #256	; 0x100
    20b2:	f2c4 0000 	movt	r0, #16384	; 0x4000
    20b6:	f850 0022 	ldr.w	r0, [r0, r2, lsl #2]
    20ba:	4208      	tst	r0, r1
    20bc:	d101      	bne.n	20c2 <RESET_SetPeripheralReset+0x62>
    20be:	e7ff      	b.n	20c0 <RESET_SetPeripheralReset+0x60>
    20c0:	e7f3      	b.n	20aa <RESET_SetPeripheralReset+0x4a>
    20c2:	b002      	add	sp, #8
    20c4:	bd80      	pop	{r7, pc}

000020c6 <RESET_ClearPeripheralReset>:
    20c6:	b580      	push	{r7, lr}
    20c8:	466f      	mov	r7, sp
    20ca:	b082      	sub	sp, #8
    20cc:	0c01      	lsrs	r1, r0, #16
    20ce:	9100      	str	r1, [sp, #0]
    20d0:	b280      	uxth	r0, r0
    20d2:	2101      	movs	r1, #1
    20d4:	4081      	lsls	r1, r0
    20d6:	9101      	str	r1, [sp, #4]
    20d8:	281f      	cmp	r0, #31
    20da:	d801      	bhi.n	20e0 <RESET_ClearPeripheralReset+0x1a>
    20dc:	e7ff      	b.n	20de <RESET_ClearPeripheralReset+0x18>
    20de:	e00e      	b.n	20fe <RESET_ClearPeripheralReset+0x38>
    20e0:	f648 503c 	movw	r0, #36156	; 0x8d3c
    20e4:	f2c0 0000 	movt	r0, #0
    20e8:	f648 5276 	movw	r2, #36214	; 0x8d76
    20ec:	f2c0 0200 	movt	r2, #0
    20f0:	f648 5369 	movw	r3, #36201	; 0x8d69
    20f4:	f2c0 0300 	movt	r3, #0
    20f8:	2149      	movs	r1, #73	; 0x49
    20fa:	f003 f8e4 	bl	52c6 <__assert_func>
    20fe:	9801      	ldr	r0, [sp, #4]
    2100:	9a00      	ldr	r2, [sp, #0]
    2102:	f240 1140 	movw	r1, #320	; 0x140
    2106:	f2c4 0100 	movt	r1, #16384	; 0x4000
    210a:	f841 0022 	str.w	r0, [r1, r2, lsl #2]
    210e:	e7ff      	b.n	2110 <RESET_ClearPeripheralReset+0x4a>
    2110:	9801      	ldr	r0, [sp, #4]
    2112:	9a00      	ldr	r2, [sp, #0]
    2114:	f240 1100 	movw	r1, #256	; 0x100
    2118:	f2c4 0100 	movt	r1, #16384	; 0x4000
    211c:	f851 1022 	ldr.w	r1, [r1, r2, lsl #2]
    2120:	4001      	ands	r1, r0
    2122:	4288      	cmp	r0, r1
    2124:	d101      	bne.n	212a <RESET_ClearPeripheralReset+0x64>
    2126:	e7ff      	b.n	2128 <RESET_ClearPeripheralReset+0x62>
    2128:	e7f2      	b.n	2110 <RESET_ClearPeripheralReset+0x4a>
    212a:	b002      	add	sp, #8
    212c:	bd80      	pop	{r7, pc}

0000212e <RESET_PeripheralReset>:
    212e:	b580      	push	{r7, lr}
    2130:	466f      	mov	r7, sp
    2132:	b082      	sub	sp, #8
    2134:	9001      	str	r0, [sp, #4]
    2136:	f7ff ff93 	bl	2060 <RESET_SetPeripheralReset>
    213a:	9801      	ldr	r0, [sp, #4]
    213c:	f7ff ffc3 	bl	20c6 <RESET_ClearPeripheralReset>
    2140:	b002      	add	sp, #8
    2142:	bd80      	pop	{r7, pc}

00002144 <GPIO_EnablePortClock>:
    2144:	b580      	push	{r7, lr}
    2146:	466f      	mov	r7, sp
    2148:	b082      	sub	sp, #8
    214a:	9101      	str	r1, [sp, #4]
    214c:	2903      	cmp	r1, #3
    214e:	d801      	bhi.n	2154 <GPIO_EnablePortClock+0x10>
    2150:	e7ff      	b.n	2152 <GPIO_EnablePortClock+0xe>
    2152:	e00e      	b.n	2172 <GPIO_EnablePortClock+0x2e>
    2154:	f648 5091 	movw	r0, #36241	; 0x8d91
    2158:	f2c0 0000 	movt	r0, #0
    215c:	f648 52a4 	movw	r2, #36260	; 0x8da4
    2160:	f2c0 0200 	movt	r2, #0
    2164:	f648 53b9 	movw	r3, #36281	; 0x8db9
    2168:	f2c0 0300 	movt	r3, #0
    216c:	212d      	movs	r1, #45	; 0x2d
    216e:	f003 f8aa 	bl	52c6 <__assert_func>
    2172:	9901      	ldr	r1, [sp, #4]
    2174:	f648 50dc 	movw	r0, #36316	; 0x8ddc
    2178:	f2c0 0000 	movt	r0, #0
    217c:	f830 0011 	ldrh.w	r0, [r0, r1, lsl #1]
    2180:	f000 f847 	bl	2212 <CLOCK_EnableClock>
    2184:	b002      	add	sp, #8
    2186:	bd80      	pop	{r7, pc}

00002188 <GPIO_PinInit>:
    2188:	b580      	push	{r7, lr}
    218a:	466f      	mov	r7, sp
    218c:	b084      	sub	sp, #16
    218e:	9303      	str	r3, [sp, #12]
    2190:	9200      	str	r2, [sp, #0]
    2192:	9101      	str	r1, [sp, #4]
    2194:	9002      	str	r0, [sp, #8]
    2196:	f7ff ffd5 	bl	2144 <GPIO_EnablePortClock>
    219a:	9b03      	ldr	r3, [sp, #12]
    219c:	7818      	ldrb	r0, [r3, #0]
    219e:	b970      	cbnz	r0, 21be <GPIO_PinInit+0x36>
    21a0:	e7ff      	b.n	21a2 <GPIO_PinInit+0x1a>
    21a2:	9802      	ldr	r0, [sp, #8]
    21a4:	9901      	ldr	r1, [sp, #4]
    21a6:	9b00      	ldr	r3, [sp, #0]
    21a8:	2201      	movs	r2, #1
    21aa:	fa02 f303 	lsl.w	r3, r2, r3
    21ae:	eb00 0181 	add.w	r1, r0, r1, lsl #2
    21b2:	f44f 5200 	mov.w	r2, #8192	; 0x2000
    21b6:	5888      	ldr	r0, [r1, r2]
    21b8:	4398      	bics	r0, r3
    21ba:	5088      	str	r0, [r1, r2]
    21bc:	e027      	b.n	220e <GPIO_PinInit+0x86>
    21be:	9803      	ldr	r0, [sp, #12]
    21c0:	7840      	ldrb	r0, [r0, #1]
    21c2:	b958      	cbnz	r0, 21dc <GPIO_PinInit+0x54>
    21c4:	e7ff      	b.n	21c6 <GPIO_PinInit+0x3e>
    21c6:	9902      	ldr	r1, [sp, #8]
    21c8:	9a01      	ldr	r2, [sp, #4]
    21ca:	9b00      	ldr	r3, [sp, #0]
    21cc:	2001      	movs	r0, #1
    21ce:	4098      	lsls	r0, r3
    21d0:	eb01 0182 	add.w	r1, r1, r2, lsl #2
    21d4:	f44f 520a 	mov.w	r2, #8832	; 0x2280
    21d8:	5088      	str	r0, [r1, r2]
    21da:	e00a      	b.n	21f2 <GPIO_PinInit+0x6a>
    21dc:	9902      	ldr	r1, [sp, #8]
    21de:	9a01      	ldr	r2, [sp, #4]
    21e0:	9b00      	ldr	r3, [sp, #0]
    21e2:	2001      	movs	r0, #1
    21e4:	4098      	lsls	r0, r3
    21e6:	eb01 0182 	add.w	r1, r1, r2, lsl #2
    21ea:	f44f 5208 	mov.w	r2, #8704	; 0x2200
    21ee:	5088      	str	r0, [r1, r2]
    21f0:	e7ff      	b.n	21f2 <GPIO_PinInit+0x6a>
    21f2:	9802      	ldr	r0, [sp, #8]
    21f4:	9901      	ldr	r1, [sp, #4]
    21f6:	9b00      	ldr	r3, [sp, #0]
    21f8:	2201      	movs	r2, #1
    21fa:	fa02 f303 	lsl.w	r3, r2, r3
    21fe:	eb00 0181 	add.w	r1, r0, r1, lsl #2
    2202:	f44f 5200 	mov.w	r2, #8192	; 0x2000
    2206:	5888      	ldr	r0, [r1, r2]
    2208:	4318      	orrs	r0, r3
    220a:	5088      	str	r0, [r1, r2]
    220c:	e7ff      	b.n	220e <GPIO_PinInit+0x86>
    220e:	b004      	add	sp, #16
    2210:	bd80      	pop	{r7, pc}

00002212 <CLOCK_EnableClock>:
    2212:	0a02      	lsrs	r2, r0, #8
    2214:	b2c1      	uxtb	r1, r0
    2216:	2001      	movs	r0, #1
    2218:	4088      	lsls	r0, r1
    221a:	f240 2120 	movw	r1, #544	; 0x220
    221e:	f2c4 0100 	movt	r1, #16384	; 0x4000
    2222:	f841 0022 	str.w	r0, [r1, r2, lsl #2]
    2226:	4770      	bx	lr

00002228 <INPUTMUX_AttachSignal>:
    2228:	4613      	mov	r3, r2
    222a:	461a      	mov	r2, r3
    222c:	f36f 521f 	bfc	r2, #20, #12
    2230:	eb00 5013 	add.w	r0, r0, r3, lsr #20
    2234:	f840 2021 	str.w	r2, [r0, r1, lsl #2]
    2238:	4770      	bx	lr

0000223a <PINT_Init>:
    223a:	b580      	push	{r7, lr}
    223c:	466f      	mov	r7, sp
    223e:	b08e      	sub	sp, #56	; 0x38
    2240:	900d      	str	r0, [sp, #52]	; 0x34
    2242:	b108      	cbz	r0, 2248 <PINT_Init+0xe>
    2244:	e7ff      	b.n	2246 <PINT_Init+0xc>
    2246:	e00e      	b.n	2266 <PINT_Init+0x2c>
    2248:	f648 50e4 	movw	r0, #36324	; 0x8de4
    224c:	f2c0 0000 	movt	r0, #0
    2250:	f648 52f7 	movw	r2, #36343	; 0x8df7
    2254:	f2c0 0200 	movt	r2, #0
    2258:	f648 6301 	movw	r3, #36353	; 0x8e01
    225c:	f2c0 0300 	movt	r3, #0
    2260:	2135      	movs	r1, #53	; 0x35
    2262:	f003 f830 	bl	52c6 <__assert_func>
    2266:	980d      	ldr	r0, [sp, #52]	; 0x34
    2268:	f1b0 2f40 	cmp.w	r0, #1073758208	; 0x40004000
    226c:	d118      	bne.n	22a0 <PINT_Init+0x66>
    226e:	e7ff      	b.n	2270 <PINT_Init+0x36>
    2270:	2000      	movs	r0, #0
    2272:	900c      	str	r0, [sp, #48]	; 0x30
    2274:	e7ff      	b.n	2276 <PINT_Init+0x3c>
    2276:	980c      	ldr	r0, [sp, #48]	; 0x30
    2278:	900b      	str	r0, [sp, #44]	; 0x2c
    227a:	2807      	cmp	r0, #7
    227c:	d80d      	bhi.n	229a <PINT_Init+0x60>
    227e:	e7ff      	b.n	2280 <PINT_Init+0x46>
    2280:	9a0b      	ldr	r2, [sp, #44]	; 0x2c
    2282:	f240 415c 	movw	r1, #1116	; 0x45c
    2286:	f2c2 0100 	movt	r1, #8192	; 0x2000
    228a:	2000      	movs	r0, #0
    228c:	f841 0022 	str.w	r0, [r1, r2, lsl #2]
    2290:	e7ff      	b.n	2292 <PINT_Init+0x58>
    2292:	980b      	ldr	r0, [sp, #44]	; 0x2c
    2294:	3001      	adds	r0, #1
    2296:	900c      	str	r0, [sp, #48]	; 0x30
    2298:	e7ed      	b.n	2276 <PINT_Init+0x3c>
    229a:	2008      	movs	r0, #8
    229c:	900a      	str	r0, [sp, #40]	; 0x28
    229e:	e017      	b.n	22d0 <PINT_Init+0x96>
    22a0:	2000      	movs	r0, #0
    22a2:	9009      	str	r0, [sp, #36]	; 0x24
    22a4:	e7ff      	b.n	22a6 <PINT_Init+0x6c>
    22a6:	9809      	ldr	r0, [sp, #36]	; 0x24
    22a8:	9008      	str	r0, [sp, #32]
    22aa:	2801      	cmp	r0, #1
    22ac:	d80d      	bhi.n	22ca <PINT_Init+0x90>
    22ae:	e7ff      	b.n	22b0 <PINT_Init+0x76>
    22b0:	9a08      	ldr	r2, [sp, #32]
    22b2:	f240 417c 	movw	r1, #1148	; 0x47c
    22b6:	f2c2 0100 	movt	r1, #8192	; 0x2000
    22ba:	2000      	movs	r0, #0
    22bc:	f841 0022 	str.w	r0, [r1, r2, lsl #2]
    22c0:	e7ff      	b.n	22c2 <PINT_Init+0x88>
    22c2:	9808      	ldr	r0, [sp, #32]
    22c4:	3001      	adds	r0, #1
    22c6:	9009      	str	r0, [sp, #36]	; 0x24
    22c8:	e7ed      	b.n	22a6 <PINT_Init+0x6c>
    22ca:	2002      	movs	r0, #2
    22cc:	900a      	str	r0, [sp, #40]	; 0x28
    22ce:	e7ff      	b.n	22d0 <PINT_Init+0x96>
    22d0:	980a      	ldr	r0, [sp, #40]	; 0x28
    22d2:	9005      	str	r0, [sp, #20]
    22d4:	2000      	movs	r0, #0
    22d6:	4601      	mov	r1, r0
    22d8:	9106      	str	r1, [sp, #24]
    22da:	9007      	str	r0, [sp, #28]
    22dc:	e7ff      	b.n	22de <PINT_Init+0xa4>
    22de:	9905      	ldr	r1, [sp, #20]
    22e0:	9a06      	ldr	r2, [sp, #24]
    22e2:	9807      	ldr	r0, [sp, #28]
    22e4:	9003      	str	r0, [sp, #12]
    22e6:	9204      	str	r2, [sp, #16]
    22e8:	b2c9      	uxtb	r1, r1
    22ea:	4288      	cmp	r0, r1
    22ec:	d211      	bcs.n	2312 <PINT_Init+0xd8>
    22ee:	e7ff      	b.n	22f0 <PINT_Init+0xb6>
    22f0:	9804      	ldr	r0, [sp, #16]
    22f2:	9903      	ldr	r1, [sp, #12]
    22f4:	eb01 0141 	add.w	r1, r1, r1, lsl #1
    22f8:	f101 0208 	add.w	r2, r1, #8
    22fc:	2106      	movs	r1, #6
    22fe:	4091      	lsls	r1, r2
    2300:	4308      	orrs	r0, r1
    2302:	9002      	str	r0, [sp, #8]
    2304:	e7ff      	b.n	2306 <PINT_Init+0xcc>
    2306:	9902      	ldr	r1, [sp, #8]
    2308:	9803      	ldr	r0, [sp, #12]
    230a:	3001      	adds	r0, #1
    230c:	9106      	str	r1, [sp, #24]
    230e:	9007      	str	r0, [sp, #28]
    2310:	e7e5      	b.n	22de <PINT_Init+0xa4>
    2312:	980d      	ldr	r0, [sp, #52]	; 0x34
    2314:	f1b0 2f40 	cmp.w	r0, #1073758208	; 0x40004000
    2318:	d108      	bne.n	232c <PINT_Init+0xf2>
    231a:	e7ff      	b.n	231c <PINT_Init+0xe2>
    231c:	2012      	movs	r0, #18
    231e:	9001      	str	r0, [sp, #4]
    2320:	f000 f813 	bl	234a <CLOCK_EnableClock>
    2324:	9801      	ldr	r0, [sp, #4]
    2326:	f7ff ff02 	bl	212e <RESET_PeripheralReset>
    232a:	e009      	b.n	2340 <PINT_Init+0x106>
    232c:	f240 201e 	movw	r0, #542	; 0x21e
    2330:	f000 f80b 	bl	234a <CLOCK_EnableClock>
    2334:	201e      	movs	r0, #30
    2336:	f2c0 0002 	movt	r0, #2
    233a:	f7ff fef8 	bl	212e <RESET_PeripheralReset>
    233e:	e7ff      	b.n	2340 <PINT_Init+0x106>
    2340:	9804      	ldr	r0, [sp, #16]
    2342:	990d      	ldr	r1, [sp, #52]	; 0x34
    2344:	6308      	str	r0, [r1, #48]	; 0x30
    2346:	b00e      	add	sp, #56	; 0x38
    2348:	bd80      	pop	{r7, pc}

0000234a <CLOCK_EnableClock>:
    234a:	0a02      	lsrs	r2, r0, #8
    234c:	b2c1      	uxtb	r1, r0
    234e:	2001      	movs	r0, #1
    2350:	4088      	lsls	r0, r1
    2352:	f240 2120 	movw	r1, #544	; 0x220
    2356:	f2c4 0100 	movt	r1, #16384	; 0x4000
    235a:	f841 0022 	str.w	r0, [r1, r2, lsl #2]
    235e:	4770      	bx	lr

00002360 <PINT_PinInterruptConfig>:
    2360:	b580      	push	{r7, lr}
    2362:	466f      	mov	r7, sp
    2364:	b088      	sub	sp, #32
    2366:	9304      	str	r3, [sp, #16]
    2368:	9005      	str	r0, [sp, #20]
    236a:	9206      	str	r2, [sp, #24]
    236c:	9107      	str	r1, [sp, #28]
    236e:	b108      	cbz	r0, 2374 <PINT_PinInterruptConfig+0x14>
    2370:	e7ff      	b.n	2372 <PINT_PinInterruptConfig+0x12>
    2372:	e00e      	b.n	2392 <PINT_PinInterruptConfig+0x32>
    2374:	f648 50e4 	movw	r0, #36324	; 0x8de4
    2378:	f2c0 0000 	movt	r0, #0
    237c:	f648 620e 	movw	r2, #36366	; 0x8e0e
    2380:	f2c0 0200 	movt	r2, #0
    2384:	f648 6301 	movw	r3, #36353	; 0x8e01
    2388:	f2c0 0300 	movt	r3, #0
    238c:	21a7      	movs	r1, #167	; 0xa7
    238e:	f002 ff9a 	bl	52c6 <__assert_func>
    2392:	9805      	ldr	r0, [sp, #20]
    2394:	9907      	ldr	r1, [sp, #28]
    2396:	b2c9      	uxtb	r1, r1
    2398:	9103      	str	r1, [sp, #12]
    239a:	f000 f860 	bl	245e <PINT_PinInterruptClrRiseFlag>
    239e:	9903      	ldr	r1, [sp, #12]
    23a0:	9805      	ldr	r0, [sp, #20]
    23a2:	f000 f862 	bl	246a <PINT_PinInterruptClrFallFlag>
    23a6:	9805      	ldr	r0, [sp, #20]
    23a8:	f1b0 2f40 	cmp.w	r0, #1073758208	; 0x40004000
    23ac:	d10a      	bne.n	23c4 <PINT_PinInterruptConfig+0x64>
    23ae:	e7ff      	b.n	23b0 <PINT_PinInterruptConfig+0x50>
    23b0:	9804      	ldr	r0, [sp, #16]
    23b2:	9907      	ldr	r1, [sp, #28]
    23b4:	b2ca      	uxtb	r2, r1
    23b6:	f240 415c 	movw	r1, #1116	; 0x45c
    23ba:	f2c2 0100 	movt	r1, #8192	; 0x2000
    23be:	f841 0022 	str.w	r0, [r1, r2, lsl #2]
    23c2:	e009      	b.n	23d8 <PINT_PinInterruptConfig+0x78>
    23c4:	9804      	ldr	r0, [sp, #16]
    23c6:	9907      	ldr	r1, [sp, #28]
    23c8:	b2ca      	uxtb	r2, r1
    23ca:	f240 417c 	movw	r1, #1148	; 0x47c
    23ce:	f2c2 0100 	movt	r1, #8192	; 0x2000
    23d2:	f841 0022 	str.w	r0, [r1, r2, lsl #2]
    23d6:	e7ff      	b.n	23d8 <PINT_PinInterruptConfig+0x78>
    23d8:	9806      	ldr	r0, [sp, #24]
    23da:	9a07      	ldr	r2, [sp, #28]
    23dc:	9905      	ldr	r1, [sp, #20]
    23de:	6809      	ldr	r1, [r1, #0]
    23e0:	b2d3      	uxtb	r3, r2
    23e2:	2201      	movs	r2, #1
    23e4:	409a      	lsls	r2, r3
    23e6:	4391      	bics	r1, r2
    23e8:	9102      	str	r1, [sp, #8]
    23ea:	06c0      	lsls	r0, r0, #27
    23ec:	2800      	cmp	r0, #0
    23ee:	d506      	bpl.n	23fe <PINT_PinInterruptConfig+0x9e>
    23f0:	e7ff      	b.n	23f2 <PINT_PinInterruptConfig+0x92>
    23f2:	9807      	ldr	r0, [sp, #28]
    23f4:	b2c1      	uxtb	r1, r0
    23f6:	2001      	movs	r0, #1
    23f8:	4088      	lsls	r0, r1
    23fa:	9001      	str	r0, [sp, #4]
    23fc:	e002      	b.n	2404 <PINT_PinInterruptConfig+0xa4>
    23fe:	2000      	movs	r0, #0
    2400:	9001      	str	r0, [sp, #4]
    2402:	e7ff      	b.n	2404 <PINT_PinInterruptConfig+0xa4>
    2404:	9806      	ldr	r0, [sp, #24]
    2406:	9a05      	ldr	r2, [sp, #20]
    2408:	9902      	ldr	r1, [sp, #8]
    240a:	9b01      	ldr	r3, [sp, #4]
    240c:	4319      	orrs	r1, r3
    240e:	6011      	str	r1, [r2, #0]
    2410:	f010 0f11 	tst.w	r0, #17
    2414:	d007      	beq.n	2426 <PINT_PinInterruptConfig+0xc6>
    2416:	e7ff      	b.n	2418 <PINT_PinInterruptConfig+0xb8>
    2418:	9905      	ldr	r1, [sp, #20]
    241a:	9807      	ldr	r0, [sp, #28]
    241c:	b2c2      	uxtb	r2, r0
    241e:	2001      	movs	r0, #1
    2420:	4090      	lsls	r0, r2
    2422:	6088      	str	r0, [r1, #8]
    2424:	e006      	b.n	2434 <PINT_PinInterruptConfig+0xd4>
    2426:	9905      	ldr	r1, [sp, #20]
    2428:	9807      	ldr	r0, [sp, #28]
    242a:	b2c2      	uxtb	r2, r0
    242c:	2001      	movs	r0, #1
    242e:	4090      	lsls	r0, r2
    2430:	60c8      	str	r0, [r1, #12]
    2432:	e7ff      	b.n	2434 <PINT_PinInterruptConfig+0xd4>
    2434:	9806      	ldr	r0, [sp, #24]
    2436:	0780      	lsls	r0, r0, #30
    2438:	2800      	cmp	r0, #0
    243a:	d507      	bpl.n	244c <PINT_PinInterruptConfig+0xec>
    243c:	e7ff      	b.n	243e <PINT_PinInterruptConfig+0xde>
    243e:	9905      	ldr	r1, [sp, #20]
    2440:	9807      	ldr	r0, [sp, #28]
    2442:	b2c2      	uxtb	r2, r0
    2444:	2001      	movs	r0, #1
    2446:	4090      	lsls	r0, r2
    2448:	6148      	str	r0, [r1, #20]
    244a:	e006      	b.n	245a <PINT_PinInterruptConfig+0xfa>
    244c:	9905      	ldr	r1, [sp, #20]
    244e:	9807      	ldr	r0, [sp, #28]
    2450:	b2c2      	uxtb	r2, r0
    2452:	2001      	movs	r0, #1
    2454:	4090      	lsls	r0, r2
    2456:	6188      	str	r0, [r1, #24]
    2458:	e7ff      	b.n	245a <PINT_PinInterruptConfig+0xfa>
    245a:	b008      	add	sp, #32
    245c:	bd80      	pop	{r7, pc}

0000245e <PINT_PinInterruptClrRiseFlag>:
    245e:	460a      	mov	r2, r1
    2460:	4601      	mov	r1, r0
    2462:	2001      	movs	r0, #1
    2464:	4090      	lsls	r0, r2
    2466:	61c8      	str	r0, [r1, #28]
    2468:	4770      	bx	lr

0000246a <PINT_PinInterruptClrFallFlag>:
    246a:	460a      	mov	r2, r1
    246c:	4601      	mov	r1, r0
    246e:	2001      	movs	r0, #1
    2470:	4090      	lsls	r0, r2
    2472:	6208      	str	r0, [r1, #32]
    2474:	4770      	bx	lr

00002476 <PINT_PatternMatchResetDetectLogic>:
    2476:	b082      	sub	sp, #8
    2478:	9000      	str	r0, [sp, #0]
    247a:	6a80      	ldr	r0, [r0, #40]	; 0x28
    247c:	0e00      	lsrs	r0, r0, #24
    247e:	4601      	mov	r1, r0
    2480:	9101      	str	r1, [sp, #4]
    2482:	b120      	cbz	r0, 248e <PINT_PatternMatchResetDetectLogic+0x18>
    2484:	e7ff      	b.n	2486 <PINT_PatternMatchResetDetectLogic+0x10>
    2486:	9900      	ldr	r1, [sp, #0]
    2488:	6ac8      	ldr	r0, [r1, #44]	; 0x2c
    248a:	62c8      	str	r0, [r1, #44]	; 0x2c
    248c:	e7ff      	b.n	248e <PINT_PatternMatchResetDetectLogic+0x18>
    248e:	9801      	ldr	r0, [sp, #4]
    2490:	b002      	add	sp, #8
    2492:	4770      	bx	lr

00002494 <PINT_PinInterruptClrStatus>:
    2494:	b083      	sub	sp, #12
    2496:	460b      	mov	r3, r1
    2498:	4602      	mov	r2, r0
    249a:	9200      	str	r2, [sp, #0]
    249c:	4619      	mov	r1, r3
    249e:	9101      	str	r1, [sp, #4]
    24a0:	6810      	ldr	r0, [r2, #0]
    24a2:	2101      	movs	r1, #1
    24a4:	4099      	lsls	r1, r3
    24a6:	6a52      	ldr	r2, [r2, #36]	; 0x24
    24a8:	400a      	ands	r2, r1
    24aa:	9202      	str	r2, [sp, #8]
    24ac:	4208      	tst	r0, r1
    24ae:	d10a      	bne.n	24c6 <PINT_PinInterruptClrStatus+0x32>
    24b0:	e7ff      	b.n	24b2 <PINT_PinInterruptClrStatus+0x1e>
    24b2:	9802      	ldr	r0, [sp, #8]
    24b4:	b138      	cbz	r0, 24c6 <PINT_PinInterruptClrStatus+0x32>
    24b6:	e7ff      	b.n	24b8 <PINT_PinInterruptClrStatus+0x24>
    24b8:	9900      	ldr	r1, [sp, #0]
    24ba:	9801      	ldr	r0, [sp, #4]
    24bc:	b2c2      	uxtb	r2, r0
    24be:	2001      	movs	r0, #1
    24c0:	4090      	lsls	r0, r2
    24c2:	6248      	str	r0, [r1, #36]	; 0x24
    24c4:	e7ff      	b.n	24c6 <PINT_PinInterruptClrStatus+0x32>
    24c6:	b003      	add	sp, #12
    24c8:	4770      	bx	lr

000024ca <SEC_GPIO_INT0_IRQ0_DriverIRQHandler>:
    24ca:	b580      	push	{r7, lr}
    24cc:	466f      	mov	r7, sp
    24ce:	b082      	sub	sp, #8
    24d0:	f245 0000 	movw	r0, #20480	; 0x5000
    24d4:	f2c4 0000 	movt	r0, #16384	; 0x4000
    24d8:	f7ff ffcd 	bl	2476 <PINT_PatternMatchResetDetectLogic>
    24dc:	9001      	str	r0, [sp, #4]
    24de:	f240 407c 	movw	r0, #1148	; 0x47c
    24e2:	f2c2 0000 	movt	r0, #8192	; 0x2000
    24e6:	6800      	ldr	r0, [r0, #0]
    24e8:	b148      	cbz	r0, 24fe <SEC_GPIO_INT0_IRQ0_DriverIRQHandler+0x34>
    24ea:	e7ff      	b.n	24ec <SEC_GPIO_INT0_IRQ0_DriverIRQHandler+0x22>
    24ec:	9901      	ldr	r1, [sp, #4]
    24ee:	f240 407c 	movw	r0, #1148	; 0x47c
    24f2:	f2c2 0000 	movt	r0, #8192	; 0x2000
    24f6:	6802      	ldr	r2, [r0, #0]
    24f8:	2000      	movs	r0, #0
    24fa:	4790      	blx	r2
    24fc:	e7ff      	b.n	24fe <SEC_GPIO_INT0_IRQ0_DriverIRQHandler+0x34>
    24fe:	f245 0000 	movw	r0, #20480	; 0x5000
    2502:	f2c4 0000 	movt	r0, #16384	; 0x4000
    2506:	6800      	ldr	r0, [r0, #0]
    2508:	07c0      	lsls	r0, r0, #31
    250a:	b940      	cbnz	r0, 251e <SEC_GPIO_INT0_IRQ0_DriverIRQHandler+0x54>
    250c:	e7ff      	b.n	250e <SEC_GPIO_INT0_IRQ0_DriverIRQHandler+0x44>
    250e:	f245 0000 	movw	r0, #20480	; 0x5000
    2512:	f2c4 0000 	movt	r0, #16384	; 0x4000
    2516:	2100      	movs	r1, #0
    2518:	f7ff ffbc 	bl	2494 <PINT_PinInterruptClrStatus>
    251c:	e7ff      	b.n	251e <SEC_GPIO_INT0_IRQ0_DriverIRQHandler+0x54>
    251e:	b002      	add	sp, #8
    2520:	bd80      	pop	{r7, pc}

00002522 <SEC_GPIO_INT0_IRQ1_DriverIRQHandler>:
    2522:	b580      	push	{r7, lr}
    2524:	466f      	mov	r7, sp
    2526:	b082      	sub	sp, #8
    2528:	f245 0000 	movw	r0, #20480	; 0x5000
    252c:	f2c4 0000 	movt	r0, #16384	; 0x4000
    2530:	f7ff ffa1 	bl	2476 <PINT_PatternMatchResetDetectLogic>
    2534:	9001      	str	r0, [sp, #4]
    2536:	f240 407c 	movw	r0, #1148	; 0x47c
    253a:	f2c2 0000 	movt	r0, #8192	; 0x2000
    253e:	6840      	ldr	r0, [r0, #4]
    2540:	b148      	cbz	r0, 2556 <SEC_GPIO_INT0_IRQ1_DriverIRQHandler+0x34>
    2542:	e7ff      	b.n	2544 <SEC_GPIO_INT0_IRQ1_DriverIRQHandler+0x22>
    2544:	9901      	ldr	r1, [sp, #4]
    2546:	f240 407c 	movw	r0, #1148	; 0x47c
    254a:	f2c2 0000 	movt	r0, #8192	; 0x2000
    254e:	6842      	ldr	r2, [r0, #4]
    2550:	2001      	movs	r0, #1
    2552:	4790      	blx	r2
    2554:	e7ff      	b.n	2556 <SEC_GPIO_INT0_IRQ1_DriverIRQHandler+0x34>
    2556:	f245 0000 	movw	r0, #20480	; 0x5000
    255a:	f2c4 0000 	movt	r0, #16384	; 0x4000
    255e:	6800      	ldr	r0, [r0, #0]
    2560:	07c0      	lsls	r0, r0, #31
    2562:	b940      	cbnz	r0, 2576 <SEC_GPIO_INT0_IRQ1_DriverIRQHandler+0x54>
    2564:	e7ff      	b.n	2566 <SEC_GPIO_INT0_IRQ1_DriverIRQHandler+0x44>
    2566:	f245 0000 	movw	r0, #20480	; 0x5000
    256a:	f2c4 0000 	movt	r0, #16384	; 0x4000
    256e:	2101      	movs	r1, #1
    2570:	f7ff ff90 	bl	2494 <PINT_PinInterruptClrStatus>
    2574:	e7ff      	b.n	2576 <SEC_GPIO_INT0_IRQ1_DriverIRQHandler+0x54>
    2576:	b002      	add	sp, #8
    2578:	bd80      	pop	{r7, pc}

0000257a <PIN_INT0_DriverIRQHandler>:
    257a:	b580      	push	{r7, lr}
    257c:	466f      	mov	r7, sp
    257e:	b082      	sub	sp, #8
    2580:	f04f 2040 	mov.w	r0, #1073758208	; 0x40004000
    2584:	f7ff ff77 	bl	2476 <PINT_PatternMatchResetDetectLogic>
    2588:	9001      	str	r0, [sp, #4]
    258a:	f240 405c 	movw	r0, #1116	; 0x45c
    258e:	f2c2 0000 	movt	r0, #8192	; 0x2000
    2592:	6800      	ldr	r0, [r0, #0]
    2594:	b148      	cbz	r0, 25aa <PIN_INT0_DriverIRQHandler+0x30>
    2596:	e7ff      	b.n	2598 <PIN_INT0_DriverIRQHandler+0x1e>
    2598:	9901      	ldr	r1, [sp, #4]
    259a:	f240 405c 	movw	r0, #1116	; 0x45c
    259e:	f2c2 0000 	movt	r0, #8192	; 0x2000
    25a2:	6802      	ldr	r2, [r0, #0]
    25a4:	2000      	movs	r0, #0
    25a6:	4790      	blx	r2
    25a8:	e7ff      	b.n	25aa <PIN_INT0_DriverIRQHandler+0x30>
    25aa:	f04f 2040 	mov.w	r0, #1073758208	; 0x40004000
    25ae:	6800      	ldr	r0, [r0, #0]
    25b0:	07c0      	lsls	r0, r0, #31
    25b2:	b930      	cbnz	r0, 25c2 <PIN_INT0_DriverIRQHandler+0x48>
    25b4:	e7ff      	b.n	25b6 <PIN_INT0_DriverIRQHandler+0x3c>
    25b6:	f04f 2040 	mov.w	r0, #1073758208	; 0x40004000
    25ba:	2100      	movs	r1, #0
    25bc:	f7ff ff6a 	bl	2494 <PINT_PinInterruptClrStatus>
    25c0:	e7ff      	b.n	25c2 <PIN_INT0_DriverIRQHandler+0x48>
    25c2:	b002      	add	sp, #8
    25c4:	bd80      	pop	{r7, pc}

000025c6 <PIN_INT1_DriverIRQHandler>:
    25c6:	b580      	push	{r7, lr}
    25c8:	466f      	mov	r7, sp
    25ca:	b082      	sub	sp, #8
    25cc:	f04f 2040 	mov.w	r0, #1073758208	; 0x40004000
    25d0:	f7ff ff51 	bl	2476 <PINT_PatternMatchResetDetectLogic>
    25d4:	9001      	str	r0, [sp, #4]
    25d6:	f240 405c 	movw	r0, #1116	; 0x45c
    25da:	f2c2 0000 	movt	r0, #8192	; 0x2000
    25de:	6840      	ldr	r0, [r0, #4]
    25e0:	b148      	cbz	r0, 25f6 <PIN_INT1_DriverIRQHandler+0x30>
    25e2:	e7ff      	b.n	25e4 <PIN_INT1_DriverIRQHandler+0x1e>
    25e4:	9901      	ldr	r1, [sp, #4]
    25e6:	f240 405c 	movw	r0, #1116	; 0x45c
    25ea:	f2c2 0000 	movt	r0, #8192	; 0x2000
    25ee:	6842      	ldr	r2, [r0, #4]
    25f0:	2001      	movs	r0, #1
    25f2:	4790      	blx	r2
    25f4:	e7ff      	b.n	25f6 <PIN_INT1_DriverIRQHandler+0x30>
    25f6:	f04f 2040 	mov.w	r0, #1073758208	; 0x40004000
    25fa:	6800      	ldr	r0, [r0, #0]
    25fc:	0780      	lsls	r0, r0, #30
    25fe:	2800      	cmp	r0, #0
    2600:	d406      	bmi.n	2610 <PIN_INT1_DriverIRQHandler+0x4a>
    2602:	e7ff      	b.n	2604 <PIN_INT1_DriverIRQHandler+0x3e>
    2604:	f04f 2040 	mov.w	r0, #1073758208	; 0x40004000
    2608:	2101      	movs	r1, #1
    260a:	f7ff ff43 	bl	2494 <PINT_PinInterruptClrStatus>
    260e:	e7ff      	b.n	2610 <PIN_INT1_DriverIRQHandler+0x4a>
    2610:	b002      	add	sp, #8
    2612:	bd80      	pop	{r7, pc}

00002614 <PIN_INT2_DriverIRQHandler>:
    2614:	b580      	push	{r7, lr}
    2616:	466f      	mov	r7, sp
    2618:	b082      	sub	sp, #8
    261a:	f04f 2040 	mov.w	r0, #1073758208	; 0x40004000
    261e:	f7ff ff2a 	bl	2476 <PINT_PatternMatchResetDetectLogic>
    2622:	9001      	str	r0, [sp, #4]
    2624:	f240 405c 	movw	r0, #1116	; 0x45c
    2628:	f2c2 0000 	movt	r0, #8192	; 0x2000
    262c:	6880      	ldr	r0, [r0, #8]
    262e:	b148      	cbz	r0, 2644 <PIN_INT2_DriverIRQHandler+0x30>
    2630:	e7ff      	b.n	2632 <PIN_INT2_DriverIRQHandler+0x1e>
    2632:	9901      	ldr	r1, [sp, #4]
    2634:	f240 405c 	movw	r0, #1116	; 0x45c
    2638:	f2c2 0000 	movt	r0, #8192	; 0x2000
    263c:	6882      	ldr	r2, [r0, #8]
    263e:	2002      	movs	r0, #2
    2640:	4790      	blx	r2
    2642:	e7ff      	b.n	2644 <PIN_INT2_DriverIRQHandler+0x30>
    2644:	f04f 2040 	mov.w	r0, #1073758208	; 0x40004000
    2648:	6800      	ldr	r0, [r0, #0]
    264a:	0740      	lsls	r0, r0, #29
    264c:	2800      	cmp	r0, #0
    264e:	d406      	bmi.n	265e <PIN_INT2_DriverIRQHandler+0x4a>
    2650:	e7ff      	b.n	2652 <PIN_INT2_DriverIRQHandler+0x3e>
    2652:	f04f 2040 	mov.w	r0, #1073758208	; 0x40004000
    2656:	2102      	movs	r1, #2
    2658:	f7ff ff1c 	bl	2494 <PINT_PinInterruptClrStatus>
    265c:	e7ff      	b.n	265e <PIN_INT2_DriverIRQHandler+0x4a>
    265e:	b002      	add	sp, #8
    2660:	bd80      	pop	{r7, pc}

00002662 <PIN_INT3_DriverIRQHandler>:
    2662:	b580      	push	{r7, lr}
    2664:	466f      	mov	r7, sp
    2666:	b082      	sub	sp, #8
    2668:	f04f 2040 	mov.w	r0, #1073758208	; 0x40004000
    266c:	f7ff ff03 	bl	2476 <PINT_PatternMatchResetDetectLogic>
    2670:	9001      	str	r0, [sp, #4]
    2672:	f240 405c 	movw	r0, #1116	; 0x45c
    2676:	f2c2 0000 	movt	r0, #8192	; 0x2000
    267a:	68c0      	ldr	r0, [r0, #12]
    267c:	b148      	cbz	r0, 2692 <PIN_INT3_DriverIRQHandler+0x30>
    267e:	e7ff      	b.n	2680 <PIN_INT3_DriverIRQHandler+0x1e>
    2680:	9901      	ldr	r1, [sp, #4]
    2682:	f240 405c 	movw	r0, #1116	; 0x45c
    2686:	f2c2 0000 	movt	r0, #8192	; 0x2000
    268a:	68c2      	ldr	r2, [r0, #12]
    268c:	2003      	movs	r0, #3
    268e:	4790      	blx	r2
    2690:	e7ff      	b.n	2692 <PIN_INT3_DriverIRQHandler+0x30>
    2692:	f04f 2040 	mov.w	r0, #1073758208	; 0x40004000
    2696:	6800      	ldr	r0, [r0, #0]
    2698:	0700      	lsls	r0, r0, #28
    269a:	2800      	cmp	r0, #0
    269c:	d406      	bmi.n	26ac <PIN_INT3_DriverIRQHandler+0x4a>
    269e:	e7ff      	b.n	26a0 <PIN_INT3_DriverIRQHandler+0x3e>
    26a0:	f04f 2040 	mov.w	r0, #1073758208	; 0x40004000
    26a4:	2103      	movs	r1, #3
    26a6:	f7ff fef5 	bl	2494 <PINT_PinInterruptClrStatus>
    26aa:	e7ff      	b.n	26ac <PIN_INT3_DriverIRQHandler+0x4a>
    26ac:	b002      	add	sp, #8
    26ae:	bd80      	pop	{r7, pc}

000026b0 <PIN_INT4_DriverIRQHandler>:
    26b0:	b580      	push	{r7, lr}
    26b2:	466f      	mov	r7, sp
    26b4:	b082      	sub	sp, #8
    26b6:	f04f 2040 	mov.w	r0, #1073758208	; 0x40004000
    26ba:	f7ff fedc 	bl	2476 <PINT_PatternMatchResetDetectLogic>
    26be:	9001      	str	r0, [sp, #4]
    26c0:	f240 405c 	movw	r0, #1116	; 0x45c
    26c4:	f2c2 0000 	movt	r0, #8192	; 0x2000
    26c8:	6900      	ldr	r0, [r0, #16]
    26ca:	b148      	cbz	r0, 26e0 <PIN_INT4_DriverIRQHandler+0x30>
    26cc:	e7ff      	b.n	26ce <PIN_INT4_DriverIRQHandler+0x1e>
    26ce:	9901      	ldr	r1, [sp, #4]
    26d0:	f240 405c 	movw	r0, #1116	; 0x45c
    26d4:	f2c2 0000 	movt	r0, #8192	; 0x2000
    26d8:	6902      	ldr	r2, [r0, #16]
    26da:	2004      	movs	r0, #4
    26dc:	4790      	blx	r2
    26de:	e7ff      	b.n	26e0 <PIN_INT4_DriverIRQHandler+0x30>
    26e0:	f04f 2040 	mov.w	r0, #1073758208	; 0x40004000
    26e4:	6800      	ldr	r0, [r0, #0]
    26e6:	06c0      	lsls	r0, r0, #27
    26e8:	2800      	cmp	r0, #0
    26ea:	d406      	bmi.n	26fa <PIN_INT4_DriverIRQHandler+0x4a>
    26ec:	e7ff      	b.n	26ee <PIN_INT4_DriverIRQHandler+0x3e>
    26ee:	f04f 2040 	mov.w	r0, #1073758208	; 0x40004000
    26f2:	2104      	movs	r1, #4
    26f4:	f7ff fece 	bl	2494 <PINT_PinInterruptClrStatus>
    26f8:	e7ff      	b.n	26fa <PIN_INT4_DriverIRQHandler+0x4a>
    26fa:	b002      	add	sp, #8
    26fc:	bd80      	pop	{r7, pc}

000026fe <PIN_INT5_DriverIRQHandler>:
    26fe:	b580      	push	{r7, lr}
    2700:	466f      	mov	r7, sp
    2702:	b082      	sub	sp, #8
    2704:	f04f 2040 	mov.w	r0, #1073758208	; 0x40004000
    2708:	f7ff feb5 	bl	2476 <PINT_PatternMatchResetDetectLogic>
    270c:	9001      	str	r0, [sp, #4]
    270e:	f240 405c 	movw	r0, #1116	; 0x45c
    2712:	f2c2 0000 	movt	r0, #8192	; 0x2000
    2716:	6940      	ldr	r0, [r0, #20]
    2718:	b148      	cbz	r0, 272e <PIN_INT5_DriverIRQHandler+0x30>
    271a:	e7ff      	b.n	271c <PIN_INT5_DriverIRQHandler+0x1e>
    271c:	9901      	ldr	r1, [sp, #4]
    271e:	f240 405c 	movw	r0, #1116	; 0x45c
    2722:	f2c2 0000 	movt	r0, #8192	; 0x2000
    2726:	6942      	ldr	r2, [r0, #20]
    2728:	2005      	movs	r0, #5
    272a:	4790      	blx	r2
    272c:	e7ff      	b.n	272e <PIN_INT5_DriverIRQHandler+0x30>
    272e:	f04f 2040 	mov.w	r0, #1073758208	; 0x40004000
    2732:	6800      	ldr	r0, [r0, #0]
    2734:	0680      	lsls	r0, r0, #26
    2736:	2800      	cmp	r0, #0
    2738:	d406      	bmi.n	2748 <PIN_INT5_DriverIRQHandler+0x4a>
    273a:	e7ff      	b.n	273c <PIN_INT5_DriverIRQHandler+0x3e>
    273c:	f04f 2040 	mov.w	r0, #1073758208	; 0x40004000
    2740:	2105      	movs	r1, #5
    2742:	f7ff fea7 	bl	2494 <PINT_PinInterruptClrStatus>
    2746:	e7ff      	b.n	2748 <PIN_INT5_DriverIRQHandler+0x4a>
    2748:	b002      	add	sp, #8
    274a:	bd80      	pop	{r7, pc}

0000274c <PIN_INT6_DriverIRQHandler>:
    274c:	b580      	push	{r7, lr}
    274e:	466f      	mov	r7, sp
    2750:	b082      	sub	sp, #8
    2752:	f04f 2040 	mov.w	r0, #1073758208	; 0x40004000
    2756:	f7ff fe8e 	bl	2476 <PINT_PatternMatchResetDetectLogic>
    275a:	9001      	str	r0, [sp, #4]
    275c:	f240 405c 	movw	r0, #1116	; 0x45c
    2760:	f2c2 0000 	movt	r0, #8192	; 0x2000
    2764:	6980      	ldr	r0, [r0, #24]
    2766:	b148      	cbz	r0, 277c <PIN_INT6_DriverIRQHandler+0x30>
    2768:	e7ff      	b.n	276a <PIN_INT6_DriverIRQHandler+0x1e>
    276a:	9901      	ldr	r1, [sp, #4]
    276c:	f240 405c 	movw	r0, #1116	; 0x45c
    2770:	f2c2 0000 	movt	r0, #8192	; 0x2000
    2774:	6982      	ldr	r2, [r0, #24]
    2776:	2006      	movs	r0, #6
    2778:	4790      	blx	r2
    277a:	e7ff      	b.n	277c <PIN_INT6_DriverIRQHandler+0x30>
    277c:	f04f 2040 	mov.w	r0, #1073758208	; 0x40004000
    2780:	6800      	ldr	r0, [r0, #0]
    2782:	0640      	lsls	r0, r0, #25
    2784:	2800      	cmp	r0, #0
    2786:	d406      	bmi.n	2796 <PIN_INT6_DriverIRQHandler+0x4a>
    2788:	e7ff      	b.n	278a <PIN_INT6_DriverIRQHandler+0x3e>
    278a:	f04f 2040 	mov.w	r0, #1073758208	; 0x40004000
    278e:	2106      	movs	r1, #6
    2790:	f7ff fe80 	bl	2494 <PINT_PinInterruptClrStatus>
    2794:	e7ff      	b.n	2796 <PIN_INT6_DriverIRQHandler+0x4a>
    2796:	b002      	add	sp, #8
    2798:	bd80      	pop	{r7, pc}

0000279a <PIN_INT7_DriverIRQHandler>:
    279a:	b580      	push	{r7, lr}
    279c:	466f      	mov	r7, sp
    279e:	b082      	sub	sp, #8
    27a0:	f04f 2040 	mov.w	r0, #1073758208	; 0x40004000
    27a4:	f7ff fe67 	bl	2476 <PINT_PatternMatchResetDetectLogic>
    27a8:	9001      	str	r0, [sp, #4]
    27aa:	f240 405c 	movw	r0, #1116	; 0x45c
    27ae:	f2c2 0000 	movt	r0, #8192	; 0x2000
    27b2:	69c0      	ldr	r0, [r0, #28]
    27b4:	b148      	cbz	r0, 27ca <PIN_INT7_DriverIRQHandler+0x30>
    27b6:	e7ff      	b.n	27b8 <PIN_INT7_DriverIRQHandler+0x1e>
    27b8:	9901      	ldr	r1, [sp, #4]
    27ba:	f240 405c 	movw	r0, #1116	; 0x45c
    27be:	f2c2 0000 	movt	r0, #8192	; 0x2000
    27c2:	69c2      	ldr	r2, [r0, #28]
    27c4:	2007      	movs	r0, #7
    27c6:	4790      	blx	r2
    27c8:	e7ff      	b.n	27ca <PIN_INT7_DriverIRQHandler+0x30>
    27ca:	f04f 2040 	mov.w	r0, #1073758208	; 0x40004000
    27ce:	6800      	ldr	r0, [r0, #0]
    27d0:	0600      	lsls	r0, r0, #24
    27d2:	2800      	cmp	r0, #0
    27d4:	d406      	bmi.n	27e4 <PIN_INT7_DriverIRQHandler+0x4a>
    27d6:	e7ff      	b.n	27d8 <PIN_INT7_DriverIRQHandler+0x3e>
    27d8:	f04f 2040 	mov.w	r0, #1073758208	; 0x40004000
    27dc:	2107      	movs	r1, #7
    27de:	f7ff fe59 	bl	2494 <PINT_PinInterruptClrStatus>
    27e2:	e7ff      	b.n	27e4 <PIN_INT7_DriverIRQHandler+0x4a>
    27e4:	b002      	add	sp, #8
    27e6:	bd80      	pop	{r7, pc}

000027e8 <FLEXCOMM_GetInstance>:
    27e8:	b580      	push	{r7, lr}
    27ea:	466f      	mov	r7, sp
    27ec:	b084      	sub	sp, #16
    27ee:	9002      	str	r0, [sp, #8]
    27f0:	2000      	movs	r0, #0
    27f2:	9003      	str	r0, [sp, #12]
    27f4:	e7ff      	b.n	27f6 <FLEXCOMM_GetInstance+0xe>
    27f6:	9803      	ldr	r0, [sp, #12]
    27f8:	9001      	str	r0, [sp, #4]
    27fa:	2808      	cmp	r0, #8
    27fc:	d811      	bhi.n	2822 <FLEXCOMM_GetInstance+0x3a>
    27fe:	e7ff      	b.n	2800 <FLEXCOMM_GetInstance+0x18>
    2800:	9802      	ldr	r0, [sp, #8]
    2802:	9a01      	ldr	r2, [sp, #4]
    2804:	f648 61e0 	movw	r1, #36576	; 0x8ee0
    2808:	f2c0 0100 	movt	r1, #0
    280c:	f851 1022 	ldr.w	r1, [r1, r2, lsl #2]
    2810:	4288      	cmp	r0, r1
    2812:	d101      	bne.n	2818 <FLEXCOMM_GetInstance+0x30>
    2814:	e7ff      	b.n	2816 <FLEXCOMM_GetInstance+0x2e>
    2816:	e004      	b.n	2822 <FLEXCOMM_GetInstance+0x3a>
    2818:	e7ff      	b.n	281a <FLEXCOMM_GetInstance+0x32>
    281a:	9801      	ldr	r0, [sp, #4]
    281c:	3001      	adds	r0, #1
    281e:	9003      	str	r0, [sp, #12]
    2820:	e7e9      	b.n	27f6 <FLEXCOMM_GetInstance+0xe>
    2822:	9801      	ldr	r0, [sp, #4]
    2824:	2808      	cmp	r0, #8
    2826:	d801      	bhi.n	282c <FLEXCOMM_GetInstance+0x44>
    2828:	e7ff      	b.n	282a <FLEXCOMM_GetInstance+0x42>
    282a:	e00e      	b.n	284a <FLEXCOMM_GetInstance+0x62>
    282c:	f648 7004 	movw	r0, #36612	; 0x8f04
    2830:	f2c0 0000 	movt	r0, #0
    2834:	f648 721b 	movw	r2, #36635	; 0x8f1b
    2838:	f2c0 0200 	movt	r2, #0
    283c:	f648 7330 	movw	r3, #36656	; 0x8f30
    2840:	f2c0 0300 	movt	r3, #0
    2844:	215f      	movs	r1, #95	; 0x5f
    2846:	f002 fd3e 	bl	52c6 <__assert_func>
    284a:	9801      	ldr	r0, [sp, #4]
    284c:	b004      	add	sp, #16
    284e:	bd80      	pop	{r7, pc}

00002850 <FLEXCOMM_Init>:
    2850:	b580      	push	{r7, lr}
    2852:	466f      	mov	r7, sp
    2854:	b084      	sub	sp, #16
    2856:	9103      	str	r1, [sp, #12]
    2858:	9002      	str	r0, [sp, #8]
    285a:	f7ff ffc5 	bl	27e8 <FLEXCOMM_GetInstance>
    285e:	4601      	mov	r1, r0
    2860:	9101      	str	r1, [sp, #4]
    2862:	f249 0078 	movw	r0, #36984	; 0x9078
    2866:	f2c0 0000 	movt	r0, #0
    286a:	f830 0011 	ldrh.w	r0, [r0, r1, lsl #1]
    286e:	f000 f810 	bl	2892 <CLOCK_EnableClock>
    2872:	9901      	ldr	r1, [sp, #4]
    2874:	f249 008c 	movw	r0, #37004	; 0x908c
    2878:	f2c0 0000 	movt	r0, #0
    287c:	f850 0021 	ldr.w	r0, [r0, r1, lsl #2]
    2880:	f7ff fc55 	bl	212e <RESET_PeripheralReset>
    2884:	9802      	ldr	r0, [sp, #8]
    2886:	9903      	ldr	r1, [sp, #12]
    2888:	2200      	movs	r2, #0
    288a:	f000 f80d 	bl	28a8 <FLEXCOMM_SetPeriph>
    288e:	b004      	add	sp, #16
    2890:	bd80      	pop	{r7, pc}

00002892 <CLOCK_EnableClock>:
    2892:	0a02      	lsrs	r2, r0, #8
    2894:	b2c1      	uxtb	r1, r0
    2896:	2001      	movs	r0, #1
    2898:	4088      	lsls	r0, r1
    289a:	f240 2120 	movw	r1, #544	; 0x220
    289e:	f2c4 0100 	movt	r1, #16384	; 0x4000
    28a2:	f841 0022 	str.w	r0, [r1, r2, lsl #2]
    28a6:	4770      	bx	lr

000028a8 <FLEXCOMM_SetPeriph>:
    28a8:	b580      	push	{r7, lr}
    28aa:	466f      	mov	r7, sp
    28ac:	b084      	sub	sp, #16
    28ae:	9201      	str	r2, [sp, #4]
    28b0:	9002      	str	r0, [sp, #8]
    28b2:	460a      	mov	r2, r1
    28b4:	9203      	str	r2, [sp, #12]
    28b6:	f000 fa3d 	bl	2d34 <FLEXCOMM_PeripheralIsPresent>
    28ba:	b918      	cbnz	r0, 28c4 <FLEXCOMM_SetPeriph+0x1c>
    28bc:	e7ff      	b.n	28be <FLEXCOMM_SetPeriph+0x16>
    28be:	2003      	movs	r0, #3
    28c0:	9000      	str	r0, [sp, #0]
    28c2:	e027      	b.n	2914 <FLEXCOMM_SetPeriph+0x6c>
    28c4:	9802      	ldr	r0, [sp, #8]
    28c6:	f8d0 0ff8 	ldr.w	r0, [r0, #4088]	; 0xff8
    28ca:	0700      	lsls	r0, r0, #28
    28cc:	2800      	cmp	r0, #0
    28ce:	d50d      	bpl.n	28ec <FLEXCOMM_SetPeriph+0x44>
    28d0:	e7ff      	b.n	28d2 <FLEXCOMM_SetPeriph+0x2a>
    28d2:	9903      	ldr	r1, [sp, #12]
    28d4:	9802      	ldr	r0, [sp, #8]
    28d6:	f8d0 0ff8 	ldr.w	r0, [r0, #4088]	; 0xff8
    28da:	f000 0007 	and.w	r0, r0, #7
    28de:	b2c9      	uxtb	r1, r1
    28e0:	4288      	cmp	r0, r1
    28e2:	d003      	beq.n	28ec <FLEXCOMM_SetPeriph+0x44>
    28e4:	e7ff      	b.n	28e6 <FLEXCOMM_SetPeriph+0x3e>
    28e6:	2001      	movs	r0, #1
    28e8:	9000      	str	r0, [sp, #0]
    28ea:	e013      	b.n	2914 <FLEXCOMM_SetPeriph+0x6c>
    28ec:	9801      	ldr	r0, [sp, #4]
    28ee:	b140      	cbz	r0, 2902 <FLEXCOMM_SetPeriph+0x5a>
    28f0:	e7ff      	b.n	28f2 <FLEXCOMM_SetPeriph+0x4a>
    28f2:	9902      	ldr	r1, [sp, #8]
    28f4:	9803      	ldr	r0, [sp, #12]
    28f6:	f040 0008 	orr.w	r0, r0, #8
    28fa:	b2c0      	uxtb	r0, r0
    28fc:	f8c1 0ff8 	str.w	r0, [r1, #4088]	; 0xff8
    2900:	e005      	b.n	290e <FLEXCOMM_SetPeriph+0x66>
    2902:	9902      	ldr	r1, [sp, #8]
    2904:	9803      	ldr	r0, [sp, #12]
    2906:	b2c0      	uxtb	r0, r0
    2908:	f8c1 0ff8 	str.w	r0, [r1, #4088]	; 0xff8
    290c:	e7ff      	b.n	290e <FLEXCOMM_SetPeriph+0x66>
    290e:	2000      	movs	r0, #0
    2910:	9000      	str	r0, [sp, #0]
    2912:	e7ff      	b.n	2914 <FLEXCOMM_SetPeriph+0x6c>
    2914:	9800      	ldr	r0, [sp, #0]
    2916:	b004      	add	sp, #16
    2918:	bd80      	pop	{r7, pc}

0000291a <FLEXCOMM0_DriverIRQHandler>:
    291a:	b580      	push	{r7, lr}
    291c:	466f      	mov	r7, sp
    291e:	b082      	sub	sp, #8
    2920:	f246 0000 	movw	r0, #24576	; 0x6000
    2924:	f2c4 0008 	movt	r0, #16392	; 0x4008
    2928:	f7ff ff5e 	bl	27e8 <FLEXCOMM_GetInstance>
    292c:	4601      	mov	r1, r0
    292e:	4608      	mov	r0, r1
    2930:	9001      	str	r0, [sp, #4]
    2932:	f240 4084 	movw	r0, #1156	; 0x484
    2936:	f2c2 0000 	movt	r0, #8192	; 0x2000
    293a:	f850 0021 	ldr.w	r0, [r0, r1, lsl #2]
    293e:	b108      	cbz	r0, 2944 <FLEXCOMM0_DriverIRQHandler+0x2a>
    2940:	e7ff      	b.n	2942 <FLEXCOMM0_DriverIRQHandler+0x28>
    2942:	e00e      	b.n	2962 <FLEXCOMM0_DriverIRQHandler+0x48>
    2944:	f648 7004 	movw	r0, #36612	; 0x8f04
    2948:	f2c0 0000 	movt	r0, #0
    294c:	f648 725d 	movw	r2, #36701	; 0x8f5d
    2950:	f2c0 0200 	movt	r2, #0
    2954:	f648 7378 	movw	r3, #36728	; 0x8f78
    2958:	f2c0 0300 	movt	r3, #0
    295c:	21ac      	movs	r1, #172	; 0xac
    295e:	f002 fcb2 	bl	52c6 <__assert_func>
    2962:	9b01      	ldr	r3, [sp, #4]
    2964:	f240 4084 	movw	r0, #1156	; 0x484
    2968:	f2c2 0000 	movt	r0, #8192	; 0x2000
    296c:	f850 2023 	ldr.w	r2, [r0, r3, lsl #2]
    2970:	f648 60e0 	movw	r0, #36576	; 0x8ee0
    2974:	f2c0 0000 	movt	r0, #0
    2978:	f850 0023 	ldr.w	r0, [r0, r3, lsl #2]
    297c:	f240 41a8 	movw	r1, #1192	; 0x4a8
    2980:	f2c2 0100 	movt	r1, #8192	; 0x2000
    2984:	f851 1023 	ldr.w	r1, [r1, r3, lsl #2]
    2988:	4790      	blx	r2
    298a:	b002      	add	sp, #8
    298c:	bd80      	pop	{r7, pc}

0000298e <FLEXCOMM1_DriverIRQHandler>:
    298e:	b580      	push	{r7, lr}
    2990:	466f      	mov	r7, sp
    2992:	b082      	sub	sp, #8
    2994:	f247 0000 	movw	r0, #28672	; 0x7000
    2998:	f2c4 0008 	movt	r0, #16392	; 0x4008
    299c:	f7ff ff24 	bl	27e8 <FLEXCOMM_GetInstance>
    29a0:	4601      	mov	r1, r0
    29a2:	4608      	mov	r0, r1
    29a4:	9001      	str	r0, [sp, #4]
    29a6:	f240 4084 	movw	r0, #1156	; 0x484
    29aa:	f2c2 0000 	movt	r0, #8192	; 0x2000
    29ae:	f850 0021 	ldr.w	r0, [r0, r1, lsl #2]
    29b2:	b108      	cbz	r0, 29b8 <FLEXCOMM1_DriverIRQHandler+0x2a>
    29b4:	e7ff      	b.n	29b6 <FLEXCOMM1_DriverIRQHandler+0x28>
    29b6:	e00e      	b.n	29d6 <FLEXCOMM1_DriverIRQHandler+0x48>
    29b8:	f648 7004 	movw	r0, #36612	; 0x8f04
    29bc:	f2c0 0000 	movt	r0, #0
    29c0:	f648 729f 	movw	r2, #36767	; 0x8f9f
    29c4:	f2c0 0200 	movt	r2, #0
    29c8:	f648 7378 	movw	r3, #36728	; 0x8f78
    29cc:	f2c0 0300 	movt	r3, #0
    29d0:	21ba      	movs	r1, #186	; 0xba
    29d2:	f002 fc78 	bl	52c6 <__assert_func>
    29d6:	9b01      	ldr	r3, [sp, #4]
    29d8:	f240 4084 	movw	r0, #1156	; 0x484
    29dc:	f2c2 0000 	movt	r0, #8192	; 0x2000
    29e0:	f850 2023 	ldr.w	r2, [r0, r3, lsl #2]
    29e4:	f648 60e0 	movw	r0, #36576	; 0x8ee0
    29e8:	f2c0 0000 	movt	r0, #0
    29ec:	f850 0023 	ldr.w	r0, [r0, r3, lsl #2]
    29f0:	f240 41a8 	movw	r1, #1192	; 0x4a8
    29f4:	f2c2 0100 	movt	r1, #8192	; 0x2000
    29f8:	f851 1023 	ldr.w	r1, [r1, r3, lsl #2]
    29fc:	4790      	blx	r2
    29fe:	b002      	add	sp, #8
    2a00:	bd80      	pop	{r7, pc}

00002a02 <FLEXCOMM2_DriverIRQHandler>:
    2a02:	b580      	push	{r7, lr}
    2a04:	466f      	mov	r7, sp
    2a06:	b082      	sub	sp, #8
    2a08:	f248 0000 	movw	r0, #32768	; 0x8000
    2a0c:	f2c4 0008 	movt	r0, #16392	; 0x4008
    2a10:	f7ff feea 	bl	27e8 <FLEXCOMM_GetInstance>
    2a14:	4601      	mov	r1, r0
    2a16:	4608      	mov	r0, r1
    2a18:	9001      	str	r0, [sp, #4]
    2a1a:	f240 4084 	movw	r0, #1156	; 0x484
    2a1e:	f2c2 0000 	movt	r0, #8192	; 0x2000
    2a22:	f850 0021 	ldr.w	r0, [r0, r1, lsl #2]
    2a26:	b108      	cbz	r0, 2a2c <FLEXCOMM2_DriverIRQHandler+0x2a>
    2a28:	e7ff      	b.n	2a2a <FLEXCOMM2_DriverIRQHandler+0x28>
    2a2a:	e00e      	b.n	2a4a <FLEXCOMM2_DriverIRQHandler+0x48>
    2a2c:	f648 7004 	movw	r0, #36612	; 0x8f04
    2a30:	f2c0 0000 	movt	r0, #0
    2a34:	f648 72ba 	movw	r2, #36794	; 0x8fba
    2a38:	f2c0 0200 	movt	r2, #0
    2a3c:	f648 7378 	movw	r3, #36728	; 0x8f78
    2a40:	f2c0 0300 	movt	r3, #0
    2a44:	21c8      	movs	r1, #200	; 0xc8
    2a46:	f002 fc3e 	bl	52c6 <__assert_func>
    2a4a:	9b01      	ldr	r3, [sp, #4]
    2a4c:	f240 4084 	movw	r0, #1156	; 0x484
    2a50:	f2c2 0000 	movt	r0, #8192	; 0x2000
    2a54:	f850 2023 	ldr.w	r2, [r0, r3, lsl #2]
    2a58:	f648 60e0 	movw	r0, #36576	; 0x8ee0
    2a5c:	f2c0 0000 	movt	r0, #0
    2a60:	f850 0023 	ldr.w	r0, [r0, r3, lsl #2]
    2a64:	f240 41a8 	movw	r1, #1192	; 0x4a8
    2a68:	f2c2 0100 	movt	r1, #8192	; 0x2000
    2a6c:	f851 1023 	ldr.w	r1, [r1, r3, lsl #2]
    2a70:	4790      	blx	r2
    2a72:	b002      	add	sp, #8
    2a74:	bd80      	pop	{r7, pc}

00002a76 <FLEXCOMM3_DriverIRQHandler>:
    2a76:	b580      	push	{r7, lr}
    2a78:	466f      	mov	r7, sp
    2a7a:	b082      	sub	sp, #8
    2a7c:	f249 0000 	movw	r0, #36864	; 0x9000
    2a80:	f2c4 0008 	movt	r0, #16392	; 0x4008
    2a84:	f7ff feb0 	bl	27e8 <FLEXCOMM_GetInstance>
    2a88:	4601      	mov	r1, r0
    2a8a:	4608      	mov	r0, r1
    2a8c:	9001      	str	r0, [sp, #4]
    2a8e:	f240 4084 	movw	r0, #1156	; 0x484
    2a92:	f2c2 0000 	movt	r0, #8192	; 0x2000
    2a96:	f850 0021 	ldr.w	r0, [r0, r1, lsl #2]
    2a9a:	b108      	cbz	r0, 2aa0 <FLEXCOMM3_DriverIRQHandler+0x2a>
    2a9c:	e7ff      	b.n	2a9e <FLEXCOMM3_DriverIRQHandler+0x28>
    2a9e:	e00e      	b.n	2abe <FLEXCOMM3_DriverIRQHandler+0x48>
    2aa0:	f648 7004 	movw	r0, #36612	; 0x8f04
    2aa4:	f2c0 0000 	movt	r0, #0
    2aa8:	f648 72d5 	movw	r2, #36821	; 0x8fd5
    2aac:	f2c0 0200 	movt	r2, #0
    2ab0:	f648 7378 	movw	r3, #36728	; 0x8f78
    2ab4:	f2c0 0300 	movt	r3, #0
    2ab8:	21d6      	movs	r1, #214	; 0xd6
    2aba:	f002 fc04 	bl	52c6 <__assert_func>
    2abe:	9b01      	ldr	r3, [sp, #4]
    2ac0:	f240 4084 	movw	r0, #1156	; 0x484
    2ac4:	f2c2 0000 	movt	r0, #8192	; 0x2000
    2ac8:	f850 2023 	ldr.w	r2, [r0, r3, lsl #2]
    2acc:	f648 60e0 	movw	r0, #36576	; 0x8ee0
    2ad0:	f2c0 0000 	movt	r0, #0
    2ad4:	f850 0023 	ldr.w	r0, [r0, r3, lsl #2]
    2ad8:	f240 41a8 	movw	r1, #1192	; 0x4a8
    2adc:	f2c2 0100 	movt	r1, #8192	; 0x2000
    2ae0:	f851 1023 	ldr.w	r1, [r1, r3, lsl #2]
    2ae4:	4790      	blx	r2
    2ae6:	b002      	add	sp, #8
    2ae8:	bd80      	pop	{r7, pc}

00002aea <FLEXCOMM4_DriverIRQHandler>:
    2aea:	b580      	push	{r7, lr}
    2aec:	466f      	mov	r7, sp
    2aee:	b082      	sub	sp, #8
    2af0:	f24a 0000 	movw	r0, #40960	; 0xa000
    2af4:	f2c4 0008 	movt	r0, #16392	; 0x4008
    2af8:	f7ff fe76 	bl	27e8 <FLEXCOMM_GetInstance>
    2afc:	4601      	mov	r1, r0
    2afe:	4608      	mov	r0, r1
    2b00:	9001      	str	r0, [sp, #4]
    2b02:	f240 4084 	movw	r0, #1156	; 0x484
    2b06:	f2c2 0000 	movt	r0, #8192	; 0x2000
    2b0a:	f850 0021 	ldr.w	r0, [r0, r1, lsl #2]
    2b0e:	b108      	cbz	r0, 2b14 <FLEXCOMM4_DriverIRQHandler+0x2a>
    2b10:	e7ff      	b.n	2b12 <FLEXCOMM4_DriverIRQHandler+0x28>
    2b12:	e00e      	b.n	2b32 <FLEXCOMM4_DriverIRQHandler+0x48>
    2b14:	f648 7004 	movw	r0, #36612	; 0x8f04
    2b18:	f2c0 0000 	movt	r0, #0
    2b1c:	f648 72f0 	movw	r2, #36848	; 0x8ff0
    2b20:	f2c0 0200 	movt	r2, #0
    2b24:	f648 7378 	movw	r3, #36728	; 0x8f78
    2b28:	f2c0 0300 	movt	r3, #0
    2b2c:	21e4      	movs	r1, #228	; 0xe4
    2b2e:	f002 fbca 	bl	52c6 <__assert_func>
    2b32:	9b01      	ldr	r3, [sp, #4]
    2b34:	f240 4084 	movw	r0, #1156	; 0x484
    2b38:	f2c2 0000 	movt	r0, #8192	; 0x2000
    2b3c:	f850 2023 	ldr.w	r2, [r0, r3, lsl #2]
    2b40:	f648 60e0 	movw	r0, #36576	; 0x8ee0
    2b44:	f2c0 0000 	movt	r0, #0
    2b48:	f850 0023 	ldr.w	r0, [r0, r3, lsl #2]
    2b4c:	f240 41a8 	movw	r1, #1192	; 0x4a8
    2b50:	f2c2 0100 	movt	r1, #8192	; 0x2000
    2b54:	f851 1023 	ldr.w	r1, [r1, r3, lsl #2]
    2b58:	4790      	blx	r2
    2b5a:	b002      	add	sp, #8
    2b5c:	bd80      	pop	{r7, pc}

00002b5e <FLEXCOMM5_DriverIRQHandler>:
    2b5e:	b580      	push	{r7, lr}
    2b60:	466f      	mov	r7, sp
    2b62:	b082      	sub	sp, #8
    2b64:	f246 0000 	movw	r0, #24576	; 0x6000
    2b68:	f2c4 0009 	movt	r0, #16393	; 0x4009
    2b6c:	f7ff fe3c 	bl	27e8 <FLEXCOMM_GetInstance>
    2b70:	4601      	mov	r1, r0
    2b72:	4608      	mov	r0, r1
    2b74:	9001      	str	r0, [sp, #4]
    2b76:	f240 4084 	movw	r0, #1156	; 0x484
    2b7a:	f2c2 0000 	movt	r0, #8192	; 0x2000
    2b7e:	f850 0021 	ldr.w	r0, [r0, r1, lsl #2]
    2b82:	b108      	cbz	r0, 2b88 <FLEXCOMM5_DriverIRQHandler+0x2a>
    2b84:	e7ff      	b.n	2b86 <FLEXCOMM5_DriverIRQHandler+0x28>
    2b86:	e00e      	b.n	2ba6 <FLEXCOMM5_DriverIRQHandler+0x48>
    2b88:	f648 7004 	movw	r0, #36612	; 0x8f04
    2b8c:	f2c0 0000 	movt	r0, #0
    2b90:	f249 020b 	movw	r2, #36875	; 0x900b
    2b94:	f2c0 0200 	movt	r2, #0
    2b98:	f648 7378 	movw	r3, #36728	; 0x8f78
    2b9c:	f2c0 0300 	movt	r3, #0
    2ba0:	21f3      	movs	r1, #243	; 0xf3
    2ba2:	f002 fb90 	bl	52c6 <__assert_func>
    2ba6:	9b01      	ldr	r3, [sp, #4]
    2ba8:	f240 4084 	movw	r0, #1156	; 0x484
    2bac:	f2c2 0000 	movt	r0, #8192	; 0x2000
    2bb0:	f850 2023 	ldr.w	r2, [r0, r3, lsl #2]
    2bb4:	f648 60e0 	movw	r0, #36576	; 0x8ee0
    2bb8:	f2c0 0000 	movt	r0, #0
    2bbc:	f850 0023 	ldr.w	r0, [r0, r3, lsl #2]
    2bc0:	f240 41a8 	movw	r1, #1192	; 0x4a8
    2bc4:	f2c2 0100 	movt	r1, #8192	; 0x2000
    2bc8:	f851 1023 	ldr.w	r1, [r1, r3, lsl #2]
    2bcc:	4790      	blx	r2
    2bce:	b002      	add	sp, #8
    2bd0:	bd80      	pop	{r7, pc}

00002bd2 <FLEXCOMM6_DriverIRQHandler>:
    2bd2:	b580      	push	{r7, lr}
    2bd4:	466f      	mov	r7, sp
    2bd6:	b082      	sub	sp, #8
    2bd8:	f247 0000 	movw	r0, #28672	; 0x7000
    2bdc:	f2c4 0009 	movt	r0, #16393	; 0x4009
    2be0:	f7ff fe02 	bl	27e8 <FLEXCOMM_GetInstance>
    2be4:	4601      	mov	r1, r0
    2be6:	4608      	mov	r0, r1
    2be8:	9001      	str	r0, [sp, #4]
    2bea:	f240 4084 	movw	r0, #1156	; 0x484
    2bee:	f2c2 0000 	movt	r0, #8192	; 0x2000
    2bf2:	f850 0021 	ldr.w	r0, [r0, r1, lsl #2]
    2bf6:	b108      	cbz	r0, 2bfc <FLEXCOMM6_DriverIRQHandler+0x2a>
    2bf8:	e7ff      	b.n	2bfa <FLEXCOMM6_DriverIRQHandler+0x28>
    2bfa:	e00f      	b.n	2c1c <FLEXCOMM6_DriverIRQHandler+0x4a>
    2bfc:	f648 7004 	movw	r0, #36612	; 0x8f04
    2c00:	f2c0 0000 	movt	r0, #0
    2c04:	f249 0226 	movw	r2, #36902	; 0x9026
    2c08:	f2c0 0200 	movt	r2, #0
    2c0c:	f648 7378 	movw	r3, #36728	; 0x8f78
    2c10:	f2c0 0300 	movt	r3, #0
    2c14:	f240 1101 	movw	r1, #257	; 0x101
    2c18:	f002 fb55 	bl	52c6 <__assert_func>
    2c1c:	9b01      	ldr	r3, [sp, #4]
    2c1e:	f240 4084 	movw	r0, #1156	; 0x484
    2c22:	f2c2 0000 	movt	r0, #8192	; 0x2000
    2c26:	f850 2023 	ldr.w	r2, [r0, r3, lsl #2]
    2c2a:	f648 60e0 	movw	r0, #36576	; 0x8ee0
    2c2e:	f2c0 0000 	movt	r0, #0
    2c32:	f850 0023 	ldr.w	r0, [r0, r3, lsl #2]
    2c36:	f240 41a8 	movw	r1, #1192	; 0x4a8
    2c3a:	f2c2 0100 	movt	r1, #8192	; 0x2000
    2c3e:	f851 1023 	ldr.w	r1, [r1, r3, lsl #2]
    2c42:	4790      	blx	r2
    2c44:	b002      	add	sp, #8
    2c46:	bd80      	pop	{r7, pc}

00002c48 <FLEXCOMM7_DriverIRQHandler>:
    2c48:	b580      	push	{r7, lr}
    2c4a:	466f      	mov	r7, sp
    2c4c:	b082      	sub	sp, #8
    2c4e:	f248 0000 	movw	r0, #32768	; 0x8000
    2c52:	f2c4 0009 	movt	r0, #16393	; 0x4009
    2c56:	f7ff fdc7 	bl	27e8 <FLEXCOMM_GetInstance>
    2c5a:	4601      	mov	r1, r0
    2c5c:	4608      	mov	r0, r1
    2c5e:	9001      	str	r0, [sp, #4]
    2c60:	f240 4084 	movw	r0, #1156	; 0x484
    2c64:	f2c2 0000 	movt	r0, #8192	; 0x2000
    2c68:	f850 0021 	ldr.w	r0, [r0, r1, lsl #2]
    2c6c:	b108      	cbz	r0, 2c72 <FLEXCOMM7_DriverIRQHandler+0x2a>
    2c6e:	e7ff      	b.n	2c70 <FLEXCOMM7_DriverIRQHandler+0x28>
    2c70:	e00f      	b.n	2c92 <FLEXCOMM7_DriverIRQHandler+0x4a>
    2c72:	f648 7004 	movw	r0, #36612	; 0x8f04
    2c76:	f2c0 0000 	movt	r0, #0
    2c7a:	f249 0241 	movw	r2, #36929	; 0x9041
    2c7e:	f2c0 0200 	movt	r2, #0
    2c82:	f648 7378 	movw	r3, #36728	; 0x8f78
    2c86:	f2c0 0300 	movt	r3, #0
    2c8a:	f240 110f 	movw	r1, #271	; 0x10f
    2c8e:	f002 fb1a 	bl	52c6 <__assert_func>
    2c92:	9b01      	ldr	r3, [sp, #4]
    2c94:	f240 4084 	movw	r0, #1156	; 0x484
    2c98:	f2c2 0000 	movt	r0, #8192	; 0x2000
    2c9c:	f850 2023 	ldr.w	r2, [r0, r3, lsl #2]
    2ca0:	f648 60e0 	movw	r0, #36576	; 0x8ee0
    2ca4:	f2c0 0000 	movt	r0, #0
    2ca8:	f850 0023 	ldr.w	r0, [r0, r3, lsl #2]
    2cac:	f240 41a8 	movw	r1, #1192	; 0x4a8
    2cb0:	f2c2 0100 	movt	r1, #8192	; 0x2000
    2cb4:	f851 1023 	ldr.w	r1, [r1, r3, lsl #2]
    2cb8:	4790      	blx	r2
    2cba:	b002      	add	sp, #8
    2cbc:	bd80      	pop	{r7, pc}

00002cbe <FLEXCOMM8_DriverIRQHandler>:
    2cbe:	b580      	push	{r7, lr}
    2cc0:	466f      	mov	r7, sp
    2cc2:	b082      	sub	sp, #8
    2cc4:	f24f 0000 	movw	r0, #61440	; 0xf000
    2cc8:	f2c4 0009 	movt	r0, #16393	; 0x4009
    2ccc:	f7ff fd8c 	bl	27e8 <FLEXCOMM_GetInstance>
    2cd0:	4601      	mov	r1, r0
    2cd2:	4608      	mov	r0, r1
    2cd4:	9001      	str	r0, [sp, #4]
    2cd6:	f240 4084 	movw	r0, #1156	; 0x484
    2cda:	f2c2 0000 	movt	r0, #8192	; 0x2000
    2cde:	f850 0021 	ldr.w	r0, [r0, r1, lsl #2]
    2ce2:	b108      	cbz	r0, 2ce8 <FLEXCOMM8_DriverIRQHandler+0x2a>
    2ce4:	e7ff      	b.n	2ce6 <FLEXCOMM8_DriverIRQHandler+0x28>
    2ce6:	e00f      	b.n	2d08 <FLEXCOMM8_DriverIRQHandler+0x4a>
    2ce8:	f648 7004 	movw	r0, #36612	; 0x8f04
    2cec:	f2c0 0000 	movt	r0, #0
    2cf0:	f249 025c 	movw	r2, #36956	; 0x905c
    2cf4:	f2c0 0200 	movt	r2, #0
    2cf8:	f648 7378 	movw	r3, #36728	; 0x8f78
    2cfc:	f2c0 0300 	movt	r3, #0
    2d00:	f240 111d 	movw	r1, #285	; 0x11d
    2d04:	f002 fadf 	bl	52c6 <__assert_func>
    2d08:	9b01      	ldr	r3, [sp, #4]
    2d0a:	f240 4084 	movw	r0, #1156	; 0x484
    2d0e:	f2c2 0000 	movt	r0, #8192	; 0x2000
    2d12:	f850 2023 	ldr.w	r2, [r0, r3, lsl #2]
    2d16:	f648 60e0 	movw	r0, #36576	; 0x8ee0
    2d1a:	f2c0 0000 	movt	r0, #0
    2d1e:	f850 0023 	ldr.w	r0, [r0, r3, lsl #2]
    2d22:	f240 41a8 	movw	r1, #1192	; 0x4a8
    2d26:	f2c2 0100 	movt	r1, #8192	; 0x2000
    2d2a:	f851 1023 	ldr.w	r1, [r1, r3, lsl #2]
    2d2e:	4790      	blx	r2
    2d30:	b002      	add	sp, #8
    2d32:	bd80      	pop	{r7, pc}

00002d34 <FLEXCOMM_PeripheralIsPresent>:
    2d34:	b083      	sub	sp, #12
    2d36:	9001      	str	r0, [sp, #4]
    2d38:	4608      	mov	r0, r1
    2d3a:	9002      	str	r0, [sp, #8]
    2d3c:	b919      	cbnz	r1, 2d46 <FLEXCOMM_PeripheralIsPresent+0x12>
    2d3e:	e7ff      	b.n	2d40 <FLEXCOMM_PeripheralIsPresent+0xc>
    2d40:	2001      	movs	r0, #1
    2d42:	9000      	str	r0, [sp, #0]
    2d44:	e01f      	b.n	2d86 <FLEXCOMM_PeripheralIsPresent+0x52>
    2d46:	9802      	ldr	r0, [sp, #8]
    2d48:	b2c0      	uxtb	r0, r0
    2d4a:	2804      	cmp	r0, #4
    2d4c:	dc0c      	bgt.n	2d68 <FLEXCOMM_PeripheralIsPresent+0x34>
    2d4e:	e7ff      	b.n	2d50 <FLEXCOMM_PeripheralIsPresent+0x1c>
    2d50:	9a02      	ldr	r2, [sp, #8]
    2d52:	9801      	ldr	r0, [sp, #4]
    2d54:	f8d0 0ff8 	ldr.w	r0, [r0, #4088]	; 0xff8
    2d58:	2103      	movs	r1, #3
    2d5a:	fa51 f182 	uxtab	r1, r1, r2
    2d5e:	40c8      	lsrs	r0, r1
    2d60:	f000 0001 	and.w	r0, r0, #1
    2d64:	9000      	str	r0, [sp, #0]
    2d66:	e00e      	b.n	2d86 <FLEXCOMM_PeripheralIsPresent+0x52>
    2d68:	9802      	ldr	r0, [sp, #8]
    2d6a:	b2c0      	uxtb	r0, r0
    2d6c:	2805      	cmp	r0, #5
    2d6e:	d107      	bne.n	2d80 <FLEXCOMM_PeripheralIsPresent+0x4c>
    2d70:	e7ff      	b.n	2d72 <FLEXCOMM_PeripheralIsPresent+0x3e>
    2d72:	9801      	ldr	r0, [sp, #4]
    2d74:	f8d0 0ff8 	ldr.w	r0, [r0, #4088]	; 0xff8
    2d78:	b2c0      	uxtb	r0, r0
    2d7a:	09c0      	lsrs	r0, r0, #7
    2d7c:	9000      	str	r0, [sp, #0]
    2d7e:	e002      	b.n	2d86 <FLEXCOMM_PeripheralIsPresent+0x52>
    2d80:	2000      	movs	r0, #0
    2d82:	9000      	str	r0, [sp, #0]
    2d84:	e7ff      	b.n	2d86 <FLEXCOMM_PeripheralIsPresent+0x52>
    2d86:	9800      	ldr	r0, [sp, #0]
    2d88:	f000 0001 	and.w	r0, r0, #1
    2d8c:	b003      	add	sp, #12
    2d8e:	4770      	bx	lr

00002d90 <USART_Init>:
    2d90:	b5d0      	push	{r4, r6, r7, lr}
    2d92:	af02      	add	r7, sp, #8
    2d94:	b086      	sub	sp, #24
    2d96:	9203      	str	r2, [sp, #12]
    2d98:	9104      	str	r1, [sp, #16]
    2d9a:	9005      	str	r0, [sp, #20]
    2d9c:	b138      	cbz	r0, 2dae <USART_Init+0x1e>
    2d9e:	e7ff      	b.n	2da0 <USART_Init+0x10>
    2da0:	9804      	ldr	r0, [sp, #16]
    2da2:	b120      	cbz	r0, 2dae <USART_Init+0x1e>
    2da4:	e7ff      	b.n	2da6 <USART_Init+0x16>
    2da6:	9803      	ldr	r0, [sp, #12]
    2da8:	b108      	cbz	r0, 2dae <USART_Init+0x1e>
    2daa:	e7ff      	b.n	2dac <USART_Init+0x1c>
    2dac:	e00e      	b.n	2dcc <USART_Init+0x3c>
    2dae:	f249 00b0 	movw	r0, #37040	; 0x90b0
    2db2:	f2c0 0000 	movt	r0, #0
    2db6:	f249 128e 	movw	r2, #37262	; 0x918e
    2dba:	f2c0 0200 	movt	r2, #0
    2dbe:	f249 1399 	movw	r3, #37273	; 0x9199
    2dc2:	f2c0 0300 	movt	r3, #0
    2dc6:	21c6      	movs	r1, #198	; 0xc6
    2dc8:	f002 fa7d 	bl	52c6 <__assert_func>
    2dcc:	9805      	ldr	r0, [sp, #20]
    2dce:	b130      	cbz	r0, 2dde <USART_Init+0x4e>
    2dd0:	e7ff      	b.n	2dd2 <USART_Init+0x42>
    2dd2:	9804      	ldr	r0, [sp, #16]
    2dd4:	b118      	cbz	r0, 2dde <USART_Init+0x4e>
    2dd6:	e7ff      	b.n	2dd8 <USART_Init+0x48>
    2dd8:	9803      	ldr	r0, [sp, #12]
    2dda:	b918      	cbnz	r0, 2de4 <USART_Init+0x54>
    2ddc:	e7ff      	b.n	2dde <USART_Init+0x4e>
    2dde:	2004      	movs	r0, #4
    2de0:	9002      	str	r0, [sp, #8]
    2de2:	e0b6      	b.n	2f52 <USART_Init+0x1c2>
    2de4:	9805      	ldr	r0, [sp, #20]
    2de6:	2101      	movs	r1, #1
    2de8:	f7ff fd32 	bl	2850 <FLEXCOMM_Init>
    2dec:	4601      	mov	r1, r0
    2dee:	9101      	str	r1, [sp, #4]
    2df0:	b118      	cbz	r0, 2dfa <USART_Init+0x6a>
    2df2:	e7ff      	b.n	2df4 <USART_Init+0x64>
    2df4:	9801      	ldr	r0, [sp, #4]
    2df6:	9002      	str	r0, [sp, #8]
    2df8:	e0ab      	b.n	2f52 <USART_Init+0x1c2>
    2dfa:	9804      	ldr	r0, [sp, #16]
    2dfc:	7a40      	ldrb	r0, [r0, #9]
    2dfe:	07c0      	lsls	r0, r0, #31
    2e00:	b1f0      	cbz	r0, 2e40 <USART_Init+0xb0>
    2e02:	e7ff      	b.n	2e04 <USART_Init+0x74>
    2e04:	9905      	ldr	r1, [sp, #20]
    2e06:	9804      	ldr	r0, [sp, #16]
    2e08:	f8d1 2e00 	ldr.w	r2, [r1, #3584]	; 0xe00
    2e0c:	f042 1201 	orr.w	r2, r2, #65537	; 0x10001
    2e10:	f8c1 2e00 	str.w	r2, [r1, #3584]	; 0xe00
    2e14:	f8d1 2e08 	ldr.w	r2, [r1, #3592]	; 0xe08
    2e18:	f422 6270 	bic.w	r2, r2, #3840	; 0xf00
    2e1c:	f8c1 2e08 	str.w	r2, [r1, #3592]	; 0xe08
    2e20:	7b40      	ldrb	r0, [r0, #13]
    2e22:	f000 020f 	and.w	r2, r0, #15
    2e26:	f8d1 0e08 	ldr.w	r0, [r1, #3592]	; 0xe08
    2e2a:	ea40 2002 	orr.w	r0, r0, r2, lsl #8
    2e2e:	f8c1 0e08 	str.w	r0, [r1, #3592]	; 0xe08
    2e32:	f8d1 0e08 	ldr.w	r0, [r1, #3592]	; 0xe08
    2e36:	f040 0001 	orr.w	r0, r0, #1
    2e3a:	f8c1 0e08 	str.w	r0, [r1, #3592]	; 0xe08
    2e3e:	e7ff      	b.n	2e40 <USART_Init+0xb0>
    2e40:	9804      	ldr	r0, [sp, #16]
    2e42:	7a00      	ldrb	r0, [r0, #8]
    2e44:	07c0      	lsls	r0, r0, #31
    2e46:	b1f0      	cbz	r0, 2e86 <USART_Init+0xf6>
    2e48:	e7ff      	b.n	2e4a <USART_Init+0xba>
    2e4a:	9905      	ldr	r1, [sp, #20]
    2e4c:	9804      	ldr	r0, [sp, #16]
    2e4e:	f8d1 2e00 	ldr.w	r2, [r1, #3584]	; 0xe00
    2e52:	f042 1202 	orr.w	r2, r2, #131074	; 0x20002
    2e56:	f8c1 2e00 	str.w	r2, [r1, #3584]	; 0xe00
    2e5a:	f8d1 2e08 	ldr.w	r2, [r1, #3592]	; 0xe08
    2e5e:	f422 2270 	bic.w	r2, r2, #983040	; 0xf0000
    2e62:	f8c1 2e08 	str.w	r2, [r1, #3592]	; 0xe08
    2e66:	7b80      	ldrb	r0, [r0, #14]
    2e68:	f000 020f 	and.w	r2, r0, #15
    2e6c:	f8d1 0e08 	ldr.w	r0, [r1, #3592]	; 0xe08
    2e70:	ea40 4002 	orr.w	r0, r0, r2, lsl #16
    2e74:	f8c1 0e08 	str.w	r0, [r1, #3592]	; 0xe08
    2e78:	f8d1 0e08 	ldr.w	r0, [r1, #3592]	; 0xe08
    2e7c:	f040 0002 	orr.w	r0, r0, #2
    2e80:	f8c1 0e08 	str.w	r0, [r1, #3592]	; 0xe08
    2e84:	e7ff      	b.n	2e86 <USART_Init+0xf6>
    2e86:	9804      	ldr	r0, [sp, #16]
    2e88:	9a05      	ldr	r2, [sp, #20]
    2e8a:	f890 e004 	ldrb.w	lr, [r0, #4]
    2e8e:	7944      	ldrb	r4, [r0, #5]
    2e90:	f890 c006 	ldrb.w	ip, [r0, #6]
    2e94:	79c3      	ldrb	r3, [r0, #7]
    2e96:	2140      	movs	r1, #64	; 0x40
    2e98:	ea01 1184 	and.w	r1, r1, r4, lsl #6
    2e9c:	f36e 1105 	bfi	r1, lr, #4, #2
    2ea0:	f00c 0c03 	and.w	ip, ip, #3
    2ea4:	ea41 018c 	orr.w	r1, r1, ip, lsl #2
    2ea8:	f003 0301 	and.w	r3, r3, #1
    2eac:	ea41 31c3 	orr.w	r1, r1, r3, lsl #15
    2eb0:	7bc3      	ldrb	r3, [r0, #15]
    2eb2:	f003 0c02 	and.w	ip, r3, #2
    2eb6:	ea41 218c 	orr.w	r1, r1, ip, lsl #10
    2eba:	f003 0301 	and.w	r3, r3, #1
    2ebe:	ea41 3183 	orr.w	r1, r1, r3, lsl #14
    2ec2:	7c03      	ldrb	r3, [r0, #16]
    2ec4:	f003 0301 	and.w	r3, r3, #1
    2ec8:	ea41 3103 	orr.w	r1, r1, r3, lsl #12
    2ecc:	7ac3      	ldrb	r3, [r0, #11]
    2ece:	f003 0301 	and.w	r3, r3, #1
    2ed2:	ea41 11c3 	orr.w	r1, r1, r3, lsl #7
    2ed6:	7b03      	ldrb	r3, [r0, #12]
    2ed8:	f003 0301 	and.w	r3, r3, #1
    2edc:	ea41 2143 	orr.w	r1, r1, r3, lsl #9
    2ee0:	f041 0101 	orr.w	r1, r1, #1
    2ee4:	6011      	str	r1, [r2, #0]
    2ee6:	7ac0      	ldrb	r0, [r0, #11]
    2ee8:	07c0      	lsls	r0, r0, #31
    2eea:	b1d0      	cbz	r0, 2f22 <USART_Init+0x192>
    2eec:	e7ff      	b.n	2eee <USART_Init+0x15e>
    2eee:	9804      	ldr	r0, [sp, #16]
    2ef0:	6801      	ldr	r1, [r0, #0]
    2ef2:	f44f 5016 	mov.w	r0, #9600	; 0x2580
    2ef6:	fbb0 f0f1 	udiv	r0, r0, r1
    2efa:	4348      	muls	r0, r1
    2efc:	f5c0 5016 	rsb	r0, r0, #9600	; 0x2580
    2f00:	b950      	cbnz	r0, 2f18 <USART_Init+0x188>
    2f02:	e7ff      	b.n	2f04 <USART_Init+0x174>
    2f04:	9905      	ldr	r1, [sp, #20]
    2f06:	9804      	ldr	r0, [sp, #16]
    2f08:	6802      	ldr	r2, [r0, #0]
    2f0a:	f44f 5016 	mov.w	r0, #9600	; 0x2580
    2f0e:	fbb0 f0f2 	udiv	r0, r0, r2
    2f12:	3801      	subs	r0, #1
    2f14:	6208      	str	r0, [r1, #32]
    2f16:	e003      	b.n	2f20 <USART_Init+0x190>
    2f18:	f241 6051 	movw	r0, #5713	; 0x1651
    2f1c:	9002      	str	r0, [sp, #8]
    2f1e:	e018      	b.n	2f52 <USART_Init+0x1c2>
    2f20:	e00d      	b.n	2f3e <USART_Init+0x1ae>
    2f22:	9a03      	ldr	r2, [sp, #12]
    2f24:	9805      	ldr	r0, [sp, #20]
    2f26:	9904      	ldr	r1, [sp, #16]
    2f28:	6809      	ldr	r1, [r1, #0]
    2f2a:	f000 f815 	bl	2f58 <USART_SetBaudRate>
    2f2e:	4601      	mov	r1, r0
    2f30:	9100      	str	r1, [sp, #0]
    2f32:	b118      	cbz	r0, 2f3c <USART_Init+0x1ac>
    2f34:	e7ff      	b.n	2f36 <USART_Init+0x1a6>
    2f36:	9800      	ldr	r0, [sp, #0]
    2f38:	9002      	str	r0, [sp, #8]
    2f3a:	e00a      	b.n	2f52 <USART_Init+0x1c2>
    2f3c:	e7ff      	b.n	2f3e <USART_Init+0x1ae>
    2f3e:	9805      	ldr	r0, [sp, #20]
    2f40:	9904      	ldr	r1, [sp, #16]
    2f42:	7a89      	ldrb	r1, [r1, #10]
    2f44:	f001 0101 	and.w	r1, r1, #1
    2f48:	f000 f900 	bl	314c <USART_EnableContinuousSCLK>
    2f4c:	2000      	movs	r0, #0
    2f4e:	9002      	str	r0, [sp, #8]
    2f50:	e7ff      	b.n	2f52 <USART_Init+0x1c2>
    2f52:	9802      	ldr	r0, [sp, #8]
    2f54:	b006      	add	sp, #24
    2f56:	bdd0      	pop	{r4, r6, r7, pc}

00002f58 <USART_SetBaudRate>:
    2f58:	b580      	push	{r7, lr}
    2f5a:	466f      	mov	r7, sp
    2f5c:	b09a      	sub	sp, #104	; 0x68
    2f5e:	9217      	str	r2, [sp, #92]	; 0x5c
    2f60:	9118      	str	r1, [sp, #96]	; 0x60
    2f62:	9019      	str	r0, [sp, #100]	; 0x64
    2f64:	b138      	cbz	r0, 2f76 <USART_SetBaudRate+0x1e>
    2f66:	e7ff      	b.n	2f68 <USART_SetBaudRate+0x10>
    2f68:	9818      	ldr	r0, [sp, #96]	; 0x60
    2f6a:	b120      	cbz	r0, 2f76 <USART_SetBaudRate+0x1e>
    2f6c:	e7ff      	b.n	2f6e <USART_SetBaudRate+0x16>
    2f6e:	9817      	ldr	r0, [sp, #92]	; 0x5c
    2f70:	b108      	cbz	r0, 2f76 <USART_SetBaudRate+0x1e>
    2f72:	e7ff      	b.n	2f74 <USART_SetBaudRate+0x1c>
    2f74:	e00f      	b.n	2f96 <USART_SetBaudRate+0x3e>
    2f76:	f249 00b0 	movw	r0, #37040	; 0x90b0
    2f7a:	f2c0 0000 	movt	r0, #0
    2f7e:	f249 2209 	movw	r2, #37385	; 0x9209
    2f82:	f2c0 0200 	movt	r2, #0
    2f86:	f249 231b 	movw	r3, #37403	; 0x921b
    2f8a:	f2c0 0300 	movt	r3, #0
    2f8e:	f240 11af 	movw	r1, #431	; 0x1af
    2f92:	f002 f998 	bl	52c6 <__assert_func>
    2f96:	9819      	ldr	r0, [sp, #100]	; 0x64
    2f98:	b130      	cbz	r0, 2fa8 <USART_SetBaudRate+0x50>
    2f9a:	e7ff      	b.n	2f9c <USART_SetBaudRate+0x44>
    2f9c:	9818      	ldr	r0, [sp, #96]	; 0x60
    2f9e:	b118      	cbz	r0, 2fa8 <USART_SetBaudRate+0x50>
    2fa0:	e7ff      	b.n	2fa2 <USART_SetBaudRate+0x4a>
    2fa2:	9817      	ldr	r0, [sp, #92]	; 0x5c
    2fa4:	b918      	cbnz	r0, 2fae <USART_SetBaudRate+0x56>
    2fa6:	e7ff      	b.n	2fa8 <USART_SetBaudRate+0x50>
    2fa8:	2004      	movs	r0, #4
    2faa:	9016      	str	r0, [sp, #88]	; 0x58
    2fac:	e0cb      	b.n	3146 <USART_SetBaudRate+0x1ee>
    2fae:	9819      	ldr	r0, [sp, #100]	; 0x64
    2fb0:	6800      	ldr	r0, [r0, #0]
    2fb2:	0500      	lsls	r0, r0, #20
    2fb4:	2800      	cmp	r0, #0
    2fb6:	d50f      	bpl.n	2fd8 <USART_SetBaudRate+0x80>
    2fb8:	e7ff      	b.n	2fba <USART_SetBaudRate+0x62>
    2fba:	9819      	ldr	r0, [sp, #100]	; 0x64
    2fbc:	6800      	ldr	r0, [r0, #0]
    2fbe:	0440      	lsls	r0, r0, #17
    2fc0:	2800      	cmp	r0, #0
    2fc2:	d508      	bpl.n	2fd6 <USART_SetBaudRate+0x7e>
    2fc4:	e7ff      	b.n	2fc6 <USART_SetBaudRate+0x6e>
    2fc6:	9919      	ldr	r1, [sp, #100]	; 0x64
    2fc8:	9817      	ldr	r0, [sp, #92]	; 0x5c
    2fca:	9a18      	ldr	r2, [sp, #96]	; 0x60
    2fcc:	fbb0 f0f2 	udiv	r0, r0, r2
    2fd0:	3801      	subs	r0, #1
    2fd2:	6208      	str	r0, [r1, #32]
    2fd4:	e7ff      	b.n	2fd6 <USART_SetBaudRate+0x7e>
    2fd6:	e0b3      	b.n	3140 <USART_SetBaudRate+0x1e8>
    2fd8:	9818      	ldr	r0, [sp, #96]	; 0x60
    2fda:	f248 511f 	movw	r1, #34079	; 0x851f
    2fde:	f2c5 11eb 	movt	r1, #20971	; 0x51eb
    2fe2:	fba0 1001 	umull	r1, r0, r0, r1
    2fe6:	0940      	lsrs	r0, r0, #5
    2fe8:	eb00 0240 	add.w	r2, r0, r0, lsl #1
    2fec:	f04f 30ff 	mov.w	r0, #4294967295	; 0xffffffff
    2ff0:	210f      	movs	r1, #15
    2ff2:	9211      	str	r2, [sp, #68]	; 0x44
    2ff4:	460a      	mov	r2, r1
    2ff6:	9212      	str	r2, [sp, #72]	; 0x48
    2ff8:	4602      	mov	r2, r0
    2ffa:	9213      	str	r2, [sp, #76]	; 0x4c
    2ffc:	9114      	str	r1, [sp, #80]	; 0x50
    2ffe:	9015      	str	r0, [sp, #84]	; 0x54
    3000:	e7ff      	b.n	3002 <USART_SetBaudRate+0xaa>
    3002:	9812      	ldr	r0, [sp, #72]	; 0x48
    3004:	9913      	ldr	r1, [sp, #76]	; 0x4c
    3006:	9a14      	ldr	r2, [sp, #80]	; 0x50
    3008:	9b15      	ldr	r3, [sp, #84]	; 0x54
    300a:	930d      	str	r3, [sp, #52]	; 0x34
    300c:	920e      	str	r2, [sp, #56]	; 0x38
    300e:	910f      	str	r1, [sp, #60]	; 0x3c
    3010:	9010      	str	r0, [sp, #64]	; 0x40
    3012:	2804      	cmp	r0, #4
    3014:	d364      	bcc.n	30e0 <USART_SetBaudRate+0x188>
    3016:	e7ff      	b.n	3018 <USART_SetBaudRate+0xc0>
    3018:	9810      	ldr	r0, [sp, #64]	; 0x40
    301a:	2808      	cmp	r0, #8
    301c:	d806      	bhi.n	302c <USART_SetBaudRate+0xd4>
    301e:	e7ff      	b.n	3020 <USART_SetBaudRate+0xc8>
    3020:	980d      	ldr	r0, [sp, #52]	; 0x34
    3022:	9911      	ldr	r1, [sp, #68]	; 0x44
    3024:	4288      	cmp	r0, r1
    3026:	d801      	bhi.n	302c <USART_SetBaudRate+0xd4>
    3028:	e7ff      	b.n	302a <USART_SetBaudRate+0xd2>
    302a:	e059      	b.n	30e0 <USART_SetBaudRate+0x188>
    302c:	9a18      	ldr	r2, [sp, #96]	; 0x60
    302e:	9910      	ldr	r1, [sp, #64]	; 0x40
    3030:	9817      	ldr	r0, [sp, #92]	; 0x5c
    3032:	eb00 0080 	add.w	r0, r0, r0, lsl #2
    3036:	0040      	lsls	r0, r0, #1
    3038:	3101      	adds	r1, #1
    303a:	4351      	muls	r1, r2
    303c:	fbb0 f0f1 	udiv	r0, r0, r1
    3040:	3805      	subs	r0, #5
    3042:	f64c 41cd 	movw	r1, #52429	; 0xcccd
    3046:	f6cc 41cc 	movt	r1, #52428	; 0xcccc
    304a:	fba0 1001 	umull	r1, r0, r0, r1
    304e:	08c0      	lsrs	r0, r0, #3
    3050:	4601      	mov	r1, r0
    3052:	910c      	str	r1, [sp, #48]	; 0x30
    3054:	f5b0 3f80 	cmp.w	r0, #65536	; 0x10000
    3058:	d307      	bcc.n	306a <USART_SetBaudRate+0x112>
    305a:	e7ff      	b.n	305c <USART_SetBaudRate+0x104>
    305c:	980d      	ldr	r0, [sp, #52]	; 0x34
    305e:	990e      	ldr	r1, [sp, #56]	; 0x38
    3060:	9a0f      	ldr	r2, [sp, #60]	; 0x3c
    3062:	9209      	str	r2, [sp, #36]	; 0x24
    3064:	910a      	str	r1, [sp, #40]	; 0x28
    3066:	900b      	str	r0, [sp, #44]	; 0x2c
    3068:	e030      	b.n	30cc <USART_SetBaudRate+0x174>
    306a:	9818      	ldr	r0, [sp, #96]	; 0x60
    306c:	9917      	ldr	r1, [sp, #92]	; 0x5c
    306e:	9b0c      	ldr	r3, [sp, #48]	; 0x30
    3070:	9a10      	ldr	r2, [sp, #64]	; 0x40
    3072:	3201      	adds	r2, #1
    3074:	3301      	adds	r3, #1
    3076:	435a      	muls	r2, r3
    3078:	fbb1 f1f2 	udiv	r1, r1, r2
    307c:	460a      	mov	r2, r1
    307e:	9208      	str	r2, [sp, #32]
    3080:	4288      	cmp	r0, r1
    3082:	d205      	bcs.n	3090 <USART_SetBaudRate+0x138>
    3084:	e7ff      	b.n	3086 <USART_SetBaudRate+0x12e>
    3086:	9808      	ldr	r0, [sp, #32]
    3088:	9918      	ldr	r1, [sp, #96]	; 0x60
    308a:	1a40      	subs	r0, r0, r1
    308c:	9007      	str	r0, [sp, #28]
    308e:	e004      	b.n	309a <USART_SetBaudRate+0x142>
    3090:	9818      	ldr	r0, [sp, #96]	; 0x60
    3092:	9908      	ldr	r1, [sp, #32]
    3094:	1a40      	subs	r0, r0, r1
    3096:	9007      	str	r0, [sp, #28]
    3098:	e7ff      	b.n	309a <USART_SetBaudRate+0x142>
    309a:	980d      	ldr	r0, [sp, #52]	; 0x34
    309c:	990e      	ldr	r1, [sp, #56]	; 0x38
    309e:	9a0f      	ldr	r2, [sp, #60]	; 0x3c
    30a0:	9b07      	ldr	r3, [sp, #28]
    30a2:	9303      	str	r3, [sp, #12]
    30a4:	4283      	cmp	r3, r0
    30a6:	9204      	str	r2, [sp, #16]
    30a8:	9105      	str	r1, [sp, #20]
    30aa:	9006      	str	r0, [sp, #24]
    30ac:	d207      	bcs.n	30be <USART_SetBaudRate+0x166>
    30ae:	e7ff      	b.n	30b0 <USART_SetBaudRate+0x158>
    30b0:	9803      	ldr	r0, [sp, #12]
    30b2:	9910      	ldr	r1, [sp, #64]	; 0x40
    30b4:	9a0c      	ldr	r2, [sp, #48]	; 0x30
    30b6:	9204      	str	r2, [sp, #16]
    30b8:	9105      	str	r1, [sp, #20]
    30ba:	9006      	str	r0, [sp, #24]
    30bc:	e7ff      	b.n	30be <USART_SetBaudRate+0x166>
    30be:	9a04      	ldr	r2, [sp, #16]
    30c0:	9905      	ldr	r1, [sp, #20]
    30c2:	9806      	ldr	r0, [sp, #24]
    30c4:	9209      	str	r2, [sp, #36]	; 0x24
    30c6:	910a      	str	r1, [sp, #40]	; 0x28
    30c8:	900b      	str	r0, [sp, #44]	; 0x2c
    30ca:	e7ff      	b.n	30cc <USART_SetBaudRate+0x174>
    30cc:	9b10      	ldr	r3, [sp, #64]	; 0x40
    30ce:	9a09      	ldr	r2, [sp, #36]	; 0x24
    30d0:	990a      	ldr	r1, [sp, #40]	; 0x28
    30d2:	980b      	ldr	r0, [sp, #44]	; 0x2c
    30d4:	3b01      	subs	r3, #1
    30d6:	9312      	str	r3, [sp, #72]	; 0x48
    30d8:	9213      	str	r2, [sp, #76]	; 0x4c
    30da:	9114      	str	r1, [sp, #80]	; 0x50
    30dc:	9015      	str	r0, [sp, #84]	; 0x54
    30de:	e790      	b.n	3002 <USART_SetBaudRate+0xaa>
    30e0:	9818      	ldr	r0, [sp, #96]	; 0x60
    30e2:	9917      	ldr	r1, [sp, #92]	; 0x5c
    30e4:	9b0f      	ldr	r3, [sp, #60]	; 0x3c
    30e6:	9a0e      	ldr	r2, [sp, #56]	; 0x38
    30e8:	3201      	adds	r2, #1
    30ea:	3301      	adds	r3, #1
    30ec:	435a      	muls	r2, r3
    30ee:	fbb1 f1f2 	udiv	r1, r1, r2
    30f2:	460a      	mov	r2, r1
    30f4:	9202      	str	r2, [sp, #8]
    30f6:	4288      	cmp	r0, r1
    30f8:	d205      	bcs.n	3106 <USART_SetBaudRate+0x1ae>
    30fa:	e7ff      	b.n	30fc <USART_SetBaudRate+0x1a4>
    30fc:	9802      	ldr	r0, [sp, #8]
    30fe:	9918      	ldr	r1, [sp, #96]	; 0x60
    3100:	1a40      	subs	r0, r0, r1
    3102:	9001      	str	r0, [sp, #4]
    3104:	e004      	b.n	3110 <USART_SetBaudRate+0x1b8>
    3106:	9818      	ldr	r0, [sp, #96]	; 0x60
    3108:	9902      	ldr	r1, [sp, #8]
    310a:	1a40      	subs	r0, r0, r1
    310c:	9001      	str	r0, [sp, #4]
    310e:	e7ff      	b.n	3110 <USART_SetBaudRate+0x1b8>
    3110:	9911      	ldr	r1, [sp, #68]	; 0x44
    3112:	9801      	ldr	r0, [sp, #4]
    3114:	4288      	cmp	r0, r1
    3116:	d904      	bls.n	3122 <USART_SetBaudRate+0x1ca>
    3118:	e7ff      	b.n	311a <USART_SetBaudRate+0x1c2>
    311a:	f241 6051 	movw	r0, #5713	; 0x1651
    311e:	9016      	str	r0, [sp, #88]	; 0x58
    3120:	e011      	b.n	3146 <USART_SetBaudRate+0x1ee>
    3122:	980f      	ldr	r0, [sp, #60]	; 0x3c
    3124:	f5b0 3f80 	cmp.w	r0, #65536	; 0x10000
    3128:	d304      	bcc.n	3134 <USART_SetBaudRate+0x1dc>
    312a:	e7ff      	b.n	312c <USART_SetBaudRate+0x1d4>
    312c:	f241 6051 	movw	r0, #5713	; 0x1651
    3130:	9016      	str	r0, [sp, #88]	; 0x58
    3132:	e008      	b.n	3146 <USART_SetBaudRate+0x1ee>
    3134:	980f      	ldr	r0, [sp, #60]	; 0x3c
    3136:	9919      	ldr	r1, [sp, #100]	; 0x64
    3138:	9a0e      	ldr	r2, [sp, #56]	; 0x38
    313a:	628a      	str	r2, [r1, #40]	; 0x28
    313c:	6208      	str	r0, [r1, #32]
    313e:	e7ff      	b.n	3140 <USART_SetBaudRate+0x1e8>
    3140:	2000      	movs	r0, #0
    3142:	9016      	str	r0, [sp, #88]	; 0x58
    3144:	e7ff      	b.n	3146 <USART_SetBaudRate+0x1ee>
    3146:	9816      	ldr	r0, [sp, #88]	; 0x58
    3148:	b01a      	add	sp, #104	; 0x68
    314a:	bd80      	pop	{r7, pc}

0000314c <USART_EnableContinuousSCLK>:
    314c:	b081      	sub	sp, #4
    314e:	9000      	str	r0, [sp, #0]
    3150:	b131      	cbz	r1, 3160 <USART_EnableContinuousSCLK+0x14>
    3152:	e7ff      	b.n	3154 <USART_EnableContinuousSCLK+0x8>
    3154:	9900      	ldr	r1, [sp, #0]
    3156:	6848      	ldr	r0, [r1, #4]
    3158:	f440 7080 	orr.w	r0, r0, #256	; 0x100
    315c:	6048      	str	r0, [r1, #4]
    315e:	e005      	b.n	316c <USART_EnableContinuousSCLK+0x20>
    3160:	9900      	ldr	r1, [sp, #0]
    3162:	6848      	ldr	r0, [r1, #4]
    3164:	f420 7080 	bic.w	r0, r0, #256	; 0x100
    3168:	6048      	str	r0, [r1, #4]
    316a:	e7ff      	b.n	316c <USART_EnableContinuousSCLK+0x20>
    316c:	b001      	add	sp, #4
    316e:	4770      	bx	lr

00003170 <USART_GetDefaultConfig>:
    3170:	b580      	push	{r7, lr}
    3172:	466f      	mov	r7, sp
    3174:	b082      	sub	sp, #8
    3176:	9001      	str	r0, [sp, #4]
    3178:	b108      	cbz	r0, 317e <USART_GetDefaultConfig+0xe>
    317a:	e7ff      	b.n	317c <USART_GetDefaultConfig+0xc>
    317c:	e00f      	b.n	319e <USART_GetDefaultConfig+0x2e>
    317e:	f249 00b0 	movw	r0, #37040	; 0x90b0
    3182:	f2c0 0000 	movt	r0, #0
    3186:	f249 12e3 	movw	r2, #37347	; 0x91e3
    318a:	f2c0 0200 	movt	r2, #0
    318e:	f249 13fa 	movw	r3, #37370	; 0x91fa
    3192:	f2c0 0300 	movt	r3, #0
    3196:	f44f 719b 	mov.w	r1, #310	; 0x136
    319a:	f002 f894 	bl	52c6 <__assert_func>
    319e:	9801      	ldr	r0, [sp, #4]
    31a0:	2100      	movs	r1, #0
    31a2:	9100      	str	r1, [sp, #0]
    31a4:	2214      	movs	r2, #20
    31a6:	f005 fc31 	bl	8a0c <memset>
    31aa:	9901      	ldr	r1, [sp, #4]
    31ac:	9800      	ldr	r0, [sp, #0]
    31ae:	f44f 32e1 	mov.w	r2, #115200	; 0x1c200
    31b2:	600a      	str	r2, [r1, #0]
    31b4:	7108      	strb	r0, [r1, #4]
    31b6:	7148      	strb	r0, [r1, #5]
    31b8:	2201      	movs	r2, #1
    31ba:	718a      	strb	r2, [r1, #6]
    31bc:	71c8      	strb	r0, [r1, #7]
    31be:	7208      	strb	r0, [r1, #8]
    31c0:	7248      	strb	r0, [r1, #9]
    31c2:	72c8      	strb	r0, [r1, #11]
    31c4:	7348      	strb	r0, [r1, #13]
    31c6:	7388      	strb	r0, [r1, #14]
    31c8:	73c8      	strb	r0, [r1, #15]
    31ca:	7288      	strb	r0, [r1, #10]
    31cc:	7408      	strb	r0, [r1, #16]
    31ce:	7308      	strb	r0, [r1, #12]
    31d0:	b002      	add	sp, #8
    31d2:	bd80      	pop	{r7, pc}

000031d4 <USART_WriteBlocking>:
    31d4:	b580      	push	{r7, lr}
    31d6:	466f      	mov	r7, sp
    31d8:	b08a      	sub	sp, #40	; 0x28
    31da:	9207      	str	r2, [sp, #28]
    31dc:	9108      	str	r1, [sp, #32]
    31de:	9009      	str	r0, [sp, #36]	; 0x24
    31e0:	b120      	cbz	r0, 31ec <USART_WriteBlocking+0x18>
    31e2:	e7ff      	b.n	31e4 <USART_WriteBlocking+0x10>
    31e4:	9808      	ldr	r0, [sp, #32]
    31e6:	b108      	cbz	r0, 31ec <USART_WriteBlocking+0x18>
    31e8:	e7ff      	b.n	31ea <USART_WriteBlocking+0x16>
    31ea:	e00f      	b.n	320c <USART_WriteBlocking+0x38>
    31ec:	f249 00b0 	movw	r0, #37040	; 0x90b0
    31f0:	f2c0 0000 	movt	r0, #0
    31f4:	f249 2283 	movw	r2, #37507	; 0x9283
    31f8:	f2c0 0200 	movt	r2, #0
    31fc:	f249 2397 	movw	r3, #37527	; 0x9297
    3200:	f2c0 0300 	movt	r3, #0
    3204:	f240 215b 	movw	r1, #603	; 0x25b
    3208:	f002 f85d 	bl	52c6 <__assert_func>
    320c:	9809      	ldr	r0, [sp, #36]	; 0x24
    320e:	b118      	cbz	r0, 3218 <USART_WriteBlocking+0x44>
    3210:	e7ff      	b.n	3212 <USART_WriteBlocking+0x3e>
    3212:	9808      	ldr	r0, [sp, #32]
    3214:	b918      	cbnz	r0, 321e <USART_WriteBlocking+0x4a>
    3216:	e7ff      	b.n	3218 <USART_WriteBlocking+0x44>
    3218:	2004      	movs	r0, #4
    321a:	9006      	str	r0, [sp, #24]
    321c:	e035      	b.n	328a <USART_WriteBlocking+0xb6>
    321e:	9809      	ldr	r0, [sp, #36]	; 0x24
    3220:	f8d0 0e00 	ldr.w	r0, [r0, #3584]	; 0xe00
    3224:	07c0      	lsls	r0, r0, #31
    3226:	b918      	cbnz	r0, 3230 <USART_WriteBlocking+0x5c>
    3228:	e7ff      	b.n	322a <USART_WriteBlocking+0x56>
    322a:	2004      	movs	r0, #4
    322c:	9006      	str	r0, [sp, #24]
    322e:	e02c      	b.n	328a <USART_WriteBlocking+0xb6>
    3230:	9807      	ldr	r0, [sp, #28]
    3232:	9908      	ldr	r1, [sp, #32]
    3234:	9104      	str	r1, [sp, #16]
    3236:	9005      	str	r0, [sp, #20]
    3238:	e7ff      	b.n	323a <USART_WriteBlocking+0x66>
    323a:	9904      	ldr	r1, [sp, #16]
    323c:	9805      	ldr	r0, [sp, #20]
    323e:	9002      	str	r0, [sp, #8]
    3240:	9103      	str	r1, [sp, #12]
    3242:	b1b8      	cbz	r0, 3274 <USART_WriteBlocking+0xa0>
    3244:	e7ff      	b.n	3246 <USART_WriteBlocking+0x72>
    3246:	e7ff      	b.n	3248 <USART_WriteBlocking+0x74>
    3248:	9809      	ldr	r0, [sp, #36]	; 0x24
    324a:	f8d0 0e04 	ldr.w	r0, [r0, #3588]	; 0xe04
    324e:	0680      	lsls	r0, r0, #26
    3250:	2800      	cmp	r0, #0
    3252:	d401      	bmi.n	3258 <USART_WriteBlocking+0x84>
    3254:	e7ff      	b.n	3256 <USART_WriteBlocking+0x82>
    3256:	e7f7      	b.n	3248 <USART_WriteBlocking+0x74>
    3258:	9909      	ldr	r1, [sp, #36]	; 0x24
    325a:	9a03      	ldr	r2, [sp, #12]
    325c:	f812 0b01 	ldrb.w	r0, [r2], #1
    3260:	9201      	str	r2, [sp, #4]
    3262:	f8c1 0e20 	str.w	r0, [r1, #3616]	; 0xe20
    3266:	e7ff      	b.n	3268 <USART_WriteBlocking+0x94>
    3268:	9901      	ldr	r1, [sp, #4]
    326a:	9802      	ldr	r0, [sp, #8]
    326c:	3801      	subs	r0, #1
    326e:	9104      	str	r1, [sp, #16]
    3270:	9005      	str	r0, [sp, #20]
    3272:	e7e2      	b.n	323a <USART_WriteBlocking+0x66>
    3274:	e7ff      	b.n	3276 <USART_WriteBlocking+0xa2>
    3276:	9809      	ldr	r0, [sp, #36]	; 0x24
    3278:	6880      	ldr	r0, [r0, #8]
    327a:	0700      	lsls	r0, r0, #28
    327c:	2800      	cmp	r0, #0
    327e:	d401      	bmi.n	3284 <USART_WriteBlocking+0xb0>
    3280:	e7ff      	b.n	3282 <USART_WriteBlocking+0xae>
    3282:	e7f8      	b.n	3276 <USART_WriteBlocking+0xa2>
    3284:	2000      	movs	r0, #0
    3286:	9006      	str	r0, [sp, #24]
    3288:	e7ff      	b.n	328a <USART_WriteBlocking+0xb6>
    328a:	9806      	ldr	r0, [sp, #24]
    328c:	b00a      	add	sp, #40	; 0x28
    328e:	bd80      	pop	{r7, pc}

00003290 <SPI_GetInstance>:
    3290:	b580      	push	{r7, lr}
    3292:	466f      	mov	r7, sp
    3294:	b084      	sub	sp, #16
    3296:	9002      	str	r0, [sp, #8]
    3298:	2000      	movs	r0, #0
    329a:	9003      	str	r0, [sp, #12]
    329c:	e7ff      	b.n	329e <SPI_GetInstance+0xe>
    329e:	9803      	ldr	r0, [sp, #12]
    32a0:	9001      	str	r0, [sp, #4]
    32a2:	2808      	cmp	r0, #8
    32a4:	d811      	bhi.n	32ca <SPI_GetInstance+0x3a>
    32a6:	e7ff      	b.n	32a8 <SPI_GetInstance+0x18>
    32a8:	9802      	ldr	r0, [sp, #8]
    32aa:	9a01      	ldr	r2, [sp, #4]
    32ac:	f249 41c4 	movw	r1, #38084	; 0x94c4
    32b0:	f2c0 0100 	movt	r1, #0
    32b4:	f851 1022 	ldr.w	r1, [r1, r2, lsl #2]
    32b8:	4288      	cmp	r0, r1
    32ba:	d101      	bne.n	32c0 <SPI_GetInstance+0x30>
    32bc:	e7ff      	b.n	32be <SPI_GetInstance+0x2e>
    32be:	e004      	b.n	32ca <SPI_GetInstance+0x3a>
    32c0:	e7ff      	b.n	32c2 <SPI_GetInstance+0x32>
    32c2:	9801      	ldr	r0, [sp, #4]
    32c4:	3001      	adds	r0, #1
    32c6:	9003      	str	r0, [sp, #12]
    32c8:	e7e9      	b.n	329e <SPI_GetInstance+0xe>
    32ca:	9801      	ldr	r0, [sp, #4]
    32cc:	2808      	cmp	r0, #8
    32ce:	d801      	bhi.n	32d4 <SPI_GetInstance+0x44>
    32d0:	e7ff      	b.n	32d2 <SPI_GetInstance+0x42>
    32d2:	e00e      	b.n	32f2 <SPI_GetInstance+0x62>
    32d4:	f249 40e8 	movw	r0, #38120	; 0x94e8
    32d8:	f2c0 0000 	movt	r0, #0
    32dc:	f249 42fa 	movw	r2, #38138	; 0x94fa
    32e0:	f2c0 0200 	movt	r2, #0
    32e4:	f249 530a 	movw	r3, #38154	; 0x950a
    32e8:	f2c0 0300 	movt	r3, #0
    32ec:	2156      	movs	r1, #86	; 0x56
    32ee:	f001 ffea 	bl	52c6 <__assert_func>
    32f2:	9801      	ldr	r0, [sp, #4]
    32f4:	b004      	add	sp, #16
    32f6:	bd80      	pop	{r7, pc}

000032f8 <SPI_SetDummyData>:
    32f8:	b580      	push	{r7, lr}
    32fa:	466f      	mov	r7, sp
    32fc:	b082      	sub	sp, #8
    32fe:	9101      	str	r1, [sp, #4]
    3300:	f7ff ffc6 	bl	3290 <SPI_GetInstance>
    3304:	9901      	ldr	r1, [sp, #4]
    3306:	4602      	mov	r2, r0
    3308:	f240 40cc 	movw	r0, #1228	; 0x4cc
    330c:	f2c2 0000 	movt	r0, #8192	; 0x2000
    3310:	5481      	strb	r1, [r0, r2]
    3312:	b002      	add	sp, #8
    3314:	bd80      	pop	{r7, pc}

00003316 <SPI_MasterInit>:
    3316:	b5b0      	push	{r4, r5, r7, lr}
    3318:	af02      	add	r7, sp, #8
    331a:	b088      	sub	sp, #32
    331c:	9205      	str	r2, [sp, #20]
    331e:	9106      	str	r1, [sp, #24]
    3320:	9007      	str	r0, [sp, #28]
    3322:	b138      	cbz	r0, 3334 <SPI_MasterInit+0x1e>
    3324:	e7ff      	b.n	3326 <SPI_MasterInit+0x10>
    3326:	9806      	ldr	r0, [sp, #24]
    3328:	b120      	cbz	r0, 3334 <SPI_MasterInit+0x1e>
    332a:	e7ff      	b.n	332c <SPI_MasterInit+0x16>
    332c:	9805      	ldr	r0, [sp, #20]
    332e:	b108      	cbz	r0, 3334 <SPI_MasterInit+0x1e>
    3330:	e7ff      	b.n	3332 <SPI_MasterInit+0x1c>
    3332:	e00e      	b.n	3352 <SPI_MasterInit+0x3c>
    3334:	f249 40e8 	movw	r0, #38120	; 0x94e8
    3338:	f2c0 0000 	movt	r0, #0
    333c:	f249 524d 	movw	r2, #38221	; 0x954d
    3340:	f2c0 0200 	movt	r2, #0
    3344:	f249 1399 	movw	r3, #37273	; 0x9199
    3348:	f2c0 0300 	movt	r3, #0
    334c:	21b4      	movs	r1, #180	; 0xb4
    334e:	f001 ffba 	bl	52c6 <__assert_func>
    3352:	9807      	ldr	r0, [sp, #28]
    3354:	b130      	cbz	r0, 3364 <SPI_MasterInit+0x4e>
    3356:	e7ff      	b.n	3358 <SPI_MasterInit+0x42>
    3358:	9806      	ldr	r0, [sp, #24]
    335a:	b118      	cbz	r0, 3364 <SPI_MasterInit+0x4e>
    335c:	e7ff      	b.n	335e <SPI_MasterInit+0x48>
    335e:	9805      	ldr	r0, [sp, #20]
    3360:	b918      	cbnz	r0, 336a <SPI_MasterInit+0x54>
    3362:	e7ff      	b.n	3364 <SPI_MasterInit+0x4e>
    3364:	2004      	movs	r0, #4
    3366:	9004      	str	r0, [sp, #16]
    3368:	e07c      	b.n	3464 <SPI_MasterInit+0x14e>
    336a:	9807      	ldr	r0, [sp, #28]
    336c:	2102      	movs	r1, #2
    336e:	f7ff fa6f 	bl	2850 <FLEXCOMM_Init>
    3372:	4601      	mov	r1, r0
    3374:	9103      	str	r1, [sp, #12]
    3376:	b118      	cbz	r0, 3380 <SPI_MasterInit+0x6a>
    3378:	e7ff      	b.n	337a <SPI_MasterInit+0x64>
    337a:	9803      	ldr	r0, [sp, #12]
    337c:	9004      	str	r0, [sp, #16]
    337e:	e071      	b.n	3464 <SPI_MasterInit+0x14e>
    3380:	9a05      	ldr	r2, [sp, #20]
    3382:	9807      	ldr	r0, [sp, #28]
    3384:	9906      	ldr	r1, [sp, #24]
    3386:	6889      	ldr	r1, [r1, #8]
    3388:	f000 f86f 	bl	346a <SPI_MasterSetBaud>
    338c:	4601      	mov	r1, r0
    338e:	9102      	str	r1, [sp, #8]
    3390:	b118      	cbz	r0, 339a <SPI_MasterInit+0x84>
    3392:	e7ff      	b.n	3394 <SPI_MasterInit+0x7e>
    3394:	9802      	ldr	r0, [sp, #8]
    3396:	9004      	str	r0, [sp, #16]
    3398:	e064      	b.n	3464 <SPI_MasterInit+0x14e>
    339a:	9807      	ldr	r0, [sp, #28]
    339c:	f7ff ff78 	bl	3290 <SPI_GetInstance>
    33a0:	9906      	ldr	r1, [sp, #24]
    33a2:	4686      	mov	lr, r0
    33a4:	9807      	ldr	r0, [sp, #28]
    33a6:	f8d0 2400 	ldr.w	r2, [r0, #1024]	; 0x400
    33aa:	f640 73bd 	movw	r3, #4029	; 0xfbd
    33ae:	439a      	bics	r2, r3
    33b0:	780b      	ldrb	r3, [r1, #0]
    33b2:	788c      	ldrb	r4, [r1, #2]
    33b4:	78cd      	ldrb	r5, [r1, #3]
    33b6:	f891 c004 	ldrb.w	ip, [r1, #4]
    33ba:	f005 0501 	and.w	r5, r5, #1
    33be:	ea42 1205 	orr.w	r2, r2, r5, lsl #4
    33c2:	f004 0401 	and.w	r4, r4, #1
    33c6:	ea42 1244 	orr.w	r2, r2, r4, lsl #5
    33ca:	f00c 0c01 	and.w	ip, ip, #1
    33ce:	ea42 02cc 	orr.w	r2, r2, ip, lsl #3
    33d2:	f003 0301 	and.w	r3, r3, #1
    33d6:	ea42 12c3 	orr.w	r2, r2, r3, lsl #7
    33da:	89cb      	ldrh	r3, [r1, #14]
    33dc:	f403 6370 	and.w	r3, r3, #3840	; 0xf00
    33e0:	441a      	add	r2, r3
    33e2:	3204      	adds	r2, #4
    33e4:	f8c0 2400 	str.w	r2, [r0, #1024]	; 0x400
    33e8:	7b0a      	ldrb	r2, [r1, #12]
    33ea:	f240 4cd5 	movw	ip, #1237	; 0x4d5
    33ee:	f2c2 0c00 	movt	ip, #8192	; 0x2000
    33f2:	eb0c 034e 	add.w	r3, ip, lr, lsl #1
    33f6:	f80c 201e 	strb.w	r2, [ip, lr, lsl #1]
    33fa:	7b4a      	ldrb	r2, [r1, #13]
    33fc:	705a      	strb	r2, [r3, #1]
    33fe:	f8d0 2e00 	ldr.w	r2, [r0, #3584]	; 0xe00
    3402:	f442 3240 	orr.w	r2, r2, #196608	; 0x30000
    3406:	f8c0 2e00 	str.w	r2, [r0, #3584]	; 0xe00
    340a:	f8d0 2e00 	ldr.w	r2, [r0, #3584]	; 0xe00
    340e:	f042 0203 	orr.w	r2, r2, #3
    3412:	f8c0 2e00 	str.w	r2, [r0, #3584]	; 0xe00
    3416:	f8d0 2e08 	ldr.w	r2, [r0, #3592]	; 0xe08
    341a:	f24f 03fc 	movw	r3, #61692	; 0xf0fc
    341e:	f6cf 73f0 	movt	r3, #65520	; 0xfff0
    3422:	401a      	ands	r2, r3
    3424:	f891 c010 	ldrb.w	ip, [r1, #16]
    3428:	f891 e011 	ldrb.w	lr, [r1, #17]
    342c:	f44f 2370 	mov.w	r3, #983040	; 0xf0000
    3430:	ea03 430e 	and.w	r3, r3, lr, lsl #16
    3434:	f36c 230b 	bfi	r3, ip, #8, #4
    3438:	441a      	add	r2, r3
    343a:	3203      	adds	r2, #3
    343c:	f8c0 2e08 	str.w	r2, [r0, #3592]	; 0xe08
    3440:	3112      	adds	r1, #18
    3442:	f000 f86e 	bl	3522 <SPI_SetTransferDelay>
    3446:	9807      	ldr	r0, [sp, #28]
    3448:	2100      	movs	r1, #0
    344a:	9101      	str	r1, [sp, #4]
    344c:	f7ff ff54 	bl	32f8 <SPI_SetDummyData>
    3450:	9906      	ldr	r1, [sp, #24]
    3452:	9807      	ldr	r0, [sp, #28]
    3454:	7849      	ldrb	r1, [r1, #1]
    3456:	f001 0101 	and.w	r1, r1, #1
    345a:	f000 f8a7 	bl	35ac <SPI_Enable>
    345e:	9801      	ldr	r0, [sp, #4]
    3460:	9004      	str	r0, [sp, #16]
    3462:	e7ff      	b.n	3464 <SPI_MasterInit+0x14e>
    3464:	9804      	ldr	r0, [sp, #16]
    3466:	b008      	add	sp, #32
    3468:	bdb0      	pop	{r4, r5, r7, pc}

0000346a <SPI_MasterSetBaud>:
    346a:	b580      	push	{r7, lr}
    346c:	466f      	mov	r7, sp
    346e:	b086      	sub	sp, #24
    3470:	9203      	str	r2, [sp, #12]
    3472:	9104      	str	r1, [sp, #16]
    3474:	9005      	str	r0, [sp, #20]
    3476:	b138      	cbz	r0, 3488 <SPI_MasterSetBaud+0x1e>
    3478:	e7ff      	b.n	347a <SPI_MasterSetBaud+0x10>
    347a:	9804      	ldr	r0, [sp, #16]
    347c:	b120      	cbz	r0, 3488 <SPI_MasterSetBaud+0x1e>
    347e:	e7ff      	b.n	3480 <SPI_MasterSetBaud+0x16>
    3480:	9803      	ldr	r0, [sp, #12]
    3482:	b108      	cbz	r0, 3488 <SPI_MasterSetBaud+0x1e>
    3484:	e7ff      	b.n	3486 <SPI_MasterSetBaud+0x1c>
    3486:	e00f      	b.n	34a8 <SPI_MasterSetBaud+0x3e>
    3488:	f249 40e8 	movw	r0, #38120	; 0x94e8
    348c:	f2c0 0000 	movt	r0, #0
    3490:	f249 52b5 	movw	r2, #38325	; 0x95b5
    3494:	f2c0 0200 	movt	r2, #0
    3498:	f249 231b 	movw	r3, #37403	; 0x921b
    349c:	f2c0 0300 	movt	r3, #0
    34a0:	f240 119f 	movw	r1, #415	; 0x19f
    34a4:	f001 ff0f 	bl	52c6 <__assert_func>
    34a8:	9805      	ldr	r0, [sp, #20]
    34aa:	b130      	cbz	r0, 34ba <SPI_MasterSetBaud+0x50>
    34ac:	e7ff      	b.n	34ae <SPI_MasterSetBaud+0x44>
    34ae:	9804      	ldr	r0, [sp, #16]
    34b0:	b118      	cbz	r0, 34ba <SPI_MasterSetBaud+0x50>
    34b2:	e7ff      	b.n	34b4 <SPI_MasterSetBaud+0x4a>
    34b4:	9803      	ldr	r0, [sp, #12]
    34b6:	b918      	cbnz	r0, 34c0 <SPI_MasterSetBaud+0x56>
    34b8:	e7ff      	b.n	34ba <SPI_MasterSetBaud+0x50>
    34ba:	2004      	movs	r0, #4
    34bc:	9002      	str	r0, [sp, #8]
    34be:	e02d      	b.n	351c <SPI_MasterSetBaud+0xb2>
    34c0:	9904      	ldr	r1, [sp, #16]
    34c2:	9803      	ldr	r0, [sp, #12]
    34c4:	eb00 0080 	add.w	r0, r0, r0, lsl #2
    34c8:	0040      	lsls	r0, r0, #1
    34ca:	fbb0 f0f1 	udiv	r0, r0, r1
    34ce:	3005      	adds	r0, #5
    34d0:	f64c 41cd 	movw	r1, #52429	; 0xcccd
    34d4:	f6cc 41cc 	movt	r1, #52428	; 0xcccc
    34d8:	fba0 0101 	umull	r0, r1, r0, r1
    34dc:	f04f 30ff 	mov.w	r0, #4294967295	; 0xffffffff
    34e0:	eb00 00d1 	add.w	r0, r0, r1, lsr #3
    34e4:	4601      	mov	r1, r0
    34e6:	9101      	str	r1, [sp, #4]
    34e8:	f5b0 3f80 	cmp.w	r0, #65536	; 0x10000
    34ec:	d304      	bcc.n	34f8 <SPI_MasterSetBaud+0x8e>
    34ee:	e7ff      	b.n	34f0 <SPI_MasterSetBaud+0x86>
    34f0:	f241 50e3 	movw	r0, #5603	; 0x15e3
    34f4:	9002      	str	r0, [sp, #8]
    34f6:	e011      	b.n	351c <SPI_MasterSetBaud+0xb2>
    34f8:	9905      	ldr	r1, [sp, #20]
    34fa:	9801      	ldr	r0, [sp, #4]
    34fc:	f8d1 2424 	ldr.w	r2, [r1, #1060]	; 0x424
    3500:	f64f 73ff 	movw	r3, #65535	; 0xffff
    3504:	439a      	bics	r2, r3
    3506:	f8c1 2424 	str.w	r2, [r1, #1060]	; 0x424
    350a:	b282      	uxth	r2, r0
    350c:	f8d1 0424 	ldr.w	r0, [r1, #1060]	; 0x424
    3510:	4310      	orrs	r0, r2
    3512:	f8c1 0424 	str.w	r0, [r1, #1060]	; 0x424
    3516:	2000      	movs	r0, #0
    3518:	9002      	str	r0, [sp, #8]
    351a:	e7ff      	b.n	351c <SPI_MasterSetBaud+0xb2>
    351c:	9802      	ldr	r0, [sp, #8]
    351e:	b006      	add	sp, #24
    3520:	bd80      	pop	{r7, pc}

00003522 <SPI_SetTransferDelay>:
    3522:	b580      	push	{r7, lr}
    3524:	466f      	mov	r7, sp
    3526:	b082      	sub	sp, #8
    3528:	9100      	str	r1, [sp, #0]
    352a:	9001      	str	r0, [sp, #4]
    352c:	b108      	cbz	r0, 3532 <SPI_SetTransferDelay+0x10>
    352e:	e7ff      	b.n	3530 <SPI_SetTransferDelay+0xe>
    3530:	e00f      	b.n	3552 <SPI_SetTransferDelay+0x30>
    3532:	f649 001b 	movw	r0, #38939	; 0x981b
    3536:	f2c0 0000 	movt	r0, #0
    353a:	f649 022d 	movw	r2, #38957	; 0x982d
    353e:	f2c0 0200 	movt	r2, #0
    3542:	f249 1351 	movw	r3, #37201	; 0x9151
    3546:	f2c0 0300 	movt	r3, #0
    354a:	f240 212b 	movw	r1, #555	; 0x22b
    354e:	f001 feba 	bl	52c6 <__assert_func>
    3552:	9800      	ldr	r0, [sp, #0]
    3554:	b108      	cbz	r0, 355a <SPI_SetTransferDelay+0x38>
    3556:	e7ff      	b.n	3558 <SPI_SetTransferDelay+0x36>
    3558:	e00f      	b.n	357a <SPI_SetTransferDelay+0x58>
    355a:	f649 001b 	movw	r0, #38939	; 0x981b
    355e:	f2c0 0000 	movt	r0, #0
    3562:	f649 022d 	movw	r2, #38957	; 0x982d
    3566:	f2c0 0200 	movt	r2, #0
    356a:	f249 13fa 	movw	r3, #37370	; 0x91fa
    356e:	f2c0 0300 	movt	r3, #0
    3572:	f44f 710b 	mov.w	r1, #556	; 0x22c
    3576:	f001 fea6 	bl	52c6 <__assert_func>
    357a:	9901      	ldr	r1, [sp, #4]
    357c:	9a00      	ldr	r2, [sp, #0]
    357e:	7810      	ldrb	r0, [r2, #0]
    3580:	f892 c001 	ldrb.w	ip, [r2, #1]
    3584:	7893      	ldrb	r3, [r2, #2]
    3586:	78d2      	ldrb	r2, [r2, #3]
    3588:	f000 000f 	and.w	r0, r0, #15
    358c:	ea4f 1c0c 	mov.w	ip, ip, lsl #4
    3590:	fa5f fc8c 	uxtb.w	ip, ip
    3594:	4460      	add	r0, ip
    3596:	f003 030f 	and.w	r3, r3, #15
    359a:	ea40 2003 	orr.w	r0, r0, r3, lsl #8
    359e:	0312      	lsls	r2, r2, #12
    35a0:	b292      	uxth	r2, r2
    35a2:	4410      	add	r0, r2
    35a4:	f8c1 0404 	str.w	r0, [r1, #1028]	; 0x404
    35a8:	b002      	add	sp, #8
    35aa:	bd80      	pop	{r7, pc}

000035ac <SPI_Enable>:
    35ac:	b081      	sub	sp, #4
    35ae:	9000      	str	r0, [sp, #0]
    35b0:	b141      	cbz	r1, 35c4 <SPI_Enable+0x18>
    35b2:	e7ff      	b.n	35b4 <SPI_Enable+0x8>
    35b4:	9900      	ldr	r1, [sp, #0]
    35b6:	f8d1 0400 	ldr.w	r0, [r1, #1024]	; 0x400
    35ba:	f040 0001 	orr.w	r0, r0, #1
    35be:	f8c1 0400 	str.w	r0, [r1, #1024]	; 0x400
    35c2:	e007      	b.n	35d4 <SPI_Enable+0x28>
    35c4:	9900      	ldr	r1, [sp, #0]
    35c6:	f8d1 0400 	ldr.w	r0, [r1, #1024]	; 0x400
    35ca:	f020 0001 	bic.w	r0, r0, #1
    35ce:	f8c1 0400 	str.w	r0, [r1, #1024]	; 0x400
    35d2:	e7ff      	b.n	35d4 <SPI_Enable+0x28>
    35d4:	b001      	add	sp, #4
    35d6:	4770      	bx	lr

000035d8 <SPI_MasterTransferBlocking>:
    35d8:	b5f0      	push	{r4, r5, r6, r7, lr}
    35da:	af03      	add	r7, sp, #12
    35dc:	f84d bd04 	str.w	fp, [sp, #-4]!
    35e0:	b0bc      	sub	sp, #240	; 0xf0
    35e2:	913a      	str	r1, [sp, #232]	; 0xe8
    35e4:	903b      	str	r0, [sp, #236]	; 0xec
    35e6:	b160      	cbz	r0, 3602 <SPI_MasterTransferBlocking+0x2a>
    35e8:	e7ff      	b.n	35ea <SPI_MasterTransferBlocking+0x12>
    35ea:	983a      	ldr	r0, [sp, #232]	; 0xe8
    35ec:	b148      	cbz	r0, 3602 <SPI_MasterTransferBlocking+0x2a>
    35ee:	e7ff      	b.n	35f0 <SPI_MasterTransferBlocking+0x18>
    35f0:	983a      	ldr	r0, [sp, #232]	; 0xe8
    35f2:	6800      	ldr	r0, [r0, #0]
    35f4:	b920      	cbnz	r0, 3600 <SPI_MasterTransferBlocking+0x28>
    35f6:	e7ff      	b.n	35f8 <SPI_MasterTransferBlocking+0x20>
    35f8:	983a      	ldr	r0, [sp, #232]	; 0xe8
    35fa:	6840      	ldr	r0, [r0, #4]
    35fc:	b108      	cbz	r0, 3602 <SPI_MasterTransferBlocking+0x2a>
    35fe:	e7ff      	b.n	3600 <SPI_MasterTransferBlocking+0x28>
    3600:	e00f      	b.n	3622 <SPI_MasterTransferBlocking+0x4a>
    3602:	f249 40e8 	movw	r0, #38120	; 0x94e8
    3606:	f2c0 0000 	movt	r0, #0
    360a:	f249 620e 	movw	r2, #38414	; 0x960e
    360e:	f2c0 0200 	movt	r2, #0
    3612:	f249 6329 	movw	r3, #38441	; 0x9629
    3616:	f2c0 0300 	movt	r3, #0
    361a:	f44f 7106 	mov.w	r1, #536	; 0x218
    361e:	f001 fe52 	bl	52c6 <__assert_func>
    3622:	983b      	ldr	r0, [sp, #236]	; 0xec
    3624:	b158      	cbz	r0, 363e <SPI_MasterTransferBlocking+0x66>
    3626:	e7ff      	b.n	3628 <SPI_MasterTransferBlocking+0x50>
    3628:	983a      	ldr	r0, [sp, #232]	; 0xe8
    362a:	b140      	cbz	r0, 363e <SPI_MasterTransferBlocking+0x66>
    362c:	e7ff      	b.n	362e <SPI_MasterTransferBlocking+0x56>
    362e:	983a      	ldr	r0, [sp, #232]	; 0xe8
    3630:	6800      	ldr	r0, [r0, #0]
    3632:	b938      	cbnz	r0, 3644 <SPI_MasterTransferBlocking+0x6c>
    3634:	e7ff      	b.n	3636 <SPI_MasterTransferBlocking+0x5e>
    3636:	983a      	ldr	r0, [sp, #232]	; 0xe8
    3638:	6840      	ldr	r0, [r0, #4]
    363a:	b918      	cbnz	r0, 3644 <SPI_MasterTransferBlocking+0x6c>
    363c:	e7ff      	b.n	363e <SPI_MasterTransferBlocking+0x66>
    363e:	2004      	movs	r0, #4
    3640:	9039      	str	r0, [sp, #228]	; 0xe4
    3642:	e19f      	b.n	3984 <SPI_MasterTransferBlocking+0x3ac>
    3644:	993a      	ldr	r1, [sp, #232]	; 0xe8
    3646:	983b      	ldr	r0, [sp, #236]	; 0xec
    3648:	f8d0 0e00 	ldr.w	r0, [r0, #3584]	; 0xe00
    364c:	f000 0030 	and.w	r0, r0, #48	; 0x30
    3650:	0840      	lsrs	r0, r0, #1
    3652:	9036      	str	r0, [sp, #216]	; 0xd8
    3654:	6808      	ldr	r0, [r1, #0]
    3656:	9037      	str	r0, [sp, #220]	; 0xdc
    3658:	6849      	ldr	r1, [r1, #4]
    365a:	9138      	str	r1, [sp, #224]	; 0xe0
    365c:	b120      	cbz	r0, 3668 <SPI_MasterTransferBlocking+0x90>
    365e:	e7ff      	b.n	3660 <SPI_MasterTransferBlocking+0x88>
    3660:	983a      	ldr	r0, [sp, #232]	; 0xe8
    3662:	68c0      	ldr	r0, [r0, #12]
    3664:	9035      	str	r0, [sp, #212]	; 0xd4
    3666:	e002      	b.n	366e <SPI_MasterTransferBlocking+0x96>
    3668:	2000      	movs	r0, #0
    366a:	9035      	str	r0, [sp, #212]	; 0xd4
    366c:	e7ff      	b.n	366e <SPI_MasterTransferBlocking+0x96>
    366e:	9838      	ldr	r0, [sp, #224]	; 0xe0
    3670:	9935      	ldr	r1, [sp, #212]	; 0xd4
    3672:	9134      	str	r1, [sp, #208]	; 0xd0
    3674:	b120      	cbz	r0, 3680 <SPI_MasterTransferBlocking+0xa8>
    3676:	e7ff      	b.n	3678 <SPI_MasterTransferBlocking+0xa0>
    3678:	983a      	ldr	r0, [sp, #232]	; 0xe8
    367a:	68c0      	ldr	r0, [r0, #12]
    367c:	9033      	str	r0, [sp, #204]	; 0xcc
    367e:	e002      	b.n	3686 <SPI_MasterTransferBlocking+0xae>
    3680:	2000      	movs	r0, #0
    3682:	9033      	str	r0, [sp, #204]	; 0xcc
    3684:	e7ff      	b.n	3686 <SPI_MasterTransferBlocking+0xae>
    3686:	983b      	ldr	r0, [sp, #236]	; 0xec
    3688:	9933      	ldr	r1, [sp, #204]	; 0xcc
    368a:	9130      	str	r1, [sp, #192]	; 0xc0
    368c:	f7ff fe00 	bl	3290 <SPI_GetInstance>
    3690:	4601      	mov	r1, r0
    3692:	4608      	mov	r0, r1
    3694:	9031      	str	r0, [sp, #196]	; 0xc4
    3696:	f240 40d5 	movw	r0, #1237	; 0x4d5
    369a:	f2c2 0000 	movt	r0, #8192	; 0x2000
    369e:	f810 0011 	ldrb.w	r0, [r0, r1, lsl #1]
    36a2:	4601      	mov	r1, r0
    36a4:	9132      	str	r1, [sp, #200]	; 0xc8
    36a6:	2808      	cmp	r0, #8
    36a8:	d308      	bcc.n	36bc <SPI_MasterTransferBlocking+0xe4>
    36aa:	e7ff      	b.n	36ac <SPI_MasterTransferBlocking+0xd4>
    36ac:	983a      	ldr	r0, [sp, #232]	; 0xe8
    36ae:	7b00      	ldrb	r0, [r0, #12]
    36b0:	07c0      	lsls	r0, r0, #31
    36b2:	b118      	cbz	r0, 36bc <SPI_MasterTransferBlocking+0xe4>
    36b4:	e7ff      	b.n	36b6 <SPI_MasterTransferBlocking+0xde>
    36b6:	2004      	movs	r0, #4
    36b8:	9039      	str	r0, [sp, #228]	; 0xe4
    36ba:	e163      	b.n	3984 <SPI_MasterTransferBlocking+0x3ac>
    36bc:	9838      	ldr	r0, [sp, #224]	; 0xe0
    36be:	9937      	ldr	r1, [sp, #220]	; 0xdc
    36c0:	f8dd c0c0 	ldr.w	ip, [sp, #192]	; 0xc0
    36c4:	f8dd e0d0 	ldr.w	lr, [sp, #208]	; 0xd0
    36c8:	9a3a      	ldr	r2, [sp, #232]	; 0xe8
    36ca:	9c32      	ldr	r4, [sp, #200]	; 0xc8
    36cc:	9d31      	ldr	r5, [sp, #196]	; 0xc4
    36ce:	9e3b      	ldr	r6, [sp, #236]	; 0xec
    36d0:	f8d6 3e00 	ldr.w	r3, [r6, #3584]	; 0xe00
    36d4:	f443 3340 	orr.w	r3, r3, #196608	; 0x30000
    36d8:	f8c6 3e00 	str.w	r3, [r6, #3584]	; 0xe00
    36dc:	f8d6 3e04 	ldr.w	r3, [r6, #3588]	; 0xe04
    36e0:	f043 0303 	orr.w	r3, r3, #3
    36e4:	f8c6 3e04 	str.w	r3, [r6, #3588]	; 0xe04
    36e8:	f240 43d5 	movw	r3, #1237	; 0x4d5
    36ec:	f2c2 0300 	movt	r3, #8192	; 0x2000
    36f0:	eb03 0345 	add.w	r3, r3, r5, lsl #1
    36f4:	785b      	ldrb	r3, [r3, #1]
    36f6:	f103 0510 	add.w	r5, r3, #16
    36fa:	2301      	movs	r3, #1
    36fc:	fa03 f505 	lsl.w	r5, r3, r5
    3700:	f44f 2370 	mov.w	r3, #983040	; 0xf0000
    3704:	43ab      	bics	r3, r5
    3706:	f004 040f 	and.w	r4, r4, #15
    370a:	ea43 6304 	orr.w	r3, r3, r4, lsl #24
    370e:	6892      	ldr	r2, [r2, #8]
    3710:	0d54      	lsrs	r4, r2, #21
    3712:	f364 5355 	bfi	r3, r4, #21, #1
    3716:	f402 1480 	and.w	r4, r2, #1048576	; 0x100000
    371a:	2200      	movs	r2, #0
    371c:	9429      	str	r4, [sp, #164]	; 0xa4
    371e:	f8cd e0a8 	str.w	lr, [sp, #168]	; 0xa8
    3722:	f8cd c0ac 	str.w	ip, [sp, #172]	; 0xac
    3726:	932c      	str	r3, [sp, #176]	; 0xb0
    3728:	922d      	str	r2, [sp, #180]	; 0xb4
    372a:	912e      	str	r1, [sp, #184]	; 0xb8
    372c:	902f      	str	r0, [sp, #188]	; 0xbc
    372e:	e7ff      	b.n	3730 <SPI_MasterTransferBlocking+0x158>
    3730:	992a      	ldr	r1, [sp, #168]	; 0xa8
    3732:	982b      	ldr	r0, [sp, #172]	; 0xac
    3734:	9a2c      	ldr	r2, [sp, #176]	; 0xb0
    3736:	9b2d      	ldr	r3, [sp, #180]	; 0xb4
    3738:	f8dd c0b8 	ldr.w	ip, [sp, #184]	; 0xb8
    373c:	f8dd e0bc 	ldr.w	lr, [sp, #188]	; 0xbc
    3740:	f8cd e088 	str.w	lr, [sp, #136]	; 0x88
    3744:	f8cd c08c 	str.w	ip, [sp, #140]	; 0x8c
    3748:	9324      	str	r3, [sp, #144]	; 0x90
    374a:	9225      	str	r2, [sp, #148]	; 0x94
    374c:	9026      	str	r0, [sp, #152]	; 0x98
    374e:	9127      	str	r1, [sp, #156]	; 0x9c
    3750:	2001      	movs	r0, #1
    3752:	9028      	str	r0, [sp, #160]	; 0xa0
    3754:	b959      	cbnz	r1, 376e <SPI_MasterTransferBlocking+0x196>
    3756:	e7ff      	b.n	3758 <SPI_MasterTransferBlocking+0x180>
    3758:	9926      	ldr	r1, [sp, #152]	; 0x98
    375a:	2001      	movs	r0, #1
    375c:	9028      	str	r0, [sp, #160]	; 0xa0
    375e:	b931      	cbnz	r1, 376e <SPI_MasterTransferBlocking+0x196>
    3760:	e7ff      	b.n	3762 <SPI_MasterTransferBlocking+0x18a>
    3762:	9824      	ldr	r0, [sp, #144]	; 0x90
    3764:	2800      	cmp	r0, #0
    3766:	bf18      	it	ne
    3768:	2001      	movne	r0, #1
    376a:	9028      	str	r0, [sp, #160]	; 0xa0
    376c:	e7ff      	b.n	376e <SPI_MasterTransferBlocking+0x196>
    376e:	9828      	ldr	r0, [sp, #160]	; 0xa0
    3770:	07c0      	lsls	r0, r0, #31
    3772:	2800      	cmp	r0, #0
    3774:	f000 80fa 	beq.w	396c <SPI_MasterTransferBlocking+0x394>
    3778:	e7ff      	b.n	377a <SPI_MasterTransferBlocking+0x1a2>
    377a:	9822      	ldr	r0, [sp, #136]	; 0x88
    377c:	9924      	ldr	r1, [sp, #144]	; 0x90
    377e:	9a26      	ldr	r2, [sp, #152]	; 0x98
    3780:	9b3b      	ldr	r3, [sp, #236]	; 0xec
    3782:	f8d3 3e04 	ldr.w	r3, [r3, #3588]	; 0xe04
    3786:	065b      	lsls	r3, r3, #25
    3788:	2b00      	cmp	r3, #0
    378a:	921f      	str	r2, [sp, #124]	; 0x7c
    378c:	9120      	str	r1, [sp, #128]	; 0x80
    378e:	9021      	str	r0, [sp, #132]	; 0x84
    3790:	d52f      	bpl.n	37f2 <SPI_MasterTransferBlocking+0x21a>
    3792:	e7ff      	b.n	3794 <SPI_MasterTransferBlocking+0x1bc>
    3794:	9822      	ldr	r0, [sp, #136]	; 0x88
    3796:	9926      	ldr	r1, [sp, #152]	; 0x98
    3798:	9a3b      	ldr	r2, [sp, #236]	; 0xec
    379a:	f8d2 2e30 	ldr.w	r2, [r2, #3632]	; 0xe30
    379e:	921c      	str	r2, [sp, #112]	; 0x70
    37a0:	911d      	str	r1, [sp, #116]	; 0x74
    37a2:	901e      	str	r0, [sp, #120]	; 0x78
    37a4:	b1e9      	cbz	r1, 37e2 <SPI_MasterTransferBlocking+0x20a>
    37a6:	e7ff      	b.n	37a8 <SPI_MasterTransferBlocking+0x1d0>
    37a8:	9a32      	ldr	r2, [sp, #200]	; 0xc8
    37aa:	9926      	ldr	r1, [sp, #152]	; 0x98
    37ac:	9b1c      	ldr	r3, [sp, #112]	; 0x70
    37ae:	9822      	ldr	r0, [sp, #136]	; 0x88
    37b0:	f800 3b01 	strb.w	r3, [r0], #1
    37b4:	9018      	str	r0, [sp, #96]	; 0x60
    37b6:	3901      	subs	r1, #1
    37b8:	9119      	str	r1, [sp, #100]	; 0x64
    37ba:	2a09      	cmp	r2, #9
    37bc:	911a      	str	r1, [sp, #104]	; 0x68
    37be:	901b      	str	r0, [sp, #108]	; 0x6c
    37c0:	d30a      	bcc.n	37d8 <SPI_MasterTransferBlocking+0x200>
    37c2:	e7ff      	b.n	37c4 <SPI_MasterTransferBlocking+0x1ec>
    37c4:	9919      	ldr	r1, [sp, #100]	; 0x64
    37c6:	9818      	ldr	r0, [sp, #96]	; 0x60
    37c8:	9a1c      	ldr	r2, [sp, #112]	; 0x70
    37ca:	0a12      	lsrs	r2, r2, #8
    37cc:	f800 2b01 	strb.w	r2, [r0], #1
    37d0:	3901      	subs	r1, #1
    37d2:	911a      	str	r1, [sp, #104]	; 0x68
    37d4:	901b      	str	r0, [sp, #108]	; 0x6c
    37d6:	e7ff      	b.n	37d8 <SPI_MasterTransferBlocking+0x200>
    37d8:	991a      	ldr	r1, [sp, #104]	; 0x68
    37da:	981b      	ldr	r0, [sp, #108]	; 0x6c
    37dc:	911d      	str	r1, [sp, #116]	; 0x74
    37de:	901e      	str	r0, [sp, #120]	; 0x78
    37e0:	e7ff      	b.n	37e2 <SPI_MasterTransferBlocking+0x20a>
    37e2:	9924      	ldr	r1, [sp, #144]	; 0x90
    37e4:	9a1d      	ldr	r2, [sp, #116]	; 0x74
    37e6:	981e      	ldr	r0, [sp, #120]	; 0x78
    37e8:	3901      	subs	r1, #1
    37ea:	921f      	str	r2, [sp, #124]	; 0x7c
    37ec:	9120      	str	r1, [sp, #128]	; 0x80
    37ee:	9021      	str	r0, [sp, #132]	; 0x84
    37f0:	e7ff      	b.n	37f2 <SPI_MasterTransferBlocking+0x21a>
    37f2:	9823      	ldr	r0, [sp, #140]	; 0x8c
    37f4:	9a25      	ldr	r2, [sp, #148]	; 0x94
    37f6:	9b27      	ldr	r3, [sp, #156]	; 0x9c
    37f8:	f8dd c0ec 	ldr.w	ip, [sp, #236]	; 0xec
    37fc:	f8dd e07c 	ldr.w	lr, [sp, #124]	; 0x7c
    3800:	9920      	ldr	r1, [sp, #128]	; 0x80
    3802:	9c21      	ldr	r4, [sp, #132]	; 0x84
    3804:	9411      	str	r4, [sp, #68]	; 0x44
    3806:	9112      	str	r1, [sp, #72]	; 0x48
    3808:	f8cd e04c 	str.w	lr, [sp, #76]	; 0x4c
    380c:	f8dc ce04 	ldr.w	ip, [ip, #3588]	; 0xe04
    3810:	ea4f 6c8c 	mov.w	ip, ip, lsl #26
    3814:	f1bc 0f00 	cmp.w	ip, #0
    3818:	9314      	str	r3, [sp, #80]	; 0x50
    381a:	9215      	str	r2, [sp, #84]	; 0x54
    381c:	9116      	str	r1, [sp, #88]	; 0x58
    381e:	9017      	str	r0, [sp, #92]	; 0x5c
    3820:	f140 8093 	bpl.w	394a <SPI_MasterTransferBlocking+0x372>
    3824:	e7ff      	b.n	3826 <SPI_MasterTransferBlocking+0x24e>
    3826:	9823      	ldr	r0, [sp, #140]	; 0x8c
    3828:	9912      	ldr	r1, [sp, #72]	; 0x48
    382a:	9a25      	ldr	r2, [sp, #148]	; 0x94
    382c:	9b27      	ldr	r3, [sp, #156]	; 0x9c
    382e:	f8dd c0d8 	ldr.w	ip, [sp, #216]	; 0xd8
    3832:	4561      	cmp	r1, ip
    3834:	9314      	str	r3, [sp, #80]	; 0x50
    3836:	9215      	str	r2, [sp, #84]	; 0x54
    3838:	9116      	str	r1, [sp, #88]	; 0x58
    383a:	9017      	str	r0, [sp, #92]	; 0x5c
    383c:	f080 8085 	bcs.w	394a <SPI_MasterTransferBlocking+0x372>
    3840:	e7ff      	b.n	3842 <SPI_MasterTransferBlocking+0x26a>
    3842:	9827      	ldr	r0, [sp, #156]	; 0x9c
    3844:	b998      	cbnz	r0, 386e <SPI_MasterTransferBlocking+0x296>
    3846:	e7ff      	b.n	3848 <SPI_MasterTransferBlocking+0x270>
    3848:	9823      	ldr	r0, [sp, #140]	; 0x8c
    384a:	9912      	ldr	r1, [sp, #72]	; 0x48
    384c:	9a25      	ldr	r2, [sp, #148]	; 0x94
    384e:	9b27      	ldr	r3, [sp, #156]	; 0x9c
    3850:	f8dd c04c 	ldr.w	ip, [sp, #76]	; 0x4c
    3854:	9c32      	ldr	r4, [sp, #200]	; 0xc8
    3856:	f101 0e01 	add.w	lr, r1, #1
    385a:	08e4      	lsrs	r4, r4, #3
    385c:	fa0e fe04 	lsl.w	lr, lr, r4
    3860:	45f4      	cmp	ip, lr
    3862:	9314      	str	r3, [sp, #80]	; 0x50
    3864:	9215      	str	r2, [sp, #84]	; 0x54
    3866:	9116      	str	r1, [sp, #88]	; 0x58
    3868:	9017      	str	r0, [sp, #92]	; 0x5c
    386a:	d36e      	bcc.n	394a <SPI_MasterTransferBlocking+0x372>
    386c:	e7ff      	b.n	386e <SPI_MasterTransferBlocking+0x296>
    386e:	9827      	ldr	r0, [sp, #156]	; 0x9c
    3870:	b398      	cbz	r0, 38da <SPI_MasterTransferBlocking+0x302>
    3872:	e7ff      	b.n	3874 <SPI_MasterTransferBlocking+0x29c>
    3874:	9b32      	ldr	r3, [sp, #200]	; 0xc8
    3876:	9a27      	ldr	r2, [sp, #156]	; 0x9c
    3878:	9823      	ldr	r0, [sp, #140]	; 0x8c
    387a:	f810 1b01 	ldrb.w	r1, [r0], #1
    387e:	900b      	str	r0, [sp, #44]	; 0x2c
    3880:	910c      	str	r1, [sp, #48]	; 0x30
    3882:	3a01      	subs	r2, #1
    3884:	920d      	str	r2, [sp, #52]	; 0x34
    3886:	2b09      	cmp	r3, #9
    3888:	920e      	str	r2, [sp, #56]	; 0x38
    388a:	910f      	str	r1, [sp, #60]	; 0x3c
    388c:	9010      	str	r0, [sp, #64]	; 0x40
    388e:	d30c      	bcc.n	38aa <SPI_MasterTransferBlocking+0x2d2>
    3890:	e7ff      	b.n	3892 <SPI_MasterTransferBlocking+0x2ba>
    3892:	9a0d      	ldr	r2, [sp, #52]	; 0x34
    3894:	990c      	ldr	r1, [sp, #48]	; 0x30
    3896:	980b      	ldr	r0, [sp, #44]	; 0x2c
    3898:	f810 3b01 	ldrb.w	r3, [r0], #1
    389c:	ea41 2103 	orr.w	r1, r1, r3, lsl #8
    38a0:	3a01      	subs	r2, #1
    38a2:	920e      	str	r2, [sp, #56]	; 0x38
    38a4:	910f      	str	r1, [sp, #60]	; 0x3c
    38a6:	9010      	str	r0, [sp, #64]	; 0x40
    38a8:	e7ff      	b.n	38aa <SPI_MasterTransferBlocking+0x2d2>
    38aa:	9825      	ldr	r0, [sp, #148]	; 0x94
    38ac:	990e      	ldr	r1, [sp, #56]	; 0x38
    38ae:	9a0f      	ldr	r2, [sp, #60]	; 0x3c
    38b0:	9b10      	ldr	r3, [sp, #64]	; 0x40
    38b2:	9307      	str	r3, [sp, #28]
    38b4:	9208      	str	r2, [sp, #32]
    38b6:	9109      	str	r1, [sp, #36]	; 0x24
    38b8:	900a      	str	r0, [sp, #40]	; 0x28
    38ba:	b929      	cbnz	r1, 38c8 <SPI_MasterTransferBlocking+0x2f0>
    38bc:	e7ff      	b.n	38be <SPI_MasterTransferBlocking+0x2e6>
    38be:	9825      	ldr	r0, [sp, #148]	; 0x94
    38c0:	9929      	ldr	r1, [sp, #164]	; 0xa4
    38c2:	4308      	orrs	r0, r1
    38c4:	900a      	str	r0, [sp, #40]	; 0x28
    38c6:	e7ff      	b.n	38c8 <SPI_MasterTransferBlocking+0x2f0>
    38c8:	9807      	ldr	r0, [sp, #28]
    38ca:	9a08      	ldr	r2, [sp, #32]
    38cc:	9b09      	ldr	r3, [sp, #36]	; 0x24
    38ce:	990a      	ldr	r1, [sp, #40]	; 0x28
    38d0:	9303      	str	r3, [sp, #12]
    38d2:	9204      	str	r2, [sp, #16]
    38d4:	9105      	str	r1, [sp, #20]
    38d6:	9006      	str	r0, [sp, #24]
    38d8:	e025      	b.n	3926 <SPI_MasterTransferBlocking+0x34e>
    38da:	9825      	ldr	r0, [sp, #148]	; 0x94
    38dc:	9913      	ldr	r1, [sp, #76]	; 0x4c
    38de:	9b32      	ldr	r3, [sp, #200]	; 0xc8
    38e0:	9a12      	ldr	r2, [sp, #72]	; 0x48
    38e2:	9c31      	ldr	r4, [sp, #196]	; 0xc4
    38e4:	f240 4ecc 	movw	lr, #1228	; 0x4cc
    38e8:	f2c2 0e00 	movt	lr, #8192	; 0x2000
    38ec:	f81e c004 	ldrb.w	ip, [lr, r4]
    38f0:	f81e e004 	ldrb.w	lr, [lr, r4]
    38f4:	ea4c 2c0e 	orr.w	ip, ip, lr, lsl #8
    38f8:	f8cd c004 	str.w	ip, [sp, #4]
    38fc:	3201      	adds	r2, #1
    38fe:	08db      	lsrs	r3, r3, #3
    3900:	409a      	lsls	r2, r3
    3902:	4291      	cmp	r1, r2
    3904:	9002      	str	r0, [sp, #8]
    3906:	d105      	bne.n	3914 <SPI_MasterTransferBlocking+0x33c>
    3908:	e7ff      	b.n	390a <SPI_MasterTransferBlocking+0x332>
    390a:	9825      	ldr	r0, [sp, #148]	; 0x94
    390c:	9929      	ldr	r1, [sp, #164]	; 0xa4
    390e:	4308      	orrs	r0, r1
    3910:	9002      	str	r0, [sp, #8]
    3912:	e7ff      	b.n	3914 <SPI_MasterTransferBlocking+0x33c>
    3914:	9823      	ldr	r0, [sp, #140]	; 0x8c
    3916:	9a01      	ldr	r2, [sp, #4]
    3918:	9b27      	ldr	r3, [sp, #156]	; 0x9c
    391a:	9902      	ldr	r1, [sp, #8]
    391c:	9303      	str	r3, [sp, #12]
    391e:	9204      	str	r2, [sp, #16]
    3920:	9105      	str	r1, [sp, #20]
    3922:	9006      	str	r0, [sp, #24]
    3924:	e7ff      	b.n	3926 <SPI_MasterTransferBlocking+0x34e>
    3926:	9912      	ldr	r1, [sp, #72]	; 0x48
    3928:	f8dd e0ec 	ldr.w	lr, [sp, #236]	; 0xec
    392c:	9b03      	ldr	r3, [sp, #12]
    392e:	f8dd c010 	ldr.w	ip, [sp, #16]
    3932:	9a05      	ldr	r2, [sp, #20]
    3934:	9806      	ldr	r0, [sp, #24]
    3936:	ea4c 0c02 	orr.w	ip, ip, r2
    393a:	f8ce ce20 	str.w	ip, [lr, #3616]	; 0xe20
    393e:	3101      	adds	r1, #1
    3940:	9314      	str	r3, [sp, #80]	; 0x50
    3942:	9215      	str	r2, [sp, #84]	; 0x54
    3944:	9116      	str	r1, [sp, #88]	; 0x58
    3946:	9017      	str	r0, [sp, #92]	; 0x5c
    3948:	e7ff      	b.n	394a <SPI_MasterTransferBlocking+0x372>
    394a:	9811      	ldr	r0, [sp, #68]	; 0x44
    394c:	f8dd c04c 	ldr.w	ip, [sp, #76]	; 0x4c
    3950:	f8dd e050 	ldr.w	lr, [sp, #80]	; 0x50
    3954:	9b15      	ldr	r3, [sp, #84]	; 0x54
    3956:	9a16      	ldr	r2, [sp, #88]	; 0x58
    3958:	9917      	ldr	r1, [sp, #92]	; 0x5c
    395a:	f8cd e0a8 	str.w	lr, [sp, #168]	; 0xa8
    395e:	f8cd c0ac 	str.w	ip, [sp, #172]	; 0xac
    3962:	932c      	str	r3, [sp, #176]	; 0xb0
    3964:	922d      	str	r2, [sp, #180]	; 0xb4
    3966:	912e      	str	r1, [sp, #184]	; 0xb8
    3968:	902f      	str	r0, [sp, #188]	; 0xbc
    396a:	e6e1      	b.n	3730 <SPI_MasterTransferBlocking+0x158>
    396c:	e7ff      	b.n	396e <SPI_MasterTransferBlocking+0x396>
    396e:	983b      	ldr	r0, [sp, #236]	; 0xec
    3970:	f8d0 0e04 	ldr.w	r0, [r0, #3588]	; 0xe04
    3974:	06c0      	lsls	r0, r0, #27
    3976:	2800      	cmp	r0, #0
    3978:	d401      	bmi.n	397e <SPI_MasterTransferBlocking+0x3a6>
    397a:	e7ff      	b.n	397c <SPI_MasterTransferBlocking+0x3a4>
    397c:	e7f7      	b.n	396e <SPI_MasterTransferBlocking+0x396>
    397e:	2000      	movs	r0, #0
    3980:	9039      	str	r0, [sp, #228]	; 0xe4
    3982:	e7ff      	b.n	3984 <SPI_MasterTransferBlocking+0x3ac>
    3984:	9839      	ldr	r0, [sp, #228]	; 0xe4
    3986:	b03c      	add	sp, #240	; 0xf0
    3988:	f85d bb04 	ldr.w	fp, [sp], #4
    398c:	bdf0      	pop	{r4, r5, r6, r7, pc}

0000398e <HAL_UartInit>:
    398e:	b580      	push	{r7, lr}
    3990:	466f      	mov	r7, sp
    3992:	b084      	sub	sp, #16
    3994:	9101      	str	r1, [sp, #4]
    3996:	9002      	str	r0, [sp, #8]
    3998:	f000 f812 	bl	39c0 <HAL_UartInitCommon>
    399c:	4601      	mov	r1, r0
    399e:	9103      	str	r1, [sp, #12]
    39a0:	b118      	cbz	r0, 39aa <HAL_UartInit+0x1c>
    39a2:	e7ff      	b.n	39a4 <HAL_UartInit+0x16>
    39a4:	9803      	ldr	r0, [sp, #12]
    39a6:	9000      	str	r0, [sp, #0]
    39a8:	e006      	b.n	39b8 <HAL_UartInit+0x2a>
    39aa:	9902      	ldr	r1, [sp, #8]
    39ac:	9801      	ldr	r0, [sp, #4]
    39ae:	7b80      	ldrb	r0, [r0, #14]
    39b0:	7008      	strb	r0, [r1, #0]
    39b2:	2000      	movs	r0, #0
    39b4:	9000      	str	r0, [sp, #0]
    39b6:	e7ff      	b.n	39b8 <HAL_UartInit+0x2a>
    39b8:	9800      	ldr	r0, [sp, #0]
    39ba:	b280      	uxth	r0, r0
    39bc:	b004      	add	sp, #16
    39be:	bd80      	pop	{r7, pc}

000039c0 <HAL_UartInitCommon>:
    39c0:	b580      	push	{r7, lr}
    39c2:	466f      	mov	r7, sp
    39c4:	b088      	sub	sp, #32
    39c6:	9102      	str	r1, [sp, #8]
    39c8:	b108      	cbz	r0, 39ce <HAL_UartInitCommon+0xe>
    39ca:	e7ff      	b.n	39cc <HAL_UartInitCommon+0xc>
    39cc:	e00f      	b.n	39ee <HAL_UartInitCommon+0x2e>
    39ce:	f649 00bd 	movw	r0, #39101	; 0x98bd
    39d2:	f2c0 0000 	movt	r0, #0
    39d6:	f649 123f 	movw	r2, #39231	; 0x993f
    39da:	f2c0 0200 	movt	r2, #0
    39de:	f249 132c 	movw	r3, #37164	; 0x912c
    39e2:	f2c0 0300 	movt	r3, #0
    39e6:	f44f 718c 	mov.w	r1, #280	; 0x118
    39ea:	f001 fc6c 	bl	52c6 <__assert_func>
    39ee:	9802      	ldr	r0, [sp, #8]
    39f0:	b108      	cbz	r0, 39f6 <HAL_UartInitCommon+0x36>
    39f2:	e7ff      	b.n	39f4 <HAL_UartInitCommon+0x34>
    39f4:	e00f      	b.n	3a16 <HAL_UartInitCommon+0x56>
    39f6:	f649 00bd 	movw	r0, #39101	; 0x98bd
    39fa:	f2c0 0000 	movt	r0, #0
    39fe:	f649 123f 	movw	r2, #39231	; 0x993f
    3a02:	f2c0 0200 	movt	r2, #0
    3a06:	f249 2302 	movw	r3, #37378	; 0x9202
    3a0a:	f2c0 0300 	movt	r3, #0
    3a0e:	f240 1119 	movw	r1, #281	; 0x119
    3a12:	f001 fc58 	bl	52c6 <__assert_func>
    3a16:	9802      	ldr	r0, [sp, #8]
    3a18:	7b80      	ldrb	r0, [r0, #14]
    3a1a:	2807      	cmp	r0, #7
    3a1c:	d801      	bhi.n	3a22 <HAL_UartInitCommon+0x62>
    3a1e:	e7ff      	b.n	3a20 <HAL_UartInitCommon+0x60>
    3a20:	e00f      	b.n	3a42 <HAL_UartInitCommon+0x82>
    3a22:	f649 00bd 	movw	r0, #39101	; 0x98bd
    3a26:	f2c0 0000 	movt	r0, #0
    3a2a:	f649 123f 	movw	r2, #39231	; 0x993f
    3a2e:	f2c0 0200 	movt	r2, #0
    3a32:	f649 1352 	movw	r3, #39250	; 0x9952
    3a36:	f2c0 0300 	movt	r3, #0
    3a3a:	f44f 718d 	mov.w	r1, #282	; 0x11a
    3a3e:	f001 fc42 	bl	52c6 <__assert_func>
    3a42:	9802      	ldr	r0, [sp, #8]
    3a44:	7b81      	ldrb	r1, [r0, #14]
    3a46:	f649 10c0 	movw	r0, #39360	; 0x99c0
    3a4a:	f2c0 0000 	movt	r0, #0
    3a4e:	f850 0021 	ldr.w	r0, [r0, r1, lsl #2]
    3a52:	b108      	cbz	r0, 3a58 <HAL_UartInitCommon+0x98>
    3a54:	e7ff      	b.n	3a56 <HAL_UartInitCommon+0x96>
    3a56:	e00f      	b.n	3a78 <HAL_UartInitCommon+0xb8>
    3a58:	f649 00bd 	movw	r0, #39101	; 0x98bd
    3a5c:	f2c0 0000 	movt	r0, #0
    3a60:	f649 123f 	movw	r2, #39231	; 0x993f
    3a64:	f2c0 0200 	movt	r2, #0
    3a68:	f649 1399 	movw	r3, #39321	; 0x9999
    3a6c:	f2c0 0300 	movt	r3, #0
    3a70:	f240 111b 	movw	r1, #283	; 0x11b
    3a74:	f001 fc27 	bl	52c6 <__assert_func>
    3a78:	a803      	add	r0, sp, #12
    3a7a:	f7ff fb79 	bl	3170 <USART_GetDefaultConfig>
    3a7e:	9802      	ldr	r0, [sp, #8]
    3a80:	6841      	ldr	r1, [r0, #4]
    3a82:	9103      	str	r1, [sp, #12]
    3a84:	7b00      	ldrb	r0, [r0, #12]
    3a86:	b920      	cbnz	r0, 3a92 <HAL_UartInitCommon+0xd2>
    3a88:	e7ff      	b.n	3a8a <HAL_UartInitCommon+0xca>
    3a8a:	9802      	ldr	r0, [sp, #8]
    3a8c:	7b40      	ldrb	r0, [r0, #13]
    3a8e:	b120      	cbz	r0, 3a9a <HAL_UartInitCommon+0xda>
    3a90:	e7ff      	b.n	3a92 <HAL_UartInitCommon+0xd2>
    3a92:	2001      	movs	r0, #1
    3a94:	f88d 0018 	strb.w	r0, [sp, #24]
    3a98:	e7ff      	b.n	3a9a <HAL_UartInitCommon+0xda>
    3a9a:	9802      	ldr	r0, [sp, #8]
    3a9c:	7a00      	ldrb	r0, [r0, #8]
    3a9e:	2802      	cmp	r0, #2
    3aa0:	d104      	bne.n	3aac <HAL_UartInitCommon+0xec>
    3aa2:	e7ff      	b.n	3aa4 <HAL_UartInitCommon+0xe4>
    3aa4:	2002      	movs	r0, #2
    3aa6:	f88d 0010 	strb.w	r0, [sp, #16]
    3aaa:	e00d      	b.n	3ac8 <HAL_UartInitCommon+0x108>
    3aac:	9802      	ldr	r0, [sp, #8]
    3aae:	7a00      	ldrb	r0, [r0, #8]
    3ab0:	2803      	cmp	r0, #3
    3ab2:	d104      	bne.n	3abe <HAL_UartInitCommon+0xfe>
    3ab4:	e7ff      	b.n	3ab6 <HAL_UartInitCommon+0xf6>
    3ab6:	2003      	movs	r0, #3
    3ab8:	f88d 0010 	strb.w	r0, [sp, #16]
    3abc:	e003      	b.n	3ac6 <HAL_UartInitCommon+0x106>
    3abe:	2000      	movs	r0, #0
    3ac0:	f88d 0010 	strb.w	r0, [sp, #16]
    3ac4:	e7ff      	b.n	3ac6 <HAL_UartInitCommon+0x106>
    3ac6:	e7ff      	b.n	3ac8 <HAL_UartInitCommon+0x108>
    3ac8:	9802      	ldr	r0, [sp, #8]
    3aca:	7a40      	ldrb	r0, [r0, #9]
    3acc:	2801      	cmp	r0, #1
    3ace:	d104      	bne.n	3ada <HAL_UartInitCommon+0x11a>
    3ad0:	e7ff      	b.n	3ad2 <HAL_UartInitCommon+0x112>
    3ad2:	2001      	movs	r0, #1
    3ad4:	f88d 0011 	strb.w	r0, [sp, #17]
    3ad8:	e003      	b.n	3ae2 <HAL_UartInitCommon+0x122>
    3ada:	2000      	movs	r0, #0
    3adc:	f88d 0011 	strb.w	r0, [sp, #17]
    3ae0:	e7ff      	b.n	3ae2 <HAL_UartInitCommon+0x122>
    3ae2:	9902      	ldr	r1, [sp, #8]
    3ae4:	7a88      	ldrb	r0, [r1, #10]
    3ae6:	2800      	cmp	r0, #0
    3ae8:	bf18      	it	ne
    3aea:	2001      	movne	r0, #1
    3aec:	f88d 0014 	strb.w	r0, [sp, #20]
    3af0:	7ac8      	ldrb	r0, [r1, #11]
    3af2:	2800      	cmp	r0, #0
    3af4:	bf18      	it	ne
    3af6:	2001      	movne	r0, #1
    3af8:	f88d 0015 	strb.w	r0, [sp, #21]
    3afc:	2000      	movs	r0, #0
    3afe:	f88d 0019 	strb.w	r0, [sp, #25]
    3b02:	f88d 001a 	strb.w	r0, [sp, #26]
    3b06:	7b8a      	ldrb	r2, [r1, #14]
    3b08:	f649 10c0 	movw	r0, #39360	; 0x99c0
    3b0c:	f2c0 0000 	movt	r0, #0
    3b10:	f850 0022 	ldr.w	r0, [r0, r2, lsl #2]
    3b14:	680a      	ldr	r2, [r1, #0]
    3b16:	a903      	add	r1, sp, #12
    3b18:	f7ff f93a 	bl	2d90 <USART_Init>
    3b1c:	4601      	mov	r1, r0
    3b1e:	9101      	str	r1, [sp, #4]
    3b20:	b128      	cbz	r0, 3b2e <HAL_UartInitCommon+0x16e>
    3b22:	e7ff      	b.n	3b24 <HAL_UartInitCommon+0x164>
    3b24:	9801      	ldr	r0, [sp, #4]
    3b26:	f000 f809 	bl	3b3c <HAL_UartGetStatus>
    3b2a:	9000      	str	r0, [sp, #0]
    3b2c:	e002      	b.n	3b34 <HAL_UartInitCommon+0x174>
    3b2e:	2000      	movs	r0, #0
    3b30:	9000      	str	r0, [sp, #0]
    3b32:	e7ff      	b.n	3b34 <HAL_UartInitCommon+0x174>
    3b34:	9800      	ldr	r0, [sp, #0]
    3b36:	b280      	uxth	r0, r0
    3b38:	b008      	add	sp, #32
    3b3a:	bd80      	pop	{r7, pc}

00003b3c <HAL_UartGetStatus>:
    3b3c:	b081      	sub	sp, #4
    3b3e:	b918      	cbnz	r0, 3b48 <HAL_UartGetStatus+0xc>
    3b40:	e7ff      	b.n	3b42 <HAL_UartGetStatus+0x6>
    3b42:	2000      	movs	r0, #0
    3b44:	9000      	str	r0, [sp, #0]
    3b46:	e003      	b.n	3b50 <HAL_UartGetStatus+0x14>
    3b48:	f642 70af 	movw	r0, #12207	; 0x2faf
    3b4c:	9000      	str	r0, [sp, #0]
    3b4e:	e7ff      	b.n	3b50 <HAL_UartGetStatus+0x14>
    3b50:	9800      	ldr	r0, [sp, #0]
    3b52:	b280      	uxth	r0, r0
    3b54:	b001      	add	sp, #4
    3b56:	4770      	bx	lr

00003b58 <HAL_UartSendBlocking>:
    3b58:	b580      	push	{r7, lr}
    3b5a:	466f      	mov	r7, sp
    3b5c:	b084      	sub	sp, #16
    3b5e:	9201      	str	r2, [sp, #4]
    3b60:	9102      	str	r1, [sp, #8]
    3b62:	9003      	str	r0, [sp, #12]
    3b64:	b108      	cbz	r0, 3b6a <HAL_UartSendBlocking+0x12>
    3b66:	e7ff      	b.n	3b68 <HAL_UartSendBlocking+0x10>
    3b68:	e00f      	b.n	3b8a <HAL_UartSendBlocking+0x32>
    3b6a:	f649 00bd 	movw	r0, #39101	; 0x98bd
    3b6e:	f2c0 0000 	movt	r0, #0
    3b72:	f649 1214 	movw	r2, #39188	; 0x9914
    3b76:	f2c0 0200 	movt	r2, #0
    3b7a:	f249 132c 	movw	r3, #37164	; 0x912c
    3b7e:	f2c0 0300 	movt	r3, #0
    3b82:	f44f 71cb 	mov.w	r1, #406	; 0x196
    3b86:	f001 fb9e 	bl	52c6 <__assert_func>
    3b8a:	9802      	ldr	r0, [sp, #8]
    3b8c:	b108      	cbz	r0, 3b92 <HAL_UartSendBlocking+0x3a>
    3b8e:	e7ff      	b.n	3b90 <HAL_UartSendBlocking+0x38>
    3b90:	e00f      	b.n	3bb2 <HAL_UartSendBlocking+0x5a>
    3b92:	f649 00bd 	movw	r0, #39101	; 0x98bd
    3b96:	f2c0 0000 	movt	r0, #0
    3b9a:	f649 1214 	movw	r2, #39188	; 0x9914
    3b9e:	f2c0 0200 	movt	r2, #0
    3ba2:	f649 1308 	movw	r3, #39176	; 0x9908
    3ba6:	f2c0 0300 	movt	r3, #0
    3baa:	f240 1197 	movw	r1, #407	; 0x197
    3bae:	f001 fb8a 	bl	52c6 <__assert_func>
    3bb2:	9801      	ldr	r0, [sp, #4]
    3bb4:	b108      	cbz	r0, 3bba <HAL_UartSendBlocking+0x62>
    3bb6:	e7ff      	b.n	3bb8 <HAL_UartSendBlocking+0x60>
    3bb8:	e00f      	b.n	3bda <HAL_UartSendBlocking+0x82>
    3bba:	f649 00bd 	movw	r0, #39101	; 0x98bd
    3bbe:	f2c0 0000 	movt	r0, #0
    3bc2:	f649 1214 	movw	r2, #39188	; 0x9914
    3bc6:	f2c0 0200 	movt	r2, #0
    3bca:	f649 130d 	movw	r3, #39181	; 0x990d
    3bce:	f2c0 0300 	movt	r3, #0
    3bd2:	f44f 71cc 	mov.w	r1, #408	; 0x198
    3bd6:	f001 fb76 	bl	52c6 <__assert_func>
    3bda:	9a01      	ldr	r2, [sp, #4]
    3bdc:	9902      	ldr	r1, [sp, #8]
    3bde:	9803      	ldr	r0, [sp, #12]
    3be0:	7803      	ldrb	r3, [r0, #0]
    3be2:	f649 10c0 	movw	r0, #39360	; 0x99c0
    3be6:	f2c0 0000 	movt	r0, #0
    3bea:	f850 0023 	ldr.w	r0, [r0, r3, lsl #2]
    3bee:	f7ff faf1 	bl	31d4 <USART_WriteBlocking>
    3bf2:	2000      	movs	r0, #0
    3bf4:	b004      	add	sp, #16
    3bf6:	bd80      	pop	{r7, pc}

00003bf8 <Serial_UartInit>:
    3bf8:	b580      	push	{r7, lr}
    3bfa:	466f      	mov	r7, sp
    3bfc:	b084      	sub	sp, #16
    3bfe:	9102      	str	r1, [sp, #8]
    3c00:	9003      	str	r0, [sp, #12]
    3c02:	e7ff      	b.n	3c04 <Serial_UartInit+0xc>
    3c04:	9802      	ldr	r0, [sp, #8]
    3c06:	b908      	cbnz	r0, 3c0c <Serial_UartInit+0x14>
    3c08:	e7ff      	b.n	3c0a <Serial_UartInit+0x12>
    3c0a:	e7fb      	b.n	3c04 <Serial_UartInit+0xc>
    3c0c:	e7ff      	b.n	3c0e <Serial_UartInit+0x16>
    3c0e:	9803      	ldr	r0, [sp, #12]
    3c10:	b908      	cbnz	r0, 3c16 <Serial_UartInit+0x1e>
    3c12:	e7ff      	b.n	3c14 <Serial_UartInit+0x1c>
    3c14:	e7fb      	b.n	3c0e <Serial_UartInit+0x16>
    3c16:	e7ff      	b.n	3c18 <Serial_UartInit+0x20>
    3c18:	2001      	movs	r0, #1
    3c1a:	b908      	cbnz	r0, 3c20 <Serial_UartInit+0x28>
    3c1c:	e7ff      	b.n	3c1e <Serial_UartInit+0x26>
    3c1e:	e7fb      	b.n	3c18 <Serial_UartInit+0x20>
    3c20:	9902      	ldr	r1, [sp, #8]
    3c22:	9803      	ldr	r0, [sp, #12]
    3c24:	f7ff feb3 	bl	398e <HAL_UartInit>
    3c28:	9001      	str	r0, [sp, #4]
    3c2a:	e7ff      	b.n	3c2c <Serial_UartInit+0x34>
    3c2c:	9801      	ldr	r0, [sp, #4]
    3c2e:	0400      	lsls	r0, r0, #16
    3c30:	b108      	cbz	r0, 3c36 <Serial_UartInit+0x3e>
    3c32:	e7ff      	b.n	3c34 <Serial_UartInit+0x3c>
    3c34:	e7fa      	b.n	3c2c <Serial_UartInit+0x34>
    3c36:	9801      	ldr	r0, [sp, #4]
    3c38:	b280      	uxth	r0, r0
    3c3a:	b004      	add	sp, #16
    3c3c:	bd80      	pop	{r7, pc}

00003c3e <Serial_UartWrite>:
    3c3e:	b580      	push	{r7, lr}
