
../lpc_firmware/freertos_gpio/output/freertos_gpio.elf:     file format elf32-littlearm


Disassembly of section .text:

00000200 <__do_global_dtors_aux>:
     200:	b510      	push	{r4, lr}
     202:	4c05      	ldr	r4, [pc, #20]	; (218 <__do_global_dtors_aux+0x18>)
     204:	7823      	ldrb	r3, [r4, #0]
     206:	b933      	cbnz	r3, 216 <__do_global_dtors_aux+0x16>
     208:	4b04      	ldr	r3, [pc, #16]	; (21c <__do_global_dtors_aux+0x1c>)
     20a:	b113      	cbz	r3, 212 <__do_global_dtors_aux+0x12>
     20c:	4804      	ldr	r0, [pc, #16]	; (220 <__do_global_dtors_aux+0x20>)
     20e:	f3af 8000 	nop.w
     212:	2301      	movs	r3, #1
     214:	7023      	strb	r3, [r4, #0]
     216:	bd10      	pop	{r4, pc}
     218:	200009b8 	.word	0x200009b8
     21c:	00000000 	.word	0x00000000
     220:	00006d3c 	.word	0x00006d3c

00000224 <frame_dummy>:
     224:	b508      	push	{r3, lr}
     226:	4b03      	ldr	r3, [pc, #12]	; (234 <frame_dummy+0x10>)
     228:	b11b      	cbz	r3, 232 <frame_dummy+0xe>
     22a:	4903      	ldr	r1, [pc, #12]	; (238 <frame_dummy+0x14>)
     22c:	4803      	ldr	r0, [pc, #12]	; (23c <frame_dummy+0x18>)
     22e:	f3af 8000 	nop.w
     232:	bd08      	pop	{r3, pc}
     234:	00000000 	.word	0x00000000
     238:	200009bc 	.word	0x200009bc
     23c:	00006d3c 	.word	0x00006d3c

00000240 <_stack_init>:
     240:	f5a3 3a80 	sub.w	sl, r3, #65536	; 0x10000
     244:	4770      	bx	lr
     246:	bf00      	nop

00000248 <_mainCRTStartup>:
     248:	4b17      	ldr	r3, [pc, #92]	; (2a8 <_mainCRTStartup+0x60>)
     24a:	2b00      	cmp	r3, #0
     24c:	bf08      	it	eq
     24e:	4b13      	ldreq	r3, [pc, #76]	; (29c <_mainCRTStartup+0x54>)
     250:	469d      	mov	sp, r3
     252:	f7ff fff5 	bl	240 <_stack_init>
     256:	2100      	movs	r1, #0
     258:	468b      	mov	fp, r1
     25a:	460f      	mov	r7, r1
     25c:	4813      	ldr	r0, [pc, #76]	; (2ac <_mainCRTStartup+0x64>)
     25e:	4a14      	ldr	r2, [pc, #80]	; (2b0 <_mainCRTStartup+0x68>)
     260:	1a12      	subs	r2, r2, r0
     262:	f003 feb7 	bl	3fd4 <memset>
     266:	4b0e      	ldr	r3, [pc, #56]	; (2a0 <_mainCRTStartup+0x58>)
     268:	2b00      	cmp	r3, #0
     26a:	d000      	beq.n	26e <_mainCRTStartup+0x26>
     26c:	4798      	blx	r3
     26e:	4b0d      	ldr	r3, [pc, #52]	; (2a4 <_mainCRTStartup+0x5c>)
     270:	2b00      	cmp	r3, #0
     272:	d000      	beq.n	276 <_mainCRTStartup+0x2e>
     274:	4798      	blx	r3
     276:	2000      	movs	r0, #0
     278:	2100      	movs	r1, #0
     27a:	0004      	movs	r4, r0
     27c:	000d      	movs	r5, r1
     27e:	480d      	ldr	r0, [pc, #52]	; (2b4 <_mainCRTStartup+0x6c>)
     280:	2800      	cmp	r0, #0
     282:	d002      	beq.n	28a <_mainCRTStartup+0x42>
     284:	480c      	ldr	r0, [pc, #48]	; (2b8 <_mainCRTStartup+0x70>)
     286:	f005 f819 	bl	52bc <atexit>
     28a:	f003 fbbf 	bl	3a0c <__libc_init_array>
     28e:	0020      	movs	r0, r4
     290:	0029      	movs	r1, r5
     292:	f003 faf7 	bl	3884 <main>
     296:	f003 fb95 	bl	39c4 <exit>
     29a:	bf00      	nop
     29c:	00080000 	.word	0x00080000
	...
     2a8:	20033000 	.word	0x20033000
     2ac:	200009b8 	.word	0x200009b8
     2b0:	200033c0 	.word	0x200033c0
     2b4:	000052bd 	.word	0x000052bd
     2b8:	000055a5 	.word	0x000055a5

000002bc <Reset_Handler>:
     2bc:	b672      	cpsid	i
     2be:	4817      	ldr	r0, [pc, #92]	; (31c <Reset_Handler+0x60>)
     2c0:	4917      	ldr	r1, [pc, #92]	; (320 <Reset_Handler+0x64>)
     2c2:	6001      	str	r1, [r0, #0]
     2c4:	680a      	ldr	r2, [r1, #0]
     2c6:	f382 8808 	msr	MSP, r2
     2ca:	4816      	ldr	r0, [pc, #88]	; (324 <Reset_Handler+0x68>)
     2cc:	f380 880a 	msr	MSPLIM, r0
     2d0:	4815      	ldr	r0, [pc, #84]	; (328 <Reset_Handler+0x6c>)
     2d2:	4780      	blx	r0
     2d4:	4915      	ldr	r1, [pc, #84]	; (32c <Reset_Handler+0x70>)
     2d6:	4a16      	ldr	r2, [pc, #88]	; (330 <Reset_Handler+0x74>)
     2d8:	4b16      	ldr	r3, [pc, #88]	; (334 <Reset_Handler+0x78>)
     2da:	429a      	cmp	r2, r3
     2dc:	bfbe      	ittt	lt
     2de:	f851 0b04 	ldrlt.w	r0, [r1], #4
     2e2:	f842 0b04 	strlt.w	r0, [r2], #4
     2e6:	e7f8      	blt.n	2da <Reset_Handler+0x1e>
     2e8:	4913      	ldr	r1, [pc, #76]	; (338 <Reset_Handler+0x7c>)
     2ea:	4a14      	ldr	r2, [pc, #80]	; (33c <Reset_Handler+0x80>)
     2ec:	2000      	movs	r0, #0
     2ee:	4291      	cmp	r1, r2
     2f0:	bfbc      	itt	lt
     2f2:	f841 0b04 	strlt.w	r0, [r1], #4
     2f6:	e7fa      	blt.n	2ee <Reset_Handler+0x32>
     2f8:	2000      	movs	r0, #0
     2fa:	4911      	ldr	r1, [pc, #68]	; (340 <Reset_Handler+0x84>)
     2fc:	4a11      	ldr	r2, [pc, #68]	; (344 <Reset_Handler+0x88>)
     2fe:	4291      	cmp	r1, r2
     300:	bfbc      	itt	lt
     302:	f841 0b04 	strlt.w	r0, [r1], #4
     306:	e7fa      	blt.n	2fe <Reset_Handler+0x42>
     308:	490f      	ldr	r1, [pc, #60]	; (348 <Reset_Handler+0x8c>)
     30a:	4a10      	ldr	r2, [pc, #64]	; (34c <Reset_Handler+0x90>)
     30c:	4291      	cmp	r1, r2
     30e:	bfbc      	itt	lt
     310:	f841 0b04 	strlt.w	r0, [r1], #4
     314:	e7fa      	blt.n	30c <Reset_Handler+0x50>
     316:	b662      	cpsie	i
     318:	480d      	ldr	r0, [pc, #52]	; (350 <Reset_Handler+0x94>)
     31a:	4780      	blx	r0
     31c:	e000ed08 	.word	0xe000ed08
     320:	00000000 	.word	0x00000000
     324:	20032800 	.word	0x20032800
     328:	0000096d 	.word	0x0000096d
     32c:	00006d68 	.word	0x00006d68
     330:	20000000 	.word	0x20000000
     334:	200009b8 	.word	0x200009b8
     338:	200009b8 	.word	0x200009b8
     33c:	200033c0 	.word	0x200033c0
     340:	200033c0 	.word	0x200033c0
     344:	200037c0 	.word	0x200037c0
     348:	20032800 	.word	0x20032800
     34c:	20033000 	.word	0x20033000
     350:	00000249 	.word	0x00000249

00000354 <ACMP_DriverIRQHandler>:
     354:	f7ff bffe 	b.w	354 <ACMP_DriverIRQHandler>

00000358 <NMI_Handler>:
     358:	4840      	ldr	r0, [pc, #256]	; (45c <FLEXCOMM8_IRQHandler+0x4>)
     35a:	4700      	bx	r0

0000035c <HardFault_Handler>:
     35c:	4840      	ldr	r0, [pc, #256]	; (460 <FLEXCOMM8_IRQHandler+0x8>)
     35e:	4700      	bx	r0
     360:	4840      	ldr	r0, [pc, #256]	; (464 <FLEXCOMM8_IRQHandler+0xc>)
     362:	4700      	bx	r0
     364:	4840      	ldr	r0, [pc, #256]	; (468 <FLEXCOMM8_IRQHandler+0x10>)
     366:	4700      	bx	r0
     368:	4840      	ldr	r0, [pc, #256]	; (46c <FLEXCOMM8_IRQHandler+0x14>)
     36a:	4700      	bx	r0

0000036c <WDT_BOD_IRQHandler>:
     36c:	4840      	ldr	r0, [pc, #256]	; (470 <FLEXCOMM8_IRQHandler+0x18>)
     36e:	4700      	bx	r0

00000370 <DMA0_IRQHandler>:
     370:	4840      	ldr	r0, [pc, #256]	; (474 <FLEXCOMM8_IRQHandler+0x1c>)
     372:	4700      	bx	r0

00000374 <GINT0_IRQHandler>:
     374:	4840      	ldr	r0, [pc, #256]	; (478 <FLEXCOMM8_IRQHandler+0x20>)
     376:	4700      	bx	r0

00000378 <GINT1_IRQHandler>:
     378:	4840      	ldr	r0, [pc, #256]	; (47c <FLEXCOMM8_IRQHandler+0x24>)
     37a:	4700      	bx	r0

0000037c <PIN_INT0_IRQHandler>:
     37c:	4840      	ldr	r0, [pc, #256]	; (480 <FLEXCOMM8_IRQHandler+0x28>)
     37e:	4700      	bx	r0

00000380 <PIN_INT1_IRQHandler>:
     380:	4840      	ldr	r0, [pc, #256]	; (484 <FLEXCOMM8_IRQHandler+0x2c>)
     382:	4700      	bx	r0

00000384 <PIN_INT2_IRQHandler>:
     384:	4840      	ldr	r0, [pc, #256]	; (488 <FLEXCOMM8_IRQHandler+0x30>)
     386:	4700      	bx	r0

00000388 <PIN_INT3_IRQHandler>:
     388:	4840      	ldr	r0, [pc, #256]	; (48c <FLEXCOMM8_IRQHandler+0x34>)
     38a:	4700      	bx	r0

0000038c <UTICK0_IRQHandler>:
     38c:	4840      	ldr	r0, [pc, #256]	; (490 <FLEXCOMM8_IRQHandler+0x38>)
     38e:	4700      	bx	r0

00000390 <MRT0_IRQHandler>:
     390:	4840      	ldr	r0, [pc, #256]	; (494 <FLEXCOMM8_IRQHandler+0x3c>)
     392:	4700      	bx	r0

00000394 <CTIMER0_IRQHandler>:
     394:	4840      	ldr	r0, [pc, #256]	; (498 <FLEXCOMM8_IRQHandler+0x40>)
     396:	4700      	bx	r0

00000398 <CTIMER1_IRQHandler>:
     398:	4840      	ldr	r0, [pc, #256]	; (49c <FLEXCOMM8_IRQHandler+0x44>)
     39a:	4700      	bx	r0

0000039c <SCT0_IRQHandler>:
     39c:	4840      	ldr	r0, [pc, #256]	; (4a0 <FLEXCOMM8_IRQHandler+0x48>)
     39e:	4700      	bx	r0

000003a0 <CTIMER3_IRQHandler>:
     3a0:	4840      	ldr	r0, [pc, #256]	; (4a4 <FLEXCOMM8_IRQHandler+0x4c>)
     3a2:	4700      	bx	r0

000003a4 <FLEXCOMM0_IRQHandler>:
     3a4:	4840      	ldr	r0, [pc, #256]	; (4a8 <FLEXCOMM8_IRQHandler+0x50>)
     3a6:	4700      	bx	r0

000003a8 <FLEXCOMM1_IRQHandler>:
     3a8:	4840      	ldr	r0, [pc, #256]	; (4ac <FLEXCOMM8_IRQHandler+0x54>)
     3aa:	4700      	bx	r0

000003ac <FLEXCOMM2_IRQHandler>:
     3ac:	4840      	ldr	r0, [pc, #256]	; (4b0 <FLEXCOMM8_IRQHandler+0x58>)
     3ae:	4700      	bx	r0

000003b0 <FLEXCOMM3_IRQHandler>:
     3b0:	4840      	ldr	r0, [pc, #256]	; (4b4 <FLEXCOMM8_IRQHandler+0x5c>)
     3b2:	4700      	bx	r0

000003b4 <FLEXCOMM4_IRQHandler>:
     3b4:	4840      	ldr	r0, [pc, #256]	; (4b8 <FLEXCOMM8_IRQHandler+0x60>)
     3b6:	4700      	bx	r0

000003b8 <FLEXCOMM5_IRQHandler>:
     3b8:	4840      	ldr	r0, [pc, #256]	; (4bc <FLEXCOMM8_IRQHandler+0x64>)
     3ba:	4700      	bx	r0

000003bc <FLEXCOMM6_IRQHandler>:
     3bc:	4840      	ldr	r0, [pc, #256]	; (4c0 <FLEXCOMM8_IRQHandler+0x68>)
     3be:	4700      	bx	r0

000003c0 <FLEXCOMM7_IRQHandler>:
     3c0:	4840      	ldr	r0, [pc, #256]	; (4c4 <FLEXCOMM8_IRQHandler+0x6c>)
     3c2:	4700      	bx	r0

000003c4 <ADC0_IRQHandler>:
     3c4:	4840      	ldr	r0, [pc, #256]	; (4c8 <FLEXCOMM8_IRQHandler+0x70>)
     3c6:	4700      	bx	r0

000003c8 <Reserved39_IRQHandler>:
     3c8:	4840      	ldr	r0, [pc, #256]	; (4cc <FLEXCOMM8_IRQHandler+0x74>)
     3ca:	4700      	bx	r0

000003cc <ACMP_IRQHandler>:
     3cc:	4840      	ldr	r0, [pc, #256]	; (4d0 <FLEXCOMM8_IRQHandler+0x78>)
     3ce:	4700      	bx	r0

000003d0 <Reserved41_IRQHandler>:
     3d0:	4840      	ldr	r0, [pc, #256]	; (4d4 <FLEXCOMM8_IRQHandler+0x7c>)
     3d2:	4700      	bx	r0

000003d4 <Reserved42_IRQHandler>:
     3d4:	4840      	ldr	r0, [pc, #256]	; (4d8 <FLEXCOMM8_IRQHandler+0x80>)
     3d6:	4700      	bx	r0

000003d8 <USB0_NEEDCLK_IRQHandler>:
     3d8:	4840      	ldr	r0, [pc, #256]	; (4dc <FLEXCOMM8_IRQHandler+0x84>)
     3da:	4700      	bx	r0

000003dc <USB0_IRQHandler>:
     3dc:	4840      	ldr	r0, [pc, #256]	; (4e0 <FLEXCOMM8_IRQHandler+0x88>)
     3de:	4700      	bx	r0

000003e0 <RTC_IRQHandler>:
     3e0:	4840      	ldr	r0, [pc, #256]	; (4e4 <FLEXCOMM8_IRQHandler+0x8c>)
     3e2:	4700      	bx	r0

000003e4 <Reserved46_IRQHandler>:
     3e4:	4840      	ldr	r0, [pc, #256]	; (4e8 <FLEXCOMM8_IRQHandler+0x90>)
     3e6:	4700      	bx	r0

000003e8 <MAILBOX_IRQHandler>:
     3e8:	4840      	ldr	r0, [pc, #256]	; (4ec <FLEXCOMM8_IRQHandler+0x94>)
     3ea:	4700      	bx	r0

000003ec <PIN_INT4_IRQHandler>:
     3ec:	4840      	ldr	r0, [pc, #256]	; (4f0 <FLEXCOMM8_IRQHandler+0x98>)
     3ee:	4700      	bx	r0

000003f0 <PIN_INT5_IRQHandler>:
     3f0:	4840      	ldr	r0, [pc, #256]	; (4f4 <FLEXCOMM8_IRQHandler+0x9c>)
     3f2:	4700      	bx	r0

000003f4 <PIN_INT6_IRQHandler>:
     3f4:	4840      	ldr	r0, [pc, #256]	; (4f8 <FLEXCOMM8_IRQHandler+0xa0>)
     3f6:	4700      	bx	r0

000003f8 <PIN_INT7_IRQHandler>:
     3f8:	4840      	ldr	r0, [pc, #256]	; (4fc <FLEXCOMM8_IRQHandler+0xa4>)
     3fa:	4700      	bx	r0

000003fc <CTIMER2_IRQHandler>:
     3fc:	4840      	ldr	r0, [pc, #256]	; (500 <FLEXCOMM8_IRQHandler+0xa8>)
     3fe:	4700      	bx	r0

00000400 <CTIMER4_IRQHandler>:
     400:	4840      	ldr	r0, [pc, #256]	; (504 <FLEXCOMM8_IRQHandler+0xac>)
     402:	4700      	bx	r0

00000404 <OS_EVENT_IRQHandler>:
     404:	4840      	ldr	r0, [pc, #256]	; (508 <FLEXCOMM8_IRQHandler+0xb0>)
     406:	4700      	bx	r0

00000408 <Reserved55_IRQHandler>:
     408:	4840      	ldr	r0, [pc, #256]	; (50c <FLEXCOMM8_IRQHandler+0xb4>)
     40a:	4700      	bx	r0

0000040c <Reserved56_IRQHandler>:
     40c:	4840      	ldr	r0, [pc, #256]	; (510 <FLEXCOMM8_IRQHandler+0xb8>)
     40e:	4700      	bx	r0

00000410 <Reserved57_IRQHandler>:
     410:	4840      	ldr	r0, [pc, #256]	; (514 <FLEXCOMM8_IRQHandler+0xbc>)
     412:	4700      	bx	r0

00000414 <SDIO_IRQHandler>:
     414:	4840      	ldr	r0, [pc, #256]	; (518 <FLEXCOMM8_IRQHandler+0xc0>)
     416:	4700      	bx	r0

00000418 <Reserved59_IRQHandler>:
     418:	4840      	ldr	r0, [pc, #256]	; (51c <FLEXCOMM8_IRQHandler+0xc4>)
     41a:	4700      	bx	r0

0000041c <Reserved60_IRQHandler>:
     41c:	4840      	ldr	r0, [pc, #256]	; (520 <FLEXCOMM8_IRQHandler+0xc8>)
     41e:	4700      	bx	r0

00000420 <Reserved61_IRQHandler>:
     420:	4840      	ldr	r0, [pc, #256]	; (524 <FLEXCOMM8_IRQHandler+0xcc>)
     422:	4700      	bx	r0

00000424 <USB1_PHY_IRQHandler>:
     424:	4840      	ldr	r0, [pc, #256]	; (528 <FLEXCOMM8_IRQHandler+0xd0>)
     426:	4700      	bx	r0

00000428 <USB1_IRQHandler>:
     428:	4840      	ldr	r0, [pc, #256]	; (52c <FLEXCOMM8_IRQHandler+0xd4>)
     42a:	4700      	bx	r0

0000042c <USB1_NEEDCLK_IRQHandler>:
     42c:	4840      	ldr	r0, [pc, #256]	; (530 <FLEXCOMM8_IRQHandler+0xd8>)
     42e:	4700      	bx	r0

00000430 <SEC_HYPERVISOR_CALL_IRQHandler>:
     430:	4840      	ldr	r0, [pc, #256]	; (534 <FLEXCOMM8_IRQHandler+0xdc>)
     432:	4700      	bx	r0

00000434 <SEC_GPIO_INT0_IRQ0_IRQHandler>:
     434:	4840      	ldr	r0, [pc, #256]	; (538 <FLEXCOMM8_IRQHandler+0xe0>)
     436:	4700      	bx	r0

00000438 <SEC_GPIO_INT0_IRQ1_IRQHandler>:
     438:	4840      	ldr	r0, [pc, #256]	; (53c <FLEXCOMM8_IRQHandler+0xe4>)
     43a:	4700      	bx	r0

0000043c <PLU_IRQHandler>:
     43c:	4840      	ldr	r0, [pc, #256]	; (540 <FLEXCOMM8_IRQHandler+0xe8>)
     43e:	4700      	bx	r0

00000440 <SEC_VIO_IRQHandler>:
     440:	4840      	ldr	r0, [pc, #256]	; (544 <FLEXCOMM8_IRQHandler+0xec>)
     442:	4700      	bx	r0

00000444 <HASHCRYPT_IRQHandler>:
     444:	4840      	ldr	r0, [pc, #256]	; (548 <FLEXCOMM8_IRQHandler+0xf0>)
     446:	4700      	bx	r0

00000448 <CASER_IRQHandler>:
     448:	4840      	ldr	r0, [pc, #256]	; (54c <FLEXCOMM8_IRQHandler+0xf4>)
     44a:	4700      	bx	r0

0000044c <PUF_IRQHandler>:
     44c:	4840      	ldr	r0, [pc, #256]	; (550 <FLEXCOMM8_IRQHandler+0xf8>)
     44e:	4700      	bx	r0

00000450 <PQ_IRQHandler>:
     450:	4840      	ldr	r0, [pc, #256]	; (554 <FLEXCOMM8_IRQHandler+0xfc>)
     452:	4700      	bx	r0

00000454 <DMA1_IRQHandler>:
     454:	4840      	ldr	r0, [pc, #256]	; (558 <FLEXCOMM8_IRQHandler+0x100>)
     456:	4700      	bx	r0

00000458 <FLEXCOMM8_IRQHandler>:
     458:	4840      	ldr	r0, [pc, #256]	; (55c <FLEXCOMM8_IRQHandler+0x104>)
     45a:	4700      	bx	r0
     45c:	00000359 	.word	0x00000359
     460:	0000035d 	.word	0x0000035d
     464:	00001961 	.word	0x00001961
     468:	000018f1 	.word	0x000018f1
     46c:	000016e9 	.word	0x000016e9
     470:	00000355 	.word	0x00000355
     474:	00000355 	.word	0x00000355
     478:	00000355 	.word	0x00000355
     47c:	00000355 	.word	0x00000355
     480:	00000355 	.word	0x00000355
     484:	00000355 	.word	0x00000355
     488:	00000355 	.word	0x00000355
     48c:	00000355 	.word	0x00000355
     490:	00000355 	.word	0x00000355
     494:	00000355 	.word	0x00000355
     498:	00000355 	.word	0x00000355
     49c:	00000355 	.word	0x00000355
     4a0:	00000355 	.word	0x00000355
     4a4:	00000355 	.word	0x00000355
     4a8:	00000355 	.word	0x00000355
     4ac:	00000355 	.word	0x00000355
     4b0:	00000355 	.word	0x00000355
     4b4:	00000355 	.word	0x00000355
     4b8:	00000355 	.word	0x00000355
     4bc:	00000355 	.word	0x00000355
     4c0:	00000355 	.word	0x00000355
     4c4:	00000355 	.word	0x00000355
     4c8:	00000355 	.word	0x00000355
     4cc:	00000355 	.word	0x00000355
     4d0:	00000355 	.word	0x00000355
     4d4:	00000355 	.word	0x00000355
     4d8:	00000355 	.word	0x00000355
     4dc:	00000355 	.word	0x00000355
     4e0:	00000355 	.word	0x00000355
     4e4:	00000355 	.word	0x00000355
     4e8:	00000355 	.word	0x00000355
     4ec:	00000355 	.word	0x00000355
     4f0:	00000355 	.word	0x00000355
     4f4:	00000355 	.word	0x00000355
     4f8:	00000355 	.word	0x00000355
     4fc:	00000355 	.word	0x00000355
     500:	00000355 	.word	0x00000355
     504:	00000355 	.word	0x00000355
     508:	00000355 	.word	0x00000355
     50c:	00000355 	.word	0x00000355
     510:	00000355 	.word	0x00000355
     514:	00000355 	.word	0x00000355
     518:	00000355 	.word	0x00000355
     51c:	00000355 	.word	0x00000355
     520:	00000355 	.word	0x00000355
     524:	00000355 	.word	0x00000355
     528:	00000355 	.word	0x00000355
     52c:	00000355 	.word	0x00000355
     530:	00000355 	.word	0x00000355
     534:	00000355 	.word	0x00000355
     538:	00000355 	.word	0x00000355
     53c:	00000355 	.word	0x00000355
     540:	00000355 	.word	0x00000355
     544:	00000355 	.word	0x00000355
     548:	00000355 	.word	0x00000355
     54c:	00000355 	.word	0x00000355
     550:	00000355 	.word	0x00000355
     554:	00000355 	.word	0x00000355
     558:	00000355 	.word	0x00000355
     55c:	00000355 	.word	0x00000355

00000560 <__aeabi_uldivmod>:
     560:	b953      	cbnz	r3, 578 <__aeabi_uldivmod+0x18>
     562:	b94a      	cbnz	r2, 578 <__aeabi_uldivmod+0x18>
     564:	2900      	cmp	r1, #0
     566:	bf08      	it	eq
     568:	2800      	cmpeq	r0, #0
     56a:	bf1c      	itt	ne
     56c:	f04f 31ff 	movne.w	r1, #4294967295	; 0xffffffff
     570:	f04f 30ff 	movne.w	r0, #4294967295	; 0xffffffff
     574:	f000 b982 	b.w	87c <__aeabi_idiv0>
     578:	f1ad 0c08 	sub.w	ip, sp, #8
     57c:	e96d ce04 	strd	ip, lr, [sp, #-16]!
     580:	f000 f806 	bl	590 <__udivmoddi4>
     584:	f8dd e004 	ldr.w	lr, [sp, #4]
     588:	e9dd 2302 	ldrd	r2, r3, [sp, #8]
     58c:	b004      	add	sp, #16
     58e:	4770      	bx	lr

00000590 <__udivmoddi4>:
     590:	e92d 4ff0 	stmdb	sp!, {r4, r5, r6, r7, r8, r9, sl, fp, lr}
     594:	9d09      	ldr	r5, [sp, #36]	; 0x24
     596:	460e      	mov	r6, r1
     598:	4604      	mov	r4, r0
     59a:	460f      	mov	r7, r1
     59c:	2b00      	cmp	r3, #0
     59e:	d147      	bne.n	630 <__udivmoddi4+0xa0>
     5a0:	428a      	cmp	r2, r1
     5a2:	4694      	mov	ip, r2
     5a4:	d95f      	bls.n	666 <__udivmoddi4+0xd6>
     5a6:	fab2 f382 	clz	r3, r2
     5aa:	b143      	cbz	r3, 5be <__udivmoddi4+0x2e>
     5ac:	fa02 fc03 	lsl.w	ip, r2, r3
     5b0:	f1c3 0220 	rsb	r2, r3, #32
     5b4:	409f      	lsls	r7, r3
     5b6:	409c      	lsls	r4, r3
     5b8:	fa20 f202 	lsr.w	r2, r0, r2
     5bc:	4317      	orrs	r7, r2
     5be:	ea4f 461c 	mov.w	r6, ip, lsr #16
     5c2:	fa1f fe8c 	uxth.w	lr, ip
     5c6:	0c22      	lsrs	r2, r4, #16
     5c8:	fbb7 f1f6 	udiv	r1, r7, r6
     5cc:	fb06 7711 	mls	r7, r6, r1, r7
     5d0:	fb01 f00e 	mul.w	r0, r1, lr
     5d4:	ea42 4207 	orr.w	r2, r2, r7, lsl #16
     5d8:	4290      	cmp	r0, r2
     5da:	d908      	bls.n	5ee <__udivmoddi4+0x5e>
     5dc:	eb1c 0202 	adds.w	r2, ip, r2
     5e0:	f101 37ff 	add.w	r7, r1, #4294967295	; 0xffffffff
     5e4:	d202      	bcs.n	5ec <__udivmoddi4+0x5c>
     5e6:	4290      	cmp	r0, r2
     5e8:	f200 8137 	bhi.w	85a <STACK_SIZE+0x5a>
     5ec:	4639      	mov	r1, r7
     5ee:	1a12      	subs	r2, r2, r0
     5f0:	b2a4      	uxth	r4, r4
     5f2:	fbb2 f0f6 	udiv	r0, r2, r6
     5f6:	fb06 2210 	mls	r2, r6, r0, r2
     5fa:	fb00 fe0e 	mul.w	lr, r0, lr
     5fe:	ea44 4402 	orr.w	r4, r4, r2, lsl #16
     602:	45a6      	cmp	lr, r4
     604:	d908      	bls.n	618 <__udivmoddi4+0x88>
     606:	eb1c 0404 	adds.w	r4, ip, r4
     60a:	f100 32ff 	add.w	r2, r0, #4294967295	; 0xffffffff
     60e:	d202      	bcs.n	616 <__udivmoddi4+0x86>
     610:	45a6      	cmp	lr, r4
     612:	f200 811c 	bhi.w	84e <STACK_SIZE+0x4e>
     616:	4610      	mov	r0, r2
     618:	ea40 4001 	orr.w	r0, r0, r1, lsl #16
     61c:	eba4 040e 	sub.w	r4, r4, lr
     620:	2100      	movs	r1, #0
     622:	b11d      	cbz	r5, 62c <__udivmoddi4+0x9c>
     624:	40dc      	lsrs	r4, r3
     626:	2300      	movs	r3, #0
     628:	e9c5 4300 	strd	r4, r3, [r5]
     62c:	e8bd 8ff0 	ldmia.w	sp!, {r4, r5, r6, r7, r8, r9, sl, fp, pc}
     630:	428b      	cmp	r3, r1
     632:	d908      	bls.n	646 <__udivmoddi4+0xb6>
     634:	2d00      	cmp	r5, #0
     636:	f000 80fe 	beq.w	836 <STACK_SIZE+0x36>
     63a:	2100      	movs	r1, #0
     63c:	e9c5 0600 	strd	r0, r6, [r5]
     640:	4608      	mov	r0, r1
     642:	e8bd 8ff0 	ldmia.w	sp!, {r4, r5, r6, r7, r8, r9, sl, fp, pc}
     646:	fab3 f183 	clz	r1, r3
     64a:	2900      	cmp	r1, #0
     64c:	d14c      	bne.n	6e8 <__udivmoddi4+0x158>
     64e:	42b3      	cmp	r3, r6
     650:	f0c0 80f4 	bcc.w	83c <STACK_SIZE+0x3c>
     654:	4282      	cmp	r2, r0
     656:	f240 80f1 	bls.w	83c <STACK_SIZE+0x3c>
     65a:	4608      	mov	r0, r1
     65c:	2d00      	cmp	r5, #0
     65e:	d0e5      	beq.n	62c <__udivmoddi4+0x9c>
     660:	e9c5 4700 	strd	r4, r7, [r5]
     664:	e7e2      	b.n	62c <__udivmoddi4+0x9c>
     666:	b902      	cbnz	r2, 66a <__udivmoddi4+0xda>
     668:	deff      	udf	#255	; 0xff
     66a:	fab2 f382 	clz	r3, r2
     66e:	2b00      	cmp	r3, #0
     670:	f040 80a1 	bne.w	7b6 <__udivmoddi4+0x226>
     674:	1a8a      	subs	r2, r1, r2
     676:	ea4f 4e1c 	mov.w	lr, ip, lsr #16
     67a:	fa1f f78c 	uxth.w	r7, ip
     67e:	2101      	movs	r1, #1
     680:	fbb2 f6fe 	udiv	r6, r2, lr
     684:	fb0e 2016 	mls	r0, lr, r6, r2
     688:	0c22      	lsrs	r2, r4, #16
     68a:	ea42 4200 	orr.w	r2, r2, r0, lsl #16
     68e:	fb07 f006 	mul.w	r0, r7, r6
     692:	4290      	cmp	r0, r2
     694:	d90f      	bls.n	6b6 <__udivmoddi4+0x126>
     696:	eb1c 0202 	adds.w	r2, ip, r2
     69a:	f106 38ff 	add.w	r8, r6, #4294967295	; 0xffffffff
     69e:	bf2c      	ite	cs
     6a0:	f04f 0901 	movcs.w	r9, #1
     6a4:	f04f 0900 	movcc.w	r9, #0
     6a8:	4290      	cmp	r0, r2
     6aa:	d903      	bls.n	6b4 <__udivmoddi4+0x124>
     6ac:	f1b9 0f00 	cmp.w	r9, #0
     6b0:	f000 80d0 	beq.w	854 <STACK_SIZE+0x54>
     6b4:	4646      	mov	r6, r8
     6b6:	1a12      	subs	r2, r2, r0
     6b8:	b2a4      	uxth	r4, r4
     6ba:	fbb2 f0fe 	udiv	r0, r2, lr
     6be:	fb0e 2210 	mls	r2, lr, r0, r2
     6c2:	fb00 f707 	mul.w	r7, r0, r7
     6c6:	ea44 4402 	orr.w	r4, r4, r2, lsl #16
     6ca:	42a7      	cmp	r7, r4
     6cc:	d908      	bls.n	6e0 <__udivmoddi4+0x150>
     6ce:	eb1c 0404 	adds.w	r4, ip, r4
     6d2:	f100 32ff 	add.w	r2, r0, #4294967295	; 0xffffffff
     6d6:	d202      	bcs.n	6de <__udivmoddi4+0x14e>
     6d8:	42a7      	cmp	r7, r4
     6da:	f200 80b5 	bhi.w	848 <STACK_SIZE+0x48>
     6de:	4610      	mov	r0, r2
     6e0:	1be4      	subs	r4, r4, r7
     6e2:	ea40 4006 	orr.w	r0, r0, r6, lsl #16
     6e6:	e79c      	b.n	622 <__udivmoddi4+0x92>
     6e8:	f1c1 0420 	rsb	r4, r1, #32
     6ec:	408b      	lsls	r3, r1
     6ee:	fa06 fc01 	lsl.w	ip, r6, r1
     6f2:	fa00 fe01 	lsl.w	lr, r0, r1
     6f6:	fa22 f704 	lsr.w	r7, r2, r4
     6fa:	40e6      	lsrs	r6, r4
     6fc:	408a      	lsls	r2, r1
     6fe:	431f      	orrs	r7, r3
     700:	fa20 f304 	lsr.w	r3, r0, r4
     704:	ea4f 4817 	mov.w	r8, r7, lsr #16
     708:	ea43 030c 	orr.w	r3, r3, ip
     70c:	fa1f fc87 	uxth.w	ip, r7
     710:	ea4f 4913 	mov.w	r9, r3, lsr #16
     714:	fbb6 f0f8 	udiv	r0, r6, r8
     718:	fb08 6610 	mls	r6, r8, r0, r6
     71c:	ea49 4606 	orr.w	r6, r9, r6, lsl #16
     720:	fb00 f90c 	mul.w	r9, r0, ip
     724:	45b1      	cmp	r9, r6
     726:	d90e      	bls.n	746 <__udivmoddi4+0x1b6>
     728:	19be      	adds	r6, r7, r6
     72a:	f100 3aff 	add.w	sl, r0, #4294967295	; 0xffffffff
     72e:	bf2c      	ite	cs
     730:	f04f 0b01 	movcs.w	fp, #1
     734:	f04f 0b00 	movcc.w	fp, #0
     738:	45b1      	cmp	r9, r6
     73a:	d903      	bls.n	744 <__udivmoddi4+0x1b4>
     73c:	f1bb 0f00 	cmp.w	fp, #0
     740:	f000 808e 	beq.w	860 <STACK_SIZE+0x60>
     744:	4650      	mov	r0, sl
     746:	eba6 0609 	sub.w	r6, r6, r9
     74a:	fa1f f983 	uxth.w	r9, r3
     74e:	fbb6 f3f8 	udiv	r3, r6, r8
     752:	fb08 6613 	mls	r6, r8, r3, r6
     756:	fb03 fc0c 	mul.w	ip, r3, ip
     75a:	ea49 4606 	orr.w	r6, r9, r6, lsl #16
     75e:	45b4      	cmp	ip, r6
     760:	d906      	bls.n	770 <__udivmoddi4+0x1e0>
     762:	19be      	adds	r6, r7, r6
     764:	f103 38ff 	add.w	r8, r3, #4294967295	; 0xffffffff
     768:	d201      	bcs.n	76e <__udivmoddi4+0x1de>
     76a:	45b4      	cmp	ip, r6
     76c:	d87e      	bhi.n	86c <STACK_SIZE+0x6c>
     76e:	4643      	mov	r3, r8
     770:	ea43 4000 	orr.w	r0, r3, r0, lsl #16
     774:	eba6 060c 	sub.w	r6, r6, ip
     778:	fba0 8c02 	umull	r8, ip, r0, r2
     77c:	4566      	cmp	r6, ip
     77e:	4643      	mov	r3, r8
     780:	46e1      	mov	r9, ip
     782:	d302      	bcc.n	78a <__udivmoddi4+0x1fa>
     784:	d107      	bne.n	796 <__udivmoddi4+0x206>
     786:	45c6      	cmp	lr, r8
     788:	d205      	bcs.n	796 <__udivmoddi4+0x206>
     78a:	ebb8 0302 	subs.w	r3, r8, r2
     78e:	eb6c 0c07 	sbc.w	ip, ip, r7
     792:	3801      	subs	r0, #1
     794:	46e1      	mov	r9, ip
     796:	2d00      	cmp	r5, #0
     798:	d06e      	beq.n	878 <STACK_SIZE+0x78>
     79a:	ebbe 0203 	subs.w	r2, lr, r3
     79e:	eb66 0609 	sbc.w	r6, r6, r9
     7a2:	fa22 f301 	lsr.w	r3, r2, r1
     7a6:	fa06 f404 	lsl.w	r4, r6, r4
     7aa:	40ce      	lsrs	r6, r1
     7ac:	2100      	movs	r1, #0
     7ae:	431c      	orrs	r4, r3
     7b0:	e9c5 4600 	strd	r4, r6, [r5]
     7b4:	e73a      	b.n	62c <__udivmoddi4+0x9c>
     7b6:	fa02 fc03 	lsl.w	ip, r2, r3
     7ba:	f1c3 0220 	rsb	r2, r3, #32
     7be:	4099      	lsls	r1, r3
     7c0:	409c      	lsls	r4, r3
     7c2:	40d6      	lsrs	r6, r2
     7c4:	ea4f 4e1c 	mov.w	lr, ip, lsr #16
     7c8:	fa20 f202 	lsr.w	r2, r0, r2
     7cc:	fa1f f78c 	uxth.w	r7, ip
     7d0:	fbb6 f0fe 	udiv	r0, r6, lr
     7d4:	430a      	orrs	r2, r1
     7d6:	fb0e 6610 	mls	r6, lr, r0, r6
     7da:	0c11      	lsrs	r1, r2, #16
     7dc:	ea41 4106 	orr.w	r1, r1, r6, lsl #16
     7e0:	fb00 f607 	mul.w	r6, r0, r7
     7e4:	428e      	cmp	r6, r1
     7e6:	d90e      	bls.n	806 <STACK_SIZE+0x6>
     7e8:	eb1c 0101 	adds.w	r1, ip, r1
     7ec:	f100 38ff 	add.w	r8, r0, #4294967295	; 0xffffffff
     7f0:	bf2c      	ite	cs
     7f2:	f04f 0901 	movcs.w	r9, #1
     7f6:	f04f 0900 	movcc.w	r9, #0
     7fa:	428e      	cmp	r6, r1
     7fc:	d902      	bls.n	804 <STACK_SIZE+0x4>
     7fe:	f1b9 0f00 	cmp.w	r9, #0
     802:	d030      	beq.n	866 <STACK_SIZE+0x66>
     804:	4640      	mov	r0, r8
     806:	1b89      	subs	r1, r1, r6
     808:	b292      	uxth	r2, r2
     80a:	fbb1 f6fe 	udiv	r6, r1, lr
     80e:	fb0e 1116 	mls	r1, lr, r6, r1
     812:	ea42 4201 	orr.w	r2, r2, r1, lsl #16
     816:	fb06 f107 	mul.w	r1, r6, r7
     81a:	4291      	cmp	r1, r2
     81c:	d907      	bls.n	82e <STACK_SIZE+0x2e>
     81e:	eb1c 0202 	adds.w	r2, ip, r2
     822:	f106 38ff 	add.w	r8, r6, #4294967295	; 0xffffffff
     826:	d201      	bcs.n	82c <STACK_SIZE+0x2c>
     828:	4291      	cmp	r1, r2
     82a:	d822      	bhi.n	872 <STACK_SIZE+0x72>
     82c:	4646      	mov	r6, r8
     82e:	1a52      	subs	r2, r2, r1
     830:	ea46 4100 	orr.w	r1, r6, r0, lsl #16
     834:	e724      	b.n	680 <__udivmoddi4+0xf0>
     836:	4629      	mov	r1, r5
     838:	4628      	mov	r0, r5
     83a:	e6f7      	b.n	62c <__udivmoddi4+0x9c>
     83c:	1a84      	subs	r4, r0, r2
     83e:	eb66 0203 	sbc.w	r2, r6, r3
     842:	2001      	movs	r0, #1
     844:	4617      	mov	r7, r2
     846:	e709      	b.n	65c <__udivmoddi4+0xcc>
     848:	4464      	add	r4, ip
     84a:	3802      	subs	r0, #2
     84c:	e748      	b.n	6e0 <__udivmoddi4+0x150>
     84e:	4464      	add	r4, ip
     850:	3802      	subs	r0, #2
     852:	e6e1      	b.n	618 <__udivmoddi4+0x88>
     854:	3e02      	subs	r6, #2
     856:	4462      	add	r2, ip
     858:	e72d      	b.n	6b6 <__udivmoddi4+0x126>
     85a:	3902      	subs	r1, #2
     85c:	4462      	add	r2, ip
     85e:	e6c6      	b.n	5ee <__udivmoddi4+0x5e>
     860:	3802      	subs	r0, #2
     862:	443e      	add	r6, r7
     864:	e76f      	b.n	746 <__udivmoddi4+0x1b6>
     866:	3802      	subs	r0, #2
     868:	4461      	add	r1, ip
     86a:	e7cc      	b.n	806 <STACK_SIZE+0x6>
     86c:	3b02      	subs	r3, #2
     86e:	443e      	add	r6, r7
     870:	e77e      	b.n	770 <__udivmoddi4+0x1e0>
     872:	3e02      	subs	r6, #2
     874:	4462      	add	r2, ip
     876:	e7da      	b.n	82e <STACK_SIZE+0x2e>
     878:	4629      	mov	r1, r5
     87a:	e6d7      	b.n	62c <__udivmoddi4+0x9c>

0000087c <__aeabi_idiv0>:
     87c:	4770      	bx	lr
     87e:	bf00      	nop

00000880 <memcpy>:
     880:	4684      	mov	ip, r0
     882:	ea41 0300 	orr.w	r3, r1, r0
     886:	f013 0303 	ands.w	r3, r3, #3
     88a:	d149      	bne.n	920 <memcpy+0xa0>
     88c:	3a40      	subs	r2, #64	; 0x40
     88e:	d323      	bcc.n	8d8 <memcpy+0x58>
     890:	680b      	ldr	r3, [r1, #0]
     892:	6003      	str	r3, [r0, #0]
     894:	684b      	ldr	r3, [r1, #4]
     896:	6043      	str	r3, [r0, #4]
     898:	688b      	ldr	r3, [r1, #8]
     89a:	6083      	str	r3, [r0, #8]
     89c:	68cb      	ldr	r3, [r1, #12]
     89e:	60c3      	str	r3, [r0, #12]
     8a0:	690b      	ldr	r3, [r1, #16]
     8a2:	6103      	str	r3, [r0, #16]
     8a4:	694b      	ldr	r3, [r1, #20]
     8a6:	6143      	str	r3, [r0, #20]
     8a8:	698b      	ldr	r3, [r1, #24]
     8aa:	6183      	str	r3, [r0, #24]
     8ac:	69cb      	ldr	r3, [r1, #28]
     8ae:	61c3      	str	r3, [r0, #28]
     8b0:	6a0b      	ldr	r3, [r1, #32]
     8b2:	6203      	str	r3, [r0, #32]
     8b4:	6a4b      	ldr	r3, [r1, #36]	; 0x24
     8b6:	6243      	str	r3, [r0, #36]	; 0x24
     8b8:	6a8b      	ldr	r3, [r1, #40]	; 0x28
     8ba:	6283      	str	r3, [r0, #40]	; 0x28
     8bc:	6acb      	ldr	r3, [r1, #44]	; 0x2c
     8be:	62c3      	str	r3, [r0, #44]	; 0x2c
     8c0:	6b0b      	ldr	r3, [r1, #48]	; 0x30
     8c2:	6303      	str	r3, [r0, #48]	; 0x30
     8c4:	6b4b      	ldr	r3, [r1, #52]	; 0x34
     8c6:	6343      	str	r3, [r0, #52]	; 0x34
     8c8:	6b8b      	ldr	r3, [r1, #56]	; 0x38
     8ca:	6383      	str	r3, [r0, #56]	; 0x38
     8cc:	6bcb      	ldr	r3, [r1, #60]	; 0x3c
     8ce:	63c3      	str	r3, [r0, #60]	; 0x3c
     8d0:	3040      	adds	r0, #64	; 0x40
     8d2:	3140      	adds	r1, #64	; 0x40
     8d4:	3a40      	subs	r2, #64	; 0x40
     8d6:	d2db      	bcs.n	890 <memcpy+0x10>
     8d8:	3230      	adds	r2, #48	; 0x30
     8da:	d30b      	bcc.n	8f4 <memcpy+0x74>
     8dc:	680b      	ldr	r3, [r1, #0]
     8de:	6003      	str	r3, [r0, #0]
     8e0:	684b      	ldr	r3, [r1, #4]
     8e2:	6043      	str	r3, [r0, #4]
     8e4:	688b      	ldr	r3, [r1, #8]
     8e6:	6083      	str	r3, [r0, #8]
     8e8:	68cb      	ldr	r3, [r1, #12]
     8ea:	60c3      	str	r3, [r0, #12]
     8ec:	3010      	adds	r0, #16
     8ee:	3110      	adds	r1, #16
     8f0:	3a10      	subs	r2, #16
     8f2:	d2f3      	bcs.n	8dc <memcpy+0x5c>
     8f4:	320c      	adds	r2, #12
     8f6:	d305      	bcc.n	904 <memcpy+0x84>
     8f8:	f851 3b04 	ldr.w	r3, [r1], #4
     8fc:	f840 3b04 	str.w	r3, [r0], #4
     900:	3a04      	subs	r2, #4
     902:	d2f9      	bcs.n	8f8 <memcpy+0x78>
     904:	3204      	adds	r2, #4
     906:	d008      	beq.n	91a <memcpy+0x9a>
     908:	07d2      	lsls	r2, r2, #31
     90a:	bf1c      	itt	ne
     90c:	f811 3b01 	ldrbne.w	r3, [r1], #1
     910:	f800 3b01 	strbne.w	r3, [r0], #1
     914:	d301      	bcc.n	91a <memcpy+0x9a>
     916:	880b      	ldrh	r3, [r1, #0]
     918:	8003      	strh	r3, [r0, #0]
     91a:	4660      	mov	r0, ip
     91c:	4770      	bx	lr
     91e:	bf00      	nop
     920:	2a08      	cmp	r2, #8
     922:	d313      	bcc.n	94c <memcpy+0xcc>
     924:	078b      	lsls	r3, r1, #30
     926:	d0b1      	beq.n	88c <memcpy+0xc>
     928:	f010 0303 	ands.w	r3, r0, #3
     92c:	d0ae      	beq.n	88c <memcpy+0xc>
     92e:	f1c3 0304 	rsb	r3, r3, #4
     932:	1ad2      	subs	r2, r2, r3
     934:	07db      	lsls	r3, r3, #31
     936:	bf1c      	itt	ne
     938:	f811 3b01 	ldrbne.w	r3, [r1], #1
     93c:	f800 3b01 	strbne.w	r3, [r0], #1
     940:	d3a4      	bcc.n	88c <memcpy+0xc>
     942:	f831 3b02 	ldrh.w	r3, [r1], #2
     946:	f820 3b02 	strh.w	r3, [r0], #2
     94a:	e79f      	b.n	88c <memcpy+0xc>
     94c:	3a04      	subs	r2, #4
     94e:	d3d9      	bcc.n	904 <memcpy+0x84>
     950:	3a01      	subs	r2, #1
     952:	f811 3b01 	ldrb.w	r3, [r1], #1
     956:	f800 3b01 	strb.w	r3, [r0], #1
     95a:	d2f9      	bcs.n	950 <memcpy+0xd0>
     95c:	780b      	ldrb	r3, [r1, #0]
     95e:	7003      	strb	r3, [r0, #0]
     960:	784b      	ldrb	r3, [r1, #1]
     962:	7043      	strb	r3, [r0, #1]
     964:	788b      	ldrb	r3, [r1, #2]
     966:	7083      	strb	r3, [r0, #2]
     968:	4660      	mov	r0, ip
     96a:	4770      	bx	lr

0000096c <SystemInit>:
     96c:	b580      	push	{r7, lr}
     96e:	466f      	mov	r7, sp
     970:	f64e 5188 	movw	r1, #60808	; 0xed88
     974:	f2ce 0100 	movt	r1, #57344	; 0xe000
     978:	6808      	ldr	r0, [r1, #0]
     97a:	f440 0070 	orr.w	r0, r0, #15728640	; 0xf00000
     97e:	6008      	str	r0, [r1, #0]
     980:	6808      	ldr	r0, [r1, #0]
     982:	f040 000f 	orr.w	r0, r0, #15
     986:	6008      	str	r0, [r1, #0]
     988:	f64e 518c 	movw	r1, #60812	; 0xed8c
     98c:	f2ce 0100 	movt	r1, #57344	; 0xe000
     990:	6808      	ldr	r0, [r1, #0]
     992:	f640 4203 	movw	r2, #3075	; 0xc03
     996:	4310      	orrs	r0, r2
     998:	6008      	str	r0, [r1, #0]
     99a:	f240 0000 	movw	r0, #0
     99e:	f2c0 0000 	movt	r0, #0
     9a2:	f64e 5108 	movw	r1, #60680	; 0xed08
     9a6:	f2ce 0100 	movt	r1, #57344	; 0xe000
     9aa:	6008      	str	r0, [r1, #0]
     9ac:	f240 3108 	movw	r1, #776	; 0x308
     9b0:	f2c4 0100 	movt	r1, #16384	; 0x4000
     9b4:	2000      	movs	r0, #0
     9b6:	6008      	str	r0, [r1, #0]
     9b8:	f240 2120 	movw	r1, #544	; 0x220
     9bc:	f2c4 0100 	movt	r1, #16384	; 0x4000
     9c0:	2078      	movs	r0, #120	; 0x78
     9c2:	6008      	str	r0, [r1, #0]
     9c4:	f000 f801 	bl	9ca <SystemInitHook>
     9c8:	bd80      	pop	{r7, pc}

000009ca <SystemInitHook>:
     9ca:	4770      	bx	lr

000009cc <SDK_DelayAtLeastUs>:
     9cc:	b580      	push	{r7, lr}
     9ce:	466f      	mov	r7, sp
     9d0:	b084      	sub	sp, #16
     9d2:	9102      	str	r1, [sp, #8]
     9d4:	9003      	str	r0, [sp, #12]
     9d6:	b340      	cbz	r0, a2a <SDK_DelayAtLeastUs+0x5e>
     9d8:	e7ff      	b.n	9da <SDK_DelayAtLeastUs+0xe>
     9da:	9803      	ldr	r0, [sp, #12]
     9dc:	9902      	ldr	r1, [sp, #8]
     9de:	fba0 0101 	umull	r0, r1, r0, r1
     9e2:	f244 2240 	movw	r2, #16960	; 0x4240
     9e6:	f2c0 020f 	movt	r2, #15
     9ea:	2300      	movs	r3, #0
     9ec:	f7ff fdb8 	bl	560 <__aeabi_uldivmod>
     9f0:	460a      	mov	r2, r1
     9f2:	9200      	str	r2, [sp, #0]
     9f4:	9001      	str	r0, [sp, #4]
     9f6:	b909      	cbnz	r1, 9fc <SDK_DelayAtLeastUs+0x30>
     9f8:	e7ff      	b.n	9fa <SDK_DelayAtLeastUs+0x2e>
     9fa:	e00e      	b.n	a1a <SDK_DelayAtLeastUs+0x4e>
     9fc:	f646 2004 	movw	r0, #27140	; 0x6a04
     a00:	f2c0 0000 	movt	r0, #0
     a04:	f646 2275 	movw	r2, #27253	; 0x6a75
     a08:	f2c0 0200 	movt	r2, #0
     a0c:	f646 2388 	movw	r3, #27272	; 0x6a88
     a10:	f2c0 0300 	movt	r3, #0
     a14:	21d5      	movs	r1, #213	; 0xd5
     a16:	f002 ffb7 	bl	3988 <__assert_func>
     a1a:	9900      	ldr	r1, [sp, #0]
     a1c:	9801      	ldr	r0, [sp, #4]
     a1e:	0880      	lsrs	r0, r0, #2
     a20:	ea40 7081 	orr.w	r0, r0, r1, lsl #30
     a24:	f000 f803 	bl	a2e <DelayLoop>
     a28:	e7ff      	b.n	a2a <SDK_DelayAtLeastUs+0x5e>
     a2a:	b004      	add	sp, #16
     a2c:	bd80      	pop	{r7, pc}

00000a2e <DelayLoop>:
     a2e:	4600      	mov	r0, r0

00000a30 <loop>:
     a30:	f1a0 0001 	sub.w	r0, r0, #1
     a34:	2800      	cmp	r0, #0
     a36:	d1fb      	bne.n	a30 <loop>
     a38:	4770      	bx	lr

00000a3a <CLOCK_AttachClk>:
     a3a:	b089      	sub	sp, #36	; 0x24
     a3c:	9008      	str	r0, [sp, #32]
     a3e:	f1b0 4f00 	cmp.w	r0, #2147483648	; 0x80000000
     a42:	d045      	beq.n	ad0 <CLOCK_AttachClk+0x96>
     a44:	e7ff      	b.n	a46 <CLOCK_AttachClk+0xc>
     a46:	9908      	ldr	r1, [sp, #32]
     a48:	2000      	movs	r0, #0
     a4a:	9106      	str	r1, [sp, #24]
     a4c:	9007      	str	r0, [sp, #28]
     a4e:	e7ff      	b.n	a50 <CLOCK_AttachClk+0x16>
     a50:	9906      	ldr	r1, [sp, #24]
     a52:	9807      	ldr	r0, [sp, #28]
     a54:	9004      	str	r0, [sp, #16]
     a56:	9105      	str	r1, [sp, #20]
     a58:	2801      	cmp	r0, #1
     a5a:	d838      	bhi.n	ace <CLOCK_AttachClk+0x94>
     a5c:	e7ff      	b.n	a5e <CLOCK_AttachClk+0x24>
     a5e:	9805      	ldr	r0, [sp, #20]
     a60:	b908      	cbnz	r0, a66 <CLOCK_AttachClk+0x2c>
     a62:	e7ff      	b.n	a64 <CLOCK_AttachClk+0x2a>
     a64:	e033      	b.n	ace <CLOCK_AttachClk+0x94>
     a66:	9805      	ldr	r0, [sp, #20]
     a68:	f36f 301f 	bfc	r0, #12, #20
     a6c:	4601      	mov	r1, r0
     a6e:	9103      	str	r1, [sp, #12]
     a70:	b318      	cbz	r0, aba <CLOCK_AttachClk+0x80>
     a72:	e7ff      	b.n	a74 <CLOCK_AttachClk+0x3a>
     a74:	9903      	ldr	r1, [sp, #12]
     a76:	b2c8      	uxtb	r0, r1
     a78:	4602      	mov	r2, r0
     a7a:	9201      	str	r2, [sp, #4]
     a7c:	f401 6270 	and.w	r2, r1, #3840	; 0xf00
     a80:	f04f 31ff 	mov.w	r1, #4294967295	; 0xffffffff
     a84:	eb01 2112 	add.w	r1, r1, r2, lsr #8
     a88:	9102      	str	r1, [sp, #8]
     a8a:	283f      	cmp	r0, #63	; 0x3f
     a8c:	d109      	bne.n	aa2 <CLOCK_AttachClk+0x68>
     a8e:	e7ff      	b.n	a90 <CLOCK_AttachClk+0x56>
     a90:	9a02      	ldr	r2, [sp, #8]
     a92:	2198      	movs	r1, #152	; 0x98
     a94:	f2c4 0102 	movt	r1, #16386	; 0x4002
     a98:	6808      	ldr	r0, [r1, #0]
     a9a:	f362 0000 	bfi	r0, r2, #0, #1
     a9e:	6008      	str	r0, [r1, #0]
     aa0:	e00a      	b.n	ab8 <CLOCK_AttachClk+0x7e>
     aa2:	9901      	ldr	r1, [sp, #4]
     aa4:	9802      	ldr	r0, [sp, #8]
     aa6:	b2c0      	uxtb	r0, r0
     aa8:	b2ca      	uxtb	r2, r1
     aaa:	f240 2160 	movw	r1, #608	; 0x260
     aae:	f2c4 0100 	movt	r1, #16384	; 0x4000
     ab2:	f841 0022 	str.w	r0, [r1, r2, lsl #2]
     ab6:	e7ff      	b.n	ab8 <CLOCK_AttachClk+0x7e>
     ab8:	e7ff      	b.n	aba <CLOCK_AttachClk+0x80>
     aba:	9805      	ldr	r0, [sp, #20]
     abc:	0b00      	lsrs	r0, r0, #12
     abe:	9000      	str	r0, [sp, #0]
     ac0:	e7ff      	b.n	ac2 <CLOCK_AttachClk+0x88>
     ac2:	9900      	ldr	r1, [sp, #0]
     ac4:	9804      	ldr	r0, [sp, #16]
     ac6:	3001      	adds	r0, #1
     ac8:	9106      	str	r1, [sp, #24]
     aca:	9007      	str	r0, [sp, #28]
     acc:	e7c0      	b.n	a50 <CLOCK_AttachClk+0x16>
     ace:	e7ff      	b.n	ad0 <CLOCK_AttachClk+0x96>
     ad0:	b009      	add	sp, #36	; 0x24
     ad2:	4770      	bx	lr

00000ad4 <CLOCK_SetClkDiv>:
     ad4:	b083      	sub	sp, #12
     ad6:	9100      	str	r1, [sp, #0]
     ad8:	4601      	mov	r1, r0
     ada:	9101      	str	r1, [sp, #4]
     adc:	9202      	str	r2, [sp, #8]
     ade:	2808      	cmp	r0, #8
     ae0:	db12      	blt.n	b08 <CLOCK_SetClkDiv+0x34>
     ae2:	e7ff      	b.n	ae4 <CLOCK_SetClkDiv+0x10>
     ae4:	9801      	ldr	r0, [sp, #4]
     ae6:	b2c0      	uxtb	r0, r0
     ae8:	280f      	cmp	r0, #15
     aea:	dc0d      	bgt.n	b08 <CLOCK_SetClkDiv+0x34>
     aec:	e7ff      	b.n	aee <CLOCK_SetClkDiv+0x1a>
     aee:	9901      	ldr	r1, [sp, #4]
     af0:	9a00      	ldr	r2, [sp, #0]
     af2:	20ff      	movs	r0, #255	; 0xff
     af4:	f362 200f 	bfi	r0, r2, #8, #8
     af8:	b2ca      	uxtb	r2, r1
     afa:	f240 3100 	movw	r1, #768	; 0x300
     afe:	f2c4 0100 	movt	r1, #16384	; 0x4000
     b02:	f841 0022 	str.w	r0, [r1, r2, lsl #2]
     b06:	e028      	b.n	b5a <CLOCK_SetClkDiv+0x86>
     b08:	9802      	ldr	r0, [sp, #8]
     b0a:	07c0      	lsls	r0, r0, #31
     b0c:	b158      	cbz	r0, b26 <CLOCK_SetClkDiv+0x52>
     b0e:	e7ff      	b.n	b10 <CLOCK_SetClkDiv+0x3c>
     b10:	9801      	ldr	r0, [sp, #4]
     b12:	b2c2      	uxtb	r2, r0
     b14:	f240 3100 	movw	r1, #768	; 0x300
     b18:	f2c4 0100 	movt	r1, #16384	; 0x4000
     b1c:	f04f 5000 	mov.w	r0, #536870912	; 0x20000000
     b20:	f841 0022 	str.w	r0, [r1, r2, lsl #2]
     b24:	e7ff      	b.n	b26 <CLOCK_SetClkDiv+0x52>
     b26:	9800      	ldr	r0, [sp, #0]
     b28:	b958      	cbnz	r0, b42 <CLOCK_SetClkDiv+0x6e>
     b2a:	e7ff      	b.n	b2c <CLOCK_SetClkDiv+0x58>
     b2c:	9801      	ldr	r0, [sp, #4]
     b2e:	b2c2      	uxtb	r2, r0
     b30:	f240 3100 	movw	r1, #768	; 0x300
     b34:	f2c4 0100 	movt	r1, #16384	; 0x4000
     b38:	f04f 4080 	mov.w	r0, #1073741824	; 0x40000000
     b3c:	f841 0022 	str.w	r0, [r1, r2, lsl #2]
     b40:	e00a      	b.n	b58 <CLOCK_SetClkDiv+0x84>
     b42:	9901      	ldr	r1, [sp, #4]
     b44:	9800      	ldr	r0, [sp, #0]
     b46:	3801      	subs	r0, #1
     b48:	b2ca      	uxtb	r2, r1
     b4a:	f240 3100 	movw	r1, #768	; 0x300
     b4e:	f2c4 0100 	movt	r1, #16384	; 0x4000
     b52:	f841 0022 	str.w	r0, [r1, r2, lsl #2]
     b56:	e7ff      	b.n	b58 <CLOCK_SetClkDiv+0x84>
     b58:	e7ff      	b.n	b5a <CLOCK_SetClkDiv+0x86>
     b5a:	b003      	add	sp, #12
     b5c:	4770      	bx	lr

00000b5e <CLOCK_SetupFROClocking>:
     b5e:	b580      	push	{r7, lr}
     b60:	466f      	mov	r7, sp
     b62:	b082      	sub	sp, #8
     b64:	9001      	str	r0, [sp, #4]
     b66:	f641 3100 	movw	r1, #6912	; 0x1b00
     b6a:	f2c0 01b7 	movt	r1, #183	; 0xb7
     b6e:	4288      	cmp	r0, r1
     b70:	d013      	beq.n	b9a <CLOCK_SetupFROClocking+0x3c>
     b72:	e7ff      	b.n	b74 <CLOCK_SetupFROClocking+0x16>
     b74:	9801      	ldr	r0, [sp, #4]
     b76:	f646 4100 	movw	r1, #27648	; 0x6c00
     b7a:	f2c0 21dc 	movt	r1, #732	; 0x2dc
     b7e:	4288      	cmp	r0, r1
     b80:	d00b      	beq.n	b9a <CLOCK_SetupFROClocking+0x3c>
     b82:	e7ff      	b.n	b84 <CLOCK_SetupFROClocking+0x26>
     b84:	9801      	ldr	r0, [sp, #4]
     b86:	f64d 0100 	movw	r1, #55296	; 0xd800
     b8a:	f2c0 51b8 	movt	r1, #1464	; 0x5b8
     b8e:	4288      	cmp	r0, r1
     b90:	d003      	beq.n	b9a <CLOCK_SetupFROClocking+0x3c>
     b92:	e7ff      	b.n	b94 <CLOCK_SetupFROClocking+0x36>
     b94:	2001      	movs	r0, #1
     b96:	9000      	str	r0, [sp, #0]
     b98:	e02b      	b.n	bf2 <CLOCK_SetupFROClocking+0x94>
     b9a:	f240 1148 	movw	r1, #328	; 0x148
     b9e:	f2c4 0100 	movt	r1, #16384	; 0x4000
     ba2:	f04f 6000 	mov.w	r0, #134217728	; 0x8000000
     ba6:	6008      	str	r0, [r1, #0]
     ba8:	f240 2128 	movw	r1, #552	; 0x228
     bac:	f2c4 0100 	movt	r1, #16384	; 0x4000
     bb0:	6008      	str	r0, [r1, #0]
     bb2:	2020      	movs	r0, #32
     bb4:	f000 f820 	bl	bf8 <POWER_DisablePD>
     bb8:	9801      	ldr	r0, [sp, #4]
     bba:	f64d 0100 	movw	r1, #55296	; 0xd800
     bbe:	f2c0 51b8 	movt	r1, #1464	; 0x5b8
     bc2:	4288      	cmp	r0, r1
     bc4:	d109      	bne.n	bda <CLOCK_SetupFROClocking+0x7c>
     bc6:	e7ff      	b.n	bc8 <CLOCK_SetupFROClocking+0x6a>
     bc8:	f243 0110 	movw	r1, #12304	; 0x3010
     bcc:	f2c4 0101 	movt	r1, #16385	; 0x4001
     bd0:	6808      	ldr	r0, [r1, #0]
     bd2:	f040 4080 	orr.w	r0, r0, #1073741824	; 0x40000000
     bd6:	6008      	str	r0, [r1, #0]
     bd8:	e008      	b.n	bec <CLOCK_SetupFROClocking+0x8e>
     bda:	f243 0110 	movw	r1, #12304	; 0x3010
     bde:	f2c4 0101 	movt	r1, #16385	; 0x4001
     be2:	6808      	ldr	r0, [r1, #0]
     be4:	f440 4080 	orr.w	r0, r0, #16384	; 0x4000
     be8:	6008      	str	r0, [r1, #0]
     bea:	e7ff      	b.n	bec <CLOCK_SetupFROClocking+0x8e>
     bec:	2000      	movs	r0, #0
     bee:	9000      	str	r0, [sp, #0]
     bf0:	e7ff      	b.n	bf2 <CLOCK_SetupFROClocking+0x94>
     bf2:	9800      	ldr	r0, [sp, #0]
     bf4:	b002      	add	sp, #8
     bf6:	bd80      	pop	{r7, pc}

00000bf8 <POWER_DisablePD>:
     bf8:	21c8      	movs	r1, #200	; 0xc8
     bfa:	f2c4 0102 	movt	r1, #16386	; 0x4002
     bfe:	6008      	str	r0, [r1, #0]
     c00:	4770      	bx	lr

00000c02 <CLOCK_SetFLASHAccessCyclesForFreq>:
     c02:	b08f      	sub	sp, #60	; 0x3c
     c04:	900d      	str	r0, [sp, #52]	; 0x34
     c06:	f240 4100 	movw	r1, #1024	; 0x400
     c0a:	f2c4 0100 	movt	r1, #16384	; 0x4000
     c0e:	6809      	ldr	r1, [r1, #0]
     c10:	f001 0120 	and.w	r1, r1, #32
     c14:	910e      	str	r1, [sp, #56]	; 0x38
     c16:	f64d 01c0 	movw	r1, #55488	; 0xd8c0
     c1a:	f2c0 01a7 	movt	r1, #167	; 0xa7
     c1e:	4288      	cmp	r0, r1
     c20:	d803      	bhi.n	c2a <CLOCK_SetFLASHAccessCyclesForFreq+0x28>
     c22:	e7ff      	b.n	c24 <CLOCK_SetFLASHAccessCyclesForFreq+0x22>
     c24:	2000      	movs	r0, #0
     c26:	900c      	str	r0, [sp, #48]	; 0x30
     c28:	e09c      	b.n	d64 <CLOCK_SetFLASHAccessCyclesForFreq+0x162>
     c2a:	980d      	ldr	r0, [sp, #52]	; 0x34
     c2c:	f24b 1180 	movw	r1, #45440	; 0xb180
     c30:	f2c0 114f 	movt	r1, #335	; 0x14f
     c34:	4288      	cmp	r0, r1
     c36:	d803      	bhi.n	c40 <CLOCK_SetFLASHAccessCyclesForFreq+0x3e>
     c38:	e7ff      	b.n	c3a <CLOCK_SetFLASHAccessCyclesForFreq+0x38>
     c3a:	2001      	movs	r0, #1
     c3c:	900b      	str	r0, [sp, #44]	; 0x2c
     c3e:	e08e      	b.n	d5e <CLOCK_SetFLASHAccessCyclesForFreq+0x15c>
     c40:	980d      	ldr	r0, [sp, #52]	; 0x34
     c42:	f648 2140 	movw	r1, #35392	; 0x8a40
     c46:	f2c0 11f7 	movt	r1, #503	; 0x1f7
     c4a:	4288      	cmp	r0, r1
     c4c:	d803      	bhi.n	c56 <CLOCK_SetFLASHAccessCyclesForFreq+0x54>
     c4e:	e7ff      	b.n	c50 <CLOCK_SetFLASHAccessCyclesForFreq+0x4e>
     c50:	2002      	movs	r0, #2
     c52:	900a      	str	r0, [sp, #40]	; 0x28
     c54:	e080      	b.n	d58 <CLOCK_SetFLASHAccessCyclesForFreq+0x156>
     c56:	980d      	ldr	r0, [sp, #52]	; 0x34
     c58:	f246 3100 	movw	r1, #25344	; 0x6300
     c5c:	f2c0 219f 	movt	r1, #671	; 0x29f
     c60:	4288      	cmp	r0, r1
     c62:	d803      	bhi.n	c6c <CLOCK_SetFLASHAccessCyclesForFreq+0x6a>
     c64:	e7ff      	b.n	c66 <CLOCK_SetFLASHAccessCyclesForFreq+0x64>
     c66:	2003      	movs	r0, #3
     c68:	9009      	str	r0, [sp, #36]	; 0x24
     c6a:	e072      	b.n	d52 <CLOCK_SetFLASHAccessCyclesForFreq+0x150>
     c6c:	980d      	ldr	r0, [sp, #52]	; 0x34
     c6e:	f643 31c0 	movw	r1, #15296	; 0x3bc0
     c72:	f2c0 3147 	movt	r1, #839	; 0x347
     c76:	4288      	cmp	r0, r1
     c78:	d803      	bhi.n	c82 <CLOCK_SetFLASHAccessCyclesForFreq+0x80>
     c7a:	e7ff      	b.n	c7c <CLOCK_SetFLASHAccessCyclesForFreq+0x7a>
     c7c:	2004      	movs	r0, #4
     c7e:	9008      	str	r0, [sp, #32]
     c80:	e064      	b.n	d4c <CLOCK_SetFLASHAccessCyclesForFreq+0x14a>
     c82:	980d      	ldr	r0, [sp, #52]	; 0x34
     c84:	f241 4180 	movw	r1, #5248	; 0x1480
     c88:	f2c0 31ef 	movt	r1, #1007	; 0x3ef
     c8c:	4288      	cmp	r0, r1
     c8e:	d803      	bhi.n	c98 <CLOCK_SetFLASHAccessCyclesForFreq+0x96>
     c90:	e7ff      	b.n	c92 <CLOCK_SetFLASHAccessCyclesForFreq+0x90>
     c92:	2005      	movs	r0, #5
     c94:	9007      	str	r0, [sp, #28]
     c96:	e056      	b.n	d46 <CLOCK_SetFLASHAccessCyclesForFreq+0x144>
     c98:	980d      	ldr	r0, [sp, #52]	; 0x34
     c9a:	f64e 5140 	movw	r1, #60736	; 0xed40
     c9e:	f2c0 4196 	movt	r1, #1174	; 0x496
     ca2:	4288      	cmp	r0, r1
     ca4:	d803      	bhi.n	cae <CLOCK_SetFLASHAccessCyclesForFreq+0xac>
     ca6:	e7ff      	b.n	ca8 <CLOCK_SetFLASHAccessCyclesForFreq+0xa6>
     ca8:	2006      	movs	r0, #6
     caa:	9006      	str	r0, [sp, #24]
     cac:	e048      	b.n	d40 <CLOCK_SetFLASHAccessCyclesForFreq+0x13e>
     cae:	980d      	ldr	r0, [sp, #52]	; 0x34
     cb0:	f24c 6100 	movw	r1, #50688	; 0xc600
     cb4:	f2c0 513e 	movt	r1, #1342	; 0x53e
     cb8:	4288      	cmp	r0, r1
     cba:	d803      	bhi.n	cc4 <CLOCK_SetFLASHAccessCyclesForFreq+0xc2>
     cbc:	e7ff      	b.n	cbe <CLOCK_SetFLASHAccessCyclesForFreq+0xbc>
     cbe:	2007      	movs	r0, #7
     cc0:	9005      	str	r0, [sp, #20]
     cc2:	e03a      	b.n	d3a <CLOCK_SetFLASHAccessCyclesForFreq+0x138>
     cc4:	980d      	ldr	r0, [sp, #52]	; 0x34
     cc6:	f24e 1100 	movw	r1, #57600	; 0xe100
     cca:	f2c0 51f5 	movt	r1, #1525	; 0x5f5
     cce:	4288      	cmp	r0, r1
     cd0:	d803      	bhi.n	cda <CLOCK_SetFLASHAccessCyclesForFreq+0xd8>
     cd2:	e7ff      	b.n	cd4 <CLOCK_SetFLASHAccessCyclesForFreq+0xd2>
     cd4:	2008      	movs	r0, #8
     cd6:	9004      	str	r0, [sp, #16]
     cd8:	e02c      	b.n	d34 <CLOCK_SetFLASHAccessCyclesForFreq+0x132>
     cda:	980d      	ldr	r0, [sp, #52]	; 0x34
     cdc:	f24c 21c0 	movw	r1, #49856	; 0xc2c0
     ce0:	f2c0 61da 	movt	r1, #1754	; 0x6da
     ce4:	4288      	cmp	r0, r1
     ce6:	d803      	bhi.n	cf0 <CLOCK_SetFLASHAccessCyclesForFreq+0xee>
     ce8:	e7ff      	b.n	cea <CLOCK_SetFLASHAccessCyclesForFreq+0xe8>
     cea:	2009      	movs	r0, #9
     cec:	9003      	str	r0, [sp, #12]
     cee:	e01e      	b.n	d2e <CLOCK_SetFLASHAccessCyclesForFreq+0x12c>
     cf0:	980d      	ldr	r0, [sp, #52]	; 0x34
     cf2:	f24a 4180 	movw	r1, #42112	; 0xa480
     cf6:	f2c0 71bf 	movt	r1, #1983	; 0x7bf
     cfa:	4288      	cmp	r0, r1
     cfc:	d803      	bhi.n	d06 <CLOCK_SetFLASHAccessCyclesForFreq+0x104>
     cfe:	e7ff      	b.n	d00 <CLOCK_SetFLASHAccessCyclesForFreq+0xfe>
     d00:	200a      	movs	r0, #10
     d02:	9002      	str	r0, [sp, #8]
     d04:	e010      	b.n	d28 <CLOCK_SetFLASHAccessCyclesForFreq+0x126>
     d06:	980d      	ldr	r0, [sp, #52]	; 0x34
     d08:	f24d 1180 	movw	r1, #53632	; 0xd180
     d0c:	f6c0 01f0 	movt	r1, #2288	; 0x8f0
     d10:	4288      	cmp	r0, r1
     d12:	d803      	bhi.n	d1c <CLOCK_SetFLASHAccessCyclesForFreq+0x11a>
     d14:	e7ff      	b.n	d16 <CLOCK_SetFLASHAccessCyclesForFreq+0x114>
     d16:	200b      	movs	r0, #11
     d18:	9001      	str	r0, [sp, #4]
     d1a:	e002      	b.n	d22 <CLOCK_SetFLASHAccessCyclesForFreq+0x120>
     d1c:	200c      	movs	r0, #12
     d1e:	9001      	str	r0, [sp, #4]
     d20:	e7ff      	b.n	d22 <CLOCK_SetFLASHAccessCyclesForFreq+0x120>
     d22:	9801      	ldr	r0, [sp, #4]
     d24:	9002      	str	r0, [sp, #8]
     d26:	e7ff      	b.n	d28 <CLOCK_SetFLASHAccessCyclesForFreq+0x126>
     d28:	9802      	ldr	r0, [sp, #8]
     d2a:	9003      	str	r0, [sp, #12]
     d2c:	e7ff      	b.n	d2e <CLOCK_SetFLASHAccessCyclesForFreq+0x12c>
     d2e:	9803      	ldr	r0, [sp, #12]
     d30:	9004      	str	r0, [sp, #16]
     d32:	e7ff      	b.n	d34 <CLOCK_SetFLASHAccessCyclesForFreq+0x132>
     d34:	9804      	ldr	r0, [sp, #16]
     d36:	9005      	str	r0, [sp, #20]
     d38:	e7ff      	b.n	d3a <CLOCK_SetFLASHAccessCyclesForFreq+0x138>
     d3a:	9805      	ldr	r0, [sp, #20]
     d3c:	9006      	str	r0, [sp, #24]
     d3e:	e7ff      	b.n	d40 <CLOCK_SetFLASHAccessCyclesForFreq+0x13e>
     d40:	9806      	ldr	r0, [sp, #24]
     d42:	9007      	str	r0, [sp, #28]
     d44:	e7ff      	b.n	d46 <CLOCK_SetFLASHAccessCyclesForFreq+0x144>
     d46:	9807      	ldr	r0, [sp, #28]
     d48:	9008      	str	r0, [sp, #32]
     d4a:	e7ff      	b.n	d4c <CLOCK_SetFLASHAccessCyclesForFreq+0x14a>
     d4c:	9808      	ldr	r0, [sp, #32]
     d4e:	9009      	str	r0, [sp, #36]	; 0x24
     d50:	e7ff      	b.n	d52 <CLOCK_SetFLASHAccessCyclesForFreq+0x150>
     d52:	9809      	ldr	r0, [sp, #36]	; 0x24
     d54:	900a      	str	r0, [sp, #40]	; 0x28
     d56:	e7ff      	b.n	d58 <CLOCK_SetFLASHAccessCyclesForFreq+0x156>
     d58:	980a      	ldr	r0, [sp, #40]	; 0x28
     d5a:	900b      	str	r0, [sp, #44]	; 0x2c
     d5c:	e7ff      	b.n	d5e <CLOCK_SetFLASHAccessCyclesForFreq+0x15c>
     d5e:	980b      	ldr	r0, [sp, #44]	; 0x2c
     d60:	900c      	str	r0, [sp, #48]	; 0x30
     d62:	e7ff      	b.n	d64 <CLOCK_SetFLASHAccessCyclesForFreq+0x162>
     d64:	9a0c      	ldr	r2, [sp, #48]	; 0x30
     d66:	9200      	str	r2, [sp, #0]
     d68:	f240 4100 	movw	r1, #1024	; 0x400
     d6c:	f2c4 0100 	movt	r1, #16384	; 0x4000
     d70:	6808      	ldr	r0, [r1, #0]
     d72:	f020 0020 	bic.w	r0, r0, #32
     d76:	6008      	str	r0, [r1, #0]
     d78:	f644 71e8 	movw	r1, #20456	; 0x4fe8
     d7c:	f2c4 0103 	movt	r1, #16387	; 0x4003
     d80:	201f      	movs	r0, #31
     d82:	6008      	str	r0, [r1, #0]
     d84:	f244 0180 	movw	r1, #16512	; 0x4080
     d88:	f2c4 0103 	movt	r1, #16387	; 0x4003
     d8c:	6808      	ldr	r0, [r1, #0]
     d8e:	f362 0003 	bfi	r0, r2, #0, #4
     d92:	6008      	str	r0, [r1, #0]
     d94:	f244 0100 	movw	r1, #16384	; 0x4000
     d98:	f2c4 0103 	movt	r1, #16387	; 0x4003
     d9c:	2002      	movs	r0, #2
     d9e:	6008      	str	r0, [r1, #0]
     da0:	e7ff      	b.n	da2 <CLOCK_SetFLASHAccessCyclesForFreq+0x1a0>
     da2:	f644 70e0 	movw	r0, #20448	; 0x4fe0
     da6:	f2c4 0003 	movt	r0, #16387	; 0x4003
     daa:	6800      	ldr	r0, [r0, #0]
     dac:	0740      	lsls	r0, r0, #29
     dae:	2800      	cmp	r0, #0
     db0:	d401      	bmi.n	db6 <CLOCK_SetFLASHAccessCyclesForFreq+0x1b4>
     db2:	e7ff      	b.n	db4 <CLOCK_SetFLASHAccessCyclesForFreq+0x1b2>
     db4:	e7f5      	b.n	da2 <CLOCK_SetFLASHAccessCyclesForFreq+0x1a0>
     db6:	9a0e      	ldr	r2, [sp, #56]	; 0x38
     db8:	9b00      	ldr	r3, [sp, #0]
     dba:	f240 4100 	movw	r1, #1024	; 0x400
     dbe:	f2c4 0100 	movt	r1, #16384	; 0x4000
     dc2:	6808      	ldr	r0, [r1, #0]
     dc4:	f363 300f 	bfi	r0, r3, #12, #4
     dc8:	6008      	str	r0, [r1, #0]
     dca:	6808      	ldr	r0, [r1, #0]
     dcc:	4310      	orrs	r0, r2
     dce:	6008      	str	r0, [r1, #0]
     dd0:	b00f      	add	sp, #60	; 0x3c
     dd2:	4770      	bx	lr

00000dd4 <CLOCK_SetupExtClocking>:
     dd4:	b580      	push	{r7, lr}
     dd6:	466f      	mov	r7, sp
     dd8:	b082      	sub	sp, #8
     dda:	9001      	str	r0, [sp, #4]
     ddc:	f644 0101 	movw	r1, #18433	; 0x4801
     de0:	f2c0 11e8 	movt	r1, #488	; 0x1e8
     de4:	4288      	cmp	r0, r1
     de6:	d303      	bcc.n	df0 <CLOCK_SetupExtClocking+0x1c>
     de8:	e7ff      	b.n	dea <CLOCK_SetupExtClocking+0x16>
     dea:	2001      	movs	r0, #1
     dec:	9000      	str	r0, [sp, #0]
     dee:	e022      	b.n	e36 <CLOCK_SetupExtClocking+0x62>
     df0:	f44f 7080 	mov.w	r0, #256	; 0x100
     df4:	f7ff ff00 	bl	bf8 <POWER_DisablePD>
     df8:	f44f 1080 	mov.w	r0, #1048576	; 0x100000
     dfc:	f7ff fefc 	bl	bf8 <POWER_DisablePD>
     e00:	f640 2118 	movw	r1, #2584	; 0xa18
     e04:	f2c4 0100 	movt	r1, #16384	; 0x4000
     e08:	6808      	ldr	r0, [r1, #0]
     e0a:	f040 0020 	orr.w	r0, r0, #32
     e0e:	6008      	str	r0, [r1, #0]
     e10:	e7ff      	b.n	e12 <CLOCK_SetupExtClocking+0x3e>
     e12:	f243 0024 	movw	r0, #12324	; 0x3024
     e16:	f2c4 0001 	movt	r0, #16385	; 0x4001
     e1a:	6800      	ldr	r0, [r0, #0]
     e1c:	07c0      	lsls	r0, r0, #31
     e1e:	b908      	cbnz	r0, e24 <CLOCK_SetupExtClocking+0x50>
     e20:	e7ff      	b.n	e22 <CLOCK_SetupExtClocking+0x4e>
     e22:	e7f6      	b.n	e12 <CLOCK_SetupExtClocking+0x3e>
     e24:	9801      	ldr	r0, [sp, #4]
     e26:	f240 0104 	movw	r1, #4
     e2a:	f2c2 0100 	movt	r1, #8192	; 0x2000
     e2e:	6008      	str	r0, [r1, #0]
     e30:	2000      	movs	r0, #0
     e32:	9000      	str	r0, [sp, #0]
     e34:	e7ff      	b.n	e36 <CLOCK_SetupExtClocking+0x62>
     e36:	9800      	ldr	r0, [sp, #0]
     e38:	b002      	add	sp, #8
     e3a:	bd80      	pop	{r7, pc}

00000e3c <CLOCK_GetExtClkFreq>:
     e3c:	b081      	sub	sp, #4
     e3e:	f243 0020 	movw	r0, #12320	; 0x3020
     e42:	f2c4 0001 	movt	r0, #16385	; 0x4001
     e46:	6800      	ldr	r0, [r0, #0]
     e48:	01c0      	lsls	r0, r0, #7
     e4a:	2800      	cmp	r0, #0
     e4c:	d507      	bpl.n	e5e <CLOCK_GetExtClkFreq+0x22>
     e4e:	e7ff      	b.n	e50 <CLOCK_GetExtClkFreq+0x14>
     e50:	f240 0004 	movw	r0, #4
     e54:	f2c2 0000 	movt	r0, #8192	; 0x2000
     e58:	6800      	ldr	r0, [r0, #0]
     e5a:	9000      	str	r0, [sp, #0]
     e5c:	e002      	b.n	e64 <CLOCK_GetExtClkFreq+0x28>
     e5e:	2000      	movs	r0, #0
     e60:	9000      	str	r0, [sp, #0]
     e62:	e7ff      	b.n	e64 <CLOCK_GetExtClkFreq+0x28>
     e64:	9800      	ldr	r0, [sp, #0]
     e66:	b001      	add	sp, #4
     e68:	4770      	bx	lr

00000e6a <CLOCK_GetFro1MFreq>:
     e6a:	f640 2018 	movw	r0, #2584	; 0xa18
     e6e:	f2c4 0000 	movt	r0, #16384	; 0x4000
     e72:	6800      	ldr	r0, [r0, #0]
     e74:	f000 0040 	and.w	r0, r0, #64	; 0x40
     e78:	2800      	cmp	r0, #0
     e7a:	bf1c      	itt	ne
     e7c:	f244 2040 	movwne	r0, #16960	; 0x4240
     e80:	f2c0 000f 	movtne	r0, #15
     e84:	4770      	bx	lr

00000e86 <CLOCK_GetOsc32KFreq>:
     e86:	b082      	sub	sp, #8
     e88:	20b8      	movs	r0, #184	; 0xb8
     e8a:	f2c4 0002 	movt	r0, #16386	; 0x4002
     e8e:	6800      	ldr	r0, [r0, #0]
     e90:	0640      	lsls	r0, r0, #25
     e92:	2800      	cmp	r0, #0
     e94:	d40b      	bmi.n	eae <CLOCK_GetOsc32KFreq+0x28>
     e96:	e7ff      	b.n	e98 <CLOCK_GetOsc32KFreq+0x12>
     e98:	2098      	movs	r0, #152	; 0x98
     e9a:	f2c4 0002 	movt	r0, #16386	; 0x4002
     e9e:	6800      	ldr	r0, [r0, #0]
     ea0:	07c0      	lsls	r0, r0, #31
     ea2:	b920      	cbnz	r0, eae <CLOCK_GetOsc32KFreq+0x28>
     ea4:	e7ff      	b.n	ea6 <CLOCK_GetOsc32KFreq+0x20>
     ea6:	f44f 4000 	mov.w	r0, #32768	; 0x8000
     eaa:	9001      	str	r0, [sp, #4]
     eac:	e01a      	b.n	ee4 <CLOCK_GetOsc32KFreq+0x5e>
     eae:	20b8      	movs	r0, #184	; 0xb8
     eb0:	f2c4 0002 	movt	r0, #16386	; 0x4002
     eb4:	6801      	ldr	r1, [r0, #0]
     eb6:	2000      	movs	r0, #0
     eb8:	0609      	lsls	r1, r1, #24
     eba:	2900      	cmp	r1, #0
     ebc:	9000      	str	r0, [sp, #0]
     ebe:	d408      	bmi.n	ed2 <CLOCK_GetOsc32KFreq+0x4c>
     ec0:	e7ff      	b.n	ec2 <CLOCK_GetOsc32KFreq+0x3c>
     ec2:	2098      	movs	r0, #152	; 0x98
     ec4:	f2c4 0002 	movt	r0, #16386	; 0x4002
     ec8:	6800      	ldr	r0, [r0, #0]
     eca:	f000 0001 	and.w	r0, r0, #1
     ece:	9000      	str	r0, [sp, #0]
     ed0:	e7ff      	b.n	ed2 <CLOCK_GetOsc32KFreq+0x4c>
     ed2:	9800      	ldr	r0, [sp, #0]
     ed4:	f000 0001 	and.w	r0, r0, #1
     ed8:	2800      	cmp	r0, #0
     eda:	bf18      	it	ne
     edc:	f44f 4000 	movne.w	r0, #32768	; 0x8000
     ee0:	9001      	str	r0, [sp, #4]
     ee2:	e7ff      	b.n	ee4 <CLOCK_GetOsc32KFreq+0x5e>
     ee4:	9801      	ldr	r0, [sp, #4]
     ee6:	b002      	add	sp, #8
     ee8:	4770      	bx	lr
	...

00000eec <CLOCK_GetPLL0InClockRate>:
     eec:	b580      	push	{r7, lr}
     eee:	466f      	mov	r7, sp
     ef0:	b082      	sub	sp, #8
     ef2:	f240 2090 	movw	r0, #656	; 0x290
     ef6:	f2c4 0000 	movt	r0, #16384	; 0x4000
     efa:	6800      	ldr	r0, [r0, #0]
     efc:	f000 0007 	and.w	r0, r0, #7
     f00:	4601      	mov	r1, r0
     f02:	9101      	str	r1, [sp, #4]
     f04:	2803      	cmp	r0, #3
     f06:	d816      	bhi.n	f36 <CLOCK_GetPLL0InClockRate+0x4a>
     f08:	9901      	ldr	r1, [sp, #4]
     f0a:	e8df f001 	tbb	[pc, r1]
     f0e:	0802      	.short	0x0802
     f10:	100c      	.short	0x100c
     f12:	f641 3000 	movw	r0, #6912	; 0x1b00
     f16:	f2c0 00b7 	movt	r0, #183	; 0xb7
     f1a:	9000      	str	r0, [sp, #0]
     f1c:	e00e      	b.n	f3c <CLOCK_GetPLL0InClockRate+0x50>
     f1e:	f7ff ff8d 	bl	e3c <CLOCK_GetExtClkFreq>
     f22:	9000      	str	r0, [sp, #0]
     f24:	e00a      	b.n	f3c <CLOCK_GetPLL0InClockRate+0x50>
     f26:	f7ff ffa0 	bl	e6a <CLOCK_GetFro1MFreq>
     f2a:	9000      	str	r0, [sp, #0]
     f2c:	e006      	b.n	f3c <CLOCK_GetPLL0InClockRate+0x50>
     f2e:	f7ff ffaa 	bl	e86 <CLOCK_GetOsc32KFreq>
     f32:	9000      	str	r0, [sp, #0]
     f34:	e002      	b.n	f3c <CLOCK_GetPLL0InClockRate+0x50>
     f36:	2000      	movs	r0, #0
     f38:	9000      	str	r0, [sp, #0]
     f3a:	e7ff      	b.n	f3c <CLOCK_GetPLL0InClockRate+0x50>
     f3c:	9800      	ldr	r0, [sp, #0]
     f3e:	b002      	add	sp, #8
     f40:	bd80      	pop	{r7, pc}

00000f42 <findPll0PreDiv>:
     f42:	b082      	sub	sp, #8
     f44:	f240 5080 	movw	r0, #1408	; 0x580
     f48:	f2c4 0000 	movt	r0, #16384	; 0x4000
     f4c:	6801      	ldr	r1, [r0, #0]
     f4e:	2001      	movs	r0, #1
     f50:	0309      	lsls	r1, r1, #12
     f52:	2900      	cmp	r1, #0
     f54:	9001      	str	r0, [sp, #4]
     f56:	d410      	bmi.n	f7a <findPll0PreDiv+0x38>
     f58:	e7ff      	b.n	f5a <findPll0PreDiv+0x18>
     f5a:	f240 5088 	movw	r0, #1416	; 0x588
     f5e:	f2c4 0000 	movt	r0, #16384	; 0x4000
     f62:	6800      	ldr	r0, [r0, #0]
     f64:	b2c1      	uxtb	r1, r0
     f66:	4608      	mov	r0, r1
     f68:	9000      	str	r0, [sp, #0]
     f6a:	b919      	cbnz	r1, f74 <findPll0PreDiv+0x32>
     f6c:	e7ff      	b.n	f6e <findPll0PreDiv+0x2c>
     f6e:	2001      	movs	r0, #1
     f70:	9000      	str	r0, [sp, #0]
     f72:	e7ff      	b.n	f74 <findPll0PreDiv+0x32>
     f74:	9800      	ldr	r0, [sp, #0]
     f76:	9001      	str	r0, [sp, #4]
     f78:	e7ff      	b.n	f7a <findPll0PreDiv+0x38>
     f7a:	9801      	ldr	r0, [sp, #4]
     f7c:	b002      	add	sp, #8
     f7e:	4770      	bx	lr

00000f80 <POWER_EnablePD>:
     f80:	21c0      	movs	r1, #192	; 0xc0
     f82:	f2c4 0102 	movt	r1, #16386	; 0x4002
     f86:	6008      	str	r0, [r1, #0]
     f88:	4770      	bx	lr

00000f8a <CLOCK_IsPLL0Locked>:
     f8a:	f240 5084 	movw	r0, #1412	; 0x584
     f8e:	f2c4 0000 	movt	r0, #16384	; 0x4000
     f92:	6800      	ldr	r0, [r0, #0]
     f94:	f000 0001 	and.w	r0, r0, #1
     f98:	4770      	bx	lr

00000f9a <CLOCK_SetPLL0Freq>:
     f9a:	b580      	push	{r7, lr}
     f9c:	466f      	mov	r7, sp
     f9e:	b08a      	sub	sp, #40	; 0x28
     fa0:	9009      	str	r0, [sp, #36]	; 0x24
     fa2:	f44f 7000 	mov.w	r0, #512	; 0x200
     fa6:	9007      	str	r0, [sp, #28]
     fa8:	f7ff ffea 	bl	f80 <POWER_EnablePD>
     fac:	f44f 0000 	mov.w	r0, #8388608	; 0x800000
     fb0:	9008      	str	r0, [sp, #32]
     fb2:	f7ff ffe5 	bl	f80 <POWER_EnablePD>
     fb6:	9807      	ldr	r0, [sp, #28]
     fb8:	9909      	ldr	r1, [sp, #36]	; 0x24
     fba:	680a      	ldr	r2, [r1, #0]
     fbc:	f240 5380 	movw	r3, #1408	; 0x580
     fc0:	f2c4 0300 	movt	r3, #16384	; 0x4000
     fc4:	601a      	str	r2, [r3, #0]
     fc6:	684a      	ldr	r2, [r1, #4]
     fc8:	f240 5388 	movw	r3, #1416	; 0x588
     fcc:	f2c4 0300 	movt	r3, #16384	; 0x4000
     fd0:	601a      	str	r2, [r3, #0]
     fd2:	684a      	ldr	r2, [r1, #4]
     fd4:	f442 7280 	orr.w	r2, r2, #256	; 0x100
     fd8:	601a      	str	r2, [r3, #0]
     fda:	688a      	ldr	r2, [r1, #8]
     fdc:	f240 538c 	movw	r3, #1420	; 0x58c
     fe0:	f2c4 0300 	movt	r3, #16384	; 0x4000
     fe4:	601a      	str	r2, [r3, #0]
     fe6:	688a      	ldr	r2, [r1, #8]
     fe8:	f042 0220 	orr.w	r2, r2, #32
     fec:	601a      	str	r2, [r3, #0]
     fee:	690a      	ldr	r2, [r1, #16]
     ff0:	f240 5390 	movw	r3, #1424	; 0x590
     ff4:	f2c4 0300 	movt	r3, #16384	; 0x4000
     ff8:	601a      	str	r2, [r3, #0]
     ffa:	694b      	ldr	r3, [r1, #20]
     ffc:	f240 5294 	movw	r2, #1428	; 0x594
    1000:	f2c4 0200 	movt	r2, #16384	; 0x4000
    1004:	6013      	str	r3, [r2, #0]
    1006:	6949      	ldr	r1, [r1, #20]
    1008:	2302      	movs	r3, #2
    100a:	f2c0 4300 	movt	r3, #1024	; 0x400
    100e:	4319      	orrs	r1, r3
    1010:	6011      	str	r1, [r2, #0]
    1012:	f7ff fdf1 	bl	bf8 <POWER_DisablePD>
    1016:	9808      	ldr	r0, [sp, #32]
    1018:	f7ff fdee 	bl	bf8 <POWER_DisablePD>
    101c:	9809      	ldr	r0, [sp, #36]	; 0x24
    101e:	7f00      	ldrb	r0, [r0, #28]
    1020:	0780      	lsls	r0, r0, #30
    1022:	2800      	cmp	r0, #0
    1024:	d55b      	bpl.n	10de <CLOCK_SetPLL0Freq+0x144>
    1026:	e7ff      	b.n	1028 <CLOCK_SetPLL0Freq+0x8e>
    1028:	f240 5094 	movw	r0, #1428	; 0x594
    102c:	f2c4 0000 	movt	r0, #16384	; 0x4000
    1030:	6800      	ldr	r0, [r0, #0]
    1032:	00c0      	lsls	r0, r0, #3
    1034:	2800      	cmp	r0, #0
    1036:	d548      	bpl.n	10ca <CLOCK_SetPLL0Freq+0x130>
    1038:	e7ff      	b.n	103a <CLOCK_SetPLL0Freq+0xa0>
    103a:	f7ff ff57 	bl	eec <CLOCK_GetPLL0InClockRate>
    103e:	9005      	str	r0, [sp, #20]
    1040:	f7ff ff7f 	bl	f42 <findPll0PreDiv>
    1044:	4601      	mov	r1, r0
    1046:	9805      	ldr	r0, [sp, #20]
    1048:	fbb0 f0f1 	udiv	r0, r0, r1
    104c:	f248 4100 	movw	r1, #33792	; 0x8400
    1050:	f2c1 71d7 	movt	r1, #6103	; 0x17d7
    1054:	fbb1 f1f0 	udiv	r1, r1, r0
    1058:	f501 71fa 	add.w	r1, r1, #500	; 0x1f4
    105c:	9106      	str	r1, [sp, #24]
    105e:	f642 41ff 	movw	r1, #11519	; 0x2cff
    1062:	f2c0 1131 	movt	r1, #305	; 0x131
    1066:	4288      	cmp	r0, r1
    1068:	d826      	bhi.n	10b8 <CLOCK_SetPLL0Freq+0x11e>
    106a:	e7ff      	b.n	106c <CLOCK_SetPLL0Freq+0xd2>
    106c:	2000      	movs	r0, #0
    106e:	9004      	str	r0, [sp, #16]
    1070:	e7ff      	b.n	1072 <CLOCK_SetPLL0Freq+0xd8>
    1072:	9804      	ldr	r0, [sp, #16]
    1074:	9002      	str	r0, [sp, #8]
    1076:	f7ff ff88 	bl	f8a <CLOCK_IsPLL0Locked>
    107a:	4601      	mov	r1, r0
    107c:	2000      	movs	r0, #0
    107e:	9003      	str	r0, [sp, #12]
    1080:	b941      	cbnz	r1, 1094 <CLOCK_SetPLL0Freq+0xfa>
    1082:	e7ff      	b.n	1084 <CLOCK_SetPLL0Freq+0xea>
    1084:	9902      	ldr	r1, [sp, #8]
    1086:	9a06      	ldr	r2, [sp, #24]
    1088:	2000      	movs	r0, #0
    108a:	4291      	cmp	r1, r2
    108c:	bf38      	it	cc
    108e:	2001      	movcc	r0, #1
    1090:	9003      	str	r0, [sp, #12]
    1092:	e7ff      	b.n	1094 <CLOCK_SetPLL0Freq+0xfa>
    1094:	9803      	ldr	r0, [sp, #12]
    1096:	07c0      	lsls	r0, r0, #31
    1098:	b168      	cbz	r0, 10b6 <CLOCK_SetPLL0Freq+0x11c>
    109a:	e7ff      	b.n	109c <CLOCK_SetPLL0Freq+0x102>
    109c:	9802      	ldr	r0, [sp, #8]
    109e:	3064      	adds	r0, #100	; 0x64
    10a0:	9001      	str	r0, [sp, #4]
    10a2:	2064      	movs	r0, #100	; 0x64
    10a4:	f24d 1180 	movw	r1, #53632	; 0xd180
    10a8:	f6c0 01f0 	movt	r1, #2288	; 0x8f0
    10ac:	f7ff fc8e 	bl	9cc <SDK_DelayAtLeastUs>
    10b0:	9801      	ldr	r0, [sp, #4]
    10b2:	9004      	str	r0, [sp, #16]
    10b4:	e7dd      	b.n	1072 <CLOCK_SetPLL0Freq+0xd8>
    10b6:	e007      	b.n	10c8 <CLOCK_SetPLL0Freq+0x12e>
    10b8:	9806      	ldr	r0, [sp, #24]
    10ba:	f24d 1180 	movw	r1, #53632	; 0xd180
    10be:	f6c0 01f0 	movt	r1, #2288	; 0x8f0
    10c2:	f7ff fc83 	bl	9cc <SDK_DelayAtLeastUs>
    10c6:	e7ff      	b.n	10c8 <CLOCK_SetPLL0Freq+0x12e>
    10c8:	e008      	b.n	10dc <CLOCK_SetPLL0Freq+0x142>
    10ca:	f241 7070 	movw	r0, #6000	; 0x1770
    10ce:	f24d 1180 	movw	r1, #53632	; 0xd180
    10d2:	f6c0 01f0 	movt	r1, #2288	; 0x8f0
    10d6:	f7ff fc79 	bl	9cc <SDK_DelayAtLeastUs>
    10da:	e7ff      	b.n	10dc <CLOCK_SetPLL0Freq+0x142>
    10dc:	e7ff      	b.n	10de <CLOCK_SetPLL0Freq+0x144>
    10de:	9809      	ldr	r0, [sp, #36]	; 0x24
    10e0:	6980      	ldr	r0, [r0, #24]
    10e2:	f640 11d4 	movw	r1, #2516	; 0x9d4
    10e6:	f2c2 0100 	movt	r1, #8192	; 0x2000
    10ea:	6008      	str	r0, [r1, #0]
    10ec:	2000      	movs	r0, #0
    10ee:	b00a      	add	sp, #40	; 0x28
    10f0:	bd80      	pop	{r7, pc}

000010f2 <POWER_SetVoltageForFreq>:
    10f2:	b580      	push	{r7, lr}
    10f4:	466f      	mov	r7, sp
    10f6:	b084      	sub	sp, #16
    10f8:	9003      	str	r0, [sp, #12]
    10fa:	f24e 1100 	movw	r1, #57600	; 0xe100
    10fe:	f2c0 51f5 	movt	r1, #1525	; 0x5f5
    1102:	4288      	cmp	r0, r1
    1104:	d808      	bhi.n	1118 <POWER_SetVoltageForFreq+0x26>
    1106:	e7ff      	b.n	1108 <POWER_SetVoltageForFreq+0x16>
    1108:	2000      	movs	r0, #0
    110a:	9002      	str	r0, [sp, #8]
    110c:	f000 f81f 	bl	114e <lowpower_set_dcdc_power_profile>
    1110:	9802      	ldr	r0, [sp, #8]
    1112:	f000 f890 	bl	1236 <lowpower_set_voltage_for_process>
    1116:	e018      	b.n	114a <POWER_SetVoltageForFreq+0x58>
    1118:	9803      	ldr	r0, [sp, #12]
    111a:	f24a 4180 	movw	r1, #42112	; 0xa480
    111e:	f2c0 71bf 	movt	r1, #1983	; 0x7bf
    1122:	4288      	cmp	r0, r1
    1124:	d808      	bhi.n	1138 <POWER_SetVoltageForFreq+0x46>
    1126:	e7ff      	b.n	1128 <POWER_SetVoltageForFreq+0x36>
    1128:	2001      	movs	r0, #1
    112a:	9001      	str	r0, [sp, #4]
    112c:	f000 f80f 	bl	114e <lowpower_set_dcdc_power_profile>
    1130:	9801      	ldr	r0, [sp, #4]
    1132:	f000 f880 	bl	1236 <lowpower_set_voltage_for_process>
    1136:	e007      	b.n	1148 <POWER_SetVoltageForFreq+0x56>
    1138:	2002      	movs	r0, #2
    113a:	9000      	str	r0, [sp, #0]
    113c:	f000 f807 	bl	114e <lowpower_set_dcdc_power_profile>
    1140:	9800      	ldr	r0, [sp, #0]
    1142:	f000 f878 	bl	1236 <lowpower_set_voltage_for_process>
    1146:	e7ff      	b.n	1148 <POWER_SetVoltageForFreq+0x56>
    1148:	e7ff      	b.n	114a <POWER_SetVoltageForFreq+0x58>
    114a:	b004      	add	sp, #16
    114c:	bd80      	pop	{r7, pc}

0000114e <lowpower_set_dcdc_power_profile>:
    114e:	b087      	sub	sp, #28
    1150:	4601      	mov	r1, r0
    1152:	9106      	str	r1, [sp, #24]
    1154:	b140      	cbz	r0, 1168 <lowpower_set_dcdc_power_profile+0x1a>
    1156:	e7ff      	b.n	1158 <lowpower_set_dcdc_power_profile+0xa>
    1158:	9806      	ldr	r0, [sp, #24]
    115a:	2801      	cmp	r0, #1
    115c:	d020      	beq.n	11a0 <lowpower_set_dcdc_power_profile+0x52>
    115e:	e7ff      	b.n	1160 <lowpower_set_dcdc_power_profile+0x12>
    1160:	9806      	ldr	r0, [sp, #24]
    1162:	2802      	cmp	r0, #2
    1164:	d038      	beq.n	11d8 <lowpower_set_dcdc_power_profile+0x8a>
    1166:	e053      	b.n	1210 <lowpower_set_dcdc_power_profile+0xc2>
    1168:	f64f 40e0 	movw	r0, #64736	; 0xfce0
    116c:	f2c0 0009 	movt	r0, #9
    1170:	6800      	ldr	r0, [r0, #0]
    1172:	9004      	str	r0, [sp, #16]
    1174:	f64f 41e4 	movw	r1, #64740	; 0xfce4
    1178:	f2c0 0109 	movt	r1, #9
    117c:	6809      	ldr	r1, [r1, #0]
    117e:	9105      	str	r1, [sp, #20]
    1180:	07c0      	lsls	r0, r0, #31
    1182:	b160      	cbz	r0, 119e <lowpower_set_dcdc_power_profile+0x50>
    1184:	e7ff      	b.n	1186 <lowpower_set_dcdc_power_profile+0x38>
    1186:	9805      	ldr	r0, [sp, #20]
    1188:	9904      	ldr	r1, [sp, #16]
    118a:	0849      	lsrs	r1, r1, #1
    118c:	2210      	movs	r2, #16
    118e:	f2c4 0202 	movt	r2, #16386	; 0x4002
    1192:	6011      	str	r1, [r2, #0]
    1194:	2114      	movs	r1, #20
    1196:	f2c4 0102 	movt	r1, #16386	; 0x4002
    119a:	6008      	str	r0, [r1, #0]
    119c:	e7ff      	b.n	119e <lowpower_set_dcdc_power_profile+0x50>
    119e:	e048      	b.n	1232 <lowpower_set_dcdc_power_profile+0xe4>
    11a0:	f64f 40e8 	movw	r0, #64744	; 0xfce8
    11a4:	f2c0 0009 	movt	r0, #9
    11a8:	6800      	ldr	r0, [r0, #0]
    11aa:	9002      	str	r0, [sp, #8]
    11ac:	f64f 41ec 	movw	r1, #64748	; 0xfcec
    11b0:	f2c0 0109 	movt	r1, #9
    11b4:	6809      	ldr	r1, [r1, #0]
    11b6:	9103      	str	r1, [sp, #12]
    11b8:	07c0      	lsls	r0, r0, #31
    11ba:	b160      	cbz	r0, 11d6 <lowpower_set_dcdc_power_profile+0x88>
    11bc:	e7ff      	b.n	11be <lowpower_set_dcdc_power_profile+0x70>
    11be:	9803      	ldr	r0, [sp, #12]
    11c0:	9902      	ldr	r1, [sp, #8]
    11c2:	0849      	lsrs	r1, r1, #1
    11c4:	2210      	movs	r2, #16
    11c6:	f2c4 0202 	movt	r2, #16386	; 0x4002
    11ca:	6011      	str	r1, [r2, #0]
    11cc:	2114      	movs	r1, #20
    11ce:	f2c4 0102 	movt	r1, #16386	; 0x4002
    11d2:	6008      	str	r0, [r1, #0]
    11d4:	e7ff      	b.n	11d6 <lowpower_set_dcdc_power_profile+0x88>
    11d6:	e02c      	b.n	1232 <lowpower_set_dcdc_power_profile+0xe4>
    11d8:	f64f 40d8 	movw	r0, #64728	; 0xfcd8
    11dc:	f2c0 0009 	movt	r0, #9
    11e0:	6800      	ldr	r0, [r0, #0]
    11e2:	9000      	str	r0, [sp, #0]
    11e4:	f64f 41dc 	movw	r1, #64732	; 0xfcdc
    11e8:	f2c0 0109 	movt	r1, #9
    11ec:	6809      	ldr	r1, [r1, #0]
    11ee:	9101      	str	r1, [sp, #4]
    11f0:	07c0      	lsls	r0, r0, #31
    11f2:	b160      	cbz	r0, 120e <lowpower_set_dcdc_power_profile+0xc0>
    11f4:	e7ff      	b.n	11f6 <lowpower_set_dcdc_power_profile+0xa8>
    11f6:	9801      	ldr	r0, [sp, #4]
    11f8:	9900      	ldr	r1, [sp, #0]
    11fa:	0849      	lsrs	r1, r1, #1
    11fc:	2210      	movs	r2, #16
    11fe:	f2c4 0202 	movt	r2, #16386	; 0x4002
    1202:	6011      	str	r1, [r2, #0]
    1204:	2114      	movs	r1, #20
    1206:	f2c4 0102 	movt	r1, #16386	; 0x4002
    120a:	6008      	str	r0, [r1, #0]
    120c:	e7ff      	b.n	120e <lowpower_set_dcdc_power_profile+0xc0>
    120e:	e010      	b.n	1232 <lowpower_set_dcdc_power_profile+0xe4>
    1210:	2110      	movs	r1, #16
    1212:	f2c4 0102 	movt	r1, #16386	; 0x4002
    1216:	f644 6068 	movw	r0, #20072	; 0x4e68
    121a:	f2c0 100c 	movt	r0, #268	; 0x10c
    121e:	6008      	str	r0, [r1, #0]
    1220:	2114      	movs	r1, #20
    1222:	f2c4 0102 	movt	r1, #16386	; 0x4002
    1226:	f643 2098 	movw	r0, #15000	; 0x3a98
    122a:	f2c0 1080 	movt	r0, #384	; 0x180
    122e:	6008      	str	r0, [r1, #0]
    1230:	e7ff      	b.n	1232 <lowpower_set_dcdc_power_profile+0xe4>
    1232:	b007      	add	sp, #28
    1234:	4770      	bx	lr

00001236 <lowpower_set_voltage_for_process>:
    1236:	b580      	push	{r7, lr}
    1238:	466f      	mov	r7, sp
    123a:	b086      	sub	sp, #24
    123c:	9004      	str	r0, [sp, #16]
    123e:	f000 f85b 	bl	12f8 <lowpower_get_part_process_corner>
    1242:	4601      	mov	r1, r0
    1244:	9105      	str	r1, [sp, #20]
    1246:	b120      	cbz	r0, 1252 <lowpower_set_voltage_for_process+0x1c>
    1248:	e7ff      	b.n	124a <lowpower_set_voltage_for_process+0x14>
    124a:	9805      	ldr	r0, [sp, #20]
    124c:	2802      	cmp	r0, #2
    124e:	d01b      	beq.n	1288 <lowpower_set_voltage_for_process+0x52>
    1250:	e035      	b.n	12be <lowpower_set_voltage_for_process+0x88>
    1252:	9804      	ldr	r0, [sp, #16]
    1254:	b2c0      	uxtb	r0, r0
    1256:	4601      	mov	r1, r0
    1258:	9103      	str	r1, [sp, #12]
    125a:	2801      	cmp	r0, #1
    125c:	d004      	beq.n	1268 <lowpower_set_voltage_for_process+0x32>
    125e:	e7ff      	b.n	1260 <lowpower_set_voltage_for_process+0x2a>
    1260:	9803      	ldr	r0, [sp, #12]
    1262:	2802      	cmp	r0, #2
    1264:	d005      	beq.n	1272 <lowpower_set_voltage_for_process+0x3c>
    1266:	e009      	b.n	127c <lowpower_set_voltage_for_process+0x46>
    1268:	f240 407e 	movw	r0, #1150	; 0x47e
    126c:	f000 f89b 	bl	13a6 <lowpower_set_system_voltage>
    1270:	e009      	b.n	1286 <lowpower_set_voltage_for_process+0x50>
    1272:	f44f 6096 	mov.w	r0, #1200	; 0x4b0
    1276:	f000 f896 	bl	13a6 <lowpower_set_system_voltage>
    127a:	e004      	b.n	1286 <lowpower_set_voltage_for_process+0x50>
    127c:	f240 4033 	movw	r0, #1075	; 0x433
    1280:	f000 f891 	bl	13a6 <lowpower_set_system_voltage>
    1284:	e7ff      	b.n	1286 <lowpower_set_voltage_for_process+0x50>
    1286:	e035      	b.n	12f4 <lowpower_set_voltage_for_process+0xbe>
    1288:	9804      	ldr	r0, [sp, #16]
    128a:	b2c0      	uxtb	r0, r0
    128c:	4601      	mov	r1, r0
    128e:	9102      	str	r1, [sp, #8]
    1290:	2801      	cmp	r0, #1
    1292:	d004      	beq.n	129e <lowpower_set_voltage_for_process+0x68>
    1294:	e7ff      	b.n	1296 <lowpower_set_voltage_for_process+0x60>
    1296:	9802      	ldr	r0, [sp, #8]
    1298:	2802      	cmp	r0, #2
    129a:	d005      	beq.n	12a8 <lowpower_set_voltage_for_process+0x72>
    129c:	e009      	b.n	12b2 <lowpower_set_voltage_for_process+0x7c>
    129e:	f240 4001 	movw	r0, #1025	; 0x401
    12a2:	f000 f880 	bl	13a6 <lowpower_set_system_voltage>
    12a6:	e009      	b.n	12bc <lowpower_set_voltage_for_process+0x86>
    12a8:	f240 401a 	movw	r0, #1050	; 0x41a
    12ac:	f000 f87b 	bl	13a6 <lowpower_set_system_voltage>
    12b0:	e004      	b.n	12bc <lowpower_set_voltage_for_process+0x86>
    12b2:	f44f 707a 	mov.w	r0, #1000	; 0x3e8
    12b6:	f000 f876 	bl	13a6 <lowpower_set_system_voltage>
    12ba:	e7ff      	b.n	12bc <lowpower_set_voltage_for_process+0x86>
    12bc:	e01a      	b.n	12f4 <lowpower_set_voltage_for_process+0xbe>
    12be:	9804      	ldr	r0, [sp, #16]
    12c0:	b2c0      	uxtb	r0, r0
    12c2:	4601      	mov	r1, r0
    12c4:	9101      	str	r1, [sp, #4]
    12c6:	2801      	cmp	r0, #1
    12c8:	d004      	beq.n	12d4 <lowpower_set_voltage_for_process+0x9e>
    12ca:	e7ff      	b.n	12cc <lowpower_set_voltage_for_process+0x96>
    12cc:	9801      	ldr	r0, [sp, #4]
    12ce:	2802      	cmp	r0, #2
    12d0:	d005      	beq.n	12de <lowpower_set_voltage_for_process+0xa8>
    12d2:	e009      	b.n	12e8 <lowpower_set_voltage_for_process+0xb2>
    12d4:	f240 404c 	movw	r0, #1100	; 0x44c
    12d8:	f000 f865 	bl	13a6 <lowpower_set_system_voltage>
    12dc:	e009      	b.n	12f2 <lowpower_set_voltage_for_process+0xbc>
    12de:	f240 407e 	movw	r0, #1150	; 0x47e
    12e2:	f000 f860 	bl	13a6 <lowpower_set_system_voltage>
    12e6:	e004      	b.n	12f2 <lowpower_set_voltage_for_process+0xbc>
    12e8:	f44f 707a 	mov.w	r0, #1000	; 0x3e8
    12ec:	f000 f85b 	bl	13a6 <lowpower_set_system_voltage>
    12f0:	e7ff      	b.n	12f2 <lowpower_set_voltage_for_process+0xbc>
    12f2:	e7ff      	b.n	12f4 <lowpower_set_voltage_for_process+0xbe>
    12f4:	b006      	add	sp, #24
    12f6:	bd80      	pop	{r7, pc}

000012f8 <lowpower_get_part_process_corner>:
    12f8:	b08a      	sub	sp, #40	; 0x28
    12fa:	f64f 5030 	movw	r0, #64816	; 0xfd30
    12fe:	f2c0 0009 	movt	r0, #9
    1302:	6800      	ldr	r0, [r0, #0]
    1304:	9008      	str	r0, [sp, #32]
    1306:	f64f 5140 	movw	r1, #64832	; 0xfd40
    130a:	f2c0 0109 	movt	r1, #9
    130e:	6809      	ldr	r1, [r1, #0]
    1310:	9109      	str	r1, [sp, #36]	; 0x24
    1312:	07c0      	lsls	r0, r0, #31
    1314:	b120      	cbz	r0, 1320 <lowpower_get_part_process_corner+0x28>
    1316:	e7ff      	b.n	1318 <lowpower_get_part_process_corner+0x20>
    1318:	9808      	ldr	r0, [sp, #32]
    131a:	0840      	lsrs	r0, r0, #1
    131c:	9007      	str	r0, [sp, #28]
    131e:	e005      	b.n	132c <lowpower_get_part_process_corner+0x34>
    1320:	f647 60a0 	movw	r0, #32416	; 0x7ea0
    1324:	f2c0 1026 	movt	r0, #294	; 0x126
    1328:	9007      	str	r0, [sp, #28]
    132a:	e7ff      	b.n	132c <lowpower_get_part_process_corner+0x34>
    132c:	9809      	ldr	r0, [sp, #36]	; 0x24
    132e:	9907      	ldr	r1, [sp, #28]
    1330:	9106      	str	r1, [sp, #24]
    1332:	07c0      	lsls	r0, r0, #31
    1334:	b120      	cbz	r0, 1340 <lowpower_get_part_process_corner+0x48>
    1336:	e7ff      	b.n	1338 <lowpower_get_part_process_corner+0x40>
    1338:	9809      	ldr	r0, [sp, #36]	; 0x24
    133a:	0840      	lsrs	r0, r0, #1
    133c:	9005      	str	r0, [sp, #20]
    133e:	e005      	b.n	134c <lowpower_get_part_process_corner+0x54>
    1340:	f647 60a0 	movw	r0, #32416	; 0x7ea0
    1344:	f2c0 1026 	movt	r0, #294	; 0x126
    1348:	9005      	str	r0, [sp, #20]
    134a:	e7ff      	b.n	134c <lowpower_get_part_process_corner+0x54>
    134c:	9906      	ldr	r1, [sp, #24]
    134e:	9805      	ldr	r0, [sp, #20]
    1350:	9004      	str	r0, [sp, #16]
    1352:	4288      	cmp	r0, r1
    1354:	d803      	bhi.n	135e <lowpower_get_part_process_corner+0x66>
    1356:	e7ff      	b.n	1358 <lowpower_get_part_process_corner+0x60>
    1358:	9804      	ldr	r0, [sp, #16]
    135a:	9003      	str	r0, [sp, #12]
    135c:	e002      	b.n	1364 <lowpower_get_part_process_corner+0x6c>
    135e:	9806      	ldr	r0, [sp, #24]
    1360:	9003      	str	r0, [sp, #12]
    1362:	e7ff      	b.n	1364 <lowpower_get_part_process_corner+0x6c>
    1364:	9803      	ldr	r0, [sp, #12]
    1366:	9002      	str	r0, [sp, #8]
    1368:	f64d 71a0 	movw	r1, #57248	; 0xdfa0
    136c:	f2c0 1101 	movt	r1, #257	; 0x101
    1370:	4288      	cmp	r0, r1
    1372:	d803      	bhi.n	137c <lowpower_get_part_process_corner+0x84>
    1374:	e7ff      	b.n	1376 <lowpower_get_part_process_corner+0x7e>
    1376:	2000      	movs	r0, #0
    1378:	9001      	str	r0, [sp, #4]
    137a:	e010      	b.n	139e <lowpower_get_part_process_corner+0xa6>
    137c:	9802      	ldr	r0, [sp, #8]
    137e:	f641 51a0 	movw	r1, #7584	; 0x1da0
    1382:	f2c0 114b 	movt	r1, #331	; 0x14b
    1386:	4288      	cmp	r0, r1
    1388:	d803      	bhi.n	1392 <lowpower_get_part_process_corner+0x9a>
    138a:	e7ff      	b.n	138c <lowpower_get_part_process_corner+0x94>
    138c:	2001      	movs	r0, #1
    138e:	9000      	str	r0, [sp, #0]
    1390:	e002      	b.n	1398 <lowpower_get_part_process_corner+0xa0>
    1392:	2002      	movs	r0, #2
    1394:	9000      	str	r0, [sp, #0]
    1396:	e7ff      	b.n	1398 <lowpower_get_part_process_corner+0xa0>
    1398:	9800      	ldr	r0, [sp, #0]
    139a:	9001      	str	r0, [sp, #4]
    139c:	e7ff      	b.n	139e <lowpower_get_part_process_corner+0xa6>
    139e:	9801      	ldr	r0, [sp, #4]
    13a0:	b2c0      	uxtb	r0, r0
    13a2:	b00a      	add	sp, #40	; 0x28
    13a4:	4770      	bx	lr

000013a6 <lowpower_set_system_voltage>:
    13a6:	b580      	push	{r7, lr}
    13a8:	466f      	mov	r7, sp
    13aa:	b09b      	sub	sp, #108	; 0x6c
    13ac:	901a      	str	r0, [sp, #104]	; 0x68
    13ae:	f240 31b6 	movw	r1, #950	; 0x3b6
    13b2:	4288      	cmp	r0, r1
    13b4:	d807      	bhi.n	13c6 <lowpower_set_system_voltage+0x20>
    13b6:	e7ff      	b.n	13b8 <lowpower_set_system_voltage+0x12>
    13b8:	2000      	movs	r0, #0
    13ba:	210a      	movs	r1, #10
    13bc:	220f      	movs	r2, #15
    13be:	9217      	str	r2, [sp, #92]	; 0x5c
    13c0:	9118      	str	r1, [sp, #96]	; 0x60
    13c2:	9019      	str	r0, [sp, #100]	; 0x64
    13c4:	e0a7      	b.n	1516 <lowpower_set_system_voltage+0x170>
    13c6:	981a      	ldr	r0, [sp, #104]	; 0x68
    13c8:	0900      	lsrs	r0, r0, #4
    13ca:	283c      	cmp	r0, #60	; 0x3c
    13cc:	d807      	bhi.n	13de <lowpower_set_system_voltage+0x38>
    13ce:	e7ff      	b.n	13d0 <lowpower_set_system_voltage+0x2a>
    13d0:	2001      	movs	r0, #1
    13d2:	210c      	movs	r1, #12
    13d4:	2211      	movs	r2, #17
    13d6:	9214      	str	r2, [sp, #80]	; 0x50
    13d8:	9115      	str	r1, [sp, #84]	; 0x54
    13da:	9016      	str	r0, [sp, #88]	; 0x58
    13dc:	e094      	b.n	1508 <lowpower_set_system_voltage+0x162>
    13de:	981a      	ldr	r0, [sp, #104]	; 0x68
    13e0:	f5b0 7f7a 	cmp.w	r0, #1000	; 0x3e8
    13e4:	d807      	bhi.n	13f6 <lowpower_set_system_voltage+0x50>
    13e6:	e7ff      	b.n	13e8 <lowpower_set_system_voltage+0x42>
    13e8:	2002      	movs	r0, #2
    13ea:	210e      	movs	r1, #14
    13ec:	2213      	movs	r2, #19
    13ee:	9211      	str	r2, [sp, #68]	; 0x44
    13f0:	9112      	str	r1, [sp, #72]	; 0x48
    13f2:	9013      	str	r0, [sp, #76]	; 0x4c
    13f4:	e081      	b.n	14fa <lowpower_set_system_voltage+0x154>
    13f6:	981a      	ldr	r0, [sp, #104]	; 0x68
    13f8:	f240 4101 	movw	r1, #1025	; 0x401
    13fc:	4288      	cmp	r0, r1
    13fe:	d807      	bhi.n	1410 <lowpower_set_system_voltage+0x6a>
    1400:	e7ff      	b.n	1402 <lowpower_set_system_voltage+0x5c>
    1402:	2003      	movs	r0, #3
    1404:	2111      	movs	r1, #17
    1406:	2216      	movs	r2, #22
    1408:	920e      	str	r2, [sp, #56]	; 0x38
    140a:	910f      	str	r1, [sp, #60]	; 0x3c
    140c:	9010      	str	r0, [sp, #64]	; 0x40
    140e:	e06d      	b.n	14ec <lowpower_set_system_voltage+0x146>
    1410:	981a      	ldr	r0, [sp, #104]	; 0x68
    1412:	f240 411a 	movw	r1, #1050	; 0x41a
    1416:	4288      	cmp	r0, r1
    1418:	d807      	bhi.n	142a <lowpower_set_system_voltage+0x84>
    141a:	e7ff      	b.n	141c <lowpower_set_system_voltage+0x76>
    141c:	2004      	movs	r0, #4
    141e:	2114      	movs	r1, #20
    1420:	2219      	movs	r2, #25
    1422:	920b      	str	r2, [sp, #44]	; 0x2c
    1424:	910c      	str	r1, [sp, #48]	; 0x30
    1426:	900d      	str	r0, [sp, #52]	; 0x34
    1428:	e059      	b.n	14de <lowpower_set_system_voltage+0x138>
    142a:	981a      	ldr	r0, [sp, #104]	; 0x68
    142c:	f240 4133 	movw	r1, #1075	; 0x433
    1430:	4288      	cmp	r0, r1
    1432:	d807      	bhi.n	1444 <lowpower_set_system_voltage+0x9e>
    1434:	e7ff      	b.n	1436 <lowpower_set_system_voltage+0x90>
    1436:	2005      	movs	r0, #5
    1438:	2116      	movs	r1, #22
    143a:	221b      	movs	r2, #27
    143c:	9208      	str	r2, [sp, #32]
    143e:	9109      	str	r1, [sp, #36]	; 0x24
    1440:	900a      	str	r0, [sp, #40]	; 0x28
    1442:	e045      	b.n	14d0 <lowpower_set_system_voltage+0x12a>
    1444:	981a      	ldr	r0, [sp, #104]	; 0x68
    1446:	f240 414c 	movw	r1, #1100	; 0x44c
    144a:	4288      	cmp	r0, r1
    144c:	d807      	bhi.n	145e <lowpower_set_system_voltage+0xb8>
    144e:	e7ff      	b.n	1450 <lowpower_set_system_voltage+0xaa>
    1450:	2006      	movs	r0, #6
    1452:	2118      	movs	r1, #24
    1454:	221d      	movs	r2, #29
    1456:	9205      	str	r2, [sp, #20]
    1458:	9106      	str	r1, [sp, #24]
    145a:	9007      	str	r0, [sp, #28]
    145c:	e031      	b.n	14c2 <lowpower_set_system_voltage+0x11c>
    145e:	981a      	ldr	r0, [sp, #104]	; 0x68
    1460:	f240 4165 	movw	r1, #1125	; 0x465
    1464:	4288      	cmp	r0, r1
    1466:	d807      	bhi.n	1478 <lowpower_set_system_voltage+0xd2>
    1468:	e7ff      	b.n	146a <lowpower_set_system_voltage+0xc4>
    146a:	2007      	movs	r0, #7
    146c:	211b      	movs	r1, #27
    146e:	221e      	movs	r2, #30
    1470:	9202      	str	r2, [sp, #8]
    1472:	9103      	str	r1, [sp, #12]
    1474:	9004      	str	r0, [sp, #16]
    1476:	e01d      	b.n	14b4 <lowpower_set_system_voltage+0x10e>
    1478:	981a      	ldr	r0, [sp, #104]	; 0x68
    147a:	f240 417e 	movw	r1, #1150	; 0x47e
    147e:	4288      	cmp	r0, r1
    1480:	d803      	bhi.n	148a <lowpower_set_system_voltage+0xe4>
    1482:	e7ff      	b.n	1484 <lowpower_set_system_voltage+0xde>
    1484:	2008      	movs	r0, #8
    1486:	9001      	str	r0, [sp, #4]
    1488:	e00d      	b.n	14a6 <lowpower_set_system_voltage+0x100>
    148a:	981a      	ldr	r0, [sp, #104]	; 0x68
    148c:	08c0      	lsrs	r0, r0, #3
    148e:	2892      	cmp	r0, #146	; 0x92
    1490:	d803      	bhi.n	149a <lowpower_set_system_voltage+0xf4>
    1492:	e7ff      	b.n	1494 <lowpower_set_system_voltage+0xee>
    1494:	2009      	movs	r0, #9
    1496:	9000      	str	r0, [sp, #0]
    1498:	e002      	b.n	14a0 <lowpower_set_system_voltage+0xfa>
    149a:	200a      	movs	r0, #10
    149c:	9000      	str	r0, [sp, #0]
    149e:	e7ff      	b.n	14a0 <lowpower_set_system_voltage+0xfa>
    14a0:	9800      	ldr	r0, [sp, #0]
    14a2:	9001      	str	r0, [sp, #4]
    14a4:	e7ff      	b.n	14a6 <lowpower_set_system_voltage+0x100>
    14a6:	9801      	ldr	r0, [sp, #4]
    14a8:	211e      	movs	r1, #30
    14aa:	221f      	movs	r2, #31
    14ac:	9202      	str	r2, [sp, #8]
    14ae:	9103      	str	r1, [sp, #12]
    14b0:	9004      	str	r0, [sp, #16]
    14b2:	e7ff      	b.n	14b4 <lowpower_set_system_voltage+0x10e>
    14b4:	9a02      	ldr	r2, [sp, #8]
    14b6:	9903      	ldr	r1, [sp, #12]
    14b8:	9804      	ldr	r0, [sp, #16]
    14ba:	9205      	str	r2, [sp, #20]
    14bc:	9106      	str	r1, [sp, #24]
    14be:	9007      	str	r0, [sp, #28]
    14c0:	e7ff      	b.n	14c2 <lowpower_set_system_voltage+0x11c>
    14c2:	9a05      	ldr	r2, [sp, #20]
    14c4:	9906      	ldr	r1, [sp, #24]
    14c6:	9807      	ldr	r0, [sp, #28]
    14c8:	9208      	str	r2, [sp, #32]
    14ca:	9109      	str	r1, [sp, #36]	; 0x24
    14cc:	900a      	str	r0, [sp, #40]	; 0x28
    14ce:	e7ff      	b.n	14d0 <lowpower_set_system_voltage+0x12a>
    14d0:	9a08      	ldr	r2, [sp, #32]
    14d2:	9909      	ldr	r1, [sp, #36]	; 0x24
    14d4:	980a      	ldr	r0, [sp, #40]	; 0x28
    14d6:	920b      	str	r2, [sp, #44]	; 0x2c
    14d8:	910c      	str	r1, [sp, #48]	; 0x30
    14da:	900d      	str	r0, [sp, #52]	; 0x34
    14dc:	e7ff      	b.n	14de <lowpower_set_system_voltage+0x138>
    14de:	9a0b      	ldr	r2, [sp, #44]	; 0x2c
    14e0:	990c      	ldr	r1, [sp, #48]	; 0x30
    14e2:	980d      	ldr	r0, [sp, #52]	; 0x34
    14e4:	920e      	str	r2, [sp, #56]	; 0x38
    14e6:	910f      	str	r1, [sp, #60]	; 0x3c
    14e8:	9010      	str	r0, [sp, #64]	; 0x40
    14ea:	e7ff      	b.n	14ec <lowpower_set_system_voltage+0x146>
    14ec:	9a0e      	ldr	r2, [sp, #56]	; 0x38
    14ee:	990f      	ldr	r1, [sp, #60]	; 0x3c
    14f0:	9810      	ldr	r0, [sp, #64]	; 0x40
    14f2:	9211      	str	r2, [sp, #68]	; 0x44
    14f4:	9112      	str	r1, [sp, #72]	; 0x48
    14f6:	9013      	str	r0, [sp, #76]	; 0x4c
    14f8:	e7ff      	b.n	14fa <lowpower_set_system_voltage+0x154>
    14fa:	9a11      	ldr	r2, [sp, #68]	; 0x44
    14fc:	9912      	ldr	r1, [sp, #72]	; 0x48
    14fe:	9813      	ldr	r0, [sp, #76]	; 0x4c
    1500:	9214      	str	r2, [sp, #80]	; 0x50
    1502:	9115      	str	r1, [sp, #84]	; 0x54
    1504:	9016      	str	r0, [sp, #88]	; 0x58
    1506:	e7ff      	b.n	1508 <lowpower_set_system_voltage+0x162>
    1508:	9a14      	ldr	r2, [sp, #80]	; 0x50
    150a:	9915      	ldr	r1, [sp, #84]	; 0x54
    150c:	9816      	ldr	r0, [sp, #88]	; 0x58
    150e:	9217      	str	r2, [sp, #92]	; 0x5c
    1510:	9118      	str	r1, [sp, #96]	; 0x60
    1512:	9019      	str	r0, [sp, #100]	; 0x64
    1514:	e7ff      	b.n	1516 <lowpower_set_system_voltage+0x170>
    1516:	9b17      	ldr	r3, [sp, #92]	; 0x5c
    1518:	f8dd c060 	ldr.w	ip, [sp, #96]	; 0x60
    151c:	9a19      	ldr	r2, [sp, #100]	; 0x64
    151e:	211c      	movs	r1, #28
    1520:	f2c4 0102 	movt	r1, #16386	; 0x4002
    1524:	6808      	ldr	r0, [r1, #0]
    1526:	f647 4e1f 	movw	lr, #31775	; 0x7c1f
    152a:	ea20 000e 	bic.w	r0, r0, lr
    152e:	f00c 0c1f 	and.w	ip, ip, #31
    1532:	4460      	add	r0, ip
    1534:	f003 031f 	and.w	r3, r3, #31
    1538:	ea40 2083 	orr.w	r0, r0, r3, lsl #10
    153c:	6008      	str	r0, [r1, #0]
    153e:	2110      	movs	r1, #16
    1540:	f2c4 0102 	movt	r1, #16386	; 0x4002
    1544:	6808      	ldr	r0, [r1, #0]
    1546:	f362 4054 	bfi	r0, r2, #17, #4
    154a:	6008      	str	r0, [r1, #0]
    154c:	b01b      	add	sp, #108	; 0x6c
    154e:	bd80      	pop	{r7, pc}

00001550 <GPIO_EnablePortClock>:
    1550:	b580      	push	{r7, lr}
    1552:	466f      	mov	r7, sp
    1554:	b082      	sub	sp, #8
    1556:	9101      	str	r1, [sp, #4]
    1558:	2903      	cmp	r1, #3
    155a:	d801      	bhi.n	1560 <GPIO_EnablePortClock+0x10>
    155c:	e7ff      	b.n	155e <GPIO_EnablePortClock+0xe>
    155e:	e00e      	b.n	157e <GPIO_EnablePortClock+0x2e>
    1560:	f646 209c 	movw	r0, #27292	; 0x6a9c
    1564:	f2c0 0000 	movt	r0, #0
    1568:	f646 22af 	movw	r2, #27311	; 0x6aaf
    156c:	f2c0 0200 	movt	r2, #0
    1570:	f646 23c4 	movw	r3, #27332	; 0x6ac4
    1574:	f2c0 0300 	movt	r3, #0
    1578:	212d      	movs	r1, #45	; 0x2d
    157a:	f002 fa05 	bl	3988 <__assert_func>
    157e:	9901      	ldr	r1, [sp, #4]
    1580:	f646 20e8 	movw	r0, #27368	; 0x6ae8
    1584:	f2c0 0000 	movt	r0, #0
    1588:	f830 0011 	ldrh.w	r0, [r0, r1, lsl #1]
    158c:	f000 f847 	bl	161e <CLOCK_EnableClock>
    1590:	b002      	add	sp, #8
    1592:	bd80      	pop	{r7, pc}

00001594 <GPIO_PinInit>:
    1594:	b580      	push	{r7, lr}
    1596:	466f      	mov	r7, sp
    1598:	b084      	sub	sp, #16
    159a:	9303      	str	r3, [sp, #12]
    159c:	9200      	str	r2, [sp, #0]
    159e:	9101      	str	r1, [sp, #4]
    15a0:	9002      	str	r0, [sp, #8]
    15a2:	f7ff ffd5 	bl	1550 <GPIO_EnablePortClock>
    15a6:	9b03      	ldr	r3, [sp, #12]
    15a8:	7818      	ldrb	r0, [r3, #0]
    15aa:	b970      	cbnz	r0, 15ca <GPIO_PinInit+0x36>
    15ac:	e7ff      	b.n	15ae <GPIO_PinInit+0x1a>
    15ae:	9802      	ldr	r0, [sp, #8]
    15b0:	9901      	ldr	r1, [sp, #4]
    15b2:	9b00      	ldr	r3, [sp, #0]
    15b4:	2201      	movs	r2, #1
    15b6:	fa02 f303 	lsl.w	r3, r2, r3
    15ba:	eb00 0181 	add.w	r1, r0, r1, lsl #2
    15be:	f44f 5200 	mov.w	r2, #8192	; 0x2000
    15c2:	5888      	ldr	r0, [r1, r2]
    15c4:	4398      	bics	r0, r3
    15c6:	5088      	str	r0, [r1, r2]
    15c8:	e027      	b.n	161a <GPIO_PinInit+0x86>
    15ca:	9803      	ldr	r0, [sp, #12]
    15cc:	7840      	ldrb	r0, [r0, #1]
    15ce:	b958      	cbnz	r0, 15e8 <GPIO_PinInit+0x54>
    15d0:	e7ff      	b.n	15d2 <GPIO_PinInit+0x3e>
    15d2:	9902      	ldr	r1, [sp, #8]
    15d4:	9a01      	ldr	r2, [sp, #4]
    15d6:	9b00      	ldr	r3, [sp, #0]
    15d8:	2001      	movs	r0, #1
    15da:	4098      	lsls	r0, r3
    15dc:	eb01 0182 	add.w	r1, r1, r2, lsl #2
    15e0:	f44f 520a 	mov.w	r2, #8832	; 0x2280
    15e4:	5088      	str	r0, [r1, r2]
    15e6:	e00a      	b.n	15fe <GPIO_PinInit+0x6a>
    15e8:	9902      	ldr	r1, [sp, #8]
    15ea:	9a01      	ldr	r2, [sp, #4]
    15ec:	9b00      	ldr	r3, [sp, #0]
    15ee:	2001      	movs	r0, #1
    15f0:	4098      	lsls	r0, r3
    15f2:	eb01 0182 	add.w	r1, r1, r2, lsl #2
    15f6:	f44f 5208 	mov.w	r2, #8704	; 0x2200
    15fa:	5088      	str	r0, [r1, r2]
    15fc:	e7ff      	b.n	15fe <GPIO_PinInit+0x6a>
    15fe:	9802      	ldr	r0, [sp, #8]
    1600:	9901      	ldr	r1, [sp, #4]
    1602:	9b00      	ldr	r3, [sp, #0]
    1604:	2201      	movs	r2, #1
    1606:	fa02 f303 	lsl.w	r3, r2, r3
    160a:	eb00 0181 	add.w	r1, r0, r1, lsl #2
    160e:	f44f 5200 	mov.w	r2, #8192	; 0x2000
    1612:	5888      	ldr	r0, [r1, r2]
    1614:	4318      	orrs	r0, r3
    1616:	5088      	str	r0, [r1, r2]
    1618:	e7ff      	b.n	161a <GPIO_PinInit+0x86>
    161a:	b004      	add	sp, #16
    161c:	bd80      	pop	{r7, pc}

0000161e <CLOCK_EnableClock>:
    161e:	0a02      	lsrs	r2, r0, #8
    1620:	b2c1      	uxtb	r1, r0
    1622:	2001      	movs	r0, #1
    1624:	4088      	lsls	r0, r1
    1626:	f240 2120 	movw	r1, #544	; 0x220
    162a:	f2c4 0100 	movt	r1, #16384	; 0x4000
    162e:	f841 0022 	str.w	r0, [r1, r2, lsl #2]
    1632:	4770      	bx	lr

00001634 <vPortSetupTimerInterrupt>:
    1634:	f24e 0110 	movw	r1, #57360	; 0xe010
    1638:	f2ce 0100 	movt	r1, #57344	; 0xe000
    163c:	2000      	movs	r0, #0
    163e:	6008      	str	r0, [r1, #0]
    1640:	f24e 0218 	movw	r2, #57368	; 0xe018
    1644:	f2ce 0200 	movt	r2, #57344	; 0xe000
    1648:	6010      	str	r0, [r2, #0]
    164a:	f240 0000 	movw	r0, #0
    164e:	f2c2 0000 	movt	r0, #8192	; 0x2000
    1652:	6800      	ldr	r0, [r0, #0]
    1654:	f644 52d3 	movw	r2, #19923	; 0x4dd3
    1658:	f2c1 0262 	movt	r2, #4194	; 0x1062
    165c:	fba0 0202 	umull	r0, r2, r0, r2
    1660:	f04f 30ff 	mov.w	r0, #4294967295	; 0xffffffff
    1664:	eb00 1092 	add.w	r0, r0, r2, lsr #6
    1668:	f24e 0214 	movw	r2, #57364	; 0xe014
    166c:	f2ce 0200 	movt	r2, #57344	; 0xe000
    1670:	6010      	str	r0, [r2, #0]
    1672:	2007      	movs	r0, #7
    1674:	6008      	str	r0, [r1, #0]
    1676:	4770      	bx	lr

00001678 <vPortYield>:
    1678:	f64e 5104 	movw	r1, #60676	; 0xed04
    167c:	f2ce 0100 	movt	r1, #57344	; 0xe000
    1680:	f04f 5080 	mov.w	r0, #268435456	; 0x10000000
    1684:	6008      	str	r0, [r1, #0]
    1686:	f3bf 8f4f 	dsb	sy
    168a:	f3bf 8f6f 	isb	sy
    168e:	4770      	bx	lr

00001690 <vPortEnterCritical>:
    1690:	b580      	push	{r7, lr}
    1692:	466f      	mov	r7, sp
    1694:	f000 f916 	bl	18c4 <ulSetInterruptMask>
    1698:	f240 0108 	movw	r1, #8
    169c:	f2c2 0100 	movt	r1, #8192	; 0x2000
    16a0:	6808      	ldr	r0, [r1, #0]
    16a2:	3001      	adds	r0, #1
    16a4:	6008      	str	r0, [r1, #0]
    16a6:	f3bf 8f4f 	dsb	sy
    16aa:	f3bf 8f6f 	isb	sy
    16ae:	bd80      	pop	{r7, pc}

000016b0 <vPortExitCritical>:
    16b0:	b580      	push	{r7, lr}
    16b2:	466f      	mov	r7, sp
    16b4:	f240 0008 	movw	r0, #8
    16b8:	f2c2 0000 	movt	r0, #8192	; 0x2000
    16bc:	6800      	ldr	r0, [r0, #0]
    16be:	b920      	cbnz	r0, 16ca <vPortExitCritical+0x1a>
    16c0:	e7ff      	b.n	16c2 <vPortExitCritical+0x12>
    16c2:	f000 f8ff 	bl	18c4 <ulSetInterruptMask>
    16c6:	e7ff      	b.n	16c8 <vPortExitCritical+0x18>
    16c8:	e7fe      	b.n	16c8 <vPortExitCritical+0x18>
    16ca:	f240 0008 	movw	r0, #8
    16ce:	f2c2 0000 	movt	r0, #8192	; 0x2000
    16d2:	6801      	ldr	r1, [r0, #0]
    16d4:	3901      	subs	r1, #1
    16d6:	6001      	str	r1, [r0, #0]
    16d8:	6800      	ldr	r0, [r0, #0]
    16da:	b920      	cbnz	r0, 16e6 <vPortExitCritical+0x36>
    16dc:	e7ff      	b.n	16de <vPortExitCritical+0x2e>
    16de:	2000      	movs	r0, #0
    16e0:	f000 f8fb 	bl	18da <vClearInterruptMask>
    16e4:	e7ff      	b.n	16e6 <vPortExitCritical+0x36>
    16e6:	bd80      	pop	{r7, pc}

000016e8 <SysTick_Handler>:
    16e8:	b580      	push	{r7, lr}
    16ea:	466f      	mov	r7, sp
    16ec:	b082      	sub	sp, #8
    16ee:	f000 f8e9 	bl	18c4 <ulSetInterruptMask>
    16f2:	9001      	str	r0, [sp, #4]
    16f4:	f001 f86e 	bl	27d4 <xTaskIncrementTick>
    16f8:	b140      	cbz	r0, 170c <SysTick_Handler+0x24>
    16fa:	e7ff      	b.n	16fc <SysTick_Handler+0x14>
    16fc:	f64e 5104 	movw	r1, #60676	; 0xed04
    1700:	f2ce 0100 	movt	r1, #57344	; 0xe000
    1704:	f04f 5080 	mov.w	r0, #268435456	; 0x10000000
    1708:	6008      	str	r0, [r1, #0]
    170a:	e7ff      	b.n	170c <SysTick_Handler+0x24>
    170c:	9801      	ldr	r0, [sp, #4]
    170e:	f000 f8e4 	bl	18da <vClearInterruptMask>
    1712:	b002      	add	sp, #8
    1714:	bd80      	pop	{r7, pc}

00001716 <vPortSVCHandler_C>:
    1716:	b580      	push	{r7, lr}
    1718:	466f      	mov	r7, sp
    171a:	6980      	ldr	r0, [r0, #24]
    171c:	f810 0c02 	ldrb.w	r0, [r0, #-2]
    1720:	2802      	cmp	r0, #2
    1722:	d105      	bne.n	1730 <vPortSVCHandler_C+0x1a>
    1724:	e7ff      	b.n	1726 <vPortSVCHandler_C+0x10>
    1726:	f000 f808 	bl	173a <prvSetupFPU>
    172a:	f000 f899 	bl	1860 <vRestoreContextOfFirstTask>
    172e:	e003      	b.n	1738 <vPortSVCHandler_C+0x22>
    1730:	f000 f8c8 	bl	18c4 <ulSetInterruptMask>
    1734:	e7ff      	b.n	1736 <vPortSVCHandler_C+0x20>
    1736:	e7fe      	b.n	1736 <vPortSVCHandler_C+0x20>
    1738:	bd80      	pop	{r7, pc}

0000173a <prvSetupFPU>:
    173a:	f64e 5188 	movw	r1, #60808	; 0xed88
    173e:	f2ce 0100 	movt	r1, #57344	; 0xe000
    1742:	6808      	ldr	r0, [r1, #0]
    1744:	f440 0070 	orr.w	r0, r0, #15728640	; 0xf00000
    1748:	6008      	str	r0, [r1, #0]
    174a:	f64e 7134 	movw	r1, #61236	; 0xef34
    174e:	f2ce 0100 	movt	r1, #57344	; 0xe000
    1752:	6808      	ldr	r0, [r1, #0]
    1754:	f040 4040 	orr.w	r0, r0, #3221225472	; 0xc0000000
    1758:	6008      	str	r0, [r1, #0]
    175a:	4770      	bx	lr

0000175c <pxPortInitialiseStack>:
    175c:	f04f 7c80 	mov.w	ip, #16777216	; 0x1000000
    1760:	f840 cc04 	str.w	ip, [r0, #-4]
    1764:	f840 2c08 	str.w	r2, [r0, #-8]
    1768:	f241 72e7 	movw	r2, #6119	; 0x17e7
    176c:	f2c0 0200 	movt	r2, #0
    1770:	f840 2c0c 	str.w	r2, [r0, #-12]
    1774:	f04f 3212 	mov.w	r2, #303174162	; 0x12121212
    1778:	f840 2c10 	str.w	r2, [r0, #-16]
    177c:	f04f 3203 	mov.w	r2, #50529027	; 0x3030303
    1780:	f840 2c14 	str.w	r2, [r0, #-20]
    1784:	f04f 3202 	mov.w	r2, #33686018	; 0x2020202
    1788:	f840 2c18 	str.w	r2, [r0, #-24]
    178c:	f04f 3201 	mov.w	r2, #16843009	; 0x1010101
    1790:	f840 2c1c 	str.w	r2, [r0, #-28]
    1794:	f840 3c20 	str.w	r3, [r0, #-32]
    1798:	f04f 3211 	mov.w	r2, #286331153	; 0x11111111
    179c:	f840 2c24 	str.w	r2, [r0, #-36]
    17a0:	f04f 3210 	mov.w	r2, #269488144	; 0x10101010
    17a4:	f840 2c28 	str.w	r2, [r0, #-40]
    17a8:	f04f 3209 	mov.w	r2, #151587081	; 0x9090909
    17ac:	f840 2c2c 	str.w	r2, [r0, #-44]
    17b0:	f04f 3208 	mov.w	r2, #134744072	; 0x8080808
    17b4:	f840 2c30 	str.w	r2, [r0, #-48]
    17b8:	f04f 3207 	mov.w	r2, #117901063	; 0x7070707
    17bc:	f840 2c34 	str.w	r2, [r0, #-52]
    17c0:	f04f 3206 	mov.w	r2, #101058054	; 0x6060606
    17c4:	f840 2c38 	str.w	r2, [r0, #-56]
    17c8:	f04f 3205 	mov.w	r2, #84215045	; 0x5050505
    17cc:	f840 2c3c 	str.w	r2, [r0, #-60]
    17d0:	f04f 3204 	mov.w	r2, #67372036	; 0x4040404
    17d4:	f840 2c40 	str.w	r2, [r0, #-64]
    17d8:	f06f 0202 	mvn.w	r2, #2
    17dc:	f840 2c44 	str.w	r2, [r0, #-68]
    17e0:	f840 1d48 	str.w	r1, [r0, #-72]!
    17e4:	4770      	bx	lr

000017e6 <prvTaskExitError>:
    17e6:	b580      	push	{r7, lr}
    17e8:	466f      	mov	r7, sp
    17ea:	b082      	sub	sp, #8
    17ec:	2000      	movs	r0, #0
    17ee:	9001      	str	r0, [sp, #4]
    17f0:	f240 0008 	movw	r0, #8
    17f4:	f2c2 0000 	movt	r0, #8192	; 0x2000
    17f8:	6800      	ldr	r0, [r0, #0]
    17fa:	3001      	adds	r0, #1
    17fc:	b120      	cbz	r0, 1808 <prvTaskExitError+0x22>
    17fe:	e7ff      	b.n	1800 <prvTaskExitError+0x1a>
    1800:	f000 f860 	bl	18c4 <ulSetInterruptMask>
    1804:	e7ff      	b.n	1806 <prvTaskExitError+0x20>
    1806:	e7fe      	b.n	1806 <prvTaskExitError+0x20>
    1808:	f000 f85c 	bl	18c4 <ulSetInterruptMask>
    180c:	e7ff      	b.n	180e <prvTaskExitError+0x28>
    180e:	9801      	ldr	r0, [sp, #4]
    1810:	b908      	cbnz	r0, 1816 <prvTaskExitError+0x30>
    1812:	e7ff      	b.n	1814 <prvTaskExitError+0x2e>
    1814:	e7fb      	b.n	180e <prvTaskExitError+0x28>
    1816:	b002      	add	sp, #8
    1818:	bd80      	pop	{r7, pc}

0000181a <xPortStartScheduler>:
    181a:	b580      	push	{r7, lr}
    181c:	466f      	mov	r7, sp
    181e:	b082      	sub	sp, #8
    1820:	f64e 5120 	movw	r1, #60704	; 0xed20
    1824:	f2ce 0100 	movt	r1, #57344	; 0xe000
    1828:	6808      	ldr	r0, [r1, #0]
    182a:	f440 007f 	orr.w	r0, r0, #16711680	; 0xff0000
    182e:	6008      	str	r0, [r1, #0]
    1830:	6808      	ldr	r0, [r1, #0]
    1832:	f040 407f 	orr.w	r0, r0, #4278190080	; 0xff000000
    1836:	6008      	str	r0, [r1, #0]
    1838:	f7ff fefc 	bl	1634 <vPortSetupTimerInterrupt>
    183c:	f240 0108 	movw	r1, #8
    1840:	f2c2 0100 	movt	r1, #8192	; 0x2000
    1844:	2000      	movs	r0, #0
    1846:	9001      	str	r0, [sp, #4]
    1848:	6008      	str	r0, [r1, #0]
    184a:	f000 f829 	bl	18a0 <vStartFirstTask>
    184e:	f000 ff02 	bl	2656 <vTaskSwitchContext>
    1852:	f7ff ffc8 	bl	17e6 <prvTaskExitError>
    1856:	9801      	ldr	r0, [sp, #4]
    1858:	b002      	add	sp, #8
    185a:	bd80      	pop	{r7, pc}
    185c:	0000      	movs	r0, r0
	...

00001860 <vRestoreContextOfFirstTask>:
    1860:	4a0b      	ldr	r2, [pc, #44]	; (1890 <pxCurrentTCBConst2>)
    1862:	6811      	ldr	r1, [r2, #0]
    1864:	6808      	ldr	r0, [r1, #0]
    1866:	c806      	ldmia	r0!, {r1, r2}
    1868:	f381 880b 	msr	PSPLIM, r1
    186c:	2102      	movs	r1, #2
    186e:	f381 8814 	msr	CONTROL, r1
    1872:	3020      	adds	r0, #32
    1874:	f380 8809 	msr	PSP, r0
    1878:	f3bf 8f6f 	isb	sy
    187c:	f04f 0000 	mov.w	r0, #0
    1880:	f380 8811 	msr	BASEPRI, r0
    1884:	4710      	bx	r2
    1886:	bf00      	nop
    1888:	bf00      	nop
    188a:	bf00      	nop
    188c:	bf00      	nop
    188e:	bf00      	nop

00001890 <pxCurrentTCBConst2>:
    1890:	20000a18 	.word	0x20000a18
	...

000018a0 <vStartFirstTask>:
    18a0:	4807      	ldr	r0, [pc, #28]	; (18c0 <xVTORConst>)
    18a2:	6800      	ldr	r0, [r0, #0]
    18a4:	6800      	ldr	r0, [r0, #0]
    18a6:	f380 8808 	msr	MSP, r0
    18aa:	b662      	cpsie	i
    18ac:	b661      	cpsie	f
    18ae:	f3bf 8f4f 	dsb	sy
    18b2:	f3bf 8f6f 	isb	sy
    18b6:	df02      	svc	2
    18b8:	bf00      	nop
    18ba:	bf00      	nop
    18bc:	bf00      	nop
    18be:	bf00      	nop

000018c0 <xVTORConst>:
    18c0:	e000ed08 	.word	0xe000ed08

000018c4 <ulSetInterruptMask>:
    18c4:	f3ef 8011 	mrs	r0, BASEPRI
    18c8:	f04f 0140 	mov.w	r1, #64	; 0x40
    18cc:	f381 8811 	msr	BASEPRI, r1
    18d0:	f3bf 8f4f 	dsb	sy
    18d4:	f3bf 8f6f 	isb	sy
    18d8:	4770      	bx	lr

000018da <vClearInterruptMask>:
    18da:	f380 8811 	msr	BASEPRI, r0
    18de:	f3bf 8f4f 	dsb	sy
    18e2:	f3bf 8f6f 	isb	sy
    18e6:	4770      	bx	lr
	...

000018f0 <PendSV_Handler>:
    18f0:	f3ef 8009 	mrs	r0, PSP
    18f4:	f01e 0f10 	tst.w	lr, #16
    18f8:	bf08      	it	eq
    18fa:	ed20 8a10 	vstmdbeq	r0!, {s16-s31}
    18fe:	f3ef 820b 	mrs	r2, PSPLIM
    1902:	4673      	mov	r3, lr
    1904:	e920 0ffc 	stmdb	r0!, {r2, r3, r4, r5, r6, r7, r8, r9, sl, fp}
    1908:	4a11      	ldr	r2, [pc, #68]	; (1950 <pxCurrentTCBConst>)
    190a:	6811      	ldr	r1, [r2, #0]
    190c:	6008      	str	r0, [r1, #0]
    190e:	f04f 0040 	mov.w	r0, #64	; 0x40
    1912:	f380 8811 	msr	BASEPRI, r0
    1916:	f3bf 8f4f 	dsb	sy
    191a:	f3bf 8f6f 	isb	sy
    191e:	f000 fe9a 	bl	2656 <vTaskSwitchContext>
    1922:	f04f 0000 	mov.w	r0, #0
    1926:	f380 8811 	msr	BASEPRI, r0
    192a:	4a09      	ldr	r2, [pc, #36]	; (1950 <pxCurrentTCBConst>)
    192c:	6811      	ldr	r1, [r2, #0]
    192e:	6808      	ldr	r0, [r1, #0]
    1930:	e8b0 0ffc 	ldmia.w	r0!, {r2, r3, r4, r5, r6, r7, r8, r9, sl, fp}
    1934:	f013 0f10 	tst.w	r3, #16
    1938:	bf08      	it	eq
    193a:	ecb0 8a10 	vldmiaeq	r0!, {s16-s31}
    193e:	f382 880b 	msr	PSPLIM, r2
    1942:	f380 8809 	msr	PSP, r0
    1946:	4718      	bx	r3
    1948:	bf00      	nop
    194a:	bf00      	nop
    194c:	bf00      	nop
    194e:	bf00      	nop

00001950 <pxCurrentTCBConst>:
    1950:	20000a18 	.word	0x20000a18
	...

00001960 <SVC_Handler>:
    1960:	f01e 0f04 	tst.w	lr, #4
    1964:	bf0c      	ite	eq
    1966:	f3ef 8008 	mrseq	r0, MSP
    196a:	f3ef 8009 	mrsne	r0, PSP
    196e:	4904      	ldr	r1, [pc, #16]	; (1980 <svchandler_address_const>)
    1970:	4708      	bx	r1
    1972:	bf00      	nop
    1974:	bf00      	nop
    1976:	bf00      	nop
    1978:	bf00      	nop
    197a:	bf00      	nop
    197c:	bf00      	nop
    197e:	bf00      	nop

00001980 <svchandler_address_const>:
    1980:	00001717 	.word	0x00001717

00001984 <vListInitialise>:
    1984:	4601      	mov	r1, r0
    1986:	f101 0008 	add.w	r0, r1, #8
    198a:	6048      	str	r0, [r1, #4]
    198c:	f04f 32ff 	mov.w	r2, #4294967295	; 0xffffffff
    1990:	608a      	str	r2, [r1, #8]
    1992:	60c8      	str	r0, [r1, #12]
    1994:	6108      	str	r0, [r1, #16]
    1996:	2000      	movs	r0, #0
    1998:	6008      	str	r0, [r1, #0]
    199a:	4770      	bx	lr

0000199c <vListInitialiseItem>:
    199c:	4601      	mov	r1, r0
    199e:	2000      	movs	r0, #0
    19a0:	6108      	str	r0, [r1, #16]
    19a2:	4770      	bx	lr

000019a4 <vListInsert>:
    19a4:	b086      	sub	sp, #24
    19a6:	9103      	str	r1, [sp, #12]
    19a8:	9004      	str	r0, [sp, #16]
    19aa:	6808      	ldr	r0, [r1, #0]
    19ac:	9005      	str	r0, [sp, #20]
    19ae:	3001      	adds	r0, #1
    19b0:	b920      	cbnz	r0, 19bc <vListInsert+0x18>
    19b2:	e7ff      	b.n	19b4 <vListInsert+0x10>
    19b4:	9804      	ldr	r0, [sp, #16]
    19b6:	6900      	ldr	r0, [r0, #16]
    19b8:	9002      	str	r0, [sp, #8]
    19ba:	e013      	b.n	19e4 <vListInsert+0x40>
    19bc:	9804      	ldr	r0, [sp, #16]
    19be:	3008      	adds	r0, #8
    19c0:	9001      	str	r0, [sp, #4]
    19c2:	e7ff      	b.n	19c4 <vListInsert+0x20>
    19c4:	9905      	ldr	r1, [sp, #20]
    19c6:	9801      	ldr	r0, [sp, #4]
    19c8:	9000      	str	r0, [sp, #0]
    19ca:	6840      	ldr	r0, [r0, #4]
    19cc:	6800      	ldr	r0, [r0, #0]
    19ce:	4288      	cmp	r0, r1
    19d0:	d805      	bhi.n	19de <vListInsert+0x3a>
    19d2:	e7ff      	b.n	19d4 <vListInsert+0x30>
    19d4:	e7ff      	b.n	19d6 <vListInsert+0x32>
    19d6:	9800      	ldr	r0, [sp, #0]
    19d8:	6840      	ldr	r0, [r0, #4]
    19da:	9001      	str	r0, [sp, #4]
    19dc:	e7f2      	b.n	19c4 <vListInsert+0x20>
    19de:	9800      	ldr	r0, [sp, #0]
    19e0:	9002      	str	r0, [sp, #8]
    19e2:	e7ff      	b.n	19e4 <vListInsert+0x40>
    19e4:	9904      	ldr	r1, [sp, #16]
    19e6:	9803      	ldr	r0, [sp, #12]
    19e8:	9a02      	ldr	r2, [sp, #8]
    19ea:	6853      	ldr	r3, [r2, #4]
    19ec:	6043      	str	r3, [r0, #4]
    19ee:	6843      	ldr	r3, [r0, #4]
    19f0:	6098      	str	r0, [r3, #8]
    19f2:	6082      	str	r2, [r0, #8]
    19f4:	6050      	str	r0, [r2, #4]
    19f6:	6101      	str	r1, [r0, #16]
    19f8:	6808      	ldr	r0, [r1, #0]
    19fa:	3001      	adds	r0, #1
    19fc:	6008      	str	r0, [r1, #0]
    19fe:	b006      	add	sp, #24
    1a00:	4770      	bx	lr

00001a02 <uxListRemove>:
    1a02:	b082      	sub	sp, #8
    1a04:	4601      	mov	r1, r0
    1a06:	9100      	str	r1, [sp, #0]
    1a08:	684b      	ldr	r3, [r1, #4]
    1a0a:	688a      	ldr	r2, [r1, #8]
    1a0c:	6908      	ldr	r0, [r1, #16]
    1a0e:	9001      	str	r0, [sp, #4]
    1a10:	609a      	str	r2, [r3, #8]
    1a12:	684a      	ldr	r2, [r1, #4]
    1a14:	688b      	ldr	r3, [r1, #8]
    1a16:	605a      	str	r2, [r3, #4]
    1a18:	6840      	ldr	r0, [r0, #4]
    1a1a:	4288      	cmp	r0, r1
    1a1c:	d105      	bne.n	1a2a <uxListRemove+0x28>
    1a1e:	e7ff      	b.n	1a20 <uxListRemove+0x1e>
    1a20:	9901      	ldr	r1, [sp, #4]
    1a22:	9800      	ldr	r0, [sp, #0]
    1a24:	6880      	ldr	r0, [r0, #8]
    1a26:	6048      	str	r0, [r1, #4]
    1a28:	e000      	b.n	1a2c <uxListRemove+0x2a>
    1a2a:	e7ff      	b.n	1a2c <uxListRemove+0x2a>
    1a2c:	9801      	ldr	r0, [sp, #4]
    1a2e:	9a00      	ldr	r2, [sp, #0]
    1a30:	2100      	movs	r1, #0
    1a32:	6111      	str	r1, [r2, #16]
    1a34:	6801      	ldr	r1, [r0, #0]
    1a36:	3901      	subs	r1, #1
    1a38:	6001      	str	r1, [r0, #0]
    1a3a:	6800      	ldr	r0, [r0, #0]
    1a3c:	b002      	add	sp, #8
    1a3e:	4770      	bx	lr

00001a40 <xQueueGenericReset>:
    1a40:	b580      	push	{r7, lr}
    1a42:	466f      	mov	r7, sp
    1a44:	b084      	sub	sp, #16
    1a46:	9102      	str	r1, [sp, #8]
    1a48:	9003      	str	r0, [sp, #12]
    1a4a:	b920      	cbnz	r0, 1a56 <xQueueGenericReset+0x16>
    1a4c:	e7ff      	b.n	1a4e <xQueueGenericReset+0xe>
    1a4e:	f7ff ff39 	bl	18c4 <ulSetInterruptMask>
    1a52:	e7ff      	b.n	1a54 <xQueueGenericReset+0x14>
    1a54:	e7fe      	b.n	1a54 <xQueueGenericReset+0x14>
    1a56:	9803      	ldr	r0, [sp, #12]
    1a58:	2800      	cmp	r0, #0
    1a5a:	d04c      	beq.n	1af6 <xQueueGenericReset+0xb6>
    1a5c:	e7ff      	b.n	1a5e <xQueueGenericReset+0x1e>
    1a5e:	9803      	ldr	r0, [sp, #12]
    1a60:	6bc0      	ldr	r0, [r0, #60]	; 0x3c
    1a62:	2800      	cmp	r0, #0
    1a64:	d047      	beq.n	1af6 <xQueueGenericReset+0xb6>
    1a66:	e7ff      	b.n	1a68 <xQueueGenericReset+0x28>
    1a68:	9803      	ldr	r0, [sp, #12]
    1a6a:	6bc2      	ldr	r2, [r0, #60]	; 0x3c
    1a6c:	6c01      	ldr	r1, [r0, #64]	; 0x40
    1a6e:	f04f 30ff 	mov.w	r0, #4294967295	; 0xffffffff
    1a72:	fbb0 f0f2 	udiv	r0, r0, r2
    1a76:	4288      	cmp	r0, r1
    1a78:	d33d      	bcc.n	1af6 <xQueueGenericReset+0xb6>
    1a7a:	e7ff      	b.n	1a7c <xQueueGenericReset+0x3c>
    1a7c:	f7ff fe08 	bl	1690 <vPortEnterCritical>
    1a80:	9a03      	ldr	r2, [sp, #12]
    1a82:	9802      	ldr	r0, [sp, #8]
    1a84:	f8d2 c000 	ldr.w	ip, [r2]
    1a88:	6bd1      	ldr	r1, [r2, #60]	; 0x3c
    1a8a:	6c13      	ldr	r3, [r2, #64]	; 0x40
    1a8c:	fb01 c103 	mla	r1, r1, r3, ip
    1a90:	6091      	str	r1, [r2, #8]
    1a92:	2100      	movs	r1, #0
    1a94:	6391      	str	r1, [r2, #56]	; 0x38
    1a96:	6811      	ldr	r1, [r2, #0]
    1a98:	6051      	str	r1, [r2, #4]
    1a9a:	f8d2 c000 	ldr.w	ip, [r2]
    1a9e:	6bd1      	ldr	r1, [r2, #60]	; 0x3c
    1aa0:	6c13      	ldr	r3, [r2, #64]	; 0x40
    1aa2:	3901      	subs	r1, #1
    1aa4:	fb01 c103 	mla	r1, r1, r3, ip
    1aa8:	60d1      	str	r1, [r2, #12]
    1aaa:	21ff      	movs	r1, #255	; 0xff
    1aac:	f882 1044 	strb.w	r1, [r2, #68]	; 0x44
    1ab0:	f882 1045 	strb.w	r1, [r2, #69]	; 0x45
    1ab4:	b988      	cbnz	r0, 1ada <xQueueGenericReset+0x9a>
    1ab6:	e7ff      	b.n	1ab8 <xQueueGenericReset+0x78>
    1ab8:	9803      	ldr	r0, [sp, #12]
    1aba:	6900      	ldr	r0, [r0, #16]
    1abc:	b158      	cbz	r0, 1ad6 <xQueueGenericReset+0x96>
    1abe:	e7ff      	b.n	1ac0 <xQueueGenericReset+0x80>
    1ac0:	9803      	ldr	r0, [sp, #12]
    1ac2:	3010      	adds	r0, #16
    1ac4:	f001 f801 	bl	2aca <xTaskRemoveFromEventList>
    1ac8:	b118      	cbz	r0, 1ad2 <xQueueGenericReset+0x92>
    1aca:	e7ff      	b.n	1acc <xQueueGenericReset+0x8c>
    1acc:	f7ff fdd4 	bl	1678 <vPortYield>
    1ad0:	e000      	b.n	1ad4 <xQueueGenericReset+0x94>
    1ad2:	e7ff      	b.n	1ad4 <xQueueGenericReset+0x94>
    1ad4:	e000      	b.n	1ad8 <xQueueGenericReset+0x98>
    1ad6:	e7ff      	b.n	1ad8 <xQueueGenericReset+0x98>
    1ad8:	e008      	b.n	1aec <xQueueGenericReset+0xac>
    1ada:	9803      	ldr	r0, [sp, #12]
    1adc:	3010      	adds	r0, #16
    1ade:	f7ff ff51 	bl	1984 <vListInitialise>
    1ae2:	9803      	ldr	r0, [sp, #12]
    1ae4:	3024      	adds	r0, #36	; 0x24
    1ae6:	f7ff ff4d 	bl	1984 <vListInitialise>
    1aea:	e7ff      	b.n	1aec <xQueueGenericReset+0xac>
    1aec:	f7ff fde0 	bl	16b0 <vPortExitCritical>
    1af0:	2001      	movs	r0, #1
    1af2:	9001      	str	r0, [sp, #4]
    1af4:	e002      	b.n	1afc <xQueueGenericReset+0xbc>
    1af6:	2000      	movs	r0, #0
    1af8:	9001      	str	r0, [sp, #4]
    1afa:	e7ff      	b.n	1afc <xQueueGenericReset+0xbc>
    1afc:	9801      	ldr	r0, [sp, #4]
    1afe:	9000      	str	r0, [sp, #0]
    1b00:	b920      	cbnz	r0, 1b0c <xQueueGenericReset+0xcc>
    1b02:	e7ff      	b.n	1b04 <xQueueGenericReset+0xc4>
    1b04:	f7ff fede 	bl	18c4 <ulSetInterruptMask>
    1b08:	e7ff      	b.n	1b0a <xQueueGenericReset+0xca>
    1b0a:	e7fe      	b.n	1b0a <xQueueGenericReset+0xca>
    1b0c:	9800      	ldr	r0, [sp, #0]
    1b0e:	b004      	add	sp, #16
    1b10:	bd80      	pop	{r7, pc}

00001b12 <xQueueGenericCreate>:
    1b12:	b580      	push	{r7, lr}
    1b14:	466f      	mov	r7, sp
    1b16:	b086      	sub	sp, #24
    1b18:	9103      	str	r1, [sp, #12]
    1b1a:	9004      	str	r0, [sp, #16]
    1b1c:	9205      	str	r2, [sp, #20]
    1b1e:	b360      	cbz	r0, 1b7a <xQueueGenericCreate+0x68>
    1b20:	e7ff      	b.n	1b22 <xQueueGenericCreate+0x10>
    1b22:	9903      	ldr	r1, [sp, #12]
    1b24:	9a04      	ldr	r2, [sp, #16]
    1b26:	f04f 30ff 	mov.w	r0, #4294967295	; 0xffffffff
    1b2a:	fbb0 f0f2 	udiv	r0, r0, r2
    1b2e:	4288      	cmp	r0, r1
    1b30:	d323      	bcc.n	1b7a <xQueueGenericCreate+0x68>
    1b32:	e7ff      	b.n	1b34 <xQueueGenericCreate+0x22>
    1b34:	9804      	ldr	r0, [sp, #16]
    1b36:	9903      	ldr	r1, [sp, #12]
    1b38:	4348      	muls	r0, r1
    1b3a:	f110 0f51 	cmn.w	r0, #81	; 0x51
    1b3e:	d81c      	bhi.n	1b7a <xQueueGenericCreate+0x68>
    1b40:	e7ff      	b.n	1b42 <xQueueGenericCreate+0x30>
    1b42:	9804      	ldr	r0, [sp, #16]
    1b44:	9903      	ldr	r1, [sp, #12]
    1b46:	4348      	muls	r0, r1
    1b48:	3050      	adds	r0, #80	; 0x50
    1b4a:	f001 fbe1 	bl	3310 <pvPortMalloc>
    1b4e:	4601      	mov	r1, r0
    1b50:	9102      	str	r1, [sp, #8]
    1b52:	b170      	cbz	r0, 1b72 <xQueueGenericCreate+0x60>
    1b54:	e7ff      	b.n	1b56 <xQueueGenericCreate+0x44>
    1b56:	9903      	ldr	r1, [sp, #12]
    1b58:	9804      	ldr	r0, [sp, #16]
    1b5a:	9b05      	ldr	r3, [sp, #20]
    1b5c:	f8dd c008 	ldr.w	ip, [sp, #8]
    1b60:	f10c 0250 	add.w	r2, ip, #80	; 0x50
    1b64:	46ee      	mov	lr, sp
    1b66:	f8ce c000 	str.w	ip, [lr]
    1b6a:	b2db      	uxtb	r3, r3
    1b6c:	f000 f812 	bl	1b94 <prvInitialiseNewQueue>
    1b70:	e000      	b.n	1b74 <xQueueGenericCreate+0x62>
    1b72:	e7ff      	b.n	1b74 <xQueueGenericCreate+0x62>
    1b74:	9802      	ldr	r0, [sp, #8]
    1b76:	9001      	str	r0, [sp, #4]
    1b78:	e009      	b.n	1b8e <xQueueGenericCreate+0x7c>
    1b7a:	2000      	movs	r0, #0
    1b7c:	b920      	cbnz	r0, 1b88 <xQueueGenericCreate+0x76>
    1b7e:	e7ff      	b.n	1b80 <xQueueGenericCreate+0x6e>
    1b80:	f7ff fea0 	bl	18c4 <ulSetInterruptMask>
    1b84:	e7ff      	b.n	1b86 <xQueueGenericCreate+0x74>
    1b86:	e7fe      	b.n	1b86 <xQueueGenericCreate+0x74>
    1b88:	2000      	movs	r0, #0
    1b8a:	9001      	str	r0, [sp, #4]
    1b8c:	e7ff      	b.n	1b8e <xQueueGenericCreate+0x7c>
    1b8e:	9801      	ldr	r0, [sp, #4]
    1b90:	b006      	add	sp, #24
    1b92:	bd80      	pop	{r7, pc}

00001b94 <prvInitialiseNewQueue>:
    1b94:	b580      	push	{r7, lr}
    1b96:	466f      	mov	r7, sp
    1b98:	b086      	sub	sp, #24
    1b9a:	9201      	str	r2, [sp, #4]
    1b9c:	9102      	str	r1, [sp, #8]
    1b9e:	9003      	str	r0, [sp, #12]
    1ba0:	68b8      	ldr	r0, [r7, #8]
    1ba2:	9004      	str	r0, [sp, #16]
    1ba4:	9305      	str	r3, [sp, #20]
    1ba6:	b919      	cbnz	r1, 1bb0 <prvInitialiseNewQueue+0x1c>
    1ba8:	e7ff      	b.n	1baa <prvInitialiseNewQueue+0x16>
    1baa:	9804      	ldr	r0, [sp, #16]
    1bac:	6000      	str	r0, [r0, #0]
    1bae:	e003      	b.n	1bb8 <prvInitialiseNewQueue+0x24>
    1bb0:	9801      	ldr	r0, [sp, #4]
    1bb2:	9904      	ldr	r1, [sp, #16]
    1bb4:	6008      	str	r0, [r1, #0]
    1bb6:	e7ff      	b.n	1bb8 <prvInitialiseNewQueue+0x24>
    1bb8:	9804      	ldr	r0, [sp, #16]
    1bba:	9902      	ldr	r1, [sp, #8]
    1bbc:	9a03      	ldr	r2, [sp, #12]
    1bbe:	63c2      	str	r2, [r0, #60]	; 0x3c
    1bc0:	6401      	str	r1, [r0, #64]	; 0x40
    1bc2:	2101      	movs	r1, #1
    1bc4:	f7ff ff3c 	bl	1a40 <xQueueGenericReset>
    1bc8:	9904      	ldr	r1, [sp, #16]
    1bca:	9805      	ldr	r0, [sp, #20]
    1bcc:	f881 004c 	strb.w	r0, [r1, #76]	; 0x4c
    1bd0:	b006      	add	sp, #24
    1bd2:	bd80      	pop	{r7, pc}

00001bd4 <prvUnlockQueue>:
    1bd4:	b580      	push	{r7, lr}
    1bd6:	466f      	mov	r7, sp
    1bd8:	b086      	sub	sp, #24
    1bda:	9004      	str	r0, [sp, #16]
    1bdc:	f7ff fd58 	bl	1690 <vPortEnterCritical>
    1be0:	9804      	ldr	r0, [sp, #16]
    1be2:	f890 0045 	ldrb.w	r0, [r0, #69]	; 0x45
    1be6:	9005      	str	r0, [sp, #20]
    1be8:	e7ff      	b.n	1bea <prvUnlockQueue+0x16>
    1bea:	9805      	ldr	r0, [sp, #20]
    1bec:	9003      	str	r0, [sp, #12]
    1bee:	b240      	sxtb	r0, r0
    1bf0:	2801      	cmp	r0, #1
    1bf2:	db14      	blt.n	1c1e <prvUnlockQueue+0x4a>
    1bf4:	e7ff      	b.n	1bf6 <prvUnlockQueue+0x22>
    1bf6:	9804      	ldr	r0, [sp, #16]
    1bf8:	6a40      	ldr	r0, [r0, #36]	; 0x24
    1bfa:	b158      	cbz	r0, 1c14 <prvUnlockQueue+0x40>
    1bfc:	e7ff      	b.n	1bfe <prvUnlockQueue+0x2a>
    1bfe:	9804      	ldr	r0, [sp, #16]
    1c00:	3024      	adds	r0, #36	; 0x24
    1c02:	f000 ff62 	bl	2aca <xTaskRemoveFromEventList>
    1c06:	b118      	cbz	r0, 1c10 <prvUnlockQueue+0x3c>
    1c08:	e7ff      	b.n	1c0a <prvUnlockQueue+0x36>
    1c0a:	f001 f87f 	bl	2d0c <vTaskMissedYield>
    1c0e:	e000      	b.n	1c12 <prvUnlockQueue+0x3e>
    1c10:	e7ff      	b.n	1c12 <prvUnlockQueue+0x3e>
    1c12:	e000      	b.n	1c16 <prvUnlockQueue+0x42>
    1c14:	e003      	b.n	1c1e <prvUnlockQueue+0x4a>
    1c16:	9803      	ldr	r0, [sp, #12]
    1c18:	3801      	subs	r0, #1
    1c1a:	9005      	str	r0, [sp, #20]
    1c1c:	e7e5      	b.n	1bea <prvUnlockQueue+0x16>
    1c1e:	9904      	ldr	r1, [sp, #16]
    1c20:	20ff      	movs	r0, #255	; 0xff
    1c22:	f881 0045 	strb.w	r0, [r1, #69]	; 0x45
    1c26:	f7ff fd43 	bl	16b0 <vPortExitCritical>
    1c2a:	f7ff fd31 	bl	1690 <vPortEnterCritical>
    1c2e:	9804      	ldr	r0, [sp, #16]
    1c30:	f890 0044 	ldrb.w	r0, [r0, #68]	; 0x44
    1c34:	9002      	str	r0, [sp, #8]
    1c36:	e7ff      	b.n	1c38 <prvUnlockQueue+0x64>
    1c38:	9802      	ldr	r0, [sp, #8]
    1c3a:	9001      	str	r0, [sp, #4]
    1c3c:	b240      	sxtb	r0, r0
    1c3e:	2801      	cmp	r0, #1
    1c40:	db16      	blt.n	1c70 <prvUnlockQueue+0x9c>
    1c42:	e7ff      	b.n	1c44 <prvUnlockQueue+0x70>
    1c44:	9804      	ldr	r0, [sp, #16]
    1c46:	6900      	ldr	r0, [r0, #16]
    1c48:	b170      	cbz	r0, 1c68 <prvUnlockQueue+0x94>
    1c4a:	e7ff      	b.n	1c4c <prvUnlockQueue+0x78>
    1c4c:	9804      	ldr	r0, [sp, #16]
    1c4e:	3010      	adds	r0, #16
    1c50:	f000 ff3b 	bl	2aca <xTaskRemoveFromEventList>
    1c54:	b118      	cbz	r0, 1c5e <prvUnlockQueue+0x8a>
    1c56:	e7ff      	b.n	1c58 <prvUnlockQueue+0x84>
    1c58:	f001 f858 	bl	2d0c <vTaskMissedYield>
    1c5c:	e000      	b.n	1c60 <prvUnlockQueue+0x8c>
    1c5e:	e7ff      	b.n	1c60 <prvUnlockQueue+0x8c>
    1c60:	9801      	ldr	r0, [sp, #4]
    1c62:	3801      	subs	r0, #1
    1c64:	9000      	str	r0, [sp, #0]
    1c66:	e000      	b.n	1c6a <prvUnlockQueue+0x96>
    1c68:	e002      	b.n	1c70 <prvUnlockQueue+0x9c>
    1c6a:	9800      	ldr	r0, [sp, #0]
    1c6c:	9002      	str	r0, [sp, #8]
    1c6e:	e7e3      	b.n	1c38 <prvUnlockQueue+0x64>
    1c70:	9904      	ldr	r1, [sp, #16]
    1c72:	20ff      	movs	r0, #255	; 0xff
    1c74:	f881 0044 	strb.w	r0, [r1, #68]	; 0x44
    1c78:	f7ff fd1a 	bl	16b0 <vPortExitCritical>
    1c7c:	b006      	add	sp, #24
    1c7e:	bd80      	pop	{r7, pc}

00001c80 <xQueueReceive>:
    1c80:	b580      	push	{r7, lr}
    1c82:	466f      	mov	r7, sp
    1c84:	b08e      	sub	sp, #56	; 0x38
    1c86:	9109      	str	r1, [sp, #36]	; 0x24
    1c88:	900a      	str	r0, [sp, #40]	; 0x28
    1c8a:	920d      	str	r2, [sp, #52]	; 0x34
    1c8c:	b920      	cbnz	r0, 1c98 <xQueueReceive+0x18>
    1c8e:	e7ff      	b.n	1c90 <xQueueReceive+0x10>
    1c90:	f7ff fe18 	bl	18c4 <ulSetInterruptMask>
    1c94:	e7ff      	b.n	1c96 <xQueueReceive+0x16>
    1c96:	e7fe      	b.n	1c96 <xQueueReceive+0x16>
    1c98:	9909      	ldr	r1, [sp, #36]	; 0x24
    1c9a:	2000      	movs	r0, #0
    1c9c:	9008      	str	r0, [sp, #32]
    1c9e:	b939      	cbnz	r1, 1cb0 <xQueueReceive+0x30>
    1ca0:	e7ff      	b.n	1ca2 <xQueueReceive+0x22>
    1ca2:	980a      	ldr	r0, [sp, #40]	; 0x28
    1ca4:	6c00      	ldr	r0, [r0, #64]	; 0x40
    1ca6:	2800      	cmp	r0, #0
    1ca8:	bf18      	it	ne
    1caa:	2001      	movne	r0, #1
    1cac:	9008      	str	r0, [sp, #32]
    1cae:	e7ff      	b.n	1cb0 <xQueueReceive+0x30>
    1cb0:	9808      	ldr	r0, [sp, #32]
    1cb2:	07c0      	lsls	r0, r0, #31
    1cb4:	b120      	cbz	r0, 1cc0 <xQueueReceive+0x40>
    1cb6:	e7ff      	b.n	1cb8 <xQueueReceive+0x38>
    1cb8:	f7ff fe04 	bl	18c4 <ulSetInterruptMask>
    1cbc:	e7ff      	b.n	1cbe <xQueueReceive+0x3e>
    1cbe:	e7fe      	b.n	1cbe <xQueueReceive+0x3e>
    1cc0:	f001 f82b 	bl	2d1a <xTaskGetSchedulerState>
    1cc4:	4601      	mov	r1, r0
    1cc6:	2000      	movs	r0, #0
    1cc8:	9007      	str	r0, [sp, #28]
    1cca:	b931      	cbnz	r1, 1cda <xQueueReceive+0x5a>
    1ccc:	e7ff      	b.n	1cce <xQueueReceive+0x4e>
    1cce:	980d      	ldr	r0, [sp, #52]	; 0x34
    1cd0:	2800      	cmp	r0, #0
    1cd2:	bf18      	it	ne
    1cd4:	2001      	movne	r0, #1
    1cd6:	9007      	str	r0, [sp, #28]
    1cd8:	e7ff      	b.n	1cda <xQueueReceive+0x5a>
    1cda:	9807      	ldr	r0, [sp, #28]
    1cdc:	07c0      	lsls	r0, r0, #31
    1cde:	b120      	cbz	r0, 1cea <xQueueReceive+0x6a>
    1ce0:	e7ff      	b.n	1ce2 <xQueueReceive+0x62>
    1ce2:	f7ff fdef 	bl	18c4 <ulSetInterruptMask>
    1ce6:	e7ff      	b.n	1ce8 <xQueueReceive+0x68>
    1ce8:	e7fe      	b.n	1ce8 <xQueueReceive+0x68>
    1cea:	2000      	movs	r0, #0
    1cec:	9006      	str	r0, [sp, #24]
    1cee:	e7ff      	b.n	1cf0 <xQueueReceive+0x70>
    1cf0:	9806      	ldr	r0, [sp, #24]
    1cf2:	9004      	str	r0, [sp, #16]
    1cf4:	f7ff fccc 	bl	1690 <vPortEnterCritical>
    1cf8:	980a      	ldr	r0, [sp, #40]	; 0x28
    1cfa:	6b80      	ldr	r0, [r0, #56]	; 0x38
    1cfc:	9005      	str	r0, [sp, #20]
    1cfe:	b1e0      	cbz	r0, 1d3a <xQueueReceive+0xba>
    1d00:	e7ff      	b.n	1d02 <xQueueReceive+0x82>
    1d02:	980a      	ldr	r0, [sp, #40]	; 0x28
    1d04:	9909      	ldr	r1, [sp, #36]	; 0x24
    1d06:	f000 f886 	bl	1e16 <prvCopyDataFromQueue>
    1d0a:	9905      	ldr	r1, [sp, #20]
    1d0c:	980a      	ldr	r0, [sp, #40]	; 0x28
    1d0e:	3901      	subs	r1, #1
    1d10:	6381      	str	r1, [r0, #56]	; 0x38
    1d12:	6900      	ldr	r0, [r0, #16]
    1d14:	b158      	cbz	r0, 1d2e <xQueueReceive+0xae>
    1d16:	e7ff      	b.n	1d18 <xQueueReceive+0x98>
    1d18:	980a      	ldr	r0, [sp, #40]	; 0x28
    1d1a:	3010      	adds	r0, #16
    1d1c:	f000 fed5 	bl	2aca <xTaskRemoveFromEventList>
    1d20:	b118      	cbz	r0, 1d2a <xQueueReceive+0xaa>
    1d22:	e7ff      	b.n	1d24 <xQueueReceive+0xa4>
    1d24:	f7ff fca8 	bl	1678 <vPortYield>
    1d28:	e000      	b.n	1d2c <xQueueReceive+0xac>
    1d2a:	e7ff      	b.n	1d2c <xQueueReceive+0xac>
    1d2c:	e000      	b.n	1d30 <xQueueReceive+0xb0>
    1d2e:	e7ff      	b.n	1d30 <xQueueReceive+0xb0>
    1d30:	f7ff fcbe 	bl	16b0 <vPortExitCritical>
    1d34:	2001      	movs	r0, #1
    1d36:	9003      	str	r0, [sp, #12]
    1d38:	e06a      	b.n	1e10 <xQueueReceive+0x190>
    1d3a:	980d      	ldr	r0, [sp, #52]	; 0x34
    1d3c:	b928      	cbnz	r0, 1d4a <xQueueReceive+0xca>
    1d3e:	e7ff      	b.n	1d40 <xQueueReceive+0xc0>
    1d40:	f7ff fcb6 	bl	16b0 <vPortExitCritical>
    1d44:	2000      	movs	r0, #0
    1d46:	9003      	str	r0, [sp, #12]
    1d48:	e062      	b.n	1e10 <xQueueReceive+0x190>
    1d4a:	9804      	ldr	r0, [sp, #16]
    1d4c:	b930      	cbnz	r0, 1d5c <xQueueReceive+0xdc>
    1d4e:	e7ff      	b.n	1d50 <xQueueReceive+0xd0>
    1d50:	a80b      	add	r0, sp, #44	; 0x2c
    1d52:	f000 ff6d 	bl	2c30 <vTaskInternalSetTimeOutState>
    1d56:	2001      	movs	r0, #1
    1d58:	9002      	str	r0, [sp, #8]
    1d5a:	e002      	b.n	1d62 <xQueueReceive+0xe2>
    1d5c:	9804      	ldr	r0, [sp, #16]
    1d5e:	9002      	str	r0, [sp, #8]
    1d60:	e7ff      	b.n	1d62 <xQueueReceive+0xe2>
    1d62:	9802      	ldr	r0, [sp, #8]
    1d64:	9001      	str	r0, [sp, #4]
    1d66:	e7ff      	b.n	1d68 <xQueueReceive+0xe8>
    1d68:	e7ff      	b.n	1d6a <xQueueReceive+0xea>
    1d6a:	f7ff fca1 	bl	16b0 <vPortExitCritical>
    1d6e:	f000 fabc 	bl	22ea <vTaskSuspendAll>
    1d72:	f7ff fc8d 	bl	1690 <vPortEnterCritical>
    1d76:	980a      	ldr	r0, [sp, #40]	; 0x28
    1d78:	f990 0044 	ldrsb.w	r0, [r0, #68]	; 0x44
    1d7c:	3001      	adds	r0, #1
    1d7e:	b928      	cbnz	r0, 1d8c <xQueueReceive+0x10c>
    1d80:	e7ff      	b.n	1d82 <xQueueReceive+0x102>
    1d82:	990a      	ldr	r1, [sp, #40]	; 0x28
    1d84:	2000      	movs	r0, #0
    1d86:	f881 0044 	strb.w	r0, [r1, #68]	; 0x44
    1d8a:	e7ff      	b.n	1d8c <xQueueReceive+0x10c>
    1d8c:	980a      	ldr	r0, [sp, #40]	; 0x28
    1d8e:	f990 0045 	ldrsb.w	r0, [r0, #69]	; 0x45
    1d92:	3001      	adds	r0, #1
    1d94:	b928      	cbnz	r0, 1da2 <xQueueReceive+0x122>
    1d96:	e7ff      	b.n	1d98 <xQueueReceive+0x118>
    1d98:	990a      	ldr	r1, [sp, #40]	; 0x28
    1d9a:	2000      	movs	r0, #0
    1d9c:	f881 0045 	strb.w	r0, [r1, #69]	; 0x45
    1da0:	e7ff      	b.n	1da2 <xQueueReceive+0x122>
    1da2:	f7ff fc85 	bl	16b0 <vPortExitCritical>
    1da6:	a80b      	add	r0, sp, #44	; 0x2c
    1da8:	a90d      	add	r1, sp, #52	; 0x34
    1daa:	f000 ff4f 	bl	2c4c <xTaskCheckForTimeOut>
    1dae:	b9e8      	cbnz	r0, 1dec <xQueueReceive+0x16c>
    1db0:	e7ff      	b.n	1db2 <xQueueReceive+0x132>
    1db2:	980a      	ldr	r0, [sp, #40]	; 0x28
    1db4:	f000 f84f 	bl	1e56 <prvIsQueueEmpty>
    1db8:	b188      	cbz	r0, 1dde <xQueueReceive+0x15e>
    1dba:	e7ff      	b.n	1dbc <xQueueReceive+0x13c>
    1dbc:	980a      	ldr	r0, [sp, #40]	; 0x28
    1dbe:	3024      	adds	r0, #36	; 0x24
    1dc0:	990d      	ldr	r1, [sp, #52]	; 0x34
    1dc2:	f000 fe2a 	bl	2a1a <vTaskPlaceOnEventList>
    1dc6:	980a      	ldr	r0, [sp, #40]	; 0x28
    1dc8:	f7ff ff04 	bl	1bd4 <prvUnlockQueue>
    1dcc:	f000 fb10 	bl	23f0 <xTaskResumeAll>
    1dd0:	b918      	cbnz	r0, 1dda <xQueueReceive+0x15a>
    1dd2:	e7ff      	b.n	1dd4 <xQueueReceive+0x154>
    1dd4:	f7ff fc50 	bl	1678 <vPortYield>
    1dd8:	e000      	b.n	1ddc <xQueueReceive+0x15c>
    1dda:	e7ff      	b.n	1ddc <xQueueReceive+0x15c>
    1ddc:	e005      	b.n	1dea <xQueueReceive+0x16a>
    1dde:	980a      	ldr	r0, [sp, #40]	; 0x28
    1de0:	f7ff fef8 	bl	1bd4 <prvUnlockQueue>
    1de4:	f000 fb04 	bl	23f0 <xTaskResumeAll>
    1de8:	e7ff      	b.n	1dea <xQueueReceive+0x16a>
    1dea:	e00e      	b.n	1e0a <xQueueReceive+0x18a>
    1dec:	980a      	ldr	r0, [sp, #40]	; 0x28
    1dee:	f7ff fef1 	bl	1bd4 <prvUnlockQueue>
    1df2:	f000 fafd 	bl	23f0 <xTaskResumeAll>
    1df6:	980a      	ldr	r0, [sp, #40]	; 0x28
    1df8:	f000 f82d 	bl	1e56 <prvIsQueueEmpty>
    1dfc:	b118      	cbz	r0, 1e06 <xQueueReceive+0x186>
    1dfe:	e7ff      	b.n	1e00 <xQueueReceive+0x180>
    1e00:	2000      	movs	r0, #0
    1e02:	9003      	str	r0, [sp, #12]
    1e04:	e004      	b.n	1e10 <xQueueReceive+0x190>
    1e06:	e7ff      	b.n	1e08 <xQueueReceive+0x188>
    1e08:	e7ff      	b.n	1e0a <xQueueReceive+0x18a>
    1e0a:	9801      	ldr	r0, [sp, #4]
    1e0c:	9006      	str	r0, [sp, #24]
    1e0e:	e76f      	b.n	1cf0 <xQueueReceive+0x70>
    1e10:	9803      	ldr	r0, [sp, #12]
    1e12:	b00e      	add	sp, #56	; 0x38
    1e14:	bd80      	pop	{r7, pc}

00001e16 <prvCopyDataFromQueue>:
    1e16:	b580      	push	{r7, lr}
    1e18:	466f      	mov	r7, sp
    1e1a:	b082      	sub	sp, #8
    1e1c:	9100      	str	r1, [sp, #0]
    1e1e:	9001      	str	r0, [sp, #4]
    1e20:	6c00      	ldr	r0, [r0, #64]	; 0x40
    1e22:	b1b0      	cbz	r0, 1e52 <prvCopyDataFromQueue+0x3c>
    1e24:	e7ff      	b.n	1e26 <prvCopyDataFromQueue+0x10>
    1e26:	9801      	ldr	r0, [sp, #4]
    1e28:	68c1      	ldr	r1, [r0, #12]
    1e2a:	6c02      	ldr	r2, [r0, #64]	; 0x40
    1e2c:	4411      	add	r1, r2
    1e2e:	60c1      	str	r1, [r0, #12]
    1e30:	6881      	ldr	r1, [r0, #8]
    1e32:	68c0      	ldr	r0, [r0, #12]
    1e34:	4288      	cmp	r0, r1
    1e36:	d304      	bcc.n	1e42 <prvCopyDataFromQueue+0x2c>
    1e38:	e7ff      	b.n	1e3a <prvCopyDataFromQueue+0x24>
    1e3a:	9901      	ldr	r1, [sp, #4]
    1e3c:	6808      	ldr	r0, [r1, #0]
    1e3e:	60c8      	str	r0, [r1, #12]
    1e40:	e000      	b.n	1e44 <prvCopyDataFromQueue+0x2e>
    1e42:	e7ff      	b.n	1e44 <prvCopyDataFromQueue+0x2e>
    1e44:	9800      	ldr	r0, [sp, #0]
    1e46:	9a01      	ldr	r2, [sp, #4]
    1e48:	68d1      	ldr	r1, [r2, #12]
    1e4a:	6c12      	ldr	r2, [r2, #64]	; 0x40
    1e4c:	f7fe fd18 	bl	880 <memcpy>
    1e50:	e7ff      	b.n	1e52 <prvCopyDataFromQueue+0x3c>
    1e52:	b002      	add	sp, #8
    1e54:	bd80      	pop	{r7, pc}

00001e56 <prvIsQueueEmpty>:
    1e56:	b580      	push	{r7, lr}
    1e58:	466f      	mov	r7, sp
    1e5a:	b084      	sub	sp, #16
    1e5c:	9003      	str	r0, [sp, #12]
    1e5e:	f7ff fc17 	bl	1690 <vPortEnterCritical>
    1e62:	9803      	ldr	r0, [sp, #12]
    1e64:	6b80      	ldr	r0, [r0, #56]	; 0x38
    1e66:	b918      	cbnz	r0, 1e70 <prvIsQueueEmpty+0x1a>
    1e68:	e7ff      	b.n	1e6a <prvIsQueueEmpty+0x14>
    1e6a:	2001      	movs	r0, #1
    1e6c:	9002      	str	r0, [sp, #8]
    1e6e:	e002      	b.n	1e76 <prvIsQueueEmpty+0x20>
    1e70:	2000      	movs	r0, #0
    1e72:	9002      	str	r0, [sp, #8]
    1e74:	e7ff      	b.n	1e76 <prvIsQueueEmpty+0x20>
    1e76:	9802      	ldr	r0, [sp, #8]
    1e78:	9001      	str	r0, [sp, #4]
    1e7a:	f7ff fc19 	bl	16b0 <vPortExitCritical>
    1e7e:	9801      	ldr	r0, [sp, #4]
    1e80:	b004      	add	sp, #16
    1e82:	bd80      	pop	{r7, pc}

00001e84 <vQueueAddToRegistry>:
    1e84:	b580      	push	{r7, lr}
    1e86:	466f      	mov	r7, sp
    1e88:	b08c      	sub	sp, #48	; 0x30
    1e8a:	910a      	str	r1, [sp, #40]	; 0x28
    1e8c:	900b      	str	r0, [sp, #44]	; 0x2c
    1e8e:	b920      	cbnz	r0, 1e9a <vQueueAddToRegistry+0x16>
    1e90:	e7ff      	b.n	1e92 <vQueueAddToRegistry+0xe>
    1e92:	f7ff fd17 	bl	18c4 <ulSetInterruptMask>
    1e96:	e7ff      	b.n	1e98 <vQueueAddToRegistry+0x14>
    1e98:	e7fe      	b.n	1e98 <vQueueAddToRegistry+0x14>
    1e9a:	990a      	ldr	r1, [sp, #40]	; 0x28
    1e9c:	2000      	movs	r0, #0
    1e9e:	2900      	cmp	r1, #0
    1ea0:	9009      	str	r0, [sp, #36]	; 0x24
    1ea2:	d047      	beq.n	1f34 <vQueueAddToRegistry+0xb0>
    1ea4:	e7ff      	b.n	1ea6 <vQueueAddToRegistry+0x22>
    1ea6:	2100      	movs	r1, #0
    1ea8:	4608      	mov	r0, r1
    1eaa:	9107      	str	r1, [sp, #28]
    1eac:	9008      	str	r0, [sp, #32]
    1eae:	e7ff      	b.n	1eb0 <vQueueAddToRegistry+0x2c>
    1eb0:	9907      	ldr	r1, [sp, #28]
    1eb2:	9808      	ldr	r0, [sp, #32]
    1eb4:	9004      	str	r0, [sp, #16]
    1eb6:	9105      	str	r1, [sp, #20]
    1eb8:	2907      	cmp	r1, #7
    1eba:	9006      	str	r0, [sp, #24]
    1ebc:	d837      	bhi.n	1f2e <vQueueAddToRegistry+0xaa>
    1ebe:	e7ff      	b.n	1ec0 <vQueueAddToRegistry+0x3c>
    1ec0:	980b      	ldr	r0, [sp, #44]	; 0x2c
    1ec2:	9a05      	ldr	r2, [sp, #20]
    1ec4:	f640 11d8 	movw	r1, #2520	; 0x9d8
    1ec8:	f2c2 0100 	movt	r1, #8192	; 0x2000
    1ecc:	eb01 01c2 	add.w	r1, r1, r2, lsl #3
    1ed0:	6849      	ldr	r1, [r1, #4]
    1ed2:	4288      	cmp	r0, r1
    1ed4:	d109      	bne.n	1eea <vQueueAddToRegistry+0x66>
    1ed6:	e7ff      	b.n	1ed8 <vQueueAddToRegistry+0x54>
    1ed8:	9905      	ldr	r1, [sp, #20]
    1eda:	f640 10d8 	movw	r0, #2520	; 0x9d8
    1ede:	f2c2 0000 	movt	r0, #8192	; 0x2000
    1ee2:	eb00 00c1 	add.w	r0, r0, r1, lsl #3
    1ee6:	9006      	str	r0, [sp, #24]
    1ee8:	e021      	b.n	1f2e <vQueueAddToRegistry+0xaa>
    1eea:	9804      	ldr	r0, [sp, #16]
    1eec:	b990      	cbnz	r0, 1f14 <vQueueAddToRegistry+0x90>
    1eee:	e7ff      	b.n	1ef0 <vQueueAddToRegistry+0x6c>
    1ef0:	9905      	ldr	r1, [sp, #20]
    1ef2:	f640 10d8 	movw	r0, #2520	; 0x9d8
    1ef6:	f2c2 0000 	movt	r0, #8192	; 0x2000
    1efa:	f850 0031 	ldr.w	r0, [r0, r1, lsl #3]
    1efe:	b948      	cbnz	r0, 1f14 <vQueueAddToRegistry+0x90>
    1f00:	e7ff      	b.n	1f02 <vQueueAddToRegistry+0x7e>
    1f02:	9905      	ldr	r1, [sp, #20]
    1f04:	f640 10d8 	movw	r0, #2520	; 0x9d8
    1f08:	f2c2 0000 	movt	r0, #8192	; 0x2000
    1f0c:	eb00 00c1 	add.w	r0, r0, r1, lsl #3
    1f10:	9003      	str	r0, [sp, #12]
    1f12:	e002      	b.n	1f1a <vQueueAddToRegistry+0x96>
    1f14:	9804      	ldr	r0, [sp, #16]
    1f16:	9003      	str	r0, [sp, #12]
    1f18:	e7ff      	b.n	1f1a <vQueueAddToRegistry+0x96>
    1f1a:	9803      	ldr	r0, [sp, #12]
    1f1c:	9002      	str	r0, [sp, #8]
    1f1e:	e7ff      	b.n	1f20 <vQueueAddToRegistry+0x9c>
    1f20:	e7ff      	b.n	1f22 <vQueueAddToRegistry+0x9e>
    1f22:	9802      	ldr	r0, [sp, #8]
    1f24:	9905      	ldr	r1, [sp, #20]
    1f26:	3101      	adds	r1, #1
    1f28:	9107      	str	r1, [sp, #28]
    1f2a:	9008      	str	r0, [sp, #32]
    1f2c:	e7c0      	b.n	1eb0 <vQueueAddToRegistry+0x2c>
    1f2e:	9806      	ldr	r0, [sp, #24]
    1f30:	9009      	str	r0, [sp, #36]	; 0x24
    1f32:	e7ff      	b.n	1f34 <vQueueAddToRegistry+0xb0>
    1f34:	9809      	ldr	r0, [sp, #36]	; 0x24
    1f36:	9001      	str	r0, [sp, #4]
    1f38:	b130      	cbz	r0, 1f48 <vQueueAddToRegistry+0xc4>
    1f3a:	e7ff      	b.n	1f3c <vQueueAddToRegistry+0xb8>
    1f3c:	980b      	ldr	r0, [sp, #44]	; 0x2c
    1f3e:	9901      	ldr	r1, [sp, #4]
    1f40:	9a0a      	ldr	r2, [sp, #40]	; 0x28
    1f42:	600a      	str	r2, [r1, #0]
    1f44:	6048      	str	r0, [r1, #4]
    1f46:	e7ff      	b.n	1f48 <vQueueAddToRegistry+0xc4>
    1f48:	b00c      	add	sp, #48	; 0x30
    1f4a:	bd80      	pop	{r7, pc}

00001f4c <vQueueWaitForMessageRestricted>:
    1f4c:	b580      	push	{r7, lr}
    1f4e:	466f      	mov	r7, sp
    1f50:	b084      	sub	sp, #16
    1f52:	9201      	str	r2, [sp, #4]
    1f54:	9102      	str	r1, [sp, #8]
    1f56:	9003      	str	r0, [sp, #12]
    1f58:	f7ff fb9a 	bl	1690 <vPortEnterCritical>
    1f5c:	9803      	ldr	r0, [sp, #12]
    1f5e:	f990 0044 	ldrsb.w	r0, [r0, #68]	; 0x44
    1f62:	3001      	adds	r0, #1
    1f64:	b928      	cbnz	r0, 1f72 <vQueueWaitForMessageRestricted+0x26>
    1f66:	e7ff      	b.n	1f68 <vQueueWaitForMessageRestricted+0x1c>
    1f68:	9903      	ldr	r1, [sp, #12]
    1f6a:	2000      	movs	r0, #0
    1f6c:	f881 0044 	strb.w	r0, [r1, #68]	; 0x44
    1f70:	e7ff      	b.n	1f72 <vQueueWaitForMessageRestricted+0x26>
    1f72:	9803      	ldr	r0, [sp, #12]
    1f74:	f990 0045 	ldrsb.w	r0, [r0, #69]	; 0x45
    1f78:	3001      	adds	r0, #1
    1f7a:	b928      	cbnz	r0, 1f88 <vQueueWaitForMessageRestricted+0x3c>
    1f7c:	e7ff      	b.n	1f7e <vQueueWaitForMessageRestricted+0x32>
    1f7e:	9903      	ldr	r1, [sp, #12]
    1f80:	2000      	movs	r0, #0
    1f82:	f881 0045 	strb.w	r0, [r1, #69]	; 0x45
    1f86:	e7ff      	b.n	1f88 <vQueueWaitForMessageRestricted+0x3c>
    1f88:	f7ff fb92 	bl	16b0 <vPortExitCritical>
    1f8c:	9803      	ldr	r0, [sp, #12]
    1f8e:	6b80      	ldr	r0, [r0, #56]	; 0x38
    1f90:	b938      	cbnz	r0, 1fa2 <vQueueWaitForMessageRestricted+0x56>
    1f92:	e7ff      	b.n	1f94 <vQueueWaitForMessageRestricted+0x48>
    1f94:	9a01      	ldr	r2, [sp, #4]
    1f96:	9902      	ldr	r1, [sp, #8]
    1f98:	9803      	ldr	r0, [sp, #12]
    1f9a:	3024      	adds	r0, #36	; 0x24
    1f9c:	f000 fd57 	bl	2a4e <vTaskPlaceOnEventListRestricted>
    1fa0:	e000      	b.n	1fa4 <vQueueWaitForMessageRestricted+0x58>
    1fa2:	e7ff      	b.n	1fa4 <vQueueWaitForMessageRestricted+0x58>
    1fa4:	9803      	ldr	r0, [sp, #12]
    1fa6:	f7ff fe15 	bl	1bd4 <prvUnlockQueue>
    1faa:	b004      	add	sp, #16
    1fac:	bd80      	pop	{r7, pc}

00001fae <xTaskCreate>:
    1fae:	b5f0      	push	{r4, r5, r6, r7, lr}
    1fb0:	af03      	add	r7, sp, #12
    1fb2:	f84d bd04 	str.w	fp, [sp, #-4]!
    1fb6:	b090      	sub	sp, #64	; 0x40
    1fb8:	9309      	str	r3, [sp, #36]	; 0x24
    1fba:	910a      	str	r1, [sp, #40]	; 0x28
    1fbc:	900b      	str	r0, [sp, #44]	; 0x2c
    1fbe:	68f8      	ldr	r0, [r7, #12]
    1fc0:	900c      	str	r0, [sp, #48]	; 0x30
    1fc2:	68b8      	ldr	r0, [r7, #8]
    1fc4:	900d      	str	r0, [sp, #52]	; 0x34
    1fc6:	4610      	mov	r0, r2
    1fc8:	900e      	str	r0, [sp, #56]	; 0x38
    1fca:	0090      	lsls	r0, r2, #2
    1fcc:	f001 f9a0 	bl	3310 <pvPortMalloc>
    1fd0:	4601      	mov	r1, r0
    1fd2:	910f      	str	r1, [sp, #60]	; 0x3c
    1fd4:	b1b8      	cbz	r0, 2006 <xTaskCreate+0x58>
    1fd6:	e7ff      	b.n	1fd8 <xTaskCreate+0x2a>
    1fd8:	2074      	movs	r0, #116	; 0x74
    1fda:	f001 f999 	bl	3310 <pvPortMalloc>
    1fde:	4601      	mov	r1, r0
    1fe0:	9108      	str	r1, [sp, #32]
    1fe2:	b148      	cbz	r0, 1ff8 <xTaskCreate+0x4a>
    1fe4:	e7ff      	b.n	1fe6 <xTaskCreate+0x38>
    1fe6:	9808      	ldr	r0, [sp, #32]
    1fe8:	2100      	movs	r1, #0
    1fea:	2274      	movs	r2, #116	; 0x74
    1fec:	f001 fff2 	bl	3fd4 <memset>
    1ff0:	9908      	ldr	r1, [sp, #32]
    1ff2:	980f      	ldr	r0, [sp, #60]	; 0x3c
    1ff4:	6308      	str	r0, [r1, #48]	; 0x30
    1ff6:	e003      	b.n	2000 <xTaskCreate+0x52>
    1ff8:	980f      	ldr	r0, [sp, #60]	; 0x3c
    1ffa:	f001 fb0e 	bl	361a <vPortFree>
    1ffe:	e7ff      	b.n	2000 <xTaskCreate+0x52>
    2000:	9808      	ldr	r0, [sp, #32]
    2002:	9007      	str	r0, [sp, #28]
    2004:	e002      	b.n	200c <xTaskCreate+0x5e>
    2006:	2000      	movs	r0, #0
    2008:	9007      	str	r0, [sp, #28]
    200a:	e7ff      	b.n	200c <xTaskCreate+0x5e>
    200c:	9807      	ldr	r0, [sp, #28]
    200e:	9006      	str	r0, [sp, #24]
    2010:	b1d8      	cbz	r0, 204a <xTaskCreate+0x9c>
    2012:	e7ff      	b.n	2014 <xTaskCreate+0x66>
    2014:	9d06      	ldr	r5, [sp, #24]
    2016:	9b09      	ldr	r3, [sp, #36]	; 0x24
    2018:	990a      	ldr	r1, [sp, #40]	; 0x28
    201a:	980b      	ldr	r0, [sp, #44]	; 0x2c
    201c:	f8dd c034 	ldr.w	ip, [sp, #52]	; 0x34
    2020:	9c0c      	ldr	r4, [sp, #48]	; 0x30
    2022:	9a0e      	ldr	r2, [sp, #56]	; 0x38
    2024:	b292      	uxth	r2, r2
    2026:	46ee      	mov	lr, sp
    2028:	2600      	movs	r6, #0
    202a:	f8ce 600c 	str.w	r6, [lr, #12]
    202e:	f8ce 5008 	str.w	r5, [lr, #8]
    2032:	f8ce 4004 	str.w	r4, [lr, #4]
    2036:	f8ce c000 	str.w	ip, [lr]
    203a:	f000 f80f 	bl	205c <prvInitialiseNewTask>
    203e:	9806      	ldr	r0, [sp, #24]
    2040:	f000 f88a 	bl	2158 <prvAddNewTaskToReadyList>
    2044:	2001      	movs	r0, #1
    2046:	9005      	str	r0, [sp, #20]
    2048:	e003      	b.n	2052 <xTaskCreate+0xa4>
    204a:	f04f 30ff 	mov.w	r0, #4294967295	; 0xffffffff
    204e:	9005      	str	r0, [sp, #20]
    2050:	e7ff      	b.n	2052 <xTaskCreate+0xa4>
    2052:	9805      	ldr	r0, [sp, #20]
    2054:	b010      	add	sp, #64	; 0x40
    2056:	f85d bb04 	ldr.w	fp, [sp], #4
    205a:	bdf0      	pop	{r4, r5, r6, r7, pc}

0000205c <prvInitialiseNewTask>:
    205c:	b580      	push	{r7, lr}
    205e:	466f      	mov	r7, sp
    2060:	b08c      	sub	sp, #48	; 0x30
    2062:	9304      	str	r3, [sp, #16]
    2064:	9209      	str	r2, [sp, #36]	; 0x24
    2066:	9105      	str	r1, [sp, #20]
    2068:	9006      	str	r0, [sp, #24]
    206a:	6938      	ldr	r0, [r7, #16]
    206c:	900a      	str	r0, [sp, #40]	; 0x28
    206e:	68f9      	ldr	r1, [r7, #12]
    2070:	9107      	str	r1, [sp, #28]
    2072:	68b9      	ldr	r1, [r7, #8]
    2074:	9108      	str	r1, [sp, #32]
    2076:	6b00      	ldr	r0, [r0, #48]	; 0x30
    2078:	0092      	lsls	r2, r2, #2
    207a:	21a5      	movs	r1, #165	; 0xa5
    207c:	f001 ffaa 	bl	3fd4 <memset>
    2080:	9a09      	ldr	r2, [sp, #36]	; 0x24
    2082:	980a      	ldr	r0, [sp, #40]	; 0x28
    2084:	6b00      	ldr	r0, [r0, #48]	; 0x30
    2086:	eb00 0082 	add.w	r0, r0, r2, lsl #2
    208a:	3804      	subs	r0, #4
    208c:	f020 0007 	bic.w	r0, r0, #7
    2090:	900b      	str	r0, [sp, #44]	; 0x2c
    2092:	2001      	movs	r0, #1
    2094:	b920      	cbnz	r0, 20a0 <prvInitialiseNewTask+0x44>
    2096:	e7ff      	b.n	2098 <prvInitialiseNewTask+0x3c>
    2098:	f7ff fc14 	bl	18c4 <ulSetInterruptMask>
    209c:	e7ff      	b.n	209e <prvInitialiseNewTask+0x42>
    209e:	e7fe      	b.n	209e <prvInitialiseNewTask+0x42>
    20a0:	9805      	ldr	r0, [sp, #20]
    20a2:	b1f0      	cbz	r0, 20e2 <prvInitialiseNewTask+0x86>
    20a4:	e7ff      	b.n	20a6 <prvInitialiseNewTask+0x4a>
    20a6:	2000      	movs	r0, #0
    20a8:	9003      	str	r0, [sp, #12]
    20aa:	e7ff      	b.n	20ac <prvInitialiseNewTask+0x50>
    20ac:	9803      	ldr	r0, [sp, #12]
    20ae:	9002      	str	r0, [sp, #8]
    20b0:	2813      	cmp	r0, #19
    20b2:	d811      	bhi.n	20d8 <prvInitialiseNewTask+0x7c>
    20b4:	e7ff      	b.n	20b6 <prvInitialiseNewTask+0x5a>
    20b6:	9805      	ldr	r0, [sp, #20]
    20b8:	9902      	ldr	r1, [sp, #8]
    20ba:	9b0a      	ldr	r3, [sp, #40]	; 0x28
    20bc:	5c42      	ldrb	r2, [r0, r1]
    20be:	440b      	add	r3, r1
    20c0:	f883 2034 	strb.w	r2, [r3, #52]	; 0x34
    20c4:	5c40      	ldrb	r0, [r0, r1]
    20c6:	b908      	cbnz	r0, 20cc <prvInitialiseNewTask+0x70>
    20c8:	e7ff      	b.n	20ca <prvInitialiseNewTask+0x6e>
    20ca:	e005      	b.n	20d8 <prvInitialiseNewTask+0x7c>
    20cc:	e7ff      	b.n	20ce <prvInitialiseNewTask+0x72>
    20ce:	e7ff      	b.n	20d0 <prvInitialiseNewTask+0x74>
    20d0:	9802      	ldr	r0, [sp, #8]
    20d2:	3001      	adds	r0, #1
    20d4:	9003      	str	r0, [sp, #12]
    20d6:	e7e9      	b.n	20ac <prvInitialiseNewTask+0x50>
    20d8:	990a      	ldr	r1, [sp, #40]	; 0x28
    20da:	2000      	movs	r0, #0
    20dc:	f881 0047 	strb.w	r0, [r1, #71]	; 0x47
    20e0:	e000      	b.n	20e4 <prvInitialiseNewTask+0x88>
    20e2:	e7ff      	b.n	20e4 <prvInitialiseNewTask+0x88>
    20e4:	9808      	ldr	r0, [sp, #32]
    20e6:	2805      	cmp	r0, #5
    20e8:	d304      	bcc.n	20f4 <prvInitialiseNewTask+0x98>
    20ea:	e7ff      	b.n	20ec <prvInitialiseNewTask+0x90>
    20ec:	f7ff fbea 	bl	18c4 <ulSetInterruptMask>
    20f0:	e7ff      	b.n	20f2 <prvInitialiseNewTask+0x96>
    20f2:	e7fe      	b.n	20f2 <prvInitialiseNewTask+0x96>
    20f4:	9808      	ldr	r0, [sp, #32]
    20f6:	2805      	cmp	r0, #5
    20f8:	d303      	bcc.n	2102 <prvInitialiseNewTask+0xa6>
    20fa:	e7ff      	b.n	20fc <prvInitialiseNewTask+0xa0>
    20fc:	2004      	movs	r0, #4
    20fe:	9001      	str	r0, [sp, #4]
    2100:	e002      	b.n	2108 <prvInitialiseNewTask+0xac>
    2102:	9808      	ldr	r0, [sp, #32]
    2104:	9001      	str	r0, [sp, #4]
    2106:	e7ff      	b.n	2108 <prvInitialiseNewTask+0xac>
    2108:	980a      	ldr	r0, [sp, #40]	; 0x28
    210a:	9901      	ldr	r1, [sp, #4]
    210c:	9100      	str	r1, [sp, #0]
    210e:	62c1      	str	r1, [r0, #44]	; 0x2c
    2110:	6501      	str	r1, [r0, #80]	; 0x50
    2112:	3004      	adds	r0, #4
    2114:	f7ff fc42 	bl	199c <vListInitialiseItem>
    2118:	980a      	ldr	r0, [sp, #40]	; 0x28
    211a:	3018      	adds	r0, #24
    211c:	f7ff fc3e 	bl	199c <vListInitialiseItem>
    2120:	f8dd c000 	ldr.w	ip, [sp]
    2124:	980b      	ldr	r0, [sp, #44]	; 0x2c
    2126:	9a06      	ldr	r2, [sp, #24]
    2128:	9b04      	ldr	r3, [sp, #16]
    212a:	990a      	ldr	r1, [sp, #40]	; 0x28
    212c:	6109      	str	r1, [r1, #16]
    212e:	f1cc 0c05 	rsb	ip, ip, #5
    2132:	f8c1 c018 	str.w	ip, [r1, #24]
    2136:	6249      	str	r1, [r1, #36]	; 0x24
    2138:	6b09      	ldr	r1, [r1, #48]	; 0x30
    213a:	f7ff fb0f 	bl	175c <pxPortInitialiseStack>
    213e:	9a0a      	ldr	r2, [sp, #40]	; 0x28
    2140:	4601      	mov	r1, r0
    2142:	9807      	ldr	r0, [sp, #28]
    2144:	6011      	str	r1, [r2, #0]
    2146:	b120      	cbz	r0, 2152 <prvInitialiseNewTask+0xf6>
    2148:	e7ff      	b.n	214a <prvInitialiseNewTask+0xee>
    214a:	980a      	ldr	r0, [sp, #40]	; 0x28
    214c:	9907      	ldr	r1, [sp, #28]
    214e:	6008      	str	r0, [r1, #0]
    2150:	e000      	b.n	2154 <prvInitialiseNewTask+0xf8>
    2152:	e7ff      	b.n	2154 <prvInitialiseNewTask+0xf8>
    2154:	b00c      	add	sp, #48	; 0x30
    2156:	bd80      	pop	{r7, pc}

00002158 <prvAddNewTaskToReadyList>:
    2158:	b580      	push	{r7, lr}
    215a:	466f      	mov	r7, sp
    215c:	b082      	sub	sp, #8
    215e:	9001      	str	r0, [sp, #4]
    2160:	f7ff fa96 	bl	1690 <vPortEnterCritical>
    2164:	f640 2138 	movw	r1, #2616	; 0xa38
    2168:	f2c2 0100 	movt	r1, #8192	; 0x2000
    216c:	6808      	ldr	r0, [r1, #0]
    216e:	3001      	adds	r0, #1
    2170:	6008      	str	r0, [r1, #0]
    2172:	f640 2018 	movw	r0, #2584	; 0xa18
    2176:	f2c2 0000 	movt	r0, #8192	; 0x2000
    217a:	6800      	ldr	r0, [r0, #0]
    217c:	b998      	cbnz	r0, 21a6 <prvAddNewTaskToReadyList+0x4e>
    217e:	e7ff      	b.n	2180 <prvAddNewTaskToReadyList+0x28>
    2180:	9801      	ldr	r0, [sp, #4]
    2182:	f640 2118 	movw	r1, #2584	; 0xa18
    2186:	f2c2 0100 	movt	r1, #8192	; 0x2000
    218a:	6008      	str	r0, [r1, #0]
    218c:	f640 2038 	movw	r0, #2616	; 0xa38
    2190:	f2c2 0000 	movt	r0, #8192	; 0x2000
    2194:	6800      	ldr	r0, [r0, #0]
    2196:	2801      	cmp	r0, #1
    2198:	d103      	bne.n	21a2 <prvAddNewTaskToReadyList+0x4a>
    219a:	e7ff      	b.n	219c <prvAddNewTaskToReadyList+0x44>
    219c:	f000 fddb 	bl	2d56 <prvInitialiseTaskLists>
    21a0:	e000      	b.n	21a4 <prvAddNewTaskToReadyList+0x4c>
    21a2:	e7ff      	b.n	21a4 <prvAddNewTaskToReadyList+0x4c>
    21a4:	e01c      	b.n	21e0 <prvAddNewTaskToReadyList+0x88>
    21a6:	f640 203c 	movw	r0, #2620	; 0xa3c
    21aa:	f2c2 0000 	movt	r0, #8192	; 0x2000
    21ae:	6800      	ldr	r0, [r0, #0]
    21b0:	b9a0      	cbnz	r0, 21dc <prvAddNewTaskToReadyList+0x84>
    21b2:	e7ff      	b.n	21b4 <prvAddNewTaskToReadyList+0x5c>
    21b4:	9901      	ldr	r1, [sp, #4]
    21b6:	f640 2018 	movw	r0, #2584	; 0xa18
    21ba:	f2c2 0000 	movt	r0, #8192	; 0x2000
    21be:	6800      	ldr	r0, [r0, #0]
    21c0:	6ac0      	ldr	r0, [r0, #44]	; 0x2c
    21c2:	6ac9      	ldr	r1, [r1, #44]	; 0x2c
    21c4:	4288      	cmp	r0, r1
    21c6:	d807      	bhi.n	21d8 <prvAddNewTaskToReadyList+0x80>
    21c8:	e7ff      	b.n	21ca <prvAddNewTaskToReadyList+0x72>
    21ca:	9801      	ldr	r0, [sp, #4]
    21cc:	f640 2118 	movw	r1, #2584	; 0xa18
    21d0:	f2c2 0100 	movt	r1, #8192	; 0x2000
    21d4:	6008      	str	r0, [r1, #0]
    21d6:	e000      	b.n	21da <prvAddNewTaskToReadyList+0x82>
    21d8:	e7ff      	b.n	21da <prvAddNewTaskToReadyList+0x82>
    21da:	e000      	b.n	21de <prvAddNewTaskToReadyList+0x86>
    21dc:	e7ff      	b.n	21de <prvAddNewTaskToReadyList+0x86>
    21de:	e7ff      	b.n	21e0 <prvAddNewTaskToReadyList+0x88>
    21e0:	9801      	ldr	r0, [sp, #4]
    21e2:	f640 211c 	movw	r1, #2588	; 0xa1c
    21e6:	f2c2 0100 	movt	r1, #8192	; 0x2000
    21ea:	680a      	ldr	r2, [r1, #0]
    21ec:	3201      	adds	r2, #1
    21ee:	600a      	str	r2, [r1, #0]
    21f0:	6809      	ldr	r1, [r1, #0]
    21f2:	6481      	str	r1, [r0, #72]	; 0x48
    21f4:	6ac0      	ldr	r0, [r0, #44]	; 0x2c
    21f6:	f640 21c8 	movw	r1, #2760	; 0xac8
    21fa:	f2c2 0100 	movt	r1, #8192	; 0x2000
    21fe:	6809      	ldr	r1, [r1, #0]
    2200:	4288      	cmp	r0, r1
    2202:	d908      	bls.n	2216 <prvAddNewTaskToReadyList+0xbe>
    2204:	e7ff      	b.n	2206 <prvAddNewTaskToReadyList+0xae>
    2206:	9801      	ldr	r0, [sp, #4]
    2208:	6ac0      	ldr	r0, [r0, #44]	; 0x2c
    220a:	f640 21c8 	movw	r1, #2760	; 0xac8
    220e:	f2c2 0100 	movt	r1, #8192	; 0x2000
    2212:	6008      	str	r0, [r1, #0]
    2214:	e7ff      	b.n	2216 <prvAddNewTaskToReadyList+0xbe>
    2216:	9801      	ldr	r0, [sp, #4]
    2218:	6ac1      	ldr	r1, [r0, #44]	; 0x2c
    221a:	eb01 0281 	add.w	r2, r1, r1, lsl #2
    221e:	f640 2164 	movw	r1, #2660	; 0xa64
    2222:	f2c2 0100 	movt	r1, #8192	; 0x2000
    2226:	eb01 0282 	add.w	r2, r1, r2, lsl #2
    222a:	6853      	ldr	r3, [r2, #4]
    222c:	1d02      	adds	r2, r0, #4
    222e:	6083      	str	r3, [r0, #8]
    2230:	f8d3 c008 	ldr.w	ip, [r3, #8]
    2234:	f8c0 c00c 	str.w	ip, [r0, #12]
    2238:	f8d3 c008 	ldr.w	ip, [r3, #8]
    223c:	f8cc 2004 	str.w	r2, [ip, #4]
    2240:	609a      	str	r2, [r3, #8]
    2242:	6ac2      	ldr	r2, [r0, #44]	; 0x2c
    2244:	eb02 0282 	add.w	r2, r2, r2, lsl #2
    2248:	eb01 0282 	add.w	r2, r1, r2, lsl #2
    224c:	6142      	str	r2, [r0, #20]
    224e:	6ac0      	ldr	r0, [r0, #44]	; 0x2c
    2250:	eb00 0280 	add.w	r2, r0, r0, lsl #2
    2254:	f851 0022 	ldr.w	r0, [r1, r2, lsl #2]
    2258:	3001      	adds	r0, #1
    225a:	f841 0022 	str.w	r0, [r1, r2, lsl #2]
    225e:	f7ff fa27 	bl	16b0 <vPortExitCritical>
    2262:	f640 203c 	movw	r0, #2620	; 0xa3c
    2266:	f2c2 0000 	movt	r0, #8192	; 0x2000
    226a:	6800      	ldr	r0, [r0, #0]
    226c:	b180      	cbz	r0, 2290 <prvAddNewTaskToReadyList+0x138>
    226e:	e7ff      	b.n	2270 <prvAddNewTaskToReadyList+0x118>
    2270:	9901      	ldr	r1, [sp, #4]
    2272:	f640 2018 	movw	r0, #2584	; 0xa18
    2276:	f2c2 0000 	movt	r0, #8192	; 0x2000
    227a:	6800      	ldr	r0, [r0, #0]
    227c:	6ac0      	ldr	r0, [r0, #44]	; 0x2c
    227e:	6ac9      	ldr	r1, [r1, #44]	; 0x2c
    2280:	4288      	cmp	r0, r1
    2282:	d203      	bcs.n	228c <prvAddNewTaskToReadyList+0x134>
    2284:	e7ff      	b.n	2286 <prvAddNewTaskToReadyList+0x12e>
    2286:	f7ff f9f7 	bl	1678 <vPortYield>
    228a:	e000      	b.n	228e <prvAddNewTaskToReadyList+0x136>
    228c:	e7ff      	b.n	228e <prvAddNewTaskToReadyList+0x136>
    228e:	e000      	b.n	2292 <prvAddNewTaskToReadyList+0x13a>
    2290:	e7ff      	b.n	2292 <prvAddNewTaskToReadyList+0x13a>
    2292:	b002      	add	sp, #8
    2294:	bd80      	pop	{r7, pc}

00002296 <prvResetNextTaskUnblockTime>:
    2296:	f640 2048 	movw	r0, #2632	; 0xa48
    229a:	f2c2 0000 	movt	r0, #8192	; 0x2000
    229e:	6800      	ldr	r0, [r0, #0]
    22a0:	6800      	ldr	r0, [r0, #0]
    22a2:	b940      	cbnz	r0, 22b6 <prvResetNextTaskUnblockTime+0x20>
    22a4:	e7ff      	b.n	22a6 <prvResetNextTaskUnblockTime+0x10>
    22a6:	f640 21e8 	movw	r1, #2792	; 0xae8
    22aa:	f2c2 0100 	movt	r1, #8192	; 0x2000
    22ae:	f04f 30ff 	mov.w	r0, #4294967295	; 0xffffffff
    22b2:	6008      	str	r0, [r1, #0]
    22b4:	e00c      	b.n	22d0 <prvResetNextTaskUnblockTime+0x3a>
    22b6:	f640 2048 	movw	r0, #2632	; 0xa48
    22ba:	f2c2 0000 	movt	r0, #8192	; 0x2000
    22be:	6800      	ldr	r0, [r0, #0]
    22c0:	68c0      	ldr	r0, [r0, #12]
    22c2:	6800      	ldr	r0, [r0, #0]
    22c4:	f640 21e8 	movw	r1, #2792	; 0xae8
    22c8:	f2c2 0100 	movt	r1, #8192	; 0x2000
    22cc:	6008      	str	r0, [r1, #0]
    22ce:	e7ff      	b.n	22d0 <prvResetNextTaskUnblockTime+0x3a>
    22d0:	4770      	bx	lr

000022d2 <prvDeleteTCB>:
    22d2:	b580      	push	{r7, lr}
    22d4:	466f      	mov	r7, sp
    22d6:	b082      	sub	sp, #8
    22d8:	9001      	str	r0, [sp, #4]
    22da:	6b00      	ldr	r0, [r0, #48]	; 0x30
    22dc:	f001 f99d 	bl	361a <vPortFree>
    22e0:	9801      	ldr	r0, [sp, #4]
    22e2:	f001 f99a 	bl	361a <vPortFree>
    22e6:	b002      	add	sp, #8
    22e8:	bd80      	pop	{r7, pc}

000022ea <vTaskSuspendAll>:
    22ea:	f640 2140 	movw	r1, #2624	; 0xa40
    22ee:	f2c2 0100 	movt	r1, #8192	; 0x2000
    22f2:	6808      	ldr	r0, [r1, #0]
    22f4:	3001      	adds	r0, #1
    22f6:	6008      	str	r0, [r1, #0]
    22f8:	4770      	bx	lr

000022fa <prvAddCurrentTaskToDelayedList>:
    22fa:	b580      	push	{r7, lr}
    22fc:	466f      	mov	r7, sp
    22fe:	b084      	sub	sp, #16
    2300:	9101      	str	r1, [sp, #4]
    2302:	9002      	str	r0, [sp, #8]
    2304:	f640 2044 	movw	r0, #2628	; 0xa44
    2308:	f2c2 0000 	movt	r0, #8192	; 0x2000
    230c:	6800      	ldr	r0, [r0, #0]
    230e:	9003      	str	r0, [sp, #12]
    2310:	f640 2018 	movw	r0, #2584	; 0xa18
    2314:	f2c2 0000 	movt	r0, #8192	; 0x2000
    2318:	6800      	ldr	r0, [r0, #0]
    231a:	3004      	adds	r0, #4
    231c:	f7ff fb71 	bl	1a02 <uxListRemove>
    2320:	b908      	cbnz	r0, 2326 <prvAddCurrentTaskToDelayedList+0x2c>
    2322:	e7ff      	b.n	2324 <prvAddCurrentTaskToDelayedList+0x2a>
    2324:	e000      	b.n	2328 <prvAddCurrentTaskToDelayedList+0x2e>
    2326:	e7ff      	b.n	2328 <prvAddCurrentTaskToDelayedList+0x2e>
    2328:	9802      	ldr	r0, [sp, #8]
    232a:	3001      	adds	r0, #1
    232c:	bb10      	cbnz	r0, 2374 <prvAddCurrentTaskToDelayedList+0x7a>
    232e:	e7ff      	b.n	2330 <prvAddCurrentTaskToDelayedList+0x36>
    2330:	9801      	ldr	r0, [sp, #4]
    2332:	b1f8      	cbz	r0, 2374 <prvAddCurrentTaskToDelayedList+0x7a>
    2334:	e7ff      	b.n	2336 <prvAddCurrentTaskToDelayedList+0x3c>
    2336:	f640 2150 	movw	r1, #2640	; 0xa50
    233a:	f2c2 0100 	movt	r1, #8192	; 0x2000
    233e:	684b      	ldr	r3, [r1, #4]
    2340:	f640 2018 	movw	r0, #2584	; 0xa18
    2344:	f2c2 0000 	movt	r0, #8192	; 0x2000
    2348:	6802      	ldr	r2, [r0, #0]
    234a:	6093      	str	r3, [r2, #8]
    234c:	689a      	ldr	r2, [r3, #8]
    234e:	f8d0 c000 	ldr.w	ip, [r0]
    2352:	f8cc 200c 	str.w	r2, [ip, #12]
    2356:	6802      	ldr	r2, [r0, #0]
    2358:	3204      	adds	r2, #4
    235a:	f8d3 c008 	ldr.w	ip, [r3, #8]
    235e:	f8cc 2004 	str.w	r2, [ip, #4]
    2362:	6802      	ldr	r2, [r0, #0]
    2364:	3204      	adds	r2, #4
    2366:	609a      	str	r2, [r3, #8]
    2368:	6800      	ldr	r0, [r0, #0]
    236a:	6141      	str	r1, [r0, #20]
    236c:	6808      	ldr	r0, [r1, #0]
    236e:	3001      	adds	r0, #1
    2370:	6008      	str	r0, [r1, #0]
    2372:	e03b      	b.n	23ec <prvAddCurrentTaskToDelayedList+0xf2>
    2374:	9903      	ldr	r1, [sp, #12]
    2376:	9802      	ldr	r0, [sp, #8]
    2378:	4408      	add	r0, r1
    237a:	4602      	mov	r2, r0
    237c:	9200      	str	r2, [sp, #0]
    237e:	f640 2218 	movw	r2, #2584	; 0xa18
    2382:	f2c2 0200 	movt	r2, #8192	; 0x2000
    2386:	6812      	ldr	r2, [r2, #0]
    2388:	6050      	str	r0, [r2, #4]
    238a:	4288      	cmp	r0, r1
    238c:	d20e      	bcs.n	23ac <prvAddCurrentTaskToDelayedList+0xb2>
    238e:	e7ff      	b.n	2390 <prvAddCurrentTaskToDelayedList+0x96>
    2390:	f640 204c 	movw	r0, #2636	; 0xa4c
    2394:	f2c2 0000 	movt	r0, #8192	; 0x2000
    2398:	6800      	ldr	r0, [r0, #0]
    239a:	f640 2118 	movw	r1, #2584	; 0xa18
    239e:	f2c2 0100 	movt	r1, #8192	; 0x2000
    23a2:	6809      	ldr	r1, [r1, #0]
    23a4:	3104      	adds	r1, #4
    23a6:	f7ff fafd 	bl	19a4 <vListInsert>
    23aa:	e01e      	b.n	23ea <prvAddCurrentTaskToDelayedList+0xf0>
    23ac:	f640 2048 	movw	r0, #2632	; 0xa48
    23b0:	f2c2 0000 	movt	r0, #8192	; 0x2000
    23b4:	6800      	ldr	r0, [r0, #0]
    23b6:	f640 2118 	movw	r1, #2584	; 0xa18
    23ba:	f2c2 0100 	movt	r1, #8192	; 0x2000
    23be:	6809      	ldr	r1, [r1, #0]
    23c0:	3104      	adds	r1, #4
    23c2:	f7ff faef 	bl	19a4 <vListInsert>
    23c6:	9800      	ldr	r0, [sp, #0]
    23c8:	f640 21e8 	movw	r1, #2792	; 0xae8
    23cc:	f2c2 0100 	movt	r1, #8192	; 0x2000
    23d0:	6809      	ldr	r1, [r1, #0]
    23d2:	4288      	cmp	r0, r1
    23d4:	d207      	bcs.n	23e6 <prvAddCurrentTaskToDelayedList+0xec>
    23d6:	e7ff      	b.n	23d8 <prvAddCurrentTaskToDelayedList+0xde>
    23d8:	9800      	ldr	r0, [sp, #0]
    23da:	f640 21e8 	movw	r1, #2792	; 0xae8
    23de:	f2c2 0100 	movt	r1, #8192	; 0x2000
    23e2:	6008      	str	r0, [r1, #0]
    23e4:	e000      	b.n	23e8 <prvAddCurrentTaskToDelayedList+0xee>
    23e6:	e7ff      	b.n	23e8 <prvAddCurrentTaskToDelayedList+0xee>
    23e8:	e7ff      	b.n	23ea <prvAddCurrentTaskToDelayedList+0xf0>
    23ea:	e7ff      	b.n	23ec <prvAddCurrentTaskToDelayedList+0xf2>
    23ec:	b004      	add	sp, #16
    23ee:	bd80      	pop	{r7, pc}

000023f0 <xTaskResumeAll>:
    23f0:	b580      	push	{r7, lr}
    23f2:	466f      	mov	r7, sp
    23f4:	b08e      	sub	sp, #56	; 0x38
    23f6:	f640 2040 	movw	r0, #2624	; 0xa40
    23fa:	f2c2 0000 	movt	r0, #8192	; 0x2000
    23fe:	6800      	ldr	r0, [r0, #0]
    2400:	b920      	cbnz	r0, 240c <xTaskResumeAll+0x1c>
    2402:	e7ff      	b.n	2404 <xTaskResumeAll+0x14>
    2404:	f7ff fa5e 	bl	18c4 <ulSetInterruptMask>
    2408:	e7ff      	b.n	240a <xTaskResumeAll+0x1a>
    240a:	e7fe      	b.n	240a <xTaskResumeAll+0x1a>
    240c:	f7ff f940 	bl	1690 <vPortEnterCritical>
    2410:	f640 2040 	movw	r0, #2624	; 0xa40
    2414:	f2c2 0000 	movt	r0, #8192	; 0x2000
    2418:	6801      	ldr	r1, [r0, #0]
    241a:	3901      	subs	r1, #1
    241c:	6001      	str	r1, [r0, #0]
    241e:	6800      	ldr	r0, [r0, #0]
    2420:	2800      	cmp	r0, #0
    2422:	f040 80e7 	bne.w	25f4 <xTaskResumeAll+0x204>
    2426:	e7ff      	b.n	2428 <xTaskResumeAll+0x38>
    2428:	f640 2038 	movw	r0, #2616	; 0xa38
    242c:	f2c2 0000 	movt	r0, #8192	; 0x2000
    2430:	6801      	ldr	r1, [r0, #0]
    2432:	2000      	movs	r0, #0
    2434:	2900      	cmp	r1, #0
    2436:	900d      	str	r0, [sp, #52]	; 0x34
    2438:	f000 80d9 	beq.w	25ee <xTaskResumeAll+0x1fe>
    243c:	e7ff      	b.n	243e <xTaskResumeAll+0x4e>
    243e:	2000      	movs	r0, #0
    2440:	900c      	str	r0, [sp, #48]	; 0x30
    2442:	e7ff      	b.n	2444 <xTaskResumeAll+0x54>
    2444:	980c      	ldr	r0, [sp, #48]	; 0x30
    2446:	900b      	str	r0, [sp, #44]	; 0x2c
    2448:	f640 20d0 	movw	r0, #2768	; 0xad0
    244c:	f2c2 0000 	movt	r0, #8192	; 0x2000
    2450:	6800      	ldr	r0, [r0, #0]
    2452:	2800      	cmp	r0, #0
    2454:	f000 8089 	beq.w	256a <xTaskResumeAll+0x17a>
    2458:	e7ff      	b.n	245a <xTaskResumeAll+0x6a>
    245a:	f640 20d0 	movw	r0, #2768	; 0xad0
    245e:	f2c2 0000 	movt	r0, #8192	; 0x2000
    2462:	68c0      	ldr	r0, [r0, #12]
    2464:	68c3      	ldr	r3, [r0, #12]
    2466:	9309      	str	r3, [sp, #36]	; 0x24
    2468:	f103 0118 	add.w	r1, r3, #24
    246c:	f8d3 c01c 	ldr.w	ip, [r3, #28]
    2470:	6a1a      	ldr	r2, [r3, #32]
    2472:	6a98      	ldr	r0, [r3, #40]	; 0x28
    2474:	900a      	str	r0, [sp, #40]	; 0x28
    2476:	f8cc 2008 	str.w	r2, [ip, #8]
    247a:	69da      	ldr	r2, [r3, #28]
    247c:	6a1b      	ldr	r3, [r3, #32]
    247e:	605a      	str	r2, [r3, #4]
    2480:	6840      	ldr	r0, [r0, #4]
    2482:	4288      	cmp	r0, r1
    2484:	d105      	bne.n	2492 <xTaskResumeAll+0xa2>
    2486:	e7ff      	b.n	2488 <xTaskResumeAll+0x98>
    2488:	990a      	ldr	r1, [sp, #40]	; 0x28
    248a:	9809      	ldr	r0, [sp, #36]	; 0x24
    248c:	6a00      	ldr	r0, [r0, #32]
    248e:	6048      	str	r0, [r1, #4]
    2490:	e7ff      	b.n	2492 <xTaskResumeAll+0xa2>
    2492:	9b09      	ldr	r3, [sp, #36]	; 0x24
    2494:	990a      	ldr	r1, [sp, #40]	; 0x28
    2496:	2000      	movs	r0, #0
    2498:	6298      	str	r0, [r3, #40]	; 0x28
    249a:	6808      	ldr	r0, [r1, #0]
    249c:	3801      	subs	r0, #1
    249e:	6008      	str	r0, [r1, #0]
    24a0:	1d19      	adds	r1, r3, #4
    24a2:	f8d3 c008 	ldr.w	ip, [r3, #8]
    24a6:	68da      	ldr	r2, [r3, #12]
    24a8:	6958      	ldr	r0, [r3, #20]
    24aa:	9008      	str	r0, [sp, #32]
    24ac:	f8cc 2008 	str.w	r2, [ip, #8]
    24b0:	689a      	ldr	r2, [r3, #8]
    24b2:	68db      	ldr	r3, [r3, #12]
    24b4:	605a      	str	r2, [r3, #4]
    24b6:	6840      	ldr	r0, [r0, #4]
    24b8:	4288      	cmp	r0, r1
    24ba:	d105      	bne.n	24c8 <xTaskResumeAll+0xd8>
    24bc:	e7ff      	b.n	24be <xTaskResumeAll+0xce>
    24be:	9908      	ldr	r1, [sp, #32]
    24c0:	9809      	ldr	r0, [sp, #36]	; 0x24
    24c2:	68c0      	ldr	r0, [r0, #12]
    24c4:	6048      	str	r0, [r1, #4]
    24c6:	e7ff      	b.n	24c8 <xTaskResumeAll+0xd8>
    24c8:	9809      	ldr	r0, [sp, #36]	; 0x24
    24ca:	9a08      	ldr	r2, [sp, #32]
    24cc:	2100      	movs	r1, #0
    24ce:	6141      	str	r1, [r0, #20]
    24d0:	6811      	ldr	r1, [r2, #0]
    24d2:	3901      	subs	r1, #1
    24d4:	6011      	str	r1, [r2, #0]
    24d6:	6ac0      	ldr	r0, [r0, #44]	; 0x2c
    24d8:	f640 21c8 	movw	r1, #2760	; 0xac8
    24dc:	f2c2 0100 	movt	r1, #8192	; 0x2000
    24e0:	6809      	ldr	r1, [r1, #0]
    24e2:	4288      	cmp	r0, r1
    24e4:	d908      	bls.n	24f8 <xTaskResumeAll+0x108>
    24e6:	e7ff      	b.n	24e8 <xTaskResumeAll+0xf8>
    24e8:	9809      	ldr	r0, [sp, #36]	; 0x24
    24ea:	6ac0      	ldr	r0, [r0, #44]	; 0x2c
    24ec:	f640 21c8 	movw	r1, #2760	; 0xac8
    24f0:	f2c2 0100 	movt	r1, #8192	; 0x2000
    24f4:	6008      	str	r0, [r1, #0]
    24f6:	e7ff      	b.n	24f8 <xTaskResumeAll+0x108>
    24f8:	9809      	ldr	r0, [sp, #36]	; 0x24
    24fa:	6ac1      	ldr	r1, [r0, #44]	; 0x2c
    24fc:	eb01 0181 	add.w	r1, r1, r1, lsl #2
    2500:	f640 2264 	movw	r2, #2660	; 0xa64
    2504:	f2c2 0200 	movt	r2, #8192	; 0x2000
    2508:	eb02 0181 	add.w	r1, r2, r1, lsl #2
    250c:	684b      	ldr	r3, [r1, #4]
    250e:	1d01      	adds	r1, r0, #4
    2510:	6083      	str	r3, [r0, #8]
    2512:	f8d3 c008 	ldr.w	ip, [r3, #8]
    2516:	f8c0 c00c 	str.w	ip, [r0, #12]
    251a:	f8d3 c008 	ldr.w	ip, [r3, #8]
    251e:	f8cc 1004 	str.w	r1, [ip, #4]
    2522:	6099      	str	r1, [r3, #8]
    2524:	6ac1      	ldr	r1, [r0, #44]	; 0x2c
    2526:	eb01 0181 	add.w	r1, r1, r1, lsl #2
    252a:	eb02 0181 	add.w	r1, r2, r1, lsl #2
    252e:	6141      	str	r1, [r0, #20]
    2530:	6ac1      	ldr	r1, [r0, #44]	; 0x2c
    2532:	eb01 0381 	add.w	r3, r1, r1, lsl #2
    2536:	f852 1023 	ldr.w	r1, [r2, r3, lsl #2]
    253a:	3101      	adds	r1, #1
    253c:	f842 1023 	str.w	r1, [r2, r3, lsl #2]
    2540:	6ac0      	ldr	r0, [r0, #44]	; 0x2c
    2542:	f640 2118 	movw	r1, #2584	; 0xa18
    2546:	f2c2 0100 	movt	r1, #8192	; 0x2000
    254a:	6809      	ldr	r1, [r1, #0]
    254c:	6ac9      	ldr	r1, [r1, #44]	; 0x2c
    254e:	4288      	cmp	r0, r1
    2550:	d307      	bcc.n	2562 <xTaskResumeAll+0x172>
    2552:	e7ff      	b.n	2554 <xTaskResumeAll+0x164>
    2554:	f640 21cc 	movw	r1, #2764	; 0xacc
    2558:	f2c2 0100 	movt	r1, #8192	; 0x2000
    255c:	2001      	movs	r0, #1
    255e:	6008      	str	r0, [r1, #0]
    2560:	e000      	b.n	2564 <xTaskResumeAll+0x174>
    2562:	e7ff      	b.n	2564 <xTaskResumeAll+0x174>
    2564:	9809      	ldr	r0, [sp, #36]	; 0x24
    2566:	900c      	str	r0, [sp, #48]	; 0x30
    2568:	e76c      	b.n	2444 <xTaskResumeAll+0x54>
    256a:	980b      	ldr	r0, [sp, #44]	; 0x2c
    256c:	b118      	cbz	r0, 2576 <xTaskResumeAll+0x186>
    256e:	e7ff      	b.n	2570 <xTaskResumeAll+0x180>
    2570:	f7ff fe91 	bl	2296 <prvResetNextTaskUnblockTime>
    2574:	e7ff      	b.n	2576 <xTaskResumeAll+0x186>
    2576:	f640 20ec 	movw	r0, #2796	; 0xaec
    257a:	f2c2 0000 	movt	r0, #8192	; 0x2000
    257e:	6800      	ldr	r0, [r0, #0]
    2580:	9007      	str	r0, [sp, #28]
    2582:	b308      	cbz	r0, 25c8 <xTaskResumeAll+0x1d8>
    2584:	e7ff      	b.n	2586 <xTaskResumeAll+0x196>
    2586:	9807      	ldr	r0, [sp, #28]
    2588:	9006      	str	r0, [sp, #24]
    258a:	e7ff      	b.n	258c <xTaskResumeAll+0x19c>
    258c:	9806      	ldr	r0, [sp, #24]
    258e:	9005      	str	r0, [sp, #20]
    2590:	f000 f920 	bl	27d4 <xTaskIncrementTick>
    2594:	b138      	cbz	r0, 25a6 <xTaskResumeAll+0x1b6>
    2596:	e7ff      	b.n	2598 <xTaskResumeAll+0x1a8>
    2598:	f640 21cc 	movw	r1, #2764	; 0xacc
    259c:	f2c2 0100 	movt	r1, #8192	; 0x2000
    25a0:	2001      	movs	r0, #1
    25a2:	6008      	str	r0, [r1, #0]
    25a4:	e000      	b.n	25a8 <xTaskResumeAll+0x1b8>
    25a6:	e7ff      	b.n	25a8 <xTaskResumeAll+0x1b8>
    25a8:	9805      	ldr	r0, [sp, #20]
    25aa:	3801      	subs	r0, #1
    25ac:	9004      	str	r0, [sp, #16]
    25ae:	e7ff      	b.n	25b0 <xTaskResumeAll+0x1c0>
    25b0:	9804      	ldr	r0, [sp, #16]
    25b2:	2800      	cmp	r0, #0
    25b4:	9006      	str	r0, [sp, #24]
    25b6:	d1e9      	bne.n	258c <xTaskResumeAll+0x19c>
    25b8:	e7ff      	b.n	25ba <xTaskResumeAll+0x1ca>
    25ba:	f640 21ec 	movw	r1, #2796	; 0xaec
    25be:	f2c2 0100 	movt	r1, #8192	; 0x2000
    25c2:	2000      	movs	r0, #0
    25c4:	6008      	str	r0, [r1, #0]
    25c6:	e000      	b.n	25ca <xTaskResumeAll+0x1da>
    25c8:	e7ff      	b.n	25ca <xTaskResumeAll+0x1da>
    25ca:	f640 20cc 	movw	r0, #2764	; 0xacc
    25ce:	f2c2 0000 	movt	r0, #8192	; 0x2000
    25d2:	6800      	ldr	r0, [r0, #0]
    25d4:	b128      	cbz	r0, 25e2 <xTaskResumeAll+0x1f2>
    25d6:	e7ff      	b.n	25d8 <xTaskResumeAll+0x1e8>
    25d8:	f7ff f84e 	bl	1678 <vPortYield>
    25dc:	2001      	movs	r0, #1
    25de:	9003      	str	r0, [sp, #12]
    25e0:	e002      	b.n	25e8 <xTaskResumeAll+0x1f8>
    25e2:	2000      	movs	r0, #0
    25e4:	9003      	str	r0, [sp, #12]
    25e6:	e7ff      	b.n	25e8 <xTaskResumeAll+0x1f8>
    25e8:	9803      	ldr	r0, [sp, #12]
    25ea:	900d      	str	r0, [sp, #52]	; 0x34
    25ec:	e7ff      	b.n	25ee <xTaskResumeAll+0x1fe>
    25ee:	980d      	ldr	r0, [sp, #52]	; 0x34
    25f0:	9002      	str	r0, [sp, #8]
    25f2:	e002      	b.n	25fa <xTaskResumeAll+0x20a>
    25f4:	2000      	movs	r0, #0
    25f6:	9002      	str	r0, [sp, #8]
    25f8:	e7ff      	b.n	25fa <xTaskResumeAll+0x20a>
    25fa:	9802      	ldr	r0, [sp, #8]
    25fc:	9001      	str	r0, [sp, #4]
    25fe:	f7ff f857 	bl	16b0 <vPortExitCritical>
    2602:	9801      	ldr	r0, [sp, #4]
    2604:	b00e      	add	sp, #56	; 0x38
    2606:	bd80      	pop	{r7, pc}

00002608 <vTaskDelay>:
    2608:	b580      	push	{r7, lr}
    260a:	466f      	mov	r7, sp
    260c:	b082      	sub	sp, #8
    260e:	9001      	str	r0, [sp, #4]
    2610:	b1a8      	cbz	r0, 263e <vTaskDelay+0x36>
    2612:	e7ff      	b.n	2614 <vTaskDelay+0xc>
    2614:	f640 2040 	movw	r0, #2624	; 0xa40
    2618:	f2c2 0000 	movt	r0, #8192	; 0x2000
    261c:	6800      	ldr	r0, [r0, #0]
    261e:	b120      	cbz	r0, 262a <vTaskDelay+0x22>
    2620:	e7ff      	b.n	2622 <vTaskDelay+0x1a>
    2622:	f7ff f94f 	bl	18c4 <ulSetInterruptMask>
    2626:	e7ff      	b.n	2628 <vTaskDelay+0x20>
    2628:	e7fe      	b.n	2628 <vTaskDelay+0x20>
    262a:	f7ff fe5e 	bl	22ea <vTaskSuspendAll>
    262e:	9801      	ldr	r0, [sp, #4]
    2630:	2100      	movs	r1, #0
    2632:	f7ff fe62 	bl	22fa <prvAddCurrentTaskToDelayedList>
    2636:	f7ff fedb 	bl	23f0 <xTaskResumeAll>
    263a:	9000      	str	r0, [sp, #0]
    263c:	e002      	b.n	2644 <vTaskDelay+0x3c>
    263e:	2000      	movs	r0, #0
    2640:	9000      	str	r0, [sp, #0]
    2642:	e7ff      	b.n	2644 <vTaskDelay+0x3c>
    2644:	9800      	ldr	r0, [sp, #0]
    2646:	b918      	cbnz	r0, 2650 <vTaskDelay+0x48>
    2648:	e7ff      	b.n	264a <vTaskDelay+0x42>
    264a:	f7ff f815 	bl	1678 <vPortYield>
    264e:	e000      	b.n	2652 <vTaskDelay+0x4a>
    2650:	e7ff      	b.n	2652 <vTaskDelay+0x4a>
    2652:	b002      	add	sp, #8
    2654:	bd80      	pop	{r7, pc}

00002656 <vTaskSwitchContext>:
    2656:	b580      	push	{r7, lr}
    2658:	466f      	mov	r7, sp
    265a:	b084      	sub	sp, #16
    265c:	f640 2040 	movw	r0, #2624	; 0xa40
    2660:	f2c2 0000 	movt	r0, #8192	; 0x2000
    2664:	6800      	ldr	r0, [r0, #0]
    2666:	b138      	cbz	r0, 2678 <vTaskSwitchContext+0x22>
    2668:	e7ff      	b.n	266a <vTaskSwitchContext+0x14>
    266a:	f640 21cc 	movw	r1, #2764	; 0xacc
    266e:	f2c2 0100 	movt	r1, #8192	; 0x2000
    2672:	2001      	movs	r0, #1
    2674:	6008      	str	r0, [r1, #0]
    2676:	e04a      	b.n	270e <vTaskSwitchContext+0xb8>
    2678:	f640 21cc 	movw	r1, #2764	; 0xacc
    267c:	f2c2 0100 	movt	r1, #8192	; 0x2000
    2680:	2000      	movs	r0, #0
    2682:	6008      	str	r0, [r1, #0]
    2684:	f640 20c8 	movw	r0, #2760	; 0xac8
    2688:	f2c2 0000 	movt	r0, #8192	; 0x2000
    268c:	6800      	ldr	r0, [r0, #0]
    268e:	9003      	str	r0, [sp, #12]
    2690:	e7ff      	b.n	2692 <vTaskSwitchContext+0x3c>
    2692:	9803      	ldr	r0, [sp, #12]
    2694:	9002      	str	r0, [sp, #8]
    2696:	eb00 0180 	add.w	r1, r0, r0, lsl #2
    269a:	f640 2064 	movw	r0, #2660	; 0xa64
    269e:	f2c2 0000 	movt	r0, #8192	; 0x2000
    26a2:	f850 0021 	ldr.w	r0, [r0, r1, lsl #2]
    26a6:	b958      	cbnz	r0, 26c0 <vTaskSwitchContext+0x6a>
    26a8:	e7ff      	b.n	26aa <vTaskSwitchContext+0x54>
    26aa:	9802      	ldr	r0, [sp, #8]
    26ac:	b920      	cbnz	r0, 26b8 <vTaskSwitchContext+0x62>
    26ae:	e7ff      	b.n	26b0 <vTaskSwitchContext+0x5a>
    26b0:	f7ff f908 	bl	18c4 <ulSetInterruptMask>
    26b4:	e7ff      	b.n	26b6 <vTaskSwitchContext+0x60>
    26b6:	e7fe      	b.n	26b6 <vTaskSwitchContext+0x60>
    26b8:	9802      	ldr	r0, [sp, #8]
    26ba:	3801      	subs	r0, #1
    26bc:	9003      	str	r0, [sp, #12]
    26be:	e7e8      	b.n	2692 <vTaskSwitchContext+0x3c>
    26c0:	9802      	ldr	r0, [sp, #8]
    26c2:	eb00 0180 	add.w	r1, r0, r0, lsl #2
    26c6:	f640 2064 	movw	r0, #2660	; 0xa64
    26ca:	f2c2 0000 	movt	r0, #8192	; 0x2000
    26ce:	eb00 0181 	add.w	r1, r0, r1, lsl #2
    26d2:	4608      	mov	r0, r1
    26d4:	9001      	str	r0, [sp, #4]
    26d6:	6848      	ldr	r0, [r1, #4]
    26d8:	6840      	ldr	r0, [r0, #4]
    26da:	6048      	str	r0, [r1, #4]
    26dc:	6848      	ldr	r0, [r1, #4]
    26de:	3108      	adds	r1, #8
    26e0:	4288      	cmp	r0, r1
    26e2:	d105      	bne.n	26f0 <vTaskSwitchContext+0x9a>
    26e4:	e7ff      	b.n	26e6 <vTaskSwitchContext+0x90>
    26e6:	9901      	ldr	r1, [sp, #4]
    26e8:	6848      	ldr	r0, [r1, #4]
    26ea:	6840      	ldr	r0, [r0, #4]
    26ec:	6048      	str	r0, [r1, #4]
    26ee:	e7ff      	b.n	26f0 <vTaskSwitchContext+0x9a>
    26f0:	9802      	ldr	r0, [sp, #8]
    26f2:	9901      	ldr	r1, [sp, #4]
    26f4:	6849      	ldr	r1, [r1, #4]
    26f6:	68c9      	ldr	r1, [r1, #12]
    26f8:	f640 2218 	movw	r2, #2584	; 0xa18
    26fc:	f2c2 0200 	movt	r2, #8192	; 0x2000
    2700:	6011      	str	r1, [r2, #0]
    2702:	f640 21c8 	movw	r1, #2760	; 0xac8
    2706:	f2c2 0100 	movt	r1, #8192	; 0x2000
    270a:	6008      	str	r0, [r1, #0]
    270c:	e7ff      	b.n	270e <vTaskSwitchContext+0xb8>
    270e:	b004      	add	sp, #16
    2710:	bd80      	pop	{r7, pc}

00002712 <vTaskStartScheduler>:
    2712:	b580      	push	{r7, lr}
    2714:	466f      	mov	r7, sp
    2716:	b086      	sub	sp, #24
    2718:	f640 21e4 	movw	r1, #2788	; 0xae4
    271c:	f2c2 0100 	movt	r1, #8192	; 0x2000
    2720:	4668      	mov	r0, sp
    2722:	6041      	str	r1, [r0, #4]
    2724:	2300      	movs	r3, #0
    2726:	6003      	str	r3, [r0, #0]
    2728:	f242 70b1 	movw	r0, #10161	; 0x27b1
    272c:	f2c0 0000 	movt	r0, #0
    2730:	f646 21f4 	movw	r1, #27380	; 0x6af4
    2734:	f2c0 0100 	movt	r1, #0
    2738:	2240      	movs	r2, #64	; 0x40
    273a:	f7ff fc38 	bl	1fae <xTaskCreate>
    273e:	4601      	mov	r1, r0
    2740:	9105      	str	r1, [sp, #20]
    2742:	2801      	cmp	r0, #1
    2744:	d104      	bne.n	2750 <vTaskStartScheduler+0x3e>
    2746:	e7ff      	b.n	2748 <vTaskStartScheduler+0x36>
    2748:	f000 fb7b 	bl	2e42 <xTimerCreateTimerTask>
    274c:	9004      	str	r0, [sp, #16]
    274e:	e002      	b.n	2756 <vTaskStartScheduler+0x44>
    2750:	9805      	ldr	r0, [sp, #20]
    2752:	9004      	str	r0, [sp, #16]
    2754:	e7ff      	b.n	2756 <vTaskStartScheduler+0x44>
    2756:	9804      	ldr	r0, [sp, #16]
    2758:	9003      	str	r0, [sp, #12]
    275a:	2801      	cmp	r0, #1
    275c:	d118      	bne.n	2790 <vTaskStartScheduler+0x7e>
    275e:	e7ff      	b.n	2760 <vTaskStartScheduler+0x4e>
    2760:	f7ff f8b0 	bl	18c4 <ulSetInterruptMask>
    2764:	f640 21e8 	movw	r1, #2792	; 0xae8
    2768:	f2c2 0100 	movt	r1, #8192	; 0x2000
    276c:	f04f 30ff 	mov.w	r0, #4294967295	; 0xffffffff
    2770:	6008      	str	r0, [r1, #0]
    2772:	f640 213c 	movw	r1, #2620	; 0xa3c
    2776:	f2c2 0100 	movt	r1, #8192	; 0x2000
    277a:	2001      	movs	r0, #1
    277c:	6008      	str	r0, [r1, #0]
    277e:	f640 2144 	movw	r1, #2628	; 0xa44
    2782:	f2c2 0100 	movt	r1, #8192	; 0x2000
    2786:	2000      	movs	r0, #0
    2788:	6008      	str	r0, [r1, #0]
    278a:	f7ff f846 	bl	181a <xPortStartScheduler>
    278e:	e008      	b.n	27a2 <vTaskStartScheduler+0x90>
    2790:	9803      	ldr	r0, [sp, #12]
    2792:	3001      	adds	r0, #1
    2794:	b920      	cbnz	r0, 27a0 <vTaskStartScheduler+0x8e>
    2796:	e7ff      	b.n	2798 <vTaskStartScheduler+0x86>
    2798:	f7ff f894 	bl	18c4 <ulSetInterruptMask>
    279c:	e7ff      	b.n	279e <vTaskStartScheduler+0x8c>
    279e:	e7fe      	b.n	279e <vTaskStartScheduler+0x8c>
    27a0:	e7ff      	b.n	27a2 <vTaskStartScheduler+0x90>
    27a2:	f646 20f0 	movw	r0, #27376	; 0x6af0
    27a6:	f2c0 0000 	movt	r0, #0
    27aa:	6800      	ldr	r0, [r0, #0]
    27ac:	b006      	add	sp, #24
    27ae:	bd80      	pop	{r7, pc}

000027b0 <prvIdleTask>:
    27b0:	b580      	push	{r7, lr}
    27b2:	466f      	mov	r7, sp
    27b4:	e7ff      	b.n	27b6 <prvIdleTask+0x6>
    27b6:	f000 fb17 	bl	2de8 <prvCheckTasksWaitingTermination>
    27ba:	f640 2064 	movw	r0, #2660	; 0xa64
    27be:	f2c2 0000 	movt	r0, #8192	; 0x2000
    27c2:	6800      	ldr	r0, [r0, #0]
    27c4:	2802      	cmp	r0, #2
    27c6:	d303      	bcc.n	27d0 <prvIdleTask+0x20>
    27c8:	e7ff      	b.n	27ca <prvIdleTask+0x1a>
    27ca:	f7fe ff55 	bl	1678 <vPortYield>
    27ce:	e000      	b.n	27d2 <prvIdleTask+0x22>
    27d0:	e7ff      	b.n	27d2 <prvIdleTask+0x22>
    27d2:	e7f0      	b.n	27b6 <prvIdleTask+0x6>

000027d4 <xTaskIncrementTick>:
    27d4:	b580      	push	{r7, lr}
    27d6:	466f      	mov	r7, sp
    27d8:	b08e      	sub	sp, #56	; 0x38
    27da:	f640 2040 	movw	r0, #2624	; 0xa40
    27de:	f2c2 0000 	movt	r0, #8192	; 0x2000
    27e2:	6800      	ldr	r0, [r0, #0]
    27e4:	2800      	cmp	r0, #0
    27e6:	f040 8105 	bne.w	29f4 <xTaskIncrementTick+0x220>
    27ea:	e7ff      	b.n	27ec <xTaskIncrementTick+0x18>
    27ec:	f640 2144 	movw	r1, #2628	; 0xa44
    27f0:	f2c2 0100 	movt	r1, #8192	; 0x2000
    27f4:	6808      	ldr	r0, [r1, #0]
    27f6:	3001      	adds	r0, #1
    27f8:	4602      	mov	r2, r0
    27fa:	920d      	str	r2, [sp, #52]	; 0x34
    27fc:	6008      	str	r0, [r1, #0]
    27fe:	bb10      	cbnz	r0, 2846 <xTaskIncrementTick+0x72>
    2800:	e7ff      	b.n	2802 <xTaskIncrementTick+0x2e>
    2802:	f640 2048 	movw	r0, #2632	; 0xa48
    2806:	f2c2 0000 	movt	r0, #8192	; 0x2000
    280a:	6800      	ldr	r0, [r0, #0]
    280c:	6800      	ldr	r0, [r0, #0]
    280e:	b120      	cbz	r0, 281a <xTaskIncrementTick+0x46>
    2810:	e7ff      	b.n	2812 <xTaskIncrementTick+0x3e>
    2812:	f7ff f857 	bl	18c4 <ulSetInterruptMask>
    2816:	e7ff      	b.n	2818 <xTaskIncrementTick+0x44>
    2818:	e7fe      	b.n	2818 <xTaskIncrementTick+0x44>
    281a:	f640 2348 	movw	r3, #2632	; 0xa48
    281e:	f2c2 0300 	movt	r3, #8192	; 0x2000
    2822:	6818      	ldr	r0, [r3, #0]
    2824:	f640 214c 	movw	r1, #2636	; 0xa4c
    2828:	f2c2 0100 	movt	r1, #8192	; 0x2000
    282c:	680a      	ldr	r2, [r1, #0]
    282e:	601a      	str	r2, [r3, #0]
    2830:	6008      	str	r0, [r1, #0]
    2832:	f640 21f0 	movw	r1, #2800	; 0xaf0
    2836:	f2c2 0100 	movt	r1, #8192	; 0x2000
    283a:	6808      	ldr	r0, [r1, #0]
    283c:	3001      	adds	r0, #1
    283e:	6008      	str	r0, [r1, #0]
    2840:	f7ff fd29 	bl	2296 <prvResetNextTaskUnblockTime>
    2844:	e000      	b.n	2848 <xTaskIncrementTick+0x74>
    2846:	e7ff      	b.n	2848 <xTaskIncrementTick+0x74>
    2848:	990d      	ldr	r1, [sp, #52]	; 0x34
    284a:	f640 20e8 	movw	r0, #2792	; 0xae8
    284e:	f2c2 0000 	movt	r0, #8192	; 0x2000
    2852:	6802      	ldr	r2, [r0, #0]
    2854:	2000      	movs	r0, #0
    2856:	4291      	cmp	r1, r2
    2858:	900c      	str	r0, [sp, #48]	; 0x30
    285a:	f0c0 80b9 	bcc.w	29d0 <xTaskIncrementTick+0x1fc>
    285e:	e7ff      	b.n	2860 <xTaskIncrementTick+0x8c>
    2860:	2000      	movs	r0, #0
    2862:	900b      	str	r0, [sp, #44]	; 0x2c
    2864:	e7ff      	b.n	2866 <xTaskIncrementTick+0x92>
    2866:	980b      	ldr	r0, [sp, #44]	; 0x2c
    2868:	900a      	str	r0, [sp, #40]	; 0x28
    286a:	f640 2048 	movw	r0, #2632	; 0xa48
    286e:	f2c2 0000 	movt	r0, #8192	; 0x2000
    2872:	6800      	ldr	r0, [r0, #0]
    2874:	6800      	ldr	r0, [r0, #0]
    2876:	b940      	cbnz	r0, 288a <xTaskIncrementTick+0xb6>
    2878:	e7ff      	b.n	287a <xTaskIncrementTick+0xa6>
    287a:	f640 21e8 	movw	r1, #2792	; 0xae8
    287e:	f2c2 0100 	movt	r1, #8192	; 0x2000
    2882:	f04f 30ff 	mov.w	r0, #4294967295	; 0xffffffff
    2886:	6008      	str	r0, [r1, #0]
    2888:	e09f      	b.n	29ca <xTaskIncrementTick+0x1f6>
    288a:	980d      	ldr	r0, [sp, #52]	; 0x34
    288c:	f640 2148 	movw	r1, #2632	; 0xa48
    2890:	f2c2 0100 	movt	r1, #8192	; 0x2000
    2894:	6809      	ldr	r1, [r1, #0]
    2896:	68c9      	ldr	r1, [r1, #12]
    2898:	68c9      	ldr	r1, [r1, #12]
    289a:	9108      	str	r1, [sp, #32]
    289c:	6849      	ldr	r1, [r1, #4]
    289e:	9109      	str	r1, [sp, #36]	; 0x24
    28a0:	4288      	cmp	r0, r1
    28a2:	d207      	bcs.n	28b4 <xTaskIncrementTick+0xe0>
    28a4:	e7ff      	b.n	28a6 <xTaskIncrementTick+0xd2>
    28a6:	9809      	ldr	r0, [sp, #36]	; 0x24
    28a8:	f640 21e8 	movw	r1, #2792	; 0xae8
    28ac:	f2c2 0100 	movt	r1, #8192	; 0x2000
    28b0:	6008      	str	r0, [r1, #0]
    28b2:	e08a      	b.n	29ca <xTaskIncrementTick+0x1f6>
    28b4:	e7ff      	b.n	28b6 <xTaskIncrementTick+0xe2>
    28b6:	9b08      	ldr	r3, [sp, #32]
    28b8:	1d19      	adds	r1, r3, #4
    28ba:	f8d3 c008 	ldr.w	ip, [r3, #8]
    28be:	68da      	ldr	r2, [r3, #12]
    28c0:	6958      	ldr	r0, [r3, #20]
    28c2:	9007      	str	r0, [sp, #28]
    28c4:	f8cc 2008 	str.w	r2, [ip, #8]
    28c8:	689a      	ldr	r2, [r3, #8]
    28ca:	68db      	ldr	r3, [r3, #12]
    28cc:	605a      	str	r2, [r3, #4]
    28ce:	6840      	ldr	r0, [r0, #4]
    28d0:	4288      	cmp	r0, r1
    28d2:	d105      	bne.n	28e0 <xTaskIncrementTick+0x10c>
    28d4:	e7ff      	b.n	28d6 <xTaskIncrementTick+0x102>
    28d6:	9907      	ldr	r1, [sp, #28]
    28d8:	9808      	ldr	r0, [sp, #32]
    28da:	68c0      	ldr	r0, [r0, #12]
    28dc:	6048      	str	r0, [r1, #4]
    28de:	e7ff      	b.n	28e0 <xTaskIncrementTick+0x10c>
    28e0:	9808      	ldr	r0, [sp, #32]
    28e2:	9a07      	ldr	r2, [sp, #28]
    28e4:	2100      	movs	r1, #0
    28e6:	6141      	str	r1, [r0, #20]
    28e8:	6811      	ldr	r1, [r2, #0]
    28ea:	3901      	subs	r1, #1
    28ec:	6011      	str	r1, [r2, #0]
    28ee:	6a80      	ldr	r0, [r0, #40]	; 0x28
    28f0:	b1f0      	cbz	r0, 2930 <xTaskIncrementTick+0x15c>
    28f2:	e7ff      	b.n	28f4 <xTaskIncrementTick+0x120>
    28f4:	9b08      	ldr	r3, [sp, #32]
    28f6:	f103 0118 	add.w	r1, r3, #24
    28fa:	f8d3 c01c 	ldr.w	ip, [r3, #28]
    28fe:	6a1a      	ldr	r2, [r3, #32]
    2900:	6a98      	ldr	r0, [r3, #40]	; 0x28
    2902:	9006      	str	r0, [sp, #24]
    2904:	f8cc 2008 	str.w	r2, [ip, #8]
    2908:	69da      	ldr	r2, [r3, #28]
    290a:	6a1b      	ldr	r3, [r3, #32]
    290c:	605a      	str	r2, [r3, #4]
    290e:	6840      	ldr	r0, [r0, #4]
    2910:	4288      	cmp	r0, r1
    2912:	d105      	bne.n	2920 <xTaskIncrementTick+0x14c>
    2914:	e7ff      	b.n	2916 <xTaskIncrementTick+0x142>
    2916:	9906      	ldr	r1, [sp, #24]
    2918:	9808      	ldr	r0, [sp, #32]
    291a:	6a00      	ldr	r0, [r0, #32]
    291c:	6048      	str	r0, [r1, #4]
    291e:	e7ff      	b.n	2920 <xTaskIncrementTick+0x14c>
    2920:	9906      	ldr	r1, [sp, #24]
    2922:	9a08      	ldr	r2, [sp, #32]
    2924:	2000      	movs	r0, #0
    2926:	6290      	str	r0, [r2, #40]	; 0x28
    2928:	6808      	ldr	r0, [r1, #0]
    292a:	3801      	subs	r0, #1
    292c:	6008      	str	r0, [r1, #0]
    292e:	e000      	b.n	2932 <xTaskIncrementTick+0x15e>
    2930:	e7ff      	b.n	2932 <xTaskIncrementTick+0x15e>
    2932:	9808      	ldr	r0, [sp, #32]
    2934:	6ac0      	ldr	r0, [r0, #44]	; 0x2c
    2936:	f640 21c8 	movw	r1, #2760	; 0xac8
    293a:	f2c2 0100 	movt	r1, #8192	; 0x2000
    293e:	6809      	ldr	r1, [r1, #0]
    2940:	4288      	cmp	r0, r1
    2942:	d908      	bls.n	2956 <xTaskIncrementTick+0x182>
    2944:	e7ff      	b.n	2946 <xTaskIncrementTick+0x172>
    2946:	9808      	ldr	r0, [sp, #32]
    2948:	6ac0      	ldr	r0, [r0, #44]	; 0x2c
    294a:	f640 21c8 	movw	r1, #2760	; 0xac8
    294e:	f2c2 0100 	movt	r1, #8192	; 0x2000
    2952:	6008      	str	r0, [r1, #0]
    2954:	e7ff      	b.n	2956 <xTaskIncrementTick+0x182>
    2956:	9808      	ldr	r0, [sp, #32]
    2958:	6ac1      	ldr	r1, [r0, #44]	; 0x2c
    295a:	eb01 0181 	add.w	r1, r1, r1, lsl #2
    295e:	f640 2264 	movw	r2, #2660	; 0xa64
    2962:	f2c2 0200 	movt	r2, #8192	; 0x2000
    2966:	eb02 0181 	add.w	r1, r2, r1, lsl #2
    296a:	684b      	ldr	r3, [r1, #4]
    296c:	1d01      	adds	r1, r0, #4
    296e:	6083      	str	r3, [r0, #8]
    2970:	f8d3 c008 	ldr.w	ip, [r3, #8]
    2974:	f8c0 c00c 	str.w	ip, [r0, #12]
    2978:	f8d3 c008 	ldr.w	ip, [r3, #8]
    297c:	f8cc 1004 	str.w	r1, [ip, #4]
    2980:	6099      	str	r1, [r3, #8]
    2982:	6ac1      	ldr	r1, [r0, #44]	; 0x2c
    2984:	eb01 0181 	add.w	r1, r1, r1, lsl #2
    2988:	eb02 0181 	add.w	r1, r2, r1, lsl #2
    298c:	6141      	str	r1, [r0, #20]
    298e:	6ac1      	ldr	r1, [r0, #44]	; 0x2c
    2990:	eb01 0381 	add.w	r3, r1, r1, lsl #2
    2994:	f852 1023 	ldr.w	r1, [r2, r3, lsl #2]
    2998:	3101      	adds	r1, #1
    299a:	f842 1023 	str.w	r1, [r2, r3, lsl #2]
    299e:	6ac0      	ldr	r0, [r0, #44]	; 0x2c
    29a0:	f640 2118 	movw	r1, #2584	; 0xa18
    29a4:	f2c2 0100 	movt	r1, #8192	; 0x2000
    29a8:	6809      	ldr	r1, [r1, #0]
    29aa:	6ac9      	ldr	r1, [r1, #44]	; 0x2c
    29ac:	4288      	cmp	r0, r1
    29ae:	d903      	bls.n	29b8 <xTaskIncrementTick+0x1e4>
    29b0:	e7ff      	b.n	29b2 <xTaskIncrementTick+0x1de>
    29b2:	2001      	movs	r0, #1
    29b4:	9005      	str	r0, [sp, #20]
    29b6:	e002      	b.n	29be <xTaskIncrementTick+0x1ea>
    29b8:	980a      	ldr	r0, [sp, #40]	; 0x28
    29ba:	9005      	str	r0, [sp, #20]
    29bc:	e7ff      	b.n	29be <xTaskIncrementTick+0x1ea>
    29be:	9805      	ldr	r0, [sp, #20]
    29c0:	9004      	str	r0, [sp, #16]
    29c2:	e7ff      	b.n	29c4 <xTaskIncrementTick+0x1f0>
    29c4:	9804      	ldr	r0, [sp, #16]
    29c6:	900b      	str	r0, [sp, #44]	; 0x2c
    29c8:	e74d      	b.n	2866 <xTaskIncrementTick+0x92>
    29ca:	980a      	ldr	r0, [sp, #40]	; 0x28
    29cc:	900c      	str	r0, [sp, #48]	; 0x30
    29ce:	e7ff      	b.n	29d0 <xTaskIncrementTick+0x1fc>
    29d0:	980c      	ldr	r0, [sp, #48]	; 0x30
    29d2:	9003      	str	r0, [sp, #12]
    29d4:	f640 20cc 	movw	r0, #2764	; 0xacc
    29d8:	f2c2 0000 	movt	r0, #8192	; 0x2000
    29dc:	6800      	ldr	r0, [r0, #0]
    29de:	b118      	cbz	r0, 29e8 <xTaskIncrementTick+0x214>
    29e0:	e7ff      	b.n	29e2 <xTaskIncrementTick+0x20e>
    29e2:	2001      	movs	r0, #1
    29e4:	9002      	str	r0, [sp, #8]
    29e6:	e002      	b.n	29ee <xTaskIncrementTick+0x21a>
    29e8:	9803      	ldr	r0, [sp, #12]
    29ea:	9002      	str	r0, [sp, #8]
    29ec:	e7ff      	b.n	29ee <xTaskIncrementTick+0x21a>
    29ee:	9802      	ldr	r0, [sp, #8]
    29f0:	9001      	str	r0, [sp, #4]
    29f2:	e009      	b.n	2a08 <xTaskIncrementTick+0x234>
    29f4:	f640 21ec 	movw	r1, #2796	; 0xaec
    29f8:	f2c2 0100 	movt	r1, #8192	; 0x2000
    29fc:	6808      	ldr	r0, [r1, #0]
    29fe:	3001      	adds	r0, #1
    2a00:	6008      	str	r0, [r1, #0]
    2a02:	2000      	movs	r0, #0
    2a04:	9001      	str	r0, [sp, #4]
    2a06:	e7ff      	b.n	2a08 <xTaskIncrementTick+0x234>
    2a08:	9801      	ldr	r0, [sp, #4]
    2a0a:	b00e      	add	sp, #56	; 0x38
    2a0c:	bd80      	pop	{r7, pc}

00002a0e <xTaskGetTickCount>:
    2a0e:	f640 2044 	movw	r0, #2628	; 0xa44
    2a12:	f2c2 0000 	movt	r0, #8192	; 0x2000
    2a16:	6800      	ldr	r0, [r0, #0]
    2a18:	4770      	bx	lr

00002a1a <vTaskPlaceOnEventList>:
    2a1a:	b580      	push	{r7, lr}
    2a1c:	466f      	mov	r7, sp
    2a1e:	b082      	sub	sp, #8
    2a20:	9100      	str	r1, [sp, #0]
    2a22:	9001      	str	r0, [sp, #4]
    2a24:	b920      	cbnz	r0, 2a30 <vTaskPlaceOnEventList+0x16>
    2a26:	e7ff      	b.n	2a28 <vTaskPlaceOnEventList+0xe>
    2a28:	f7fe ff4c 	bl	18c4 <ulSetInterruptMask>
    2a2c:	e7ff      	b.n	2a2e <vTaskPlaceOnEventList+0x14>
    2a2e:	e7fe      	b.n	2a2e <vTaskPlaceOnEventList+0x14>
    2a30:	9801      	ldr	r0, [sp, #4]
    2a32:	f640 2118 	movw	r1, #2584	; 0xa18
    2a36:	f2c2 0100 	movt	r1, #8192	; 0x2000
    2a3a:	6809      	ldr	r1, [r1, #0]
    2a3c:	3118      	adds	r1, #24
    2a3e:	f7fe ffb1 	bl	19a4 <vListInsert>
    2a42:	9800      	ldr	r0, [sp, #0]
    2a44:	2101      	movs	r1, #1
    2a46:	f7ff fc58 	bl	22fa <prvAddCurrentTaskToDelayedList>
    2a4a:	b002      	add	sp, #8
    2a4c:	bd80      	pop	{r7, pc}

00002a4e <vTaskPlaceOnEventListRestricted>:
    2a4e:	b5d0      	push	{r4, r6, r7, lr}
    2a50:	af02      	add	r7, sp, #8
    2a52:	b084      	sub	sp, #16
    2a54:	9201      	str	r2, [sp, #4]
    2a56:	9102      	str	r1, [sp, #8]
    2a58:	9003      	str	r0, [sp, #12]
    2a5a:	b920      	cbnz	r0, 2a66 <vTaskPlaceOnEventListRestricted+0x18>
    2a5c:	e7ff      	b.n	2a5e <vTaskPlaceOnEventListRestricted+0x10>
    2a5e:	f7fe ff31 	bl	18c4 <ulSetInterruptMask>
    2a62:	e7ff      	b.n	2a64 <vTaskPlaceOnEventListRestricted+0x16>
    2a64:	e7fe      	b.n	2a64 <vTaskPlaceOnEventListRestricted+0x16>
    2a66:	9802      	ldr	r0, [sp, #8]
    2a68:	9901      	ldr	r1, [sp, #4]
    2a6a:	9b03      	ldr	r3, [sp, #12]
    2a6c:	f8d3 e004 	ldr.w	lr, [r3, #4]
    2a70:	f640 2218 	movw	r2, #2584	; 0xa18
    2a74:	f2c2 0200 	movt	r2, #8192	; 0x2000
    2a78:	f8d2 c000 	ldr.w	ip, [r2]
    2a7c:	f8cc e01c 	str.w	lr, [ip, #28]
    2a80:	f8de c008 	ldr.w	ip, [lr, #8]
    2a84:	6814      	ldr	r4, [r2, #0]
    2a86:	f8c4 c020 	str.w	ip, [r4, #32]
    2a8a:	f8d2 c000 	ldr.w	ip, [r2]
    2a8e:	f10c 0c18 	add.w	ip, ip, #24
    2a92:	f8de 4008 	ldr.w	r4, [lr, #8]
    2a96:	f8c4 c004 	str.w	ip, [r4, #4]
    2a9a:	f8d2 c000 	ldr.w	ip, [r2]
    2a9e:	f10c 0c18 	add.w	ip, ip, #24
    2aa2:	f8ce c008 	str.w	ip, [lr, #8]
    2aa6:	6812      	ldr	r2, [r2, #0]
    2aa8:	6293      	str	r3, [r2, #40]	; 0x28
    2aaa:	681a      	ldr	r2, [r3, #0]
    2aac:	3201      	adds	r2, #1
    2aae:	601a      	str	r2, [r3, #0]
    2ab0:	9000      	str	r0, [sp, #0]
    2ab2:	b121      	cbz	r1, 2abe <vTaskPlaceOnEventListRestricted+0x70>
    2ab4:	e7ff      	b.n	2ab6 <vTaskPlaceOnEventListRestricted+0x68>
    2ab6:	f04f 30ff 	mov.w	r0, #4294967295	; 0xffffffff
    2aba:	9000      	str	r0, [sp, #0]
    2abc:	e7ff      	b.n	2abe <vTaskPlaceOnEventListRestricted+0x70>
    2abe:	9901      	ldr	r1, [sp, #4]
    2ac0:	9800      	ldr	r0, [sp, #0]
    2ac2:	f7ff fc1a 	bl	22fa <prvAddCurrentTaskToDelayedList>
    2ac6:	b004      	add	sp, #16
    2ac8:	bdd0      	pop	{r4, r6, r7, pc}

00002aca <xTaskRemoveFromEventList>:
    2aca:	b580      	push	{r7, lr}
    2acc:	466f      	mov	r7, sp
    2ace:	b084      	sub	sp, #16
    2ad0:	68c0      	ldr	r0, [r0, #12]
    2ad2:	68c0      	ldr	r0, [r0, #12]
    2ad4:	9003      	str	r0, [sp, #12]
    2ad6:	b920      	cbnz	r0, 2ae2 <xTaskRemoveFromEventList+0x18>
    2ad8:	e7ff      	b.n	2ada <xTaskRemoveFromEventList+0x10>
    2ada:	f7fe fef3 	bl	18c4 <ulSetInterruptMask>
    2ade:	e7ff      	b.n	2ae0 <xTaskRemoveFromEventList+0x16>
    2ae0:	e7fe      	b.n	2ae0 <xTaskRemoveFromEventList+0x16>
    2ae2:	9b03      	ldr	r3, [sp, #12]
    2ae4:	f103 0118 	add.w	r1, r3, #24
    2ae8:	f8d3 c01c 	ldr.w	ip, [r3, #28]
    2aec:	6a1a      	ldr	r2, [r3, #32]
    2aee:	6a98      	ldr	r0, [r3, #40]	; 0x28
    2af0:	9002      	str	r0, [sp, #8]
    2af2:	f8cc 2008 	str.w	r2, [ip, #8]
    2af6:	69da      	ldr	r2, [r3, #28]
    2af8:	6a1b      	ldr	r3, [r3, #32]
    2afa:	605a      	str	r2, [r3, #4]
    2afc:	6840      	ldr	r0, [r0, #4]
    2afe:	4288      	cmp	r0, r1
    2b00:	d105      	bne.n	2b0e <xTaskRemoveFromEventList+0x44>
    2b02:	e7ff      	b.n	2b04 <xTaskRemoveFromEventList+0x3a>
    2b04:	9902      	ldr	r1, [sp, #8]
    2b06:	9803      	ldr	r0, [sp, #12]
    2b08:	6a00      	ldr	r0, [r0, #32]
    2b0a:	6048      	str	r0, [r1, #4]
    2b0c:	e7ff      	b.n	2b0e <xTaskRemoveFromEventList+0x44>
    2b0e:	9902      	ldr	r1, [sp, #8]
    2b10:	9a03      	ldr	r2, [sp, #12]
    2b12:	2000      	movs	r0, #0
    2b14:	6290      	str	r0, [r2, #40]	; 0x28
    2b16:	6808      	ldr	r0, [r1, #0]
    2b18:	3801      	subs	r0, #1
    2b1a:	6008      	str	r0, [r1, #0]
    2b1c:	f640 2040 	movw	r0, #2624	; 0xa40
    2b20:	f2c2 0000 	movt	r0, #8192	; 0x2000
    2b24:	6800      	ldr	r0, [r0, #0]
    2b26:	2800      	cmp	r0, #0
    2b28:	d152      	bne.n	2bd0 <xTaskRemoveFromEventList+0x106>
    2b2a:	e7ff      	b.n	2b2c <xTaskRemoveFromEventList+0x62>
    2b2c:	9b03      	ldr	r3, [sp, #12]
    2b2e:	1d19      	adds	r1, r3, #4
    2b30:	f8d3 c008 	ldr.w	ip, [r3, #8]
    2b34:	68da      	ldr	r2, [r3, #12]
    2b36:	6958      	ldr	r0, [r3, #20]
    2b38:	9001      	str	r0, [sp, #4]
    2b3a:	f8cc 2008 	str.w	r2, [ip, #8]
    2b3e:	689a      	ldr	r2, [r3, #8]
    2b40:	68db      	ldr	r3, [r3, #12]
    2b42:	605a      	str	r2, [r3, #4]
    2b44:	6840      	ldr	r0, [r0, #4]
    2b46:	4288      	cmp	r0, r1
    2b48:	d105      	bne.n	2b56 <xTaskRemoveFromEventList+0x8c>
    2b4a:	e7ff      	b.n	2b4c <xTaskRemoveFromEventList+0x82>
    2b4c:	9901      	ldr	r1, [sp, #4]
    2b4e:	9803      	ldr	r0, [sp, #12]
    2b50:	68c0      	ldr	r0, [r0, #12]
    2b52:	6048      	str	r0, [r1, #4]
    2b54:	e7ff      	b.n	2b56 <xTaskRemoveFromEventList+0x8c>
    2b56:	9803      	ldr	r0, [sp, #12]
    2b58:	9a01      	ldr	r2, [sp, #4]
    2b5a:	2100      	movs	r1, #0
    2b5c:	6141      	str	r1, [r0, #20]
    2b5e:	6811      	ldr	r1, [r2, #0]
    2b60:	3901      	subs	r1, #1
    2b62:	6011      	str	r1, [r2, #0]
    2b64:	6ac0      	ldr	r0, [r0, #44]	; 0x2c
    2b66:	f640 21c8 	movw	r1, #2760	; 0xac8
    2b6a:	f2c2 0100 	movt	r1, #8192	; 0x2000
    2b6e:	6809      	ldr	r1, [r1, #0]
    2b70:	4288      	cmp	r0, r1
    2b72:	d908      	bls.n	2b86 <xTaskRemoveFromEventList+0xbc>
    2b74:	e7ff      	b.n	2b76 <xTaskRemoveFromEventList+0xac>
    2b76:	9803      	ldr	r0, [sp, #12]
    2b78:	6ac0      	ldr	r0, [r0, #44]	; 0x2c
    2b7a:	f640 21c8 	movw	r1, #2760	; 0xac8
    2b7e:	f2c2 0100 	movt	r1, #8192	; 0x2000
    2b82:	6008      	str	r0, [r1, #0]
    2b84:	e7ff      	b.n	2b86 <xTaskRemoveFromEventList+0xbc>
    2b86:	9803      	ldr	r0, [sp, #12]
    2b88:	6ac1      	ldr	r1, [r0, #44]	; 0x2c
    2b8a:	eb01 0281 	add.w	r2, r1, r1, lsl #2
    2b8e:	f640 2164 	movw	r1, #2660	; 0xa64
    2b92:	f2c2 0100 	movt	r1, #8192	; 0x2000
    2b96:	eb01 0282 	add.w	r2, r1, r2, lsl #2
    2b9a:	6853      	ldr	r3, [r2, #4]
    2b9c:	1d02      	adds	r2, r0, #4
    2b9e:	6083      	str	r3, [r0, #8]
    2ba0:	f8d3 c008 	ldr.w	ip, [r3, #8]
    2ba4:	f8c0 c00c 	str.w	ip, [r0, #12]
    2ba8:	f8d3 c008 	ldr.w	ip, [r3, #8]
    2bac:	f8cc 2004 	str.w	r2, [ip, #4]
    2bb0:	609a      	str	r2, [r3, #8]
    2bb2:	6ac2      	ldr	r2, [r0, #44]	; 0x2c
    2bb4:	eb02 0282 	add.w	r2, r2, r2, lsl #2
    2bb8:	eb01 0282 	add.w	r2, r1, r2, lsl #2
    2bbc:	6142      	str	r2, [r0, #20]
    2bbe:	6ac0      	ldr	r0, [r0, #44]	; 0x2c
    2bc0:	eb00 0280 	add.w	r2, r0, r0, lsl #2
    2bc4:	f851 0022 	ldr.w	r0, [r1, r2, lsl #2]
    2bc8:	3001      	adds	r0, #1
    2bca:	f841 0022 	str.w	r0, [r1, r2, lsl #2]
    2bce:	e016      	b.n	2bfe <xTaskRemoveFromEventList+0x134>
    2bd0:	9803      	ldr	r0, [sp, #12]
    2bd2:	f640 21d0 	movw	r1, #2768	; 0xad0
    2bd6:	f2c2 0100 	movt	r1, #8192	; 0x2000
    2bda:	684b      	ldr	r3, [r1, #4]
    2bdc:	f100 0218 	add.w	r2, r0, #24
    2be0:	61c3      	str	r3, [r0, #28]
    2be2:	f8d3 c008 	ldr.w	ip, [r3, #8]
    2be6:	f8c0 c020 	str.w	ip, [r0, #32]
    2bea:	f8d3 c008 	ldr.w	ip, [r3, #8]
    2bee:	f8cc 2004 	str.w	r2, [ip, #4]
    2bf2:	609a      	str	r2, [r3, #8]
    2bf4:	6281      	str	r1, [r0, #40]	; 0x28
    2bf6:	6808      	ldr	r0, [r1, #0]
    2bf8:	3001      	adds	r0, #1
    2bfa:	6008      	str	r0, [r1, #0]
    2bfc:	e7ff      	b.n	2bfe <xTaskRemoveFromEventList+0x134>
    2bfe:	9803      	ldr	r0, [sp, #12]
    2c00:	6ac0      	ldr	r0, [r0, #44]	; 0x2c
    2c02:	f640 2118 	movw	r1, #2584	; 0xa18
    2c06:	f2c2 0100 	movt	r1, #8192	; 0x2000
    2c0a:	6809      	ldr	r1, [r1, #0]
    2c0c:	6ac9      	ldr	r1, [r1, #44]	; 0x2c
    2c0e:	4288      	cmp	r0, r1
    2c10:	d908      	bls.n	2c24 <xTaskRemoveFromEventList+0x15a>
    2c12:	e7ff      	b.n	2c14 <xTaskRemoveFromEventList+0x14a>
    2c14:	f640 21cc 	movw	r1, #2764	; 0xacc
    2c18:	f2c2 0100 	movt	r1, #8192	; 0x2000
    2c1c:	2001      	movs	r0, #1
    2c1e:	6008      	str	r0, [r1, #0]
    2c20:	9000      	str	r0, [sp, #0]
    2c22:	e002      	b.n	2c2a <xTaskRemoveFromEventList+0x160>
    2c24:	2000      	movs	r0, #0
    2c26:	9000      	str	r0, [sp, #0]
    2c28:	e7ff      	b.n	2c2a <xTaskRemoveFromEventList+0x160>
    2c2a:	9800      	ldr	r0, [sp, #0]
    2c2c:	b004      	add	sp, #16
    2c2e:	bd80      	pop	{r7, pc}

00002c30 <vTaskInternalSetTimeOutState>:
    2c30:	4601      	mov	r1, r0
    2c32:	f640 20f0 	movw	r0, #2800	; 0xaf0
    2c36:	f2c2 0000 	movt	r0, #8192	; 0x2000
    2c3a:	6800      	ldr	r0, [r0, #0]
    2c3c:	6008      	str	r0, [r1, #0]
    2c3e:	f640 2044 	movw	r0, #2628	; 0xa44
    2c42:	f2c2 0000 	movt	r0, #8192	; 0x2000
    2c46:	6800      	ldr	r0, [r0, #0]
    2c48:	6048      	str	r0, [r1, #4]
    2c4a:	4770      	bx	lr

00002c4c <xTaskCheckForTimeOut>:
    2c4c:	b580      	push	{r7, lr}
    2c4e:	466f      	mov	r7, sp
    2c50:	b088      	sub	sp, #32
    2c52:	9106      	str	r1, [sp, #24]
    2c54:	9007      	str	r0, [sp, #28]
    2c56:	b920      	cbnz	r0, 2c62 <xTaskCheckForTimeOut+0x16>
    2c58:	e7ff      	b.n	2c5a <xTaskCheckForTimeOut+0xe>
    2c5a:	f7fe fe33 	bl	18c4 <ulSetInterruptMask>
    2c5e:	e7ff      	b.n	2c60 <xTaskCheckForTimeOut+0x14>
    2c60:	e7fe      	b.n	2c60 <xTaskCheckForTimeOut+0x14>
    2c62:	9806      	ldr	r0, [sp, #24]
    2c64:	b920      	cbnz	r0, 2c70 <xTaskCheckForTimeOut+0x24>
    2c66:	e7ff      	b.n	2c68 <xTaskCheckForTimeOut+0x1c>
    2c68:	f7fe fe2c 	bl	18c4 <ulSetInterruptMask>
    2c6c:	e7ff      	b.n	2c6e <xTaskCheckForTimeOut+0x22>
    2c6e:	e7fe      	b.n	2c6e <xTaskCheckForTimeOut+0x22>
    2c70:	f7fe fd0e 	bl	1690 <vPortEnterCritical>
    2c74:	9a07      	ldr	r2, [sp, #28]
    2c76:	9806      	ldr	r0, [sp, #24]
    2c78:	f640 2144 	movw	r1, #2628	; 0xa44
    2c7c:	f2c2 0100 	movt	r1, #8192	; 0x2000
    2c80:	6809      	ldr	r1, [r1, #0]
    2c82:	9104      	str	r1, [sp, #16]
    2c84:	6852      	ldr	r2, [r2, #4]
    2c86:	1a89      	subs	r1, r1, r2
    2c88:	9105      	str	r1, [sp, #20]
    2c8a:	6800      	ldr	r0, [r0, #0]
    2c8c:	3001      	adds	r0, #1
    2c8e:	b918      	cbnz	r0, 2c98 <xTaskCheckForTimeOut+0x4c>
    2c90:	e7ff      	b.n	2c92 <xTaskCheckForTimeOut+0x46>
    2c92:	2000      	movs	r0, #0
    2c94:	9003      	str	r0, [sp, #12]
    2c96:	e032      	b.n	2cfe <xTaskCheckForTimeOut+0xb2>
    2c98:	9907      	ldr	r1, [sp, #28]
    2c9a:	f640 20f0 	movw	r0, #2800	; 0xaf0
    2c9e:	f2c2 0000 	movt	r0, #8192	; 0x2000
    2ca2:	6800      	ldr	r0, [r0, #0]
    2ca4:	6809      	ldr	r1, [r1, #0]
    2ca6:	4288      	cmp	r0, r1
    2ca8:	d00c      	beq.n	2cc4 <xTaskCheckForTimeOut+0x78>
    2caa:	e7ff      	b.n	2cac <xTaskCheckForTimeOut+0x60>
    2cac:	9804      	ldr	r0, [sp, #16]
    2cae:	9907      	ldr	r1, [sp, #28]
    2cb0:	6849      	ldr	r1, [r1, #4]
    2cb2:	4288      	cmp	r0, r1
    2cb4:	d306      	bcc.n	2cc4 <xTaskCheckForTimeOut+0x78>
    2cb6:	e7ff      	b.n	2cb8 <xTaskCheckForTimeOut+0x6c>
    2cb8:	9906      	ldr	r1, [sp, #24]
    2cba:	2000      	movs	r0, #0
    2cbc:	6008      	str	r0, [r1, #0]
    2cbe:	2001      	movs	r0, #1
    2cc0:	9002      	str	r0, [sp, #8]
    2cc2:	e019      	b.n	2cf8 <xTaskCheckForTimeOut+0xac>
    2cc4:	9805      	ldr	r0, [sp, #20]
    2cc6:	9906      	ldr	r1, [sp, #24]
    2cc8:	6809      	ldr	r1, [r1, #0]
    2cca:	4288      	cmp	r0, r1
    2ccc:	d20b      	bcs.n	2ce6 <xTaskCheckForTimeOut+0x9a>
    2cce:	e7ff      	b.n	2cd0 <xTaskCheckForTimeOut+0x84>
    2cd0:	9807      	ldr	r0, [sp, #28]
    2cd2:	9a06      	ldr	r2, [sp, #24]
    2cd4:	9b05      	ldr	r3, [sp, #20]
    2cd6:	6811      	ldr	r1, [r2, #0]
    2cd8:	1ac9      	subs	r1, r1, r3
    2cda:	6011      	str	r1, [r2, #0]
    2cdc:	f7ff ffa8 	bl	2c30 <vTaskInternalSetTimeOutState>
    2ce0:	2000      	movs	r0, #0
    2ce2:	9001      	str	r0, [sp, #4]
    2ce4:	e005      	b.n	2cf2 <xTaskCheckForTimeOut+0xa6>
    2ce6:	9906      	ldr	r1, [sp, #24]
    2ce8:	2000      	movs	r0, #0
    2cea:	6008      	str	r0, [r1, #0]
    2cec:	2001      	movs	r0, #1
    2cee:	9001      	str	r0, [sp, #4]
    2cf0:	e7ff      	b.n	2cf2 <xTaskCheckForTimeOut+0xa6>
    2cf2:	9801      	ldr	r0, [sp, #4]
    2cf4:	9002      	str	r0, [sp, #8]
    2cf6:	e7ff      	b.n	2cf8 <xTaskCheckForTimeOut+0xac>
    2cf8:	9802      	ldr	r0, [sp, #8]
    2cfa:	9003      	str	r0, [sp, #12]
    2cfc:	e7ff      	b.n	2cfe <xTaskCheckForTimeOut+0xb2>
    2cfe:	9803      	ldr	r0, [sp, #12]
    2d00:	9000      	str	r0, [sp, #0]
    2d02:	f7fe fcd5 	bl	16b0 <vPortExitCritical>
    2d06:	9800      	ldr	r0, [sp, #0]
    2d08:	b008      	add	sp, #32
    2d0a:	bd80      	pop	{r7, pc}

00002d0c <vTaskMissedYield>:
    2d0c:	f640 21cc 	movw	r1, #2764	; 0xacc
    2d10:	f2c2 0100 	movt	r1, #8192	; 0x2000
    2d14:	2001      	movs	r0, #1
    2d16:	6008      	str	r0, [r1, #0]
    2d18:	4770      	bx	lr

00002d1a <xTaskGetSchedulerState>:
    2d1a:	b082      	sub	sp, #8
    2d1c:	f640 203c 	movw	r0, #2620	; 0xa3c
    2d20:	f2c2 0000 	movt	r0, #8192	; 0x2000
    2d24:	6800      	ldr	r0, [r0, #0]
    2d26:	b918      	cbnz	r0, 2d30 <xTaskGetSchedulerState+0x16>
    2d28:	e7ff      	b.n	2d2a <xTaskGetSchedulerState+0x10>
    2d2a:	2001      	movs	r0, #1
    2d2c:	9001      	str	r0, [sp, #4]
    2d2e:	e00f      	b.n	2d50 <xTaskGetSchedulerState+0x36>
    2d30:	f640 2040 	movw	r0, #2624	; 0xa40
    2d34:	f2c2 0000 	movt	r0, #8192	; 0x2000
    2d38:	6800      	ldr	r0, [r0, #0]
    2d3a:	b918      	cbnz	r0, 2d44 <xTaskGetSchedulerState+0x2a>
    2d3c:	e7ff      	b.n	2d3e <xTaskGetSchedulerState+0x24>
    2d3e:	2002      	movs	r0, #2
    2d40:	9000      	str	r0, [sp, #0]
    2d42:	e002      	b.n	2d4a <xTaskGetSchedulerState+0x30>
    2d44:	2000      	movs	r0, #0
    2d46:	9000      	str	r0, [sp, #0]
    2d48:	e7ff      	b.n	2d4a <xTaskGetSchedulerState+0x30>
    2d4a:	9800      	ldr	r0, [sp, #0]
    2d4c:	9001      	str	r0, [sp, #4]
    2d4e:	e7ff      	b.n	2d50 <xTaskGetSchedulerState+0x36>
    2d50:	9801      	ldr	r0, [sp, #4]
    2d52:	b002      	add	sp, #8
    2d54:	4770      	bx	lr

00002d56 <prvInitialiseTaskLists>:
    2d56:	b580      	push	{r7, lr}
    2d58:	466f      	mov	r7, sp
    2d5a:	b084      	sub	sp, #16
    2d5c:	2000      	movs	r0, #0
    2d5e:	9003      	str	r0, [sp, #12]
    2d60:	e7ff      	b.n	2d62 <prvInitialiseTaskLists+0xc>
    2d62:	9803      	ldr	r0, [sp, #12]
    2d64:	9002      	str	r0, [sp, #8]
    2d66:	2804      	cmp	r0, #4
    2d68:	d810      	bhi.n	2d8c <prvInitialiseTaskLists+0x36>
    2d6a:	e7ff      	b.n	2d6c <prvInitialiseTaskLists+0x16>
    2d6c:	9802      	ldr	r0, [sp, #8]
    2d6e:	eb00 0180 	add.w	r1, r0, r0, lsl #2
    2d72:	f640 2064 	movw	r0, #2660	; 0xa64
    2d76:	f2c2 0000 	movt	r0, #8192	; 0x2000
    2d7a:	eb00 0081 	add.w	r0, r0, r1, lsl #2
    2d7e:	f7fe fe01 	bl	1984 <vListInitialise>
    2d82:	e7ff      	b.n	2d84 <prvInitialiseTaskLists+0x2e>
    2d84:	9802      	ldr	r0, [sp, #8]
    2d86:	3001      	adds	r0, #1
    2d88:	9003      	str	r0, [sp, #12]
    2d8a:	e7ea      	b.n	2d62 <prvInitialiseTaskLists+0xc>
    2d8c:	f640 20f4 	movw	r0, #2804	; 0xaf4
    2d90:	f2c2 0000 	movt	r0, #8192	; 0x2000
    2d94:	9000      	str	r0, [sp, #0]
    2d96:	f7fe fdf5 	bl	1984 <vListInitialise>
    2d9a:	f640 3008 	movw	r0, #2824	; 0xb08
    2d9e:	f2c2 0000 	movt	r0, #8192	; 0x2000
    2da2:	9001      	str	r0, [sp, #4]
    2da4:	f7fe fdee 	bl	1984 <vListInitialise>
    2da8:	f640 20d0 	movw	r0, #2768	; 0xad0
    2dac:	f2c2 0000 	movt	r0, #8192	; 0x2000
    2db0:	f7fe fde8 	bl	1984 <vListInitialise>
    2db4:	f640 2020 	movw	r0, #2592	; 0xa20
    2db8:	f2c2 0000 	movt	r0, #8192	; 0x2000
    2dbc:	f7fe fde2 	bl	1984 <vListInitialise>
    2dc0:	f640 2050 	movw	r0, #2640	; 0xa50
    2dc4:	f2c2 0000 	movt	r0, #8192	; 0x2000
    2dc8:	f7fe fddc 	bl	1984 <vListInitialise>
    2dcc:	9900      	ldr	r1, [sp, #0]
    2dce:	9801      	ldr	r0, [sp, #4]
    2dd0:	f640 2248 	movw	r2, #2632	; 0xa48
    2dd4:	f2c2 0200 	movt	r2, #8192	; 0x2000
    2dd8:	6011      	str	r1, [r2, #0]
    2dda:	f640 214c 	movw	r1, #2636	; 0xa4c
    2dde:	f2c2 0100 	movt	r1, #8192	; 0x2000
    2de2:	6008      	str	r0, [r1, #0]
    2de4:	b004      	add	sp, #16
    2de6:	bd80      	pop	{r7, pc}

00002de8 <prvCheckTasksWaitingTermination>:
    2de8:	b580      	push	{r7, lr}
    2dea:	466f      	mov	r7, sp
    2dec:	b082      	sub	sp, #8
    2dee:	e7ff      	b.n	2df0 <prvCheckTasksWaitingTermination+0x8>
    2df0:	f640 2034 	movw	r0, #2612	; 0xa34
    2df4:	f2c2 0000 	movt	r0, #8192	; 0x2000
    2df8:	6800      	ldr	r0, [r0, #0]
    2dfa:	b300      	cbz	r0, 2e3e <prvCheckTasksWaitingTermination+0x56>
    2dfc:	e7ff      	b.n	2dfe <prvCheckTasksWaitingTermination+0x16>
    2dfe:	f7fe fc47 	bl	1690 <vPortEnterCritical>
    2e02:	f640 2020 	movw	r0, #2592	; 0xa20
    2e06:	f2c2 0000 	movt	r0, #8192	; 0x2000
    2e0a:	68c0      	ldr	r0, [r0, #12]
    2e0c:	68c0      	ldr	r0, [r0, #12]
    2e0e:	9001      	str	r0, [sp, #4]
    2e10:	3004      	adds	r0, #4
    2e12:	f7fe fdf6 	bl	1a02 <uxListRemove>
    2e16:	f640 2138 	movw	r1, #2616	; 0xa38
    2e1a:	f2c2 0100 	movt	r1, #8192	; 0x2000
    2e1e:	6808      	ldr	r0, [r1, #0]
    2e20:	3801      	subs	r0, #1
    2e22:	6008      	str	r0, [r1, #0]
    2e24:	f640 2134 	movw	r1, #2612	; 0xa34
    2e28:	f2c2 0100 	movt	r1, #8192	; 0x2000
    2e2c:	6808      	ldr	r0, [r1, #0]
    2e2e:	3801      	subs	r0, #1
    2e30:	6008      	str	r0, [r1, #0]
    2e32:	f7fe fc3d 	bl	16b0 <vPortExitCritical>
    2e36:	9801      	ldr	r0, [sp, #4]
    2e38:	f7ff fa4b 	bl	22d2 <prvDeleteTCB>
    2e3c:	e7d8      	b.n	2df0 <prvCheckTasksWaitingTermination+0x8>
    2e3e:	b002      	add	sp, #8
    2e40:	bd80      	pop	{r7, pc}

00002e42 <xTimerCreateTimerTask>:
    2e42:	b580      	push	{r7, lr}
    2e44:	466f      	mov	r7, sp
    2e46:	b084      	sub	sp, #16
    2e48:	f000 f82b 	bl	2ea2 <prvCheckForValidListAndQueue>
    2e4c:	f640 301c 	movw	r0, #2844	; 0xb1c
    2e50:	f2c2 0000 	movt	r0, #8192	; 0x2000
    2e54:	6800      	ldr	r0, [r0, #0]
    2e56:	b1b0      	cbz	r0, 2e86 <xTimerCreateTimerTask+0x44>
    2e58:	e7ff      	b.n	2e5a <xTimerCreateTimerTask+0x18>
    2e5a:	f640 3020 	movw	r0, #2848	; 0xb20
    2e5e:	f2c2 0000 	movt	r0, #8192	; 0x2000
    2e62:	4669      	mov	r1, sp
    2e64:	6048      	str	r0, [r1, #4]
    2e66:	2004      	movs	r0, #4
    2e68:	6008      	str	r0, [r1, #0]
    2e6a:	f642 7031 	movw	r0, #12081	; 0x2f31
    2e6e:	f2c0 0000 	movt	r0, #0
    2e72:	f646 21f9 	movw	r1, #27385	; 0x6af9
    2e76:	f2c0 0100 	movt	r1, #0
    2e7a:	2280      	movs	r2, #128	; 0x80
    2e7c:	2300      	movs	r3, #0
    2e7e:	f7ff f896 	bl	1fae <xTaskCreate>
    2e82:	9003      	str	r0, [sp, #12]
    2e84:	e002      	b.n	2e8c <xTimerCreateTimerTask+0x4a>
    2e86:	2000      	movs	r0, #0
    2e88:	9003      	str	r0, [sp, #12]
    2e8a:	e7ff      	b.n	2e8c <xTimerCreateTimerTask+0x4a>
    2e8c:	9803      	ldr	r0, [sp, #12]
    2e8e:	9002      	str	r0, [sp, #8]
    2e90:	b920      	cbnz	r0, 2e9c <xTimerCreateTimerTask+0x5a>
    2e92:	e7ff      	b.n	2e94 <xTimerCreateTimerTask+0x52>
    2e94:	f7fe fd16 	bl	18c4 <ulSetInterruptMask>
    2e98:	e7ff      	b.n	2e9a <xTimerCreateTimerTask+0x58>
    2e9a:	e7fe      	b.n	2e9a <xTimerCreateTimerTask+0x58>
    2e9c:	9802      	ldr	r0, [sp, #8]
    2e9e:	b004      	add	sp, #16
    2ea0:	bd80      	pop	{r7, pc}

00002ea2 <prvCheckForValidListAndQueue>:
    2ea2:	b580      	push	{r7, lr}
    2ea4:	466f      	mov	r7, sp
    2ea6:	b082      	sub	sp, #8
    2ea8:	f7fe fbf2 	bl	1690 <vPortEnterCritical>
    2eac:	f640 301c 	movw	r0, #2844	; 0xb1c
    2eb0:	f2c2 0000 	movt	r0, #8192	; 0x2000
    2eb4:	6800      	ldr	r0, [r0, #0]
    2eb6:	bbb0      	cbnz	r0, 2f26 <prvCheckForValidListAndQueue+0x84>
    2eb8:	e7ff      	b.n	2eba <prvCheckForValidListAndQueue+0x18>
    2eba:	f640 3030 	movw	r0, #2864	; 0xb30
    2ebe:	f2c2 0000 	movt	r0, #8192	; 0x2000
    2ec2:	9000      	str	r0, [sp, #0]
    2ec4:	f7fe fd5e 	bl	1984 <vListInitialise>
    2ec8:	f640 3044 	movw	r0, #2884	; 0xb44
    2ecc:	f2c2 0000 	movt	r0, #8192	; 0x2000
    2ed0:	9001      	str	r0, [sp, #4]
    2ed2:	f7fe fd57 	bl	1984 <vListInitialise>
    2ed6:	9900      	ldr	r1, [sp, #0]
    2ed8:	9801      	ldr	r0, [sp, #4]
    2eda:	f640 3224 	movw	r2, #2852	; 0xb24
    2ede:	f2c2 0200 	movt	r2, #8192	; 0x2000
    2ee2:	6011      	str	r1, [r2, #0]
    2ee4:	f640 3128 	movw	r1, #2856	; 0xb28
    2ee8:	f2c2 0100 	movt	r1, #8192	; 0x2000
    2eec:	6008      	str	r0, [r1, #0]
    2eee:	200a      	movs	r0, #10
    2ef0:	2110      	movs	r1, #16
    2ef2:	2200      	movs	r2, #0
    2ef4:	f7fe fe0d 	bl	1b12 <xQueueGenericCreate>
    2ef8:	4601      	mov	r1, r0
    2efa:	f640 301c 	movw	r0, #2844	; 0xb1c
    2efe:	f2c2 0000 	movt	r0, #8192	; 0x2000
    2f02:	6001      	str	r1, [r0, #0]
    2f04:	6800      	ldr	r0, [r0, #0]
    2f06:	b160      	cbz	r0, 2f22 <prvCheckForValidListAndQueue+0x80>
    2f08:	e7ff      	b.n	2f0a <prvCheckForValidListAndQueue+0x68>
    2f0a:	f640 301c 	movw	r0, #2844	; 0xb1c
    2f0e:	f2c2 0000 	movt	r0, #8192	; 0x2000
    2f12:	6800      	ldr	r0, [r0, #0]
    2f14:	f646 3101 	movw	r1, #27393	; 0x6b01
    2f18:	f2c0 0100 	movt	r1, #0
    2f1c:	f7fe ffb2 	bl	1e84 <vQueueAddToRegistry>
    2f20:	e000      	b.n	2f24 <prvCheckForValidListAndQueue+0x82>
    2f22:	e7ff      	b.n	2f24 <prvCheckForValidListAndQueue+0x82>
    2f24:	e000      	b.n	2f28 <prvCheckForValidListAndQueue+0x86>
    2f26:	e7ff      	b.n	2f28 <prvCheckForValidListAndQueue+0x86>
    2f28:	f7fe fbc2 	bl	16b0 <vPortExitCritical>
    2f2c:	b002      	add	sp, #8
    2f2e:	bd80      	pop	{r7, pc}

00002f30 <prvTimerTask>:
    2f30:	b580      	push	{r7, lr}
    2f32:	466f      	mov	r7, sp
    2f34:	b082      	sub	sp, #8
    2f36:	e7ff      	b.n	2f38 <prvTimerTask+0x8>
    2f38:	a801      	add	r0, sp, #4
    2f3a:	f000 f806 	bl	2f4a <prvGetNextExpireTime>
    2f3e:	9901      	ldr	r1, [sp, #4]
    2f40:	f000 f820 	bl	2f84 <prvProcessTimerOrBlockTask>
    2f44:	f000 f864 	bl	3010 <prvProcessReceivedCommands>
    2f48:	e7f6      	b.n	2f38 <prvTimerTask+0x8>

00002f4a <prvGetNextExpireTime>:
    2f4a:	b081      	sub	sp, #4
    2f4c:	f640 3124 	movw	r1, #2852	; 0xb24
    2f50:	f2c2 0100 	movt	r1, #8192	; 0x2000
    2f54:	6809      	ldr	r1, [r1, #0]
    2f56:	6809      	ldr	r1, [r1, #0]
    2f58:	fab1 f181 	clz	r1, r1
    2f5c:	0949      	lsrs	r1, r1, #5
    2f5e:	6001      	str	r1, [r0, #0]
    2f60:	6800      	ldr	r0, [r0, #0]
    2f62:	b948      	cbnz	r0, 2f78 <prvGetNextExpireTime+0x2e>
    2f64:	e7ff      	b.n	2f66 <prvGetNextExpireTime+0x1c>
    2f66:	f640 3024 	movw	r0, #2852	; 0xb24
    2f6a:	f2c2 0000 	movt	r0, #8192	; 0x2000
    2f6e:	6800      	ldr	r0, [r0, #0]
    2f70:	68c0      	ldr	r0, [r0, #12]
    2f72:	6800      	ldr	r0, [r0, #0]
    2f74:	9000      	str	r0, [sp, #0]
    2f76:	e002      	b.n	2f7e <prvGetNextExpireTime+0x34>
    2f78:	2000      	movs	r0, #0
    2f7a:	9000      	str	r0, [sp, #0]
    2f7c:	e7ff      	b.n	2f7e <prvGetNextExpireTime+0x34>
    2f7e:	9800      	ldr	r0, [sp, #0]
    2f80:	b001      	add	sp, #4
    2f82:	4770      	bx	lr

00002f84 <prvProcessTimerOrBlockTask>:
    2f84:	b580      	push	{r7, lr}
    2f86:	466f      	mov	r7, sp
    2f88:	b086      	sub	sp, #24
    2f8a:	9102      	str	r1, [sp, #8]
    2f8c:	9003      	str	r0, [sp, #12]
    2f8e:	f7ff f9ac 	bl	22ea <vTaskSuspendAll>
    2f92:	a805      	add	r0, sp, #20
    2f94:	f000 f8ea 	bl	316c <prvSampleTimeNow>
    2f98:	9004      	str	r0, [sp, #16]
    2f9a:	9805      	ldr	r0, [sp, #20]
    2f9c:	bb98      	cbnz	r0, 3006 <prvProcessTimerOrBlockTask+0x82>
    2f9e:	e7ff      	b.n	2fa0 <prvProcessTimerOrBlockTask+0x1c>
    2fa0:	9802      	ldr	r0, [sp, #8]
    2fa2:	b960      	cbnz	r0, 2fbe <prvProcessTimerOrBlockTask+0x3a>
    2fa4:	e7ff      	b.n	2fa6 <prvProcessTimerOrBlockTask+0x22>
    2fa6:	9803      	ldr	r0, [sp, #12]
    2fa8:	9904      	ldr	r1, [sp, #16]
    2faa:	4288      	cmp	r0, r1
    2fac:	d807      	bhi.n	2fbe <prvProcessTimerOrBlockTask+0x3a>
    2fae:	e7ff      	b.n	2fb0 <prvProcessTimerOrBlockTask+0x2c>
    2fb0:	f7ff fa1e 	bl	23f0 <xTaskResumeAll>
    2fb4:	9904      	ldr	r1, [sp, #16]
    2fb6:	9803      	ldr	r0, [sp, #12]
    2fb8:	f000 f8fa 	bl	31b0 <prvProcessExpiredTimer>
    2fbc:	e022      	b.n	3004 <prvProcessTimerOrBlockTask+0x80>
    2fbe:	9802      	ldr	r0, [sp, #8]
    2fc0:	9001      	str	r0, [sp, #4]
    2fc2:	b158      	cbz	r0, 2fdc <prvProcessTimerOrBlockTask+0x58>
    2fc4:	e7ff      	b.n	2fc6 <prvProcessTimerOrBlockTask+0x42>
    2fc6:	f640 3028 	movw	r0, #2856	; 0xb28
    2fca:	f2c2 0000 	movt	r0, #8192	; 0x2000
    2fce:	6800      	ldr	r0, [r0, #0]
    2fd0:	6800      	ldr	r0, [r0, #0]
    2fd2:	fab0 f080 	clz	r0, r0
    2fd6:	0940      	lsrs	r0, r0, #5
    2fd8:	9001      	str	r0, [sp, #4]
    2fda:	e7ff      	b.n	2fdc <prvProcessTimerOrBlockTask+0x58>
    2fdc:	9903      	ldr	r1, [sp, #12]
    2fde:	9b04      	ldr	r3, [sp, #16]
    2fe0:	9a01      	ldr	r2, [sp, #4]
    2fe2:	f640 301c 	movw	r0, #2844	; 0xb1c
    2fe6:	f2c2 0000 	movt	r0, #8192	; 0x2000
    2fea:	6800      	ldr	r0, [r0, #0]
    2fec:	1ac9      	subs	r1, r1, r3
    2fee:	f7fe ffad 	bl	1f4c <vQueueWaitForMessageRestricted>
    2ff2:	f7ff f9fd 	bl	23f0 <xTaskResumeAll>
    2ff6:	b918      	cbnz	r0, 3000 <prvProcessTimerOrBlockTask+0x7c>
    2ff8:	e7ff      	b.n	2ffa <prvProcessTimerOrBlockTask+0x76>
    2ffa:	f7fe fb3d 	bl	1678 <vPortYield>
    2ffe:	e000      	b.n	3002 <prvProcessTimerOrBlockTask+0x7e>
    3000:	e7ff      	b.n	3002 <prvProcessTimerOrBlockTask+0x7e>
    3002:	e7ff      	b.n	3004 <prvProcessTimerOrBlockTask+0x80>
    3004:	e002      	b.n	300c <prvProcessTimerOrBlockTask+0x88>
    3006:	f7ff f9f3 	bl	23f0 <xTaskResumeAll>
    300a:	e7ff      	b.n	300c <prvProcessTimerOrBlockTask+0x88>
    300c:	b006      	add	sp, #24
    300e:	bd80      	pop	{r7, pc}

00003010 <prvProcessReceivedCommands>:
    3010:	b580      	push	{r7, lr}
    3012:	466f      	mov	r7, sp
    3014:	b08a      	sub	sp, #40	; 0x28
    3016:	e7ff      	b.n	3018 <prvProcessReceivedCommands+0x8>
    3018:	f640 301c 	movw	r0, #2844	; 0xb1c
    301c:	f2c2 0000 	movt	r0, #8192	; 0x2000
    3020:	6800      	ldr	r0, [r0, #0]
    3022:	a906      	add	r1, sp, #24
    3024:	2200      	movs	r2, #0
    3026:	f7fe fe2b 	bl	1c80 <xQueueReceive>
    302a:	2800      	cmp	r0, #0
    302c:	f000 809c 	beq.w	3168 <prvProcessReceivedCommands+0x158>
    3030:	e7ff      	b.n	3032 <prvProcessReceivedCommands+0x22>
    3032:	9806      	ldr	r0, [sp, #24]
    3034:	f1b0 3fff 	cmp.w	r0, #4294967295	; 0xffffffff
    3038:	dc10      	bgt.n	305c <prvProcessReceivedCommands+0x4c>
    303a:	e7ff      	b.n	303c <prvProcessReceivedCommands+0x2c>
    303c:	a806      	add	r0, sp, #24
    303e:	3004      	adds	r0, #4
    3040:	4601      	mov	r1, r0
    3042:	9104      	str	r1, [sp, #16]
    3044:	b920      	cbnz	r0, 3050 <prvProcessReceivedCommands+0x40>
    3046:	e7ff      	b.n	3048 <prvProcessReceivedCommands+0x38>
    3048:	f7fe fc3c 	bl	18c4 <ulSetInterruptMask>
    304c:	e7ff      	b.n	304e <prvProcessReceivedCommands+0x3e>
    304e:	e7fe      	b.n	304e <prvProcessReceivedCommands+0x3e>
    3050:	9904      	ldr	r1, [sp, #16]
    3052:	680a      	ldr	r2, [r1, #0]
    3054:	6848      	ldr	r0, [r1, #4]
    3056:	6889      	ldr	r1, [r1, #8]
    3058:	4790      	blx	r2
    305a:	e000      	b.n	305e <prvProcessReceivedCommands+0x4e>
    305c:	e7ff      	b.n	305e <prvProcessReceivedCommands+0x4e>
    305e:	9806      	ldr	r0, [sp, #24]
    3060:	2800      	cmp	r0, #0
    3062:	f100 8080 	bmi.w	3166 <prvProcessReceivedCommands+0x156>
    3066:	e7ff      	b.n	3068 <prvProcessReceivedCommands+0x58>
    3068:	9808      	ldr	r0, [sp, #32]
    306a:	9003      	str	r0, [sp, #12]
    306c:	6940      	ldr	r0, [r0, #20]
    306e:	b128      	cbz	r0, 307c <prvProcessReceivedCommands+0x6c>
    3070:	e7ff      	b.n	3072 <prvProcessReceivedCommands+0x62>
    3072:	9803      	ldr	r0, [sp, #12]
    3074:	3004      	adds	r0, #4
    3076:	f7fe fcc4 	bl	1a02 <uxListRemove>
    307a:	e000      	b.n	307e <prvProcessReceivedCommands+0x6e>
    307c:	e7ff      	b.n	307e <prvProcessReceivedCommands+0x6e>
    307e:	a805      	add	r0, sp, #20
    3080:	f000 f874 	bl	316c <prvSampleTimeNow>
    3084:	9001      	str	r0, [sp, #4]
    3086:	9806      	ldr	r0, [sp, #24]
    3088:	3801      	subs	r0, #1
    308a:	4601      	mov	r1, r0
    308c:	9102      	str	r1, [sp, #8]
    308e:	2808      	cmp	r0, #8
    3090:	d867      	bhi.n	3162 <prvProcessReceivedCommands+0x152>
    3092:	9902      	ldr	r1, [sp, #8]
    3094:	e8df f001 	tbb	[pc, r1]
    3098:	39310505 	.word	0x39310505
    309c:	31050551 	.word	0x31050551
    30a0:	0039      	.short	0x0039
    30a2:	9a01      	ldr	r2, [sp, #4]
    30a4:	9803      	ldr	r0, [sp, #12]
    30a6:	f890 1028 	ldrb.w	r1, [r0, #40]	; 0x28
    30aa:	f041 0101 	orr.w	r1, r1, #1
    30ae:	f880 1028 	strb.w	r1, [r0, #40]	; 0x28
    30b2:	9b07      	ldr	r3, [sp, #28]
    30b4:	6981      	ldr	r1, [r0, #24]
    30b6:	4419      	add	r1, r3
    30b8:	f000 f8e5 	bl	3286 <prvInsertTimerInActiveList>
    30bc:	b1d8      	cbz	r0, 30f6 <prvProcessReceivedCommands+0xe6>
    30be:	e7ff      	b.n	30c0 <prvProcessReceivedCommands+0xb0>
    30c0:	9803      	ldr	r0, [sp, #12]
    30c2:	f890 0028 	ldrb.w	r0, [r0, #40]	; 0x28
    30c6:	0740      	lsls	r0, r0, #29
    30c8:	2800      	cmp	r0, #0
    30ca:	d508      	bpl.n	30de <prvProcessReceivedCommands+0xce>
    30cc:	e7ff      	b.n	30ce <prvProcessReceivedCommands+0xbe>
    30ce:	9a01      	ldr	r2, [sp, #4]
    30d0:	9803      	ldr	r0, [sp, #12]
    30d2:	9907      	ldr	r1, [sp, #28]
    30d4:	6983      	ldr	r3, [r0, #24]
    30d6:	4419      	add	r1, r3
    30d8:	f000 f8b8 	bl	324c <prvReloadTimer>
    30dc:	e007      	b.n	30ee <prvProcessReceivedCommands+0xde>
    30de:	9903      	ldr	r1, [sp, #12]
    30e0:	f891 0028 	ldrb.w	r0, [r1, #40]	; 0x28
    30e4:	f000 00fe 	and.w	r0, r0, #254	; 0xfe
    30e8:	f881 0028 	strb.w	r0, [r1, #40]	; 0x28
    30ec:	e7ff      	b.n	30ee <prvProcessReceivedCommands+0xde>
    30ee:	9803      	ldr	r0, [sp, #12]
    30f0:	6a01      	ldr	r1, [r0, #32]
    30f2:	4788      	blx	r1
    30f4:	e000      	b.n	30f8 <prvProcessReceivedCommands+0xe8>
    30f6:	e7ff      	b.n	30f8 <prvProcessReceivedCommands+0xe8>
    30f8:	e034      	b.n	3164 <prvProcessReceivedCommands+0x154>
    30fa:	9903      	ldr	r1, [sp, #12]
    30fc:	f891 0028 	ldrb.w	r0, [r1, #40]	; 0x28
    3100:	f000 00fe 	and.w	r0, r0, #254	; 0xfe
    3104:	f881 0028 	strb.w	r0, [r1, #40]	; 0x28
    3108:	e02c      	b.n	3164 <prvProcessReceivedCommands+0x154>
    310a:	9803      	ldr	r0, [sp, #12]
    310c:	f890 1028 	ldrb.w	r1, [r0, #40]	; 0x28
    3110:	f041 0101 	orr.w	r1, r1, #1
    3114:	f880 1028 	strb.w	r1, [r0, #40]	; 0x28
    3118:	9907      	ldr	r1, [sp, #28]
    311a:	6181      	str	r1, [r0, #24]
    311c:	6980      	ldr	r0, [r0, #24]
    311e:	b920      	cbnz	r0, 312a <prvProcessReceivedCommands+0x11a>
    3120:	e7ff      	b.n	3122 <prvProcessReceivedCommands+0x112>
    3122:	f7fe fbcf 	bl	18c4 <ulSetInterruptMask>
    3126:	e7ff      	b.n	3128 <prvProcessReceivedCommands+0x118>
    3128:	e7fe      	b.n	3128 <prvProcessReceivedCommands+0x118>
    312a:	9b01      	ldr	r3, [sp, #4]
    312c:	9803      	ldr	r0, [sp, #12]
    312e:	6981      	ldr	r1, [r0, #24]
    3130:	4419      	add	r1, r3
    3132:	461a      	mov	r2, r3
    3134:	f000 f8a7 	bl	3286 <prvInsertTimerInActiveList>
    3138:	e014      	b.n	3164 <prvProcessReceivedCommands+0x154>
    313a:	9803      	ldr	r0, [sp, #12]
    313c:	f890 0028 	ldrb.w	r0, [r0, #40]	; 0x28
    3140:	0780      	lsls	r0, r0, #30
    3142:	2800      	cmp	r0, #0
    3144:	d404      	bmi.n	3150 <prvProcessReceivedCommands+0x140>
    3146:	e7ff      	b.n	3148 <prvProcessReceivedCommands+0x138>
    3148:	9803      	ldr	r0, [sp, #12]
    314a:	f000 fa66 	bl	361a <vPortFree>
    314e:	e007      	b.n	3160 <prvProcessReceivedCommands+0x150>
    3150:	9903      	ldr	r1, [sp, #12]
    3152:	f891 0028 	ldrb.w	r0, [r1, #40]	; 0x28
    3156:	f000 00fe 	and.w	r0, r0, #254	; 0xfe
    315a:	f881 0028 	strb.w	r0, [r1, #40]	; 0x28
    315e:	e7ff      	b.n	3160 <prvProcessReceivedCommands+0x150>
    3160:	e000      	b.n	3164 <prvProcessReceivedCommands+0x154>
    3162:	e7ff      	b.n	3164 <prvProcessReceivedCommands+0x154>
    3164:	e7ff      	b.n	3166 <prvProcessReceivedCommands+0x156>
    3166:	e757      	b.n	3018 <prvProcessReceivedCommands+0x8>
    3168:	b00a      	add	sp, #40	; 0x28
    316a:	bd80      	pop	{r7, pc}

0000316c <prvSampleTimeNow>:
    316c:	b580      	push	{r7, lr}
    316e:	466f      	mov	r7, sp
    3170:	b082      	sub	sp, #8
    3172:	9000      	str	r0, [sp, #0]
    3174:	f7ff fc4b 	bl	2a0e <xTaskGetTickCount>
    3178:	4601      	mov	r1, r0
    317a:	9101      	str	r1, [sp, #4]
    317c:	f640 312c 	movw	r1, #2860	; 0xb2c
    3180:	f2c2 0100 	movt	r1, #8192	; 0x2000
    3184:	6809      	ldr	r1, [r1, #0]
    3186:	4288      	cmp	r0, r1
    3188:	d206      	bcs.n	3198 <prvSampleTimeNow+0x2c>
    318a:	e7ff      	b.n	318c <prvSampleTimeNow+0x20>
    318c:	f000 f83a 	bl	3204 <prvSwitchTimerLists>
    3190:	9900      	ldr	r1, [sp, #0]
    3192:	2001      	movs	r0, #1
    3194:	6008      	str	r0, [r1, #0]
    3196:	e003      	b.n	31a0 <prvSampleTimeNow+0x34>
    3198:	9900      	ldr	r1, [sp, #0]
    319a:	2000      	movs	r0, #0
    319c:	6008      	str	r0, [r1, #0]
    319e:	e7ff      	b.n	31a0 <prvSampleTimeNow+0x34>
    31a0:	9801      	ldr	r0, [sp, #4]
    31a2:	f640 312c 	movw	r1, #2860	; 0xb2c
    31a6:	f2c2 0100 	movt	r1, #8192	; 0x2000
    31aa:	6008      	str	r0, [r1, #0]
    31ac:	b002      	add	sp, #8
    31ae:	bd80      	pop	{r7, pc}

000031b0 <prvProcessExpiredTimer>:
    31b0:	b580      	push	{r7, lr}
    31b2:	466f      	mov	r7, sp
    31b4:	b084      	sub	sp, #16
    31b6:	9101      	str	r1, [sp, #4]
    31b8:	9002      	str	r0, [sp, #8]
    31ba:	f640 3024 	movw	r0, #2852	; 0xb24
    31be:	f2c2 0000 	movt	r0, #8192	; 0x2000
    31c2:	6800      	ldr	r0, [r0, #0]
    31c4:	68c0      	ldr	r0, [r0, #12]
    31c6:	68c0      	ldr	r0, [r0, #12]
    31c8:	9003      	str	r0, [sp, #12]
    31ca:	3004      	adds	r0, #4
    31cc:	f7fe fc19 	bl	1a02 <uxListRemove>
    31d0:	9803      	ldr	r0, [sp, #12]
    31d2:	f890 0028 	ldrb.w	r0, [r0, #40]	; 0x28
    31d6:	0740      	lsls	r0, r0, #29
    31d8:	2800      	cmp	r0, #0
    31da:	d506      	bpl.n	31ea <prvProcessExpiredTimer+0x3a>
    31dc:	e7ff      	b.n	31de <prvProcessExpiredTimer+0x2e>
    31de:	9a01      	ldr	r2, [sp, #4]
    31e0:	9902      	ldr	r1, [sp, #8]
    31e2:	9803      	ldr	r0, [sp, #12]
    31e4:	f000 f832 	bl	324c <prvReloadTimer>
    31e8:	e007      	b.n	31fa <prvProcessExpiredTimer+0x4a>
    31ea:	9903      	ldr	r1, [sp, #12]
    31ec:	f891 0028 	ldrb.w	r0, [r1, #40]	; 0x28
    31f0:	f000 00fe 	and.w	r0, r0, #254	; 0xfe
    31f4:	f881 0028 	strb.w	r0, [r1, #40]	; 0x28
    31f8:	e7ff      	b.n	31fa <prvProcessExpiredTimer+0x4a>
    31fa:	9803      	ldr	r0, [sp, #12]
    31fc:	6a01      	ldr	r1, [r0, #32]
    31fe:	4788      	blx	r1
    3200:	b004      	add	sp, #16
    3202:	bd80      	pop	{r7, pc}

00003204 <prvSwitchTimerLists>:
    3204:	b580      	push	{r7, lr}
    3206:	466f      	mov	r7, sp
    3208:	e7ff      	b.n	320a <prvSwitchTimerLists+0x6>
    320a:	f640 3024 	movw	r0, #2852	; 0xb24
    320e:	f2c2 0000 	movt	r0, #8192	; 0x2000
    3212:	6800      	ldr	r0, [r0, #0]
    3214:	6800      	ldr	r0, [r0, #0]
    3216:	b160      	cbz	r0, 3232 <prvSwitchTimerLists+0x2e>
    3218:	e7ff      	b.n	321a <prvSwitchTimerLists+0x16>
    321a:	f640 3024 	movw	r0, #2852	; 0xb24
    321e:	f2c2 0000 	movt	r0, #8192	; 0x2000
    3222:	6800      	ldr	r0, [r0, #0]
    3224:	68c0      	ldr	r0, [r0, #12]
    3226:	6800      	ldr	r0, [r0, #0]
    3228:	f04f 31ff 	mov.w	r1, #4294967295	; 0xffffffff
    322c:	f7ff ffc0 	bl	31b0 <prvProcessExpiredTimer>
    3230:	e7eb      	b.n	320a <prvSwitchTimerLists+0x6>
    3232:	f640 3324 	movw	r3, #2852	; 0xb24
    3236:	f2c2 0300 	movt	r3, #8192	; 0x2000
    323a:	6818      	ldr	r0, [r3, #0]
    323c:	f640 3128 	movw	r1, #2856	; 0xb28
    3240:	f2c2 0100 	movt	r1, #8192	; 0x2000
    3244:	680a      	ldr	r2, [r1, #0]
    3246:	601a      	str	r2, [r3, #0]
    3248:	6008      	str	r0, [r1, #0]
    324a:	bd80      	pop	{r7, pc}

0000324c <prvReloadTimer>:
    324c:	b580      	push	{r7, lr}
    324e:	466f      	mov	r7, sp
    3250:	b086      	sub	sp, #24
    3252:	9203      	str	r2, [sp, #12]
    3254:	9004      	str	r0, [sp, #16]
    3256:	9105      	str	r1, [sp, #20]
    3258:	e7ff      	b.n	325a <prvReloadTimer+0xe>
    325a:	9a03      	ldr	r2, [sp, #12]
    325c:	9804      	ldr	r0, [sp, #16]
    325e:	9b05      	ldr	r3, [sp, #20]
    3260:	9302      	str	r3, [sp, #8]
    3262:	6981      	ldr	r1, [r0, #24]
    3264:	4419      	add	r1, r3
    3266:	f000 f80e 	bl	3286 <prvInsertTimerInActiveList>
    326a:	b150      	cbz	r0, 3282 <prvReloadTimer+0x36>
    326c:	e7ff      	b.n	326e <prvReloadTimer+0x22>
    326e:	9804      	ldr	r0, [sp, #16]
    3270:	9a02      	ldr	r2, [sp, #8]
    3272:	6983      	ldr	r3, [r0, #24]
    3274:	6a01      	ldr	r1, [r0, #32]
    3276:	441a      	add	r2, r3
    3278:	9201      	str	r2, [sp, #4]
    327a:	4788      	blx	r1
    327c:	9801      	ldr	r0, [sp, #4]
    327e:	9005      	str	r0, [sp, #20]
    3280:	e7eb      	b.n	325a <prvReloadTimer+0xe>
    3282:	b006      	add	sp, #24
    3284:	bd80      	pop	{r7, pc}

00003286 <prvInsertTimerInActiveList>:
    3286:	b580      	push	{r7, lr}
    3288:	466f      	mov	r7, sp
    328a:	b088      	sub	sp, #32
    328c:	9304      	str	r3, [sp, #16]
    328e:	9205      	str	r2, [sp, #20]
    3290:	9106      	str	r1, [sp, #24]
    3292:	9007      	str	r0, [sp, #28]
    3294:	6041      	str	r1, [r0, #4]
    3296:	6100      	str	r0, [r0, #16]
    3298:	4291      	cmp	r1, r2
    329a:	d81a      	bhi.n	32d2 <prvInsertTimerInActiveList+0x4c>
    329c:	e7ff      	b.n	329e <prvInsertTimerInActiveList+0x18>
    329e:	9907      	ldr	r1, [sp, #28]
    32a0:	9805      	ldr	r0, [sp, #20]
    32a2:	9a04      	ldr	r2, [sp, #16]
    32a4:	1a80      	subs	r0, r0, r2
    32a6:	6989      	ldr	r1, [r1, #24]
    32a8:	4288      	cmp	r0, r1
    32aa:	d303      	bcc.n	32b4 <prvInsertTimerInActiveList+0x2e>
    32ac:	e7ff      	b.n	32ae <prvInsertTimerInActiveList+0x28>
    32ae:	2001      	movs	r0, #1
    32b0:	9003      	str	r0, [sp, #12]
    32b2:	e00b      	b.n	32cc <prvInsertTimerInActiveList+0x46>
    32b4:	9907      	ldr	r1, [sp, #28]
    32b6:	f640 3028 	movw	r0, #2856	; 0xb28
    32ba:	f2c2 0000 	movt	r0, #8192	; 0x2000
    32be:	6800      	ldr	r0, [r0, #0]
    32c0:	3104      	adds	r1, #4
    32c2:	f7fe fb6f 	bl	19a4 <vListInsert>
    32c6:	2000      	movs	r0, #0
    32c8:	9003      	str	r0, [sp, #12]
    32ca:	e7ff      	b.n	32cc <prvInsertTimerInActiveList+0x46>
    32cc:	9803      	ldr	r0, [sp, #12]
    32ce:	9002      	str	r0, [sp, #8]
    32d0:	e01b      	b.n	330a <prvInsertTimerInActiveList+0x84>
    32d2:	9805      	ldr	r0, [sp, #20]
    32d4:	9904      	ldr	r1, [sp, #16]
    32d6:	4288      	cmp	r0, r1
    32d8:	d208      	bcs.n	32ec <prvInsertTimerInActiveList+0x66>
    32da:	e7ff      	b.n	32dc <prvInsertTimerInActiveList+0x56>
    32dc:	9806      	ldr	r0, [sp, #24]
    32de:	9904      	ldr	r1, [sp, #16]
    32e0:	4288      	cmp	r0, r1
    32e2:	d303      	bcc.n	32ec <prvInsertTimerInActiveList+0x66>
    32e4:	e7ff      	b.n	32e6 <prvInsertTimerInActiveList+0x60>
    32e6:	2001      	movs	r0, #1
    32e8:	9001      	str	r0, [sp, #4]
    32ea:	e00b      	b.n	3304 <prvInsertTimerInActiveList+0x7e>
    32ec:	9907      	ldr	r1, [sp, #28]
    32ee:	f640 3024 	movw	r0, #2852	; 0xb24
    32f2:	f2c2 0000 	movt	r0, #8192	; 0x2000
    32f6:	6800      	ldr	r0, [r0, #0]
    32f8:	3104      	adds	r1, #4
    32fa:	f7fe fb53 	bl	19a4 <vListInsert>
    32fe:	2000      	movs	r0, #0
    3300:	9001      	str	r0, [sp, #4]
    3302:	e7ff      	b.n	3304 <prvInsertTimerInActiveList+0x7e>
    3304:	9801      	ldr	r0, [sp, #4]
    3306:	9002      	str	r0, [sp, #8]
    3308:	e7ff      	b.n	330a <prvInsertTimerInActiveList+0x84>
    330a:	9802      	ldr	r0, [sp, #8]
    330c:	b008      	add	sp, #32
    330e:	bd80      	pop	{r7, pc}

00003310 <pvPortMalloc>:
    3310:	b580      	push	{r7, lr}
    3312:	466f      	mov	r7, sp
    3314:	b090      	sub	sp, #64	; 0x40
    3316:	900f      	str	r0, [sp, #60]	; 0x3c
    3318:	f7fe ffe7 	bl	22ea <vTaskSuspendAll>
    331c:	f640 3058 	movw	r0, #2904	; 0xb58
    3320:	f2c2 0000 	movt	r0, #8192	; 0x2000
    3324:	6800      	ldr	r0, [r0, #0]
    3326:	b918      	cbnz	r0, 3330 <pvPortMalloc+0x20>
    3328:	e7ff      	b.n	332a <pvPortMalloc+0x1a>
    332a:	f000 f8d1 	bl	34d0 <prvHeapInit>
    332e:	e000      	b.n	3332 <pvPortMalloc+0x22>
    3330:	e7ff      	b.n	3332 <pvPortMalloc+0x22>
    3332:	980f      	ldr	r0, [sp, #60]	; 0x3c
    3334:	b1b0      	cbz	r0, 3364 <pvPortMalloc+0x54>
    3336:	e7ff      	b.n	3338 <pvPortMalloc+0x28>
    3338:	980f      	ldr	r0, [sp, #60]	; 0x3c
    333a:	f000 0107 	and.w	r1, r0, #7
    333e:	f1c1 0110 	rsb	r1, r1, #16
    3342:	460a      	mov	r2, r1
    3344:	920e      	str	r2, [sp, #56]	; 0x38
    3346:	43c9      	mvns	r1, r1
    3348:	4288      	cmp	r0, r1
    334a:	d805      	bhi.n	3358 <pvPortMalloc+0x48>
    334c:	e7ff      	b.n	334e <pvPortMalloc+0x3e>
    334e:	980f      	ldr	r0, [sp, #60]	; 0x3c
    3350:	990e      	ldr	r1, [sp, #56]	; 0x38
    3352:	4408      	add	r0, r1
    3354:	900d      	str	r0, [sp, #52]	; 0x34
    3356:	e002      	b.n	335e <pvPortMalloc+0x4e>
    3358:	2000      	movs	r0, #0
    335a:	900d      	str	r0, [sp, #52]	; 0x34
    335c:	e7ff      	b.n	335e <pvPortMalloc+0x4e>
    335e:	980d      	ldr	r0, [sp, #52]	; 0x34
    3360:	900c      	str	r0, [sp, #48]	; 0x30
    3362:	e002      	b.n	336a <pvPortMalloc+0x5a>
    3364:	980f      	ldr	r0, [sp, #60]	; 0x3c
    3366:	900c      	str	r0, [sp, #48]	; 0x30
    3368:	e7ff      	b.n	336a <pvPortMalloc+0x5a>
    336a:	980c      	ldr	r0, [sp, #48]	; 0x30
    336c:	900b      	str	r0, [sp, #44]	; 0x2c
    336e:	0fc0      	lsrs	r0, r0, #31
    3370:	2800      	cmp	r0, #0
    3372:	f040 809b 	bne.w	34ac <pvPortMalloc+0x19c>
    3376:	e7ff      	b.n	3378 <pvPortMalloc+0x68>
    3378:	980b      	ldr	r0, [sp, #44]	; 0x2c
    337a:	2800      	cmp	r0, #0
    337c:	f000 8090 	beq.w	34a0 <pvPortMalloc+0x190>
    3380:	e7ff      	b.n	3382 <pvPortMalloc+0x72>
    3382:	980b      	ldr	r0, [sp, #44]	; 0x2c
    3384:	f640 315c 	movw	r1, #2908	; 0xb5c
    3388:	f2c2 0100 	movt	r1, #8192	; 0x2000
    338c:	6809      	ldr	r1, [r1, #0]
    338e:	4288      	cmp	r0, r1
    3390:	f200 8086 	bhi.w	34a0 <pvPortMalloc+0x190>
    3394:	e7ff      	b.n	3396 <pvPortMalloc+0x86>
    3396:	f640 3160 	movw	r1, #2912	; 0xb60
    339a:	f2c2 0100 	movt	r1, #8192	; 0x2000
    339e:	6808      	ldr	r0, [r1, #0]
    33a0:	9109      	str	r1, [sp, #36]	; 0x24
    33a2:	900a      	str	r0, [sp, #40]	; 0x28
    33a4:	e7ff      	b.n	33a6 <pvPortMalloc+0x96>
    33a6:	9a0b      	ldr	r2, [sp, #44]	; 0x2c
    33a8:	9909      	ldr	r1, [sp, #36]	; 0x24
    33aa:	980a      	ldr	r0, [sp, #40]	; 0x28
    33ac:	9006      	str	r0, [sp, #24]
    33ae:	9107      	str	r1, [sp, #28]
    33b0:	6841      	ldr	r1, [r0, #4]
    33b2:	2000      	movs	r0, #0
    33b4:	4291      	cmp	r1, r2
    33b6:	9008      	str	r0, [sp, #32]
    33b8:	d207      	bcs.n	33ca <pvPortMalloc+0xba>
    33ba:	e7ff      	b.n	33bc <pvPortMalloc+0xac>
    33bc:	9806      	ldr	r0, [sp, #24]
    33be:	6800      	ldr	r0, [r0, #0]
    33c0:	2800      	cmp	r0, #0
    33c2:	bf18      	it	ne
    33c4:	2001      	movne	r0, #1
    33c6:	9008      	str	r0, [sp, #32]
    33c8:	e7ff      	b.n	33ca <pvPortMalloc+0xba>
    33ca:	9808      	ldr	r0, [sp, #32]
    33cc:	07c0      	lsls	r0, r0, #31
    33ce:	b128      	cbz	r0, 33dc <pvPortMalloc+0xcc>
    33d0:	e7ff      	b.n	33d2 <pvPortMalloc+0xc2>
    33d2:	9906      	ldr	r1, [sp, #24]
    33d4:	6808      	ldr	r0, [r1, #0]
    33d6:	9109      	str	r1, [sp, #36]	; 0x24
    33d8:	900a      	str	r0, [sp, #40]	; 0x28
    33da:	e7e4      	b.n	33a6 <pvPortMalloc+0x96>
    33dc:	9806      	ldr	r0, [sp, #24]
    33de:	f640 3158 	movw	r1, #2904	; 0xb58
    33e2:	f2c2 0100 	movt	r1, #8192	; 0x2000
    33e6:	6809      	ldr	r1, [r1, #0]
    33e8:	4288      	cmp	r0, r1
    33ea:	d053      	beq.n	3494 <pvPortMalloc+0x184>
    33ec:	e7ff      	b.n	33ee <pvPortMalloc+0xde>
    33ee:	990b      	ldr	r1, [sp, #44]	; 0x2c
    33f0:	9806      	ldr	r0, [sp, #24]
    33f2:	9b07      	ldr	r3, [sp, #28]
    33f4:	681a      	ldr	r2, [r3, #0]
    33f6:	3208      	adds	r2, #8
    33f8:	9205      	str	r2, [sp, #20]
    33fa:	6802      	ldr	r2, [r0, #0]
    33fc:	601a      	str	r2, [r3, #0]
    33fe:	6840      	ldr	r0, [r0, #4]
    3400:	1a40      	subs	r0, r0, r1
    3402:	2811      	cmp	r0, #17
    3404:	d316      	bcc.n	3434 <pvPortMalloc+0x124>
    3406:	e7ff      	b.n	3408 <pvPortMalloc+0xf8>
    3408:	9806      	ldr	r0, [sp, #24]
    340a:	990b      	ldr	r1, [sp, #44]	; 0x2c
    340c:	4408      	add	r0, r1
    340e:	4601      	mov	r1, r0
    3410:	9104      	str	r1, [sp, #16]
    3412:	0740      	lsls	r0, r0, #29
    3414:	b120      	cbz	r0, 3420 <pvPortMalloc+0x110>
    3416:	e7ff      	b.n	3418 <pvPortMalloc+0x108>
    3418:	f7fe fa54 	bl	18c4 <ulSetInterruptMask>
    341c:	e7ff      	b.n	341e <pvPortMalloc+0x10e>
    341e:	e7fe      	b.n	341e <pvPortMalloc+0x10e>
    3420:	9804      	ldr	r0, [sp, #16]
    3422:	990b      	ldr	r1, [sp, #44]	; 0x2c
    3424:	9a06      	ldr	r2, [sp, #24]
    3426:	6853      	ldr	r3, [r2, #4]
    3428:	1a5b      	subs	r3, r3, r1
    342a:	6043      	str	r3, [r0, #4]
    342c:	6051      	str	r1, [r2, #4]
    342e:	f000 f896 	bl	355e <prvInsertBlockIntoFreeList>
    3432:	e000      	b.n	3436 <pvPortMalloc+0x126>
    3434:	e7ff      	b.n	3436 <pvPortMalloc+0x126>
    3436:	9806      	ldr	r0, [sp, #24]
    3438:	6842      	ldr	r2, [r0, #4]
    343a:	f640 305c 	movw	r0, #2908	; 0xb5c
    343e:	f2c2 0000 	movt	r0, #8192	; 0x2000
    3442:	6801      	ldr	r1, [r0, #0]
    3444:	1a89      	subs	r1, r1, r2
    3446:	6001      	str	r1, [r0, #0]
    3448:	6800      	ldr	r0, [r0, #0]
    344a:	f640 3168 	movw	r1, #2920	; 0xb68
    344e:	f2c2 0100 	movt	r1, #8192	; 0x2000
    3452:	6809      	ldr	r1, [r1, #0]
    3454:	4288      	cmp	r0, r1
    3456:	d20b      	bcs.n	3470 <pvPortMalloc+0x160>
    3458:	e7ff      	b.n	345a <pvPortMalloc+0x14a>
    345a:	f640 305c 	movw	r0, #2908	; 0xb5c
    345e:	f2c2 0000 	movt	r0, #8192	; 0x2000
    3462:	6800      	ldr	r0, [r0, #0]
    3464:	f640 3168 	movw	r1, #2920	; 0xb68
    3468:	f2c2 0100 	movt	r1, #8192	; 0x2000
    346c:	6008      	str	r0, [r1, #0]
    346e:	e000      	b.n	3472 <pvPortMalloc+0x162>
    3470:	e7ff      	b.n	3472 <pvPortMalloc+0x162>
    3472:	9805      	ldr	r0, [sp, #20]
    3474:	9a06      	ldr	r2, [sp, #24]
    3476:	6851      	ldr	r1, [r2, #4]
    3478:	f041 4100 	orr.w	r1, r1, #2147483648	; 0x80000000
    347c:	6051      	str	r1, [r2, #4]
    347e:	2100      	movs	r1, #0
    3480:	6011      	str	r1, [r2, #0]
    3482:	f640 326c 	movw	r2, #2924	; 0xb6c
    3486:	f2c2 0200 	movt	r2, #8192	; 0x2000
    348a:	6811      	ldr	r1, [r2, #0]
    348c:	3101      	adds	r1, #1
    348e:	6011      	str	r1, [r2, #0]
    3490:	9003      	str	r0, [sp, #12]
    3492:	e002      	b.n	349a <pvPortMalloc+0x18a>
    3494:	2000      	movs	r0, #0
    3496:	9003      	str	r0, [sp, #12]
    3498:	e7ff      	b.n	349a <pvPortMalloc+0x18a>
    349a:	9803      	ldr	r0, [sp, #12]
    349c:	9002      	str	r0, [sp, #8]
    349e:	e002      	b.n	34a6 <pvPortMalloc+0x196>
    34a0:	2000      	movs	r0, #0
    34a2:	9002      	str	r0, [sp, #8]
    34a4:	e7ff      	b.n	34a6 <pvPortMalloc+0x196>
    34a6:	9802      	ldr	r0, [sp, #8]
    34a8:	9001      	str	r0, [sp, #4]
    34aa:	e002      	b.n	34b2 <pvPortMalloc+0x1a2>
    34ac:	2000      	movs	r0, #0
    34ae:	9001      	str	r0, [sp, #4]
    34b0:	e7ff      	b.n	34b2 <pvPortMalloc+0x1a2>
    34b2:	9801      	ldr	r0, [sp, #4]
    34b4:	9000      	str	r0, [sp, #0]
    34b6:	f7fe ff9b 	bl	23f0 <xTaskResumeAll>
    34ba:	9800      	ldr	r0, [sp, #0]
    34bc:	0740      	lsls	r0, r0, #29
    34be:	b120      	cbz	r0, 34ca <pvPortMalloc+0x1ba>
    34c0:	e7ff      	b.n	34c2 <pvPortMalloc+0x1b2>
    34c2:	f7fe f9ff 	bl	18c4 <ulSetInterruptMask>
    34c6:	e7ff      	b.n	34c8 <pvPortMalloc+0x1b8>
    34c8:	e7fe      	b.n	34c8 <pvPortMalloc+0x1b8>
    34ca:	9800      	ldr	r0, [sp, #0]
    34cc:	b010      	add	sp, #64	; 0x40
    34ce:	bd80      	pop	{r7, pc}

000034d0 <prvHeapInit>:
    34d0:	b082      	sub	sp, #8
    34d2:	f640 3274 	movw	r2, #2932	; 0xb74
    34d6:	f2c2 0200 	movt	r2, #8192	; 0x2000
    34da:	f44f 5020 	mov.w	r0, #10240	; 0x2800
    34de:	4611      	mov	r1, r2
    34e0:	0752      	lsls	r2, r2, #29
    34e2:	9100      	str	r1, [sp, #0]
    34e4:	9001      	str	r0, [sp, #4]
    34e6:	b172      	cbz	r2, 3506 <prvHeapInit+0x36>
    34e8:	e7ff      	b.n	34ea <prvHeapInit+0x1a>
    34ea:	f640 3074 	movw	r0, #2932	; 0xb74
    34ee:	f2c2 0000 	movt	r0, #8192	; 0x2000
    34f2:	1dc1      	adds	r1, r0, #7
    34f4:	f021 0207 	bic.w	r2, r1, #7
    34f8:	4611      	mov	r1, r2
    34fa:	1a80      	subs	r0, r0, r2
    34fc:	f500 5020 	add.w	r0, r0, #10240	; 0x2800
    3500:	9100      	str	r1, [sp, #0]
    3502:	9001      	str	r0, [sp, #4]
    3504:	e7ff      	b.n	3506 <prvHeapInit+0x36>
    3506:	9800      	ldr	r0, [sp, #0]
    3508:	9901      	ldr	r1, [sp, #4]
    350a:	f640 3260 	movw	r2, #2912	; 0xb60
    350e:	f2c2 0200 	movt	r2, #8192	; 0x2000
    3512:	6010      	str	r0, [r2, #0]
    3514:	2300      	movs	r3, #0
    3516:	6053      	str	r3, [r2, #4]
    3518:	4401      	add	r1, r0
    351a:	3908      	subs	r1, #8
    351c:	f021 0207 	bic.w	r2, r1, #7
    3520:	f640 3158 	movw	r1, #2904	; 0xb58
    3524:	f2c2 0100 	movt	r1, #8192	; 0x2000
    3528:	600a      	str	r2, [r1, #0]
    352a:	f8d1 c000 	ldr.w	ip, [r1]
    352e:	f8cc 3004 	str.w	r3, [ip, #4]
    3532:	f8d1 c000 	ldr.w	ip, [r1]
    3536:	f8cc 3000 	str.w	r3, [ip]
    353a:	1a12      	subs	r2, r2, r0
    353c:	6042      	str	r2, [r0, #4]
    353e:	6809      	ldr	r1, [r1, #0]
    3540:	6001      	str	r1, [r0, #0]
    3542:	6841      	ldr	r1, [r0, #4]
    3544:	f640 3268 	movw	r2, #2920	; 0xb68
    3548:	f2c2 0200 	movt	r2, #8192	; 0x2000
    354c:	6011      	str	r1, [r2, #0]
    354e:	6840      	ldr	r0, [r0, #4]
    3550:	f640 315c 	movw	r1, #2908	; 0xb5c
    3554:	f2c2 0100 	movt	r1, #8192	; 0x2000
    3558:	6008      	str	r0, [r1, #0]
    355a:	b002      	add	sp, #8
    355c:	4770      	bx	lr

0000355e <prvInsertBlockIntoFreeList>:
    355e:	b085      	sub	sp, #20
    3560:	9003      	str	r0, [sp, #12]
    3562:	f640 3060 	movw	r0, #2912	; 0xb60
    3566:	f2c2 0000 	movt	r0, #8192	; 0x2000
    356a:	9004      	str	r0, [sp, #16]
    356c:	e7ff      	b.n	356e <prvInsertBlockIntoFreeList+0x10>
    356e:	9903      	ldr	r1, [sp, #12]
    3570:	9804      	ldr	r0, [sp, #16]
    3572:	9002      	str	r0, [sp, #8]
    3574:	6800      	ldr	r0, [r0, #0]
    3576:	4288      	cmp	r0, r1
    3578:	d205      	bcs.n	3586 <prvInsertBlockIntoFreeList+0x28>
    357a:	e7ff      	b.n	357c <prvInsertBlockIntoFreeList+0x1e>
    357c:	e7ff      	b.n	357e <prvInsertBlockIntoFreeList+0x20>
    357e:	9802      	ldr	r0, [sp, #8]
    3580:	6800      	ldr	r0, [r0, #0]
    3582:	9004      	str	r0, [sp, #16]
    3584:	e7f3      	b.n	356e <prvInsertBlockIntoFreeList+0x10>
    3586:	9903      	ldr	r1, [sp, #12]
    3588:	9802      	ldr	r0, [sp, #8]
    358a:	6842      	ldr	r2, [r0, #4]
    358c:	4410      	add	r0, r2
    358e:	4288      	cmp	r0, r1
    3590:	d108      	bne.n	35a4 <prvInsertBlockIntoFreeList+0x46>
    3592:	e7ff      	b.n	3594 <prvInsertBlockIntoFreeList+0x36>
    3594:	9802      	ldr	r0, [sp, #8]
    3596:	9903      	ldr	r1, [sp, #12]
    3598:	684a      	ldr	r2, [r1, #4]
    359a:	6841      	ldr	r1, [r0, #4]
    359c:	4411      	add	r1, r2
    359e:	6041      	str	r1, [r0, #4]
    35a0:	9001      	str	r0, [sp, #4]
    35a2:	e002      	b.n	35aa <prvInsertBlockIntoFreeList+0x4c>
    35a4:	9803      	ldr	r0, [sp, #12]
    35a6:	9001      	str	r0, [sp, #4]
    35a8:	e7ff      	b.n	35aa <prvInsertBlockIntoFreeList+0x4c>
    35aa:	9902      	ldr	r1, [sp, #8]
    35ac:	9801      	ldr	r0, [sp, #4]
    35ae:	9000      	str	r0, [sp, #0]
    35b0:	6842      	ldr	r2, [r0, #4]
    35b2:	4410      	add	r0, r2
    35b4:	6809      	ldr	r1, [r1, #0]
    35b6:	4288      	cmp	r0, r1
    35b8:	d11e      	bne.n	35f8 <prvInsertBlockIntoFreeList+0x9a>
    35ba:	e7ff      	b.n	35bc <prvInsertBlockIntoFreeList+0x5e>
    35bc:	9802      	ldr	r0, [sp, #8]
    35be:	6800      	ldr	r0, [r0, #0]
    35c0:	f640 3158 	movw	r1, #2904	; 0xb58
    35c4:	f2c2 0100 	movt	r1, #8192	; 0x2000
    35c8:	6809      	ldr	r1, [r1, #0]
    35ca:	4288      	cmp	r0, r1
    35cc:	d00b      	beq.n	35e6 <prvInsertBlockIntoFreeList+0x88>
    35ce:	e7ff      	b.n	35d0 <prvInsertBlockIntoFreeList+0x72>
    35d0:	9900      	ldr	r1, [sp, #0]
    35d2:	9802      	ldr	r0, [sp, #8]
    35d4:	6802      	ldr	r2, [r0, #0]
    35d6:	6853      	ldr	r3, [r2, #4]
    35d8:	684a      	ldr	r2, [r1, #4]
    35da:	441a      	add	r2, r3
    35dc:	604a      	str	r2, [r1, #4]
    35de:	6800      	ldr	r0, [r0, #0]
    35e0:	6800      	ldr	r0, [r0, #0]
    35e2:	6008      	str	r0, [r1, #0]
    35e4:	e007      	b.n	35f6 <prvInsertBlockIntoFreeList+0x98>
    35e6:	9900      	ldr	r1, [sp, #0]
    35e8:	f640 3058 	movw	r0, #2904	; 0xb58
    35ec:	f2c2 0000 	movt	r0, #8192	; 0x2000
    35f0:	6800      	ldr	r0, [r0, #0]
    35f2:	6008      	str	r0, [r1, #0]
    35f4:	e7ff      	b.n	35f6 <prvInsertBlockIntoFreeList+0x98>
    35f6:	e004      	b.n	3602 <prvInsertBlockIntoFreeList+0xa4>
    35f8:	9900      	ldr	r1, [sp, #0]
    35fa:	9802      	ldr	r0, [sp, #8]
    35fc:	6800      	ldr	r0, [r0, #0]
    35fe:	6008      	str	r0, [r1, #0]
    3600:	e7ff      	b.n	3602 <prvInsertBlockIntoFreeList+0xa4>
    3602:	9802      	ldr	r0, [sp, #8]
    3604:	9900      	ldr	r1, [sp, #0]
    3606:	4288      	cmp	r0, r1
    3608:	d004      	beq.n	3614 <prvInsertBlockIntoFreeList+0xb6>
    360a:	e7ff      	b.n	360c <prvInsertBlockIntoFreeList+0xae>
    360c:	9800      	ldr	r0, [sp, #0]
    360e:	9902      	ldr	r1, [sp, #8]
    3610:	6008      	str	r0, [r1, #0]
    3612:	e000      	b.n	3616 <prvInsertBlockIntoFreeList+0xb8>
    3614:	e7ff      	b.n	3616 <prvInsertBlockIntoFreeList+0xb8>
    3616:	b005      	add	sp, #20
    3618:	4770      	bx	lr

0000361a <vPortFree>:
    361a:	b580      	push	{r7, lr}
    361c:	466f      	mov	r7, sp
    361e:	b082      	sub	sp, #8
    3620:	9001      	str	r0, [sp, #4]
    3622:	2800      	cmp	r0, #0
    3624:	d042      	beq.n	36ac <vPortFree+0x92>
    3626:	e7ff      	b.n	3628 <vPortFree+0xe>
    3628:	9801      	ldr	r0, [sp, #4]
    362a:	f1a0 0108 	sub.w	r1, r0, #8
    362e:	9100      	str	r1, [sp, #0]
    3630:	f810 1c01 	ldrb.w	r1, [r0, #-1]
    3634:	2000      	movs	r0, #0
    3636:	ebb0 1fd1 	cmp.w	r0, r1, lsr #7
    363a:	d104      	bne.n	3646 <vPortFree+0x2c>
    363c:	e7ff      	b.n	363e <vPortFree+0x24>
    363e:	f7fe f941 	bl	18c4 <ulSetInterruptMask>
    3642:	e7ff      	b.n	3644 <vPortFree+0x2a>
    3644:	e7fe      	b.n	3644 <vPortFree+0x2a>
    3646:	9800      	ldr	r0, [sp, #0]
    3648:	6800      	ldr	r0, [r0, #0]
    364a:	b120      	cbz	r0, 3656 <vPortFree+0x3c>
    364c:	e7ff      	b.n	364e <vPortFree+0x34>
    364e:	f7fe f939 	bl	18c4 <ulSetInterruptMask>
    3652:	e7ff      	b.n	3654 <vPortFree+0x3a>
    3654:	e7fe      	b.n	3654 <vPortFree+0x3a>
    3656:	9800      	ldr	r0, [sp, #0]
    3658:	79c1      	ldrb	r1, [r0, #7]
    365a:	2000      	movs	r0, #0
    365c:	ebb0 1fd1 	cmp.w	r0, r1, lsr #7
    3660:	d022      	beq.n	36a8 <vPortFree+0x8e>
    3662:	e7ff      	b.n	3664 <vPortFree+0x4a>
    3664:	9800      	ldr	r0, [sp, #0]
    3666:	6800      	ldr	r0, [r0, #0]
    3668:	b9e0      	cbnz	r0, 36a4 <vPortFree+0x8a>
    366a:	e7ff      	b.n	366c <vPortFree+0x52>
    366c:	9900      	ldr	r1, [sp, #0]
    366e:	6848      	ldr	r0, [r1, #4]
    3670:	f020 4000 	bic.w	r0, r0, #2147483648	; 0x80000000
    3674:	6048      	str	r0, [r1, #4]
    3676:	f7fe fe38 	bl	22ea <vTaskSuspendAll>
    367a:	9800      	ldr	r0, [sp, #0]
    367c:	6843      	ldr	r3, [r0, #4]
    367e:	f640 325c 	movw	r2, #2908	; 0xb5c
    3682:	f2c2 0200 	movt	r2, #8192	; 0x2000
    3686:	6811      	ldr	r1, [r2, #0]
    3688:	4419      	add	r1, r3
    368a:	6011      	str	r1, [r2, #0]
    368c:	f7ff ff67 	bl	355e <prvInsertBlockIntoFreeList>
    3690:	f640 3170 	movw	r1, #2928	; 0xb70
    3694:	f2c2 0100 	movt	r1, #8192	; 0x2000
    3698:	6808      	ldr	r0, [r1, #0]
    369a:	3001      	adds	r0, #1
    369c:	6008      	str	r0, [r1, #0]
    369e:	f7fe fea7 	bl	23f0 <xTaskResumeAll>
    36a2:	e000      	b.n	36a6 <vPortFree+0x8c>
    36a4:	e7ff      	b.n	36a6 <vPortFree+0x8c>
    36a6:	e000      	b.n	36aa <vPortFree+0x90>
    36a8:	e7ff      	b.n	36aa <vPortFree+0x90>
    36aa:	e7ff      	b.n	36ac <vPortFree+0x92>
    36ac:	b002      	add	sp, #8
    36ae:	bd80      	pop	{r7, pc}

000036b0 <BOARD_InitBootClocks>:
    36b0:	b580      	push	{r7, lr}
    36b2:	466f      	mov	r7, sp
    36b4:	f000 f801 	bl	36ba <BOARD_BootClockPLL150M>
    36b8:	bd80      	pop	{r7, pc}

000036ba <BOARD_BootClockPLL150M>:
    36ba:	b5d0      	push	{r4, r6, r7, lr}
    36bc:	af02      	add	r7, sp, #8
    36be:	b08a      	sub	sp, #40	; 0x28
    36c0:	2020      	movs	r0, #32
    36c2:	9000      	str	r0, [sp, #0]
    36c4:	f000 f863 	bl	378e <POWER_DisablePD>
    36c8:	f641 3000 	movw	r0, #6912	; 0x1b00
    36cc:	f2c0 00b7 	movt	r0, #183	; 0xb7
    36d0:	f7fd fa45 	bl	b5e <CLOCK_SetupFROClocking>
    36d4:	f249 1008 	movw	r0, #37128	; 0x9108
    36d8:	f2c0 0010 	movt	r0, #16
    36dc:	f7fd f9ad 	bl	a3a <CLOCK_AttachClk>
    36e0:	f44f 7080 	mov.w	r0, #256	; 0x100
    36e4:	f000 f853 	bl	378e <POWER_DisablePD>
    36e8:	f44f 1080 	mov.w	r0, #1048576	; 0x100000
    36ec:	f000 f84f 	bl	378e <POWER_DisablePD>
    36f0:	f242 4000 	movw	r0, #9216	; 0x2400
    36f4:	f2c0 00f4 	movt	r0, #244	; 0xf4
    36f8:	f7fd fb6c 	bl	dd4 <CLOCK_SetupExtClocking>
    36fc:	f640 2118 	movw	r1, #2584	; 0xa18
    3700:	f2c4 0100 	movt	r1, #16384	; 0x4000
    3704:	6808      	ldr	r0, [r1, #0]
    3706:	f040 0020 	orr.w	r0, r0, #32
    370a:	6008      	str	r0, [r1, #0]
    370c:	f243 0120 	movw	r1, #12320	; 0x3020
    3710:	f2c4 0101 	movt	r1, #16385	; 0x4001
    3714:	6808      	ldr	r0, [r1, #0]
    3716:	f040 7080 	orr.w	r0, r0, #16777216	; 0x1000000
    371a:	6008      	str	r0, [r1, #0]
    371c:	f24d 1080 	movw	r0, #53632	; 0xd180
    3720:	f6c0 00f0 	movt	r0, #2288	; 0x8f0
    3724:	9001      	str	r0, [sp, #4]
    3726:	f7fd fce4 	bl	10f2 <POWER_SetVoltageForFreq>
    372a:	9801      	ldr	r0, [sp, #4]
    372c:	f7fd fa69 	bl	c02 <CLOCK_SetFLASHAccessCyclesForFreq>
    3730:	f44f 7003 	mov.w	r0, #524	; 0x20c
    3734:	f7fd f981 	bl	a3a <CLOCK_AttachClk>
    3738:	f44f 7000 	mov.w	r0, #512	; 0x200
    373c:	f000 f827 	bl	378e <POWER_DisablePD>
    3740:	f44f 0000 	mov.w	r0, #8388608	; 0x800000
    3744:	f000 f823 	bl	378e <POWER_DisablePD>
    3748:	f646 3208 	movw	r2, #27400	; 0x6b08
    374c:	f2c0 0200 	movt	r2, #0
    3750:	a802      	add	r0, sp, #8
    3752:	4601      	mov	r1, r0
    3754:	e8b2 5018 	ldmia.w	r2!, {r3, r4, ip, lr}
    3758:	e8a1 5018 	stmia.w	r1!, {r3, r4, ip, lr}
    375c:	e892 5018 	ldmia.w	r2, {r3, r4, ip, lr}
    3760:	e881 5018 	stmia.w	r1, {r3, r4, ip, lr}
    3764:	f7fd fc19 	bl	f9a <CLOCK_SetPLL0Freq>
    3768:	9800      	ldr	r0, [sp, #0]
    376a:	2101      	movs	r1, #1
    376c:	2200      	movs	r2, #0
    376e:	f7fd f9b1 	bl	ad4 <CLOCK_SetClkDiv>
    3772:	f249 1008 	movw	r0, #37128	; 0x9108
    3776:	f2c0 0020 	movt	r0, #32
    377a:	f7fd f95e 	bl	a3a <CLOCK_AttachClk>
    377e:	9801      	ldr	r0, [sp, #4]
    3780:	f240 0100 	movw	r1, #0
    3784:	f2c2 0100 	movt	r1, #8192	; 0x2000
    3788:	6008      	str	r0, [r1, #0]
    378a:	b00a      	add	sp, #40	; 0x28
    378c:	bdd0      	pop	{r4, r6, r7, pc}

0000378e <POWER_DisablePD>:
    378e:	21c8      	movs	r1, #200	; 0xc8
    3790:	f2c4 0102 	movt	r1, #16386	; 0x4002
    3794:	6008      	str	r0, [r1, #0]
    3796:	4770      	bx	lr

00003798 <BOARD_InitPeripherals_cm33_core0>:
    3798:	4770      	bx	lr

0000379a <BOARD_InitBootPeripherals>:
    379a:	b580      	push	{r7, lr}
    379c:	466f      	mov	r7, sp
    379e:	f7ff fffb 	bl	3798 <BOARD_InitPeripherals_cm33_core0>
    37a2:	bd80      	pop	{r7, pc}

000037a4 <BOARD_InitBootPins>:
    37a4:	b580      	push	{r7, lr}
    37a6:	466f      	mov	r7, sp
    37a8:	f000 f801 	bl	37ae <BOARD_InitLEDsPins>
    37ac:	bd80      	pop	{r7, pc}

000037ae <BOARD_InitLEDsPins>:
    37ae:	b580      	push	{r7, lr}
    37b0:	466f      	mov	r7, sp
    37b2:	b08a      	sub	sp, #40	; 0x28
    37b4:	200d      	movs	r0, #13
    37b6:	f000 f855 	bl	3864 <CLOCK_EnableClock>
    37ba:	200f      	movs	r0, #15
    37bc:	f000 f852 	bl	3864 <CLOCK_EnableClock>
    37c0:	f646 3128 	movw	r1, #27432	; 0x6b28
    37c4:	f2c0 0100 	movt	r1, #0
    37c8:	7808      	ldrb	r0, [r1, #0]
    37ca:	7849      	ldrb	r1, [r1, #1]
    37cc:	ea40 2001 	orr.w	r0, r0, r1, lsl #8
    37d0:	f8ad 0024 	strh.w	r0, [sp, #36]	; 0x24
    37d4:	f24c 0000 	movw	r0, #49152	; 0xc000
    37d8:	f2c4 0008 	movt	r0, #16392	; 0x4008
    37dc:	9000      	str	r0, [sp, #0]
    37de:	2101      	movs	r1, #1
    37e0:	9104      	str	r1, [sp, #16]
    37e2:	2204      	movs	r2, #4
    37e4:	9201      	str	r2, [sp, #4]
    37e6:	ab09      	add	r3, sp, #36	; 0x24
    37e8:	f7fd fed4 	bl	1594 <GPIO_PinInit>
    37ec:	9800      	ldr	r0, [sp, #0]
    37ee:	9904      	ldr	r1, [sp, #16]
    37f0:	f646 332a 	movw	r3, #27434	; 0x6b2a
    37f4:	f2c0 0300 	movt	r3, #0
    37f8:	781a      	ldrb	r2, [r3, #0]
    37fa:	785b      	ldrb	r3, [r3, #1]
    37fc:	ea42 2203 	orr.w	r2, r2, r3, lsl #8
    3800:	f8ad 2020 	strh.w	r2, [sp, #32]
    3804:	2206      	movs	r2, #6
    3806:	9202      	str	r2, [sp, #8]
    3808:	ab08      	add	r3, sp, #32
    380a:	f7fd fec3 	bl	1594 <GPIO_PinInit>
    380e:	9800      	ldr	r0, [sp, #0]
    3810:	9904      	ldr	r1, [sp, #16]
    3812:	f646 332c 	movw	r3, #27436	; 0x6b2c
    3816:	f2c0 0300 	movt	r3, #0
    381a:	781a      	ldrb	r2, [r3, #0]
    381c:	785b      	ldrb	r3, [r3, #1]
    381e:	ea42 2203 	orr.w	r2, r2, r3, lsl #8
    3822:	f8ad 201c 	strh.w	r2, [sp, #28]
    3826:	2207      	movs	r2, #7
    3828:	9205      	str	r2, [sp, #20]
    382a:	ab07      	add	r3, sp, #28
    382c:	f7fd feb2 	bl	1594 <GPIO_PinInit>
    3830:	9a01      	ldr	r2, [sp, #4]
    3832:	9904      	ldr	r1, [sp, #16]
    3834:	f241 0000 	movw	r0, #4096	; 0x1000
    3838:	f2c4 0000 	movt	r0, #16384	; 0x4000
    383c:	9003      	str	r0, [sp, #12]
    383e:	f44f 7390 	mov.w	r3, #288	; 0x120
    3842:	9306      	str	r3, [sp, #24]
    3844:	f000 f819 	bl	387a <IOCON_PinMuxSet>
    3848:	9a02      	ldr	r2, [sp, #8]
    384a:	9803      	ldr	r0, [sp, #12]
    384c:	9904      	ldr	r1, [sp, #16]
    384e:	9b06      	ldr	r3, [sp, #24]
    3850:	f000 f813 	bl	387a <IOCON_PinMuxSet>
    3854:	9803      	ldr	r0, [sp, #12]
    3856:	9904      	ldr	r1, [sp, #16]
    3858:	9a05      	ldr	r2, [sp, #20]
    385a:	9b06      	ldr	r3, [sp, #24]
    385c:	f000 f80d 	bl	387a <IOCON_PinMuxSet>
    3860:	b00a      	add	sp, #40	; 0x28
    3862:	bd80      	pop	{r7, pc}

00003864 <CLOCK_EnableClock>:
    3864:	0a02      	lsrs	r2, r0, #8
    3866:	b2c1      	uxtb	r1, r0
    3868:	2001      	movs	r0, #1
    386a:	4088      	lsls	r0, r1
    386c:	f240 2120 	movw	r1, #544	; 0x220
    3870:	f2c4 0100 	movt	r1, #16384	; 0x4000
    3874:	f841 0022 	str.w	r0, [r1, r2, lsl #2]
    3878:	4770      	bx	lr

0000387a <IOCON_PinMuxSet>:
    387a:	eb00 10c1 	add.w	r0, r0, r1, lsl #7
    387e:	f840 3022 	str.w	r3, [r0, r2, lsl #2]
    3882:	4770      	bx	lr

00003884 <main>:
    3884:	b580      	push	{r7, lr}
    3886:	466f      	mov	r7, sp
    3888:	b082      	sub	sp, #8
    388a:	f7ff ff8b 	bl	37a4 <BOARD_InitBootPins>
    388e:	f7ff ff0f 	bl	36b0 <BOARD_InitBootClocks>
    3892:	f7ff ff82 	bl	379a <BOARD_InitBootPeripherals>
    3896:	4669      	mov	r1, sp
    3898:	2300      	movs	r3, #0
    389a:	604b      	str	r3, [r1, #4]
    389c:	2004      	movs	r0, #4
    389e:	6008      	str	r0, [r1, #0]
    38a0:	f643 101d 	movw	r0, #14621	; 0x391d
    38a4:	f2c0 0000 	movt	r0, #0
    38a8:	f646 312e 	movw	r1, #27438	; 0x6b2e
    38ac:	f2c0 0100 	movt	r1, #0
    38b0:	2280      	movs	r2, #128	; 0x80
    38b2:	f7fe fb7c 	bl	1fae <xTaskCreate>
    38b6:	2801      	cmp	r0, #1
    38b8:	d002      	beq.n	38c0 <main+0x3c>
    38ba:	e7ff      	b.n	38bc <main+0x38>
    38bc:	e7ff      	b.n	38be <main+0x3a>
    38be:	e7fe      	b.n	38be <main+0x3a>
    38c0:	4669      	mov	r1, sp
    38c2:	2300      	movs	r3, #0
    38c4:	604b      	str	r3, [r1, #4]
    38c6:	2004      	movs	r0, #4
    38c8:	6008      	str	r0, [r1, #0]
    38ca:	f643 103d 	movw	r0, #14653	; 0x393d
    38ce:	f2c0 0000 	movt	r0, #0
    38d2:	f646 313c 	movw	r1, #27452	; 0x6b3c
    38d6:	f2c0 0100 	movt	r1, #0
    38da:	2280      	movs	r2, #128	; 0x80
    38dc:	f7fe fb67 	bl	1fae <xTaskCreate>
    38e0:	2801      	cmp	r0, #1
    38e2:	d002      	beq.n	38ea <main+0x66>
    38e4:	e7ff      	b.n	38e6 <main+0x62>
    38e6:	e7ff      	b.n	38e8 <main+0x64>
    38e8:	e7fe      	b.n	38e8 <main+0x64>
    38ea:	4669      	mov	r1, sp
    38ec:	2300      	movs	r3, #0
    38ee:	604b      	str	r3, [r1, #4]
    38f0:	2004      	movs	r0, #4
    38f2:	6008      	str	r0, [r1, #0]
    38f4:	f643 105d 	movw	r0, #14685	; 0x395d
    38f8:	f2c0 0000 	movt	r0, #0
    38fc:	f646 314b 	movw	r1, #27467	; 0x6b4b
    3900:	f2c0 0100 	movt	r1, #0
    3904:	2280      	movs	r2, #128	; 0x80
    3906:	f7fe fb52 	bl	1fae <xTaskCreate>
    390a:	2801      	cmp	r0, #1
    390c:	d002      	beq.n	3914 <main+0x90>
    390e:	e7ff      	b.n	3910 <main+0x8c>
    3910:	e7ff      	b.n	3912 <main+0x8e>
    3912:	e7fe      	b.n	3912 <main+0x8e>
    3914:	f7fe fefd 	bl	2712 <vTaskStartScheduler>
    3918:	e7ff      	b.n	391a <main+0x96>
    391a:	e7fe      	b.n	391a <main+0x96>

0000391c <led_red_blink>:
    391c:	b580      	push	{r7, lr}
    391e:	466f      	mov	r7, sp
    3920:	e7ff      	b.n	3922 <led_red_blink+0x6>
    3922:	f24c 0000 	movw	r0, #49152	; 0xc000
    3926:	f2c4 0008 	movt	r0, #16392	; 0x4008
    392a:	2101      	movs	r1, #1
    392c:	2240      	movs	r2, #64	; 0x40
    392e:	f000 f824 	bl	397a <GPIO_PortToggle>
    3932:	f44f 707a 	mov.w	r0, #1000	; 0x3e8
    3936:	f7fe fe67 	bl	2608 <vTaskDelay>
    393a:	e7f2      	b.n	3922 <led_red_blink+0x6>

0000393c <led_blue_blink>:
    393c:	b580      	push	{r7, lr}
    393e:	466f      	mov	r7, sp
    3940:	e7ff      	b.n	3942 <led_blue_blink+0x6>
    3942:	f24c 0000 	movw	r0, #49152	; 0xc000
    3946:	f2c4 0008 	movt	r0, #16392	; 0x4008
