
../lpc_firmware/sdcard_fatfs/output/sdcard_fatfs.elf:     file format elf32-littlearm


Disassembly of section .text:

00000200 <__do_global_dtors_aux>:
     200:	b510      	push	{r4, lr}
     202:	4c05      	ldr	r4, [pc, #20]	; (218 <__do_global_dtors_aux+0x18>)
     204:	7823      	ldrb	r3, [r4, #0]
     206:	b933      	cbnz	r3, 216 <__do_global_dtors_aux+0x16>
     208:	4b04      	ldr	r3, [pc, #16]	; (21c <__do_global_dtors_aux+0x1c>)
     20a:	b113      	cbz	r3, 212 <__do_global_dtors_aux+0x12>
     20c:	4804      	ldr	r0, [pc, #16]	; (220 <__do_global_dtors_aux+0x20>)
     20e:	f3af 8000 	nop.w
     212:	2301      	movs	r3, #1
     214:	7023      	strb	r3, [r4, #0]
     216:	bd10      	pop	{r4, pc}
     218:	200009b8 	.word	0x200009b8
     21c:	00000000 	.word	0x00000000
     220:	00010454 	.word	0x00010454

00000224 <frame_dummy>:
     224:	b508      	push	{r3, lr}
     226:	4b03      	ldr	r3, [pc, #12]	; (234 <frame_dummy+0x10>)
     228:	b11b      	cbz	r3, 232 <frame_dummy+0xe>
     22a:	4903      	ldr	r1, [pc, #12]	; (238 <frame_dummy+0x14>)
     22c:	4803      	ldr	r0, [pc, #12]	; (23c <frame_dummy+0x18>)
     22e:	f3af 8000 	nop.w
     232:	bd08      	pop	{r3, pc}
     234:	00000000 	.word	0x00000000
     238:	200009bc 	.word	0x200009bc
     23c:	00010454 	.word	0x00010454

00000240 <_stack_init>:
     240:	f5a3 3a80 	sub.w	sl, r3, #65536	; 0x10000
     244:	4770      	bx	lr
     246:	bf00      	nop

00000248 <_mainCRTStartup>:
     248:	4b17      	ldr	r3, [pc, #92]	; (2a8 <_mainCRTStartup+0x60>)
     24a:	2b00      	cmp	r3, #0
     24c:	bf08      	it	eq
     24e:	4b13      	ldreq	r3, [pc, #76]	; (29c <_mainCRTStartup+0x54>)
     250:	469d      	mov	sp, r3
     252:	f7ff fff5 	bl	240 <_stack_init>
     256:	2100      	movs	r1, #0
     258:	468b      	mov	fp, r1
     25a:	460f      	mov	r7, r1
     25c:	4813      	ldr	r0, [pc, #76]	; (2ac <_mainCRTStartup+0x64>)
     25e:	4a14      	ldr	r2, [pc, #80]	; (2b0 <_mainCRTStartup+0x68>)
     260:	1a12      	subs	r2, r2, r0
     262:	f00b feff 	bl	c064 <memset>
     266:	4b0e      	ldr	r3, [pc, #56]	; (2a0 <_mainCRTStartup+0x58>)
     268:	2b00      	cmp	r3, #0
     26a:	d000      	beq.n	26e <_mainCRTStartup+0x26>
     26c:	4798      	blx	r3
     26e:	4b0d      	ldr	r3, [pc, #52]	; (2a4 <_mainCRTStartup+0x5c>)
     270:	2b00      	cmp	r3, #0
     272:	d000      	beq.n	276 <_mainCRTStartup+0x2e>
     274:	4798      	blx	r3
     276:	2000      	movs	r0, #0
     278:	2100      	movs	r1, #0
     27a:	0004      	movs	r4, r0
     27c:	000d      	movs	r5, r1
     27e:	480d      	ldr	r0, [pc, #52]	; (2b4 <_mainCRTStartup+0x6c>)
     280:	2800      	cmp	r0, #0
     282:	d002      	beq.n	28a <_mainCRTStartup+0x42>
     284:	480c      	ldr	r0, [pc, #48]	; (2b8 <_mainCRTStartup+0x70>)
     286:	f00d f8f7 	bl	d478 <atexit>
     28a:	f00b fbd9 	bl	ba40 <__libc_init_array>
     28e:	0020      	movs	r0, r4
     290:	0029      	movs	r1, r5
     292:	f00b f8dd 	bl	b450 <main>
     296:	f00b fbaf 	bl	b9f8 <exit>
     29a:	bf00      	nop
     29c:	00080000 	.word	0x00080000
	...
     2a8:	20033000 	.word	0x20033000
     2ac:	200009b8 	.word	0x200009b8
     2b0:	2000175c 	.word	0x2000175c
     2b4:	0000d479 	.word	0x0000d479
     2b8:	0000d761 	.word	0x0000d761

000002bc <Reset_Handler>:
     2bc:	b672      	cpsid	i
     2be:	4817      	ldr	r0, [pc, #92]	; (31c <Reset_Handler+0x60>)
     2c0:	4917      	ldr	r1, [pc, #92]	; (320 <Reset_Handler+0x64>)
     2c2:	6001      	str	r1, [r0, #0]
     2c4:	680a      	ldr	r2, [r1, #0]
     2c6:	f382 8808 	msr	MSP, r2
     2ca:	4816      	ldr	r0, [pc, #88]	; (324 <Reset_Handler+0x68>)
     2cc:	f380 880a 	msr	MSPLIM, r0
     2d0:	4815      	ldr	r0, [pc, #84]	; (328 <Reset_Handler+0x6c>)
     2d2:	4780      	blx	r0
     2d4:	4915      	ldr	r1, [pc, #84]	; (32c <Reset_Handler+0x70>)
     2d6:	4a16      	ldr	r2, [pc, #88]	; (330 <Reset_Handler+0x74>)
     2d8:	4b16      	ldr	r3, [pc, #88]	; (334 <Reset_Handler+0x78>)
     2da:	429a      	cmp	r2, r3
     2dc:	bfbe      	ittt	lt
     2de:	f851 0b04 	ldrlt.w	r0, [r1], #4
     2e2:	f842 0b04 	strlt.w	r0, [r2], #4
     2e6:	e7f8      	blt.n	2da <Reset_Handler+0x1e>
     2e8:	4913      	ldr	r1, [pc, #76]	; (338 <Reset_Handler+0x7c>)
     2ea:	4a14      	ldr	r2, [pc, #80]	; (33c <Reset_Handler+0x80>)
     2ec:	2000      	movs	r0, #0
     2ee:	4291      	cmp	r1, r2
     2f0:	bfbc      	itt	lt
     2f2:	f841 0b04 	strlt.w	r0, [r1], #4
     2f6:	e7fa      	blt.n	2ee <Reset_Handler+0x32>
     2f8:	2000      	movs	r0, #0
     2fa:	4911      	ldr	r1, [pc, #68]	; (340 <Reset_Handler+0x84>)
     2fc:	4a11      	ldr	r2, [pc, #68]	; (344 <Reset_Handler+0x88>)
     2fe:	4291      	cmp	r1, r2
     300:	bfbc      	itt	lt
     302:	f841 0b04 	strlt.w	r0, [r1], #4
     306:	e7fa      	blt.n	2fe <Reset_Handler+0x42>
     308:	490f      	ldr	r1, [pc, #60]	; (348 <Reset_Handler+0x8c>)
     30a:	4a10      	ldr	r2, [pc, #64]	; (34c <Reset_Handler+0x90>)
     30c:	4291      	cmp	r1, r2
     30e:	bfbc      	itt	lt
     310:	f841 0b04 	strlt.w	r0, [r1], #4
     314:	e7fa      	blt.n	30c <Reset_Handler+0x50>
     316:	b662      	cpsie	i
     318:	480d      	ldr	r0, [pc, #52]	; (350 <Reset_Handler+0x94>)
     31a:	4780      	blx	r0
     31c:	e000ed08 	.word	0xe000ed08
     320:	00000000 	.word	0x00000000
     324:	20032800 	.word	0x20032800
     328:	00000a09 	.word	0x00000a09
     32c:	00010480 	.word	0x00010480
     330:	20000000 	.word	0x20000000
     334:	200009b8 	.word	0x200009b8
     338:	200009b8 	.word	0x200009b8
     33c:	2000175c 	.word	0x2000175c
     340:	20001760 	.word	0x20001760
     344:	20001b60 	.word	0x20001b60
     348:	20032800 	.word	0x20032800
     34c:	20033000 	.word	0x20033000
     350:	00000249 	.word	0x00000249

00000354 <ACMP_DriverIRQHandler>:
     354:	f7ff bffe 	b.w	354 <ACMP_DriverIRQHandler>

00000358 <NMI_Handler>:
     358:	4840      	ldr	r0, [pc, #256]	; (45c <FLEXCOMM8_IRQHandler+0x4>)
     35a:	4700      	bx	r0

0000035c <HardFault_Handler>:
     35c:	4840      	ldr	r0, [pc, #256]	; (460 <FLEXCOMM8_IRQHandler+0x8>)
     35e:	4700      	bx	r0

00000360 <SVC_Handler>:
     360:	4840      	ldr	r0, [pc, #256]	; (464 <FLEXCOMM8_IRQHandler+0xc>)
     362:	4700      	bx	r0

00000364 <PendSV_Handler>:
     364:	4840      	ldr	r0, [pc, #256]	; (468 <FLEXCOMM8_IRQHandler+0x10>)
     366:	4700      	bx	r0

00000368 <SysTick_Handler>:
     368:	4840      	ldr	r0, [pc, #256]	; (46c <FLEXCOMM8_IRQHandler+0x14>)
     36a:	4700      	bx	r0

0000036c <WDT_BOD_IRQHandler>:
     36c:	4840      	ldr	r0, [pc, #256]	; (470 <FLEXCOMM8_IRQHandler+0x18>)
     36e:	4700      	bx	r0

00000370 <DMA0_IRQHandler>:
     370:	4840      	ldr	r0, [pc, #256]	; (474 <FLEXCOMM8_IRQHandler+0x1c>)
     372:	4700      	bx	r0

00000374 <GINT0_IRQHandler>:
     374:	4840      	ldr	r0, [pc, #256]	; (478 <FLEXCOMM8_IRQHandler+0x20>)
     376:	4700      	bx	r0

00000378 <GINT1_IRQHandler>:
     378:	4840      	ldr	r0, [pc, #256]	; (47c <FLEXCOMM8_IRQHandler+0x24>)
     37a:	4700      	bx	r0

0000037c <PIN_INT0_IRQHandler>:
     37c:	4840      	ldr	r0, [pc, #256]	; (480 <FLEXCOMM8_IRQHandler+0x28>)
     37e:	4700      	bx	r0

00000380 <PIN_INT1_IRQHandler>:
     380:	4840      	ldr	r0, [pc, #256]	; (484 <FLEXCOMM8_IRQHandler+0x2c>)
     382:	4700      	bx	r0

00000384 <PIN_INT2_IRQHandler>:
     384:	4840      	ldr	r0, [pc, #256]	; (488 <FLEXCOMM8_IRQHandler+0x30>)
     386:	4700      	bx	r0

00000388 <PIN_INT3_IRQHandler>:
     388:	4840      	ldr	r0, [pc, #256]	; (48c <FLEXCOMM8_IRQHandler+0x34>)
     38a:	4700      	bx	r0

0000038c <UTICK0_IRQHandler>:
     38c:	4840      	ldr	r0, [pc, #256]	; (490 <FLEXCOMM8_IRQHandler+0x38>)
     38e:	4700      	bx	r0

00000390 <MRT0_IRQHandler>:
     390:	4840      	ldr	r0, [pc, #256]	; (494 <FLEXCOMM8_IRQHandler+0x3c>)
     392:	4700      	bx	r0

00000394 <CTIMER0_IRQHandler>:
     394:	4840      	ldr	r0, [pc, #256]	; (498 <FLEXCOMM8_IRQHandler+0x40>)
     396:	4700      	bx	r0

00000398 <CTIMER1_IRQHandler>:
     398:	4840      	ldr	r0, [pc, #256]	; (49c <FLEXCOMM8_IRQHandler+0x44>)
     39a:	4700      	bx	r0

0000039c <SCT0_IRQHandler>:
     39c:	4840      	ldr	r0, [pc, #256]	; (4a0 <FLEXCOMM8_IRQHandler+0x48>)
     39e:	4700      	bx	r0

000003a0 <CTIMER3_IRQHandler>:
     3a0:	4840      	ldr	r0, [pc, #256]	; (4a4 <FLEXCOMM8_IRQHandler+0x4c>)
     3a2:	4700      	bx	r0

000003a4 <FLEXCOMM0_IRQHandler>:
     3a4:	4840      	ldr	r0, [pc, #256]	; (4a8 <FLEXCOMM8_IRQHandler+0x50>)
     3a6:	4700      	bx	r0

000003a8 <FLEXCOMM1_IRQHandler>:
     3a8:	4840      	ldr	r0, [pc, #256]	; (4ac <FLEXCOMM8_IRQHandler+0x54>)
     3aa:	4700      	bx	r0

000003ac <FLEXCOMM2_IRQHandler>:
     3ac:	4840      	ldr	r0, [pc, #256]	; (4b0 <FLEXCOMM8_IRQHandler+0x58>)
     3ae:	4700      	bx	r0

000003b0 <FLEXCOMM3_IRQHandler>:
     3b0:	4840      	ldr	r0, [pc, #256]	; (4b4 <FLEXCOMM8_IRQHandler+0x5c>)
     3b2:	4700      	bx	r0

000003b4 <FLEXCOMM4_IRQHandler>:
     3b4:	4840      	ldr	r0, [pc, #256]	; (4b8 <FLEXCOMM8_IRQHandler+0x60>)
     3b6:	4700      	bx	r0

000003b8 <FLEXCOMM5_IRQHandler>:
     3b8:	4840      	ldr	r0, [pc, #256]	; (4bc <FLEXCOMM8_IRQHandler+0x64>)
     3ba:	4700      	bx	r0

000003bc <FLEXCOMM6_IRQHandler>:
     3bc:	4840      	ldr	r0, [pc, #256]	; (4c0 <FLEXCOMM8_IRQHandler+0x68>)
     3be:	4700      	bx	r0

000003c0 <FLEXCOMM7_IRQHandler>:
     3c0:	4840      	ldr	r0, [pc, #256]	; (4c4 <FLEXCOMM8_IRQHandler+0x6c>)
     3c2:	4700      	bx	r0

000003c4 <ADC0_IRQHandler>:
     3c4:	4840      	ldr	r0, [pc, #256]	; (4c8 <FLEXCOMM8_IRQHandler+0x70>)
     3c6:	4700      	bx	r0

000003c8 <Reserved39_IRQHandler>:
     3c8:	4840      	ldr	r0, [pc, #256]	; (4cc <FLEXCOMM8_IRQHandler+0x74>)
     3ca:	4700      	bx	r0

000003cc <ACMP_IRQHandler>:
     3cc:	4840      	ldr	r0, [pc, #256]	; (4d0 <FLEXCOMM8_IRQHandler+0x78>)
     3ce:	4700      	bx	r0

000003d0 <Reserved41_IRQHandler>:
     3d0:	4840      	ldr	r0, [pc, #256]	; (4d4 <FLEXCOMM8_IRQHandler+0x7c>)
     3d2:	4700      	bx	r0

000003d4 <Reserved42_IRQHandler>:
     3d4:	4840      	ldr	r0, [pc, #256]	; (4d8 <FLEXCOMM8_IRQHandler+0x80>)
     3d6:	4700      	bx	r0

000003d8 <USB0_NEEDCLK_IRQHandler>:
     3d8:	4840      	ldr	r0, [pc, #256]	; (4dc <FLEXCOMM8_IRQHandler+0x84>)
     3da:	4700      	bx	r0

000003dc <USB0_IRQHandler>:
     3dc:	4840      	ldr	r0, [pc, #256]	; (4e0 <FLEXCOMM8_IRQHandler+0x88>)
     3de:	4700      	bx	r0

000003e0 <RTC_IRQHandler>:
     3e0:	4840      	ldr	r0, [pc, #256]	; (4e4 <FLEXCOMM8_IRQHandler+0x8c>)
     3e2:	4700      	bx	r0

000003e4 <Reserved46_IRQHandler>:
     3e4:	4840      	ldr	r0, [pc, #256]	; (4e8 <FLEXCOMM8_IRQHandler+0x90>)
     3e6:	4700      	bx	r0

000003e8 <MAILBOX_IRQHandler>:
     3e8:	4840      	ldr	r0, [pc, #256]	; (4ec <FLEXCOMM8_IRQHandler+0x94>)
     3ea:	4700      	bx	r0

000003ec <PIN_INT4_IRQHandler>:
     3ec:	4840      	ldr	r0, [pc, #256]	; (4f0 <FLEXCOMM8_IRQHandler+0x98>)
     3ee:	4700      	bx	r0

000003f0 <PIN_INT5_IRQHandler>:
     3f0:	4840      	ldr	r0, [pc, #256]	; (4f4 <FLEXCOMM8_IRQHandler+0x9c>)
     3f2:	4700      	bx	r0

000003f4 <PIN_INT6_IRQHandler>:
     3f4:	4840      	ldr	r0, [pc, #256]	; (4f8 <FLEXCOMM8_IRQHandler+0xa0>)
     3f6:	4700      	bx	r0

000003f8 <PIN_INT7_IRQHandler>:
     3f8:	4840      	ldr	r0, [pc, #256]	; (4fc <FLEXCOMM8_IRQHandler+0xa4>)
     3fa:	4700      	bx	r0

000003fc <CTIMER2_IRQHandler>:
     3fc:	4840      	ldr	r0, [pc, #256]	; (500 <FLEXCOMM8_IRQHandler+0xa8>)
     3fe:	4700      	bx	r0

00000400 <CTIMER4_IRQHandler>:
     400:	4840      	ldr	r0, [pc, #256]	; (504 <FLEXCOMM8_IRQHandler+0xac>)
     402:	4700      	bx	r0

00000404 <OS_EVENT_IRQHandler>:
     404:	4840      	ldr	r0, [pc, #256]	; (508 <FLEXCOMM8_IRQHandler+0xb0>)
     406:	4700      	bx	r0

00000408 <Reserved55_IRQHandler>:
     408:	4840      	ldr	r0, [pc, #256]	; (50c <FLEXCOMM8_IRQHandler+0xb4>)
     40a:	4700      	bx	r0

0000040c <Reserved56_IRQHandler>:
     40c:	4840      	ldr	r0, [pc, #256]	; (510 <FLEXCOMM8_IRQHandler+0xb8>)
     40e:	4700      	bx	r0

00000410 <Reserved57_IRQHandler>:
     410:	4840      	ldr	r0, [pc, #256]	; (514 <FLEXCOMM8_IRQHandler+0xbc>)
     412:	4700      	bx	r0

00000414 <SDIO_IRQHandler>:
     414:	4840      	ldr	r0, [pc, #256]	; (518 <FLEXCOMM8_IRQHandler+0xc0>)
     416:	4700      	bx	r0

00000418 <Reserved59_IRQHandler>:
     418:	4840      	ldr	r0, [pc, #256]	; (51c <FLEXCOMM8_IRQHandler+0xc4>)
     41a:	4700      	bx	r0

0000041c <Reserved60_IRQHandler>:
     41c:	4840      	ldr	r0, [pc, #256]	; (520 <FLEXCOMM8_IRQHandler+0xc8>)
     41e:	4700      	bx	r0

00000420 <Reserved61_IRQHandler>:
     420:	4840      	ldr	r0, [pc, #256]	; (524 <FLEXCOMM8_IRQHandler+0xcc>)
     422:	4700      	bx	r0

00000424 <USB1_PHY_IRQHandler>:
     424:	4840      	ldr	r0, [pc, #256]	; (528 <FLEXCOMM8_IRQHandler+0xd0>)
     426:	4700      	bx	r0

00000428 <USB1_IRQHandler>:
     428:	4840      	ldr	r0, [pc, #256]	; (52c <FLEXCOMM8_IRQHandler+0xd4>)
     42a:	4700      	bx	r0

0000042c <USB1_NEEDCLK_IRQHandler>:
     42c:	4840      	ldr	r0, [pc, #256]	; (530 <FLEXCOMM8_IRQHandler+0xd8>)
     42e:	4700      	bx	r0

00000430 <SEC_HYPERVISOR_CALL_IRQHandler>:
     430:	4840      	ldr	r0, [pc, #256]	; (534 <FLEXCOMM8_IRQHandler+0xdc>)
     432:	4700      	bx	r0

00000434 <SEC_GPIO_INT0_IRQ0_IRQHandler>:
     434:	4840      	ldr	r0, [pc, #256]	; (538 <FLEXCOMM8_IRQHandler+0xe0>)
     436:	4700      	bx	r0

00000438 <SEC_GPIO_INT0_IRQ1_IRQHandler>:
     438:	4840      	ldr	r0, [pc, #256]	; (53c <FLEXCOMM8_IRQHandler+0xe4>)
     43a:	4700      	bx	r0

0000043c <PLU_IRQHandler>:
     43c:	4840      	ldr	r0, [pc, #256]	; (540 <FLEXCOMM8_IRQHandler+0xe8>)
     43e:	4700      	bx	r0

00000440 <SEC_VIO_IRQHandler>:
     440:	4840      	ldr	r0, [pc, #256]	; (544 <FLEXCOMM8_IRQHandler+0xec>)
     442:	4700      	bx	r0

00000444 <HASHCRYPT_IRQHandler>:
     444:	4840      	ldr	r0, [pc, #256]	; (548 <FLEXCOMM8_IRQHandler+0xf0>)
     446:	4700      	bx	r0

00000448 <CASER_IRQHandler>:
     448:	4840      	ldr	r0, [pc, #256]	; (54c <FLEXCOMM8_IRQHandler+0xf4>)
     44a:	4700      	bx	r0

0000044c <PUF_IRQHandler>:
     44c:	4840      	ldr	r0, [pc, #256]	; (550 <FLEXCOMM8_IRQHandler+0xf8>)
     44e:	4700      	bx	r0

00000450 <PQ_IRQHandler>:
     450:	4840      	ldr	r0, [pc, #256]	; (554 <FLEXCOMM8_IRQHandler+0xfc>)
     452:	4700      	bx	r0

00000454 <DMA1_IRQHandler>:
     454:	4840      	ldr	r0, [pc, #256]	; (558 <FLEXCOMM8_IRQHandler+0x100>)
     456:	4700      	bx	r0

00000458 <FLEXCOMM8_IRQHandler>:
     458:	4840      	ldr	r0, [pc, #256]	; (55c <FLEXCOMM8_IRQHandler+0x104>)
     45a:	4700      	bx	r0
     45c:	00000359 	.word	0x00000359
     460:	0000035d 	.word	0x0000035d
     464:	00000361 	.word	0x00000361
     468:	00000365 	.word	0x00000365
     46c:	00000369 	.word	0x00000369
     470:	00000355 	.word	0x00000355
     474:	00000355 	.word	0x00000355
     478:	00000355 	.word	0x00000355
     47c:	00000355 	.word	0x00000355
     480:	00000355 	.word	0x00000355
     484:	00000355 	.word	0x00000355
     488:	00000355 	.word	0x00000355
     48c:	00000355 	.word	0x00000355
     490:	00000355 	.word	0x00000355
     494:	00000355 	.word	0x00000355
     498:	00000355 	.word	0x00000355
     49c:	00000355 	.word	0x00000355
     4a0:	00000355 	.word	0x00000355
     4a4:	00000355 	.word	0x00000355
     4a8:	00001fe1 	.word	0x00001fe1
     4ac:	00002055 	.word	0x00002055
     4b0:	000020c9 	.word	0x000020c9
     4b4:	0000213d 	.word	0x0000213d
     4b8:	000021b1 	.word	0x000021b1
     4bc:	00002225 	.word	0x00002225
     4c0:	00002299 	.word	0x00002299
     4c4:	0000230f 	.word	0x0000230f
     4c8:	00000355 	.word	0x00000355
     4cc:	00000355 	.word	0x00000355
     4d0:	00000355 	.word	0x00000355
     4d4:	00000355 	.word	0x00000355
     4d8:	00000355 	.word	0x00000355
     4dc:	00000355 	.word	0x00000355
     4e0:	00000355 	.word	0x00000355
     4e4:	00000355 	.word	0x00000355
     4e8:	00000355 	.word	0x00000355
     4ec:	00000355 	.word	0x00000355
     4f0:	00000355 	.word	0x00000355
     4f4:	00000355 	.word	0x00000355
     4f8:	00000355 	.word	0x00000355
     4fc:	00000355 	.word	0x00000355
     500:	00000355 	.word	0x00000355
     504:	00000355 	.word	0x00000355
     508:	00000355 	.word	0x00000355
     50c:	00000355 	.word	0x00000355
     510:	00000355 	.word	0x00000355
     514:	00000355 	.word	0x00000355
     518:	00003163 	.word	0x00003163
     51c:	00000355 	.word	0x00000355
     520:	00000355 	.word	0x00000355
     524:	00000355 	.word	0x00000355
     528:	00000355 	.word	0x00000355
     52c:	00000355 	.word	0x00000355
     530:	00000355 	.word	0x00000355
     534:	00000355 	.word	0x00000355
     538:	00000355 	.word	0x00000355
     53c:	00000355 	.word	0x00000355
     540:	00000355 	.word	0x00000355
     544:	00000355 	.word	0x00000355
     548:	00000355 	.word	0x00000355
     54c:	00000355 	.word	0x00000355
     550:	00000355 	.word	0x00000355
     554:	00000355 	.word	0x00000355
     558:	00000355 	.word	0x00000355
     55c:	00002385 	.word	0x00002385

00000560 <__aeabi_uldivmod>:
     560:	b953      	cbnz	r3, 578 <__aeabi_uldivmod+0x18>
     562:	b94a      	cbnz	r2, 578 <__aeabi_uldivmod+0x18>
     564:	2900      	cmp	r1, #0
     566:	bf08      	it	eq
     568:	2800      	cmpeq	r0, #0
     56a:	bf1c      	itt	ne
     56c:	f04f 31ff 	movne.w	r1, #4294967295	; 0xffffffff
     570:	f04f 30ff 	movne.w	r0, #4294967295	; 0xffffffff
     574:	f000 b982 	b.w	87c <__aeabi_idiv0>
     578:	f1ad 0c08 	sub.w	ip, sp, #8
     57c:	e96d ce04 	strd	ip, lr, [sp, #-16]!
     580:	f000 f806 	bl	590 <__udivmoddi4>
     584:	f8dd e004 	ldr.w	lr, [sp, #4]
     588:	e9dd 2302 	ldrd	r2, r3, [sp, #8]
     58c:	b004      	add	sp, #16
     58e:	4770      	bx	lr

00000590 <__udivmoddi4>:
     590:	e92d 4ff0 	stmdb	sp!, {r4, r5, r6, r7, r8, r9, sl, fp, lr}
     594:	9d09      	ldr	r5, [sp, #36]	; 0x24
     596:	460e      	mov	r6, r1
     598:	4604      	mov	r4, r0
     59a:	460f      	mov	r7, r1
     59c:	2b00      	cmp	r3, #0
     59e:	d147      	bne.n	630 <__udivmoddi4+0xa0>
     5a0:	428a      	cmp	r2, r1
     5a2:	4694      	mov	ip, r2
     5a4:	d95f      	bls.n	666 <__udivmoddi4+0xd6>
     5a6:	fab2 f382 	clz	r3, r2
     5aa:	b143      	cbz	r3, 5be <__udivmoddi4+0x2e>
     5ac:	fa02 fc03 	lsl.w	ip, r2, r3
     5b0:	f1c3 0220 	rsb	r2, r3, #32
     5b4:	409f      	lsls	r7, r3
     5b6:	409c      	lsls	r4, r3
     5b8:	fa20 f202 	lsr.w	r2, r0, r2
     5bc:	4317      	orrs	r7, r2
     5be:	ea4f 461c 	mov.w	r6, ip, lsr #16
     5c2:	fa1f fe8c 	uxth.w	lr, ip
     5c6:	0c22      	lsrs	r2, r4, #16
     5c8:	fbb7 f1f6 	udiv	r1, r7, r6
     5cc:	fb06 7711 	mls	r7, r6, r1, r7
     5d0:	fb01 f00e 	mul.w	r0, r1, lr
     5d4:	ea42 4207 	orr.w	r2, r2, r7, lsl #16
     5d8:	4290      	cmp	r0, r2
     5da:	d908      	bls.n	5ee <__udivmoddi4+0x5e>
     5dc:	eb1c 0202 	adds.w	r2, ip, r2
     5e0:	f101 37ff 	add.w	r7, r1, #4294967295	; 0xffffffff
     5e4:	d202      	bcs.n	5ec <__udivmoddi4+0x5c>
     5e6:	4290      	cmp	r0, r2
     5e8:	f200 8137 	bhi.w	85a <STACK_SIZE+0x5a>
     5ec:	4639      	mov	r1, r7
     5ee:	1a12      	subs	r2, r2, r0
     5f0:	b2a4      	uxth	r4, r4
     5f2:	fbb2 f0f6 	udiv	r0, r2, r6
     5f6:	fb06 2210 	mls	r2, r6, r0, r2
     5fa:	fb00 fe0e 	mul.w	lr, r0, lr
     5fe:	ea44 4402 	orr.w	r4, r4, r2, lsl #16
     602:	45a6      	cmp	lr, r4
     604:	d908      	bls.n	618 <__udivmoddi4+0x88>
     606:	eb1c 0404 	adds.w	r4, ip, r4
     60a:	f100 32ff 	add.w	r2, r0, #4294967295	; 0xffffffff
     60e:	d202      	bcs.n	616 <__udivmoddi4+0x86>
     610:	45a6      	cmp	lr, r4
     612:	f200 811c 	bhi.w	84e <STACK_SIZE+0x4e>
     616:	4610      	mov	r0, r2
     618:	ea40 4001 	orr.w	r0, r0, r1, lsl #16
     61c:	eba4 040e 	sub.w	r4, r4, lr
     620:	2100      	movs	r1, #0
     622:	b11d      	cbz	r5, 62c <__udivmoddi4+0x9c>
     624:	40dc      	lsrs	r4, r3
     626:	2300      	movs	r3, #0
     628:	e9c5 4300 	strd	r4, r3, [r5]
     62c:	e8bd 8ff0 	ldmia.w	sp!, {r4, r5, r6, r7, r8, r9, sl, fp, pc}
     630:	428b      	cmp	r3, r1
     632:	d908      	bls.n	646 <__udivmoddi4+0xb6>
     634:	2d00      	cmp	r5, #0
     636:	f000 80fe 	beq.w	836 <STACK_SIZE+0x36>
     63a:	2100      	movs	r1, #0
     63c:	e9c5 0600 	strd	r0, r6, [r5]
     640:	4608      	mov	r0, r1
     642:	e8bd 8ff0 	ldmia.w	sp!, {r4, r5, r6, r7, r8, r9, sl, fp, pc}
     646:	fab3 f183 	clz	r1, r3
     64a:	2900      	cmp	r1, #0
     64c:	d14c      	bne.n	6e8 <__udivmoddi4+0x158>
     64e:	42b3      	cmp	r3, r6
     650:	f0c0 80f4 	bcc.w	83c <STACK_SIZE+0x3c>
     654:	4282      	cmp	r2, r0
     656:	f240 80f1 	bls.w	83c <STACK_SIZE+0x3c>
     65a:	4608      	mov	r0, r1
     65c:	2d00      	cmp	r5, #0
     65e:	d0e5      	beq.n	62c <__udivmoddi4+0x9c>
     660:	e9c5 4700 	strd	r4, r7, [r5]
     664:	e7e2      	b.n	62c <__udivmoddi4+0x9c>
     666:	b902      	cbnz	r2, 66a <__udivmoddi4+0xda>
     668:	deff      	udf	#255	; 0xff
     66a:	fab2 f382 	clz	r3, r2
     66e:	2b00      	cmp	r3, #0
     670:	f040 80a1 	bne.w	7b6 <__udivmoddi4+0x226>
     674:	1a8a      	subs	r2, r1, r2
     676:	ea4f 4e1c 	mov.w	lr, ip, lsr #16
     67a:	fa1f f78c 	uxth.w	r7, ip
     67e:	2101      	movs	r1, #1
     680:	fbb2 f6fe 	udiv	r6, r2, lr
     684:	fb0e 2016 	mls	r0, lr, r6, r2
     688:	0c22      	lsrs	r2, r4, #16
     68a:	ea42 4200 	orr.w	r2, r2, r0, lsl #16
     68e:	fb07 f006 	mul.w	r0, r7, r6
     692:	4290      	cmp	r0, r2
     694:	d90f      	bls.n	6b6 <__udivmoddi4+0x126>
     696:	eb1c 0202 	adds.w	r2, ip, r2
     69a:	f106 38ff 	add.w	r8, r6, #4294967295	; 0xffffffff
     69e:	bf2c      	ite	cs
     6a0:	f04f 0901 	movcs.w	r9, #1
     6a4:	f04f 0900 	movcc.w	r9, #0
     6a8:	4290      	cmp	r0, r2
     6aa:	d903      	bls.n	6b4 <__udivmoddi4+0x124>
     6ac:	f1b9 0f00 	cmp.w	r9, #0
     6b0:	f000 80d0 	beq.w	854 <STACK_SIZE+0x54>
     6b4:	4646      	mov	r6, r8
     6b6:	1a12      	subs	r2, r2, r0
     6b8:	b2a4      	uxth	r4, r4
     6ba:	fbb2 f0fe 	udiv	r0, r2, lr
     6be:	fb0e 2210 	mls	r2, lr, r0, r2
     6c2:	fb00 f707 	mul.w	r7, r0, r7
     6c6:	ea44 4402 	orr.w	r4, r4, r2, lsl #16
     6ca:	42a7      	cmp	r7, r4
     6cc:	d908      	bls.n	6e0 <__udivmoddi4+0x150>
     6ce:	eb1c 0404 	adds.w	r4, ip, r4
     6d2:	f100 32ff 	add.w	r2, r0, #4294967295	; 0xffffffff
     6d6:	d202      	bcs.n	6de <__udivmoddi4+0x14e>
     6d8:	42a7      	cmp	r7, r4
     6da:	f200 80b5 	bhi.w	848 <STACK_SIZE+0x48>
     6de:	4610      	mov	r0, r2
     6e0:	1be4      	subs	r4, r4, r7
     6e2:	ea40 4006 	orr.w	r0, r0, r6, lsl #16
     6e6:	e79c      	b.n	622 <__udivmoddi4+0x92>
     6e8:	f1c1 0420 	rsb	r4, r1, #32
     6ec:	408b      	lsls	r3, r1
     6ee:	fa06 fc01 	lsl.w	ip, r6, r1
     6f2:	fa00 fe01 	lsl.w	lr, r0, r1
     6f6:	fa22 f704 	lsr.w	r7, r2, r4
     6fa:	40e6      	lsrs	r6, r4
     6fc:	408a      	lsls	r2, r1
     6fe:	431f      	orrs	r7, r3
     700:	fa20 f304 	lsr.w	r3, r0, r4
     704:	ea4f 4817 	mov.w	r8, r7, lsr #16
     708:	ea43 030c 	orr.w	r3, r3, ip
     70c:	fa1f fc87 	uxth.w	ip, r7
     710:	ea4f 4913 	mov.w	r9, r3, lsr #16
     714:	fbb6 f0f8 	udiv	r0, r6, r8
     718:	fb08 6610 	mls	r6, r8, r0, r6
     71c:	ea49 4606 	orr.w	r6, r9, r6, lsl #16
     720:	fb00 f90c 	mul.w	r9, r0, ip
     724:	45b1      	cmp	r9, r6
     726:	d90e      	bls.n	746 <__udivmoddi4+0x1b6>
     728:	19be      	adds	r6, r7, r6
     72a:	f100 3aff 	add.w	sl, r0, #4294967295	; 0xffffffff
     72e:	bf2c      	ite	cs
     730:	f04f 0b01 	movcs.w	fp, #1
     734:	f04f 0b00 	movcc.w	fp, #0
     738:	45b1      	cmp	r9, r6
     73a:	d903      	bls.n	744 <__udivmoddi4+0x1b4>
     73c:	f1bb 0f00 	cmp.w	fp, #0
     740:	f000 808e 	beq.w	860 <STACK_SIZE+0x60>
     744:	4650      	mov	r0, sl
     746:	eba6 0609 	sub.w	r6, r6, r9
     74a:	fa1f f983 	uxth.w	r9, r3
     74e:	fbb6 f3f8 	udiv	r3, r6, r8
     752:	fb08 6613 	mls	r6, r8, r3, r6
     756:	fb03 fc0c 	mul.w	ip, r3, ip
     75a:	ea49 4606 	orr.w	r6, r9, r6, lsl #16
     75e:	45b4      	cmp	ip, r6
     760:	d906      	bls.n	770 <__udivmoddi4+0x1e0>
     762:	19be      	adds	r6, r7, r6
     764:	f103 38ff 	add.w	r8, r3, #4294967295	; 0xffffffff
     768:	d201      	bcs.n	76e <__udivmoddi4+0x1de>
     76a:	45b4      	cmp	ip, r6
     76c:	d87e      	bhi.n	86c <STACK_SIZE+0x6c>
     76e:	4643      	mov	r3, r8
     770:	ea43 4000 	orr.w	r0, r3, r0, lsl #16
     774:	eba6 060c 	sub.w	r6, r6, ip
     778:	fba0 8c02 	umull	r8, ip, r0, r2
     77c:	4566      	cmp	r6, ip
     77e:	4643      	mov	r3, r8
     780:	46e1      	mov	r9, ip
     782:	d302      	bcc.n	78a <__udivmoddi4+0x1fa>
     784:	d107      	bne.n	796 <__udivmoddi4+0x206>
     786:	45c6      	cmp	lr, r8
     788:	d205      	bcs.n	796 <__udivmoddi4+0x206>
     78a:	ebb8 0302 	subs.w	r3, r8, r2
     78e:	eb6c 0c07 	sbc.w	ip, ip, r7
     792:	3801      	subs	r0, #1
     794:	46e1      	mov	r9, ip
     796:	2d00      	cmp	r5, #0
     798:	d06e      	beq.n	878 <STACK_SIZE+0x78>
     79a:	ebbe 0203 	subs.w	r2, lr, r3
     79e:	eb66 0609 	sbc.w	r6, r6, r9
     7a2:	fa22 f301 	lsr.w	r3, r2, r1
     7a6:	fa06 f404 	lsl.w	r4, r6, r4
     7aa:	40ce      	lsrs	r6, r1
     7ac:	2100      	movs	r1, #0
     7ae:	431c      	orrs	r4, r3
     7b0:	e9c5 4600 	strd	r4, r6, [r5]
     7b4:	e73a      	b.n	62c <__udivmoddi4+0x9c>
     7b6:	fa02 fc03 	lsl.w	ip, r2, r3
     7ba:	f1c3 0220 	rsb	r2, r3, #32
     7be:	4099      	lsls	r1, r3
     7c0:	409c      	lsls	r4, r3
     7c2:	40d6      	lsrs	r6, r2
     7c4:	ea4f 4e1c 	mov.w	lr, ip, lsr #16
     7c8:	fa20 f202 	lsr.w	r2, r0, r2
     7cc:	fa1f f78c 	uxth.w	r7, ip
     7d0:	fbb6 f0fe 	udiv	r0, r6, lr
     7d4:	430a      	orrs	r2, r1
     7d6:	fb0e 6610 	mls	r6, lr, r0, r6
     7da:	0c11      	lsrs	r1, r2, #16
     7dc:	ea41 4106 	orr.w	r1, r1, r6, lsl #16
     7e0:	fb00 f607 	mul.w	r6, r0, r7
     7e4:	428e      	cmp	r6, r1
     7e6:	d90e      	bls.n	806 <STACK_SIZE+0x6>
     7e8:	eb1c 0101 	adds.w	r1, ip, r1
     7ec:	f100 38ff 	add.w	r8, r0, #4294967295	; 0xffffffff
     7f0:	bf2c      	ite	cs
     7f2:	f04f 0901 	movcs.w	r9, #1
     7f6:	f04f 0900 	movcc.w	r9, #0
     7fa:	428e      	cmp	r6, r1
     7fc:	d902      	bls.n	804 <STACK_SIZE+0x4>
     7fe:	f1b9 0f00 	cmp.w	r9, #0
     802:	d030      	beq.n	866 <STACK_SIZE+0x66>
     804:	4640      	mov	r0, r8
     806:	1b89      	subs	r1, r1, r6
     808:	b292      	uxth	r2, r2
     80a:	fbb1 f6fe 	udiv	r6, r1, lr
     80e:	fb0e 1116 	mls	r1, lr, r6, r1
     812:	ea42 4201 	orr.w	r2, r2, r1, lsl #16
     816:	fb06 f107 	mul.w	r1, r6, r7
     81a:	4291      	cmp	r1, r2
     81c:	d907      	bls.n	82e <STACK_SIZE+0x2e>
     81e:	eb1c 0202 	adds.w	r2, ip, r2
     822:	f106 38ff 	add.w	r8, r6, #4294967295	; 0xffffffff
     826:	d201      	bcs.n	82c <STACK_SIZE+0x2c>
     828:	4291      	cmp	r1, r2
     82a:	d822      	bhi.n	872 <STACK_SIZE+0x72>
     82c:	4646      	mov	r6, r8
     82e:	1a52      	subs	r2, r2, r1
     830:	ea46 4100 	orr.w	r1, r6, r0, lsl #16
     834:	e724      	b.n	680 <__udivmoddi4+0xf0>
     836:	4629      	mov	r1, r5
     838:	4628      	mov	r0, r5
     83a:	e6f7      	b.n	62c <__udivmoddi4+0x9c>
     83c:	1a84      	subs	r4, r0, r2
     83e:	eb66 0203 	sbc.w	r2, r6, r3
     842:	2001      	movs	r0, #1
     844:	4617      	mov	r7, r2
     846:	e709      	b.n	65c <__udivmoddi4+0xcc>
     848:	4464      	add	r4, ip
     84a:	3802      	subs	r0, #2
     84c:	e748      	b.n	6e0 <__udivmoddi4+0x150>
     84e:	4464      	add	r4, ip
     850:	3802      	subs	r0, #2
     852:	e6e1      	b.n	618 <__udivmoddi4+0x88>
     854:	3e02      	subs	r6, #2
     856:	4462      	add	r2, ip
     858:	e72d      	b.n	6b6 <__udivmoddi4+0x126>
     85a:	3902      	subs	r1, #2
     85c:	4462      	add	r2, ip
     85e:	e6c6      	b.n	5ee <__udivmoddi4+0x5e>
     860:	3802      	subs	r0, #2
     862:	443e      	add	r6, r7
     864:	e76f      	b.n	746 <__udivmoddi4+0x1b6>
     866:	3802      	subs	r0, #2
     868:	4461      	add	r1, ip
     86a:	e7cc      	b.n	806 <STACK_SIZE+0x6>
     86c:	3b02      	subs	r3, #2
     86e:	443e      	add	r6, r7
     870:	e77e      	b.n	770 <__udivmoddi4+0x1e0>
     872:	3e02      	subs	r6, #2
     874:	4462      	add	r2, ip
     876:	e7da      	b.n	82e <STACK_SIZE+0x2e>
     878:	4629      	mov	r1, r5
     87a:	e6d7      	b.n	62c <__udivmoddi4+0x9c>

0000087c <__aeabi_idiv0>:
     87c:	4770      	bx	lr
     87e:	bf00      	nop

00000880 <__aeabi_memset>:
     880:	b470      	push	{r4, r5, r6}
     882:	0784      	lsls	r4, r0, #30
     884:	d046      	beq.n	914 <__aeabi_memset+0x94>
     886:	1e4c      	subs	r4, r1, #1
     888:	2900      	cmp	r1, #0
     88a:	d041      	beq.n	910 <__aeabi_memset+0x90>
     88c:	b2d5      	uxtb	r5, r2
     88e:	4603      	mov	r3, r0
     890:	e002      	b.n	898 <__aeabi_memset+0x18>
     892:	1e61      	subs	r1, r4, #1
     894:	b3e4      	cbz	r4, 910 <__aeabi_memset+0x90>
     896:	460c      	mov	r4, r1
     898:	f803 5b01 	strb.w	r5, [r3], #1
     89c:	0799      	lsls	r1, r3, #30
     89e:	d1f8      	bne.n	892 <__aeabi_memset+0x12>
     8a0:	2c03      	cmp	r4, #3
     8a2:	d92e      	bls.n	902 <__aeabi_memset+0x82>
     8a4:	b2d5      	uxtb	r5, r2
     8a6:	ea45 2505 	orr.w	r5, r5, r5, lsl #8
     8aa:	2c0f      	cmp	r4, #15
     8ac:	ea45 4505 	orr.w	r5, r5, r5, lsl #16
     8b0:	d919      	bls.n	8e6 <__aeabi_memset+0x66>
     8b2:	4626      	mov	r6, r4
     8b4:	f103 0110 	add.w	r1, r3, #16
     8b8:	3e10      	subs	r6, #16
     8ba:	2e0f      	cmp	r6, #15
     8bc:	f841 5c10 	str.w	r5, [r1, #-16]
     8c0:	f841 5c0c 	str.w	r5, [r1, #-12]
     8c4:	f841 5c08 	str.w	r5, [r1, #-8]
     8c8:	f841 5c04 	str.w	r5, [r1, #-4]
     8cc:	f101 0110 	add.w	r1, r1, #16
     8d0:	d8f2      	bhi.n	8b8 <__aeabi_memset+0x38>
     8d2:	f1a4 0110 	sub.w	r1, r4, #16
     8d6:	f021 010f 	bic.w	r1, r1, #15
     8da:	f004 040f 	and.w	r4, r4, #15
     8de:	3110      	adds	r1, #16
     8e0:	2c03      	cmp	r4, #3
     8e2:	440b      	add	r3, r1
     8e4:	d90d      	bls.n	902 <__aeabi_memset+0x82>
     8e6:	461e      	mov	r6, r3
     8e8:	4621      	mov	r1, r4
     8ea:	3904      	subs	r1, #4
     8ec:	2903      	cmp	r1, #3
     8ee:	f846 5b04 	str.w	r5, [r6], #4
     8f2:	d8fa      	bhi.n	8ea <__aeabi_memset+0x6a>
     8f4:	1f21      	subs	r1, r4, #4
     8f6:	f021 0103 	bic.w	r1, r1, #3
     8fa:	3104      	adds	r1, #4
     8fc:	440b      	add	r3, r1
     8fe:	f004 0403 	and.w	r4, r4, #3
     902:	b12c      	cbz	r4, 910 <__aeabi_memset+0x90>
     904:	b2d2      	uxtb	r2, r2
     906:	441c      	add	r4, r3
     908:	f803 2b01 	strb.w	r2, [r3], #1
     90c:	42a3      	cmp	r3, r4
     90e:	d1fb      	bne.n	908 <__aeabi_memset+0x88>
     910:	bc70      	pop	{r4, r5, r6}
     912:	4770      	bx	lr
     914:	460c      	mov	r4, r1
     916:	4603      	mov	r3, r0
     918:	e7c2      	b.n	8a0 <__aeabi_memset+0x20>
	...

0000091c <memcpy>:
     91c:	4684      	mov	ip, r0
     91e:	ea41 0300 	orr.w	r3, r1, r0
     922:	f013 0303 	ands.w	r3, r3, #3
     926:	d149      	bne.n	9bc <memcpy+0xa0>
     928:	3a40      	subs	r2, #64	; 0x40
     92a:	d323      	bcc.n	974 <memcpy+0x58>
     92c:	680b      	ldr	r3, [r1, #0]
     92e:	6003      	str	r3, [r0, #0]
     930:	684b      	ldr	r3, [r1, #4]
     932:	6043      	str	r3, [r0, #4]
     934:	688b      	ldr	r3, [r1, #8]
     936:	6083      	str	r3, [r0, #8]
     938:	68cb      	ldr	r3, [r1, #12]
     93a:	60c3      	str	r3, [r0, #12]
     93c:	690b      	ldr	r3, [r1, #16]
     93e:	6103      	str	r3, [r0, #16]
     940:	694b      	ldr	r3, [r1, #20]
     942:	6143      	str	r3, [r0, #20]
     944:	698b      	ldr	r3, [r1, #24]
     946:	6183      	str	r3, [r0, #24]
     948:	69cb      	ldr	r3, [r1, #28]
     94a:	61c3      	str	r3, [r0, #28]
     94c:	6a0b      	ldr	r3, [r1, #32]
     94e:	6203      	str	r3, [r0, #32]
     950:	6a4b      	ldr	r3, [r1, #36]	; 0x24
     952:	6243      	str	r3, [r0, #36]	; 0x24
     954:	6a8b      	ldr	r3, [r1, #40]	; 0x28
     956:	6283      	str	r3, [r0, #40]	; 0x28
     958:	6acb      	ldr	r3, [r1, #44]	; 0x2c
     95a:	62c3      	str	r3, [r0, #44]	; 0x2c
     95c:	6b0b      	ldr	r3, [r1, #48]	; 0x30
     95e:	6303      	str	r3, [r0, #48]	; 0x30
     960:	6b4b      	ldr	r3, [r1, #52]	; 0x34
     962:	6343      	str	r3, [r0, #52]	; 0x34
     964:	6b8b      	ldr	r3, [r1, #56]	; 0x38
     966:	6383      	str	r3, [r0, #56]	; 0x38
     968:	6bcb      	ldr	r3, [r1, #60]	; 0x3c
     96a:	63c3      	str	r3, [r0, #60]	; 0x3c
     96c:	3040      	adds	r0, #64	; 0x40
     96e:	3140      	adds	r1, #64	; 0x40
     970:	3a40      	subs	r2, #64	; 0x40
     972:	d2db      	bcs.n	92c <memcpy+0x10>
     974:	3230      	adds	r2, #48	; 0x30
     976:	d30b      	bcc.n	990 <memcpy+0x74>
     978:	680b      	ldr	r3, [r1, #0]
     97a:	6003      	str	r3, [r0, #0]
     97c:	684b      	ldr	r3, [r1, #4]
     97e:	6043      	str	r3, [r0, #4]
     980:	688b      	ldr	r3, [r1, #8]
     982:	6083      	str	r3, [r0, #8]
     984:	68cb      	ldr	r3, [r1, #12]
     986:	60c3      	str	r3, [r0, #12]
     988:	3010      	adds	r0, #16
     98a:	3110      	adds	r1, #16
     98c:	3a10      	subs	r2, #16
     98e:	d2f3      	bcs.n	978 <memcpy+0x5c>
     990:	320c      	adds	r2, #12
     992:	d305      	bcc.n	9a0 <memcpy+0x84>
     994:	f851 3b04 	ldr.w	r3, [r1], #4
     998:	f840 3b04 	str.w	r3, [r0], #4
     99c:	3a04      	subs	r2, #4
     99e:	d2f9      	bcs.n	994 <memcpy+0x78>
     9a0:	3204      	adds	r2, #4
     9a2:	d008      	beq.n	9b6 <memcpy+0x9a>
     9a4:	07d2      	lsls	r2, r2, #31
     9a6:	bf1c      	itt	ne
     9a8:	f811 3b01 	ldrbne.w	r3, [r1], #1
     9ac:	f800 3b01 	strbne.w	r3, [r0], #1
     9b0:	d301      	bcc.n	9b6 <memcpy+0x9a>
     9b2:	880b      	ldrh	r3, [r1, #0]
     9b4:	8003      	strh	r3, [r0, #0]
     9b6:	4660      	mov	r0, ip
     9b8:	4770      	bx	lr
     9ba:	bf00      	nop
     9bc:	2a08      	cmp	r2, #8
     9be:	d313      	bcc.n	9e8 <memcpy+0xcc>
     9c0:	078b      	lsls	r3, r1, #30
     9c2:	d0b1      	beq.n	928 <memcpy+0xc>
     9c4:	f010 0303 	ands.w	r3, r0, #3
     9c8:	d0ae      	beq.n	928 <memcpy+0xc>
     9ca:	f1c3 0304 	rsb	r3, r3, #4
     9ce:	1ad2      	subs	r2, r2, r3
     9d0:	07db      	lsls	r3, r3, #31
     9d2:	bf1c      	itt	ne
     9d4:	f811 3b01 	ldrbne.w	r3, [r1], #1
     9d8:	f800 3b01 	strbne.w	r3, [r0], #1
     9dc:	d3a4      	bcc.n	928 <memcpy+0xc>
     9de:	f831 3b02 	ldrh.w	r3, [r1], #2
     9e2:	f820 3b02 	strh.w	r3, [r0], #2
     9e6:	e79f      	b.n	928 <memcpy+0xc>
     9e8:	3a04      	subs	r2, #4
     9ea:	d3d9      	bcc.n	9a0 <memcpy+0x84>
     9ec:	3a01      	subs	r2, #1
     9ee:	f811 3b01 	ldrb.w	r3, [r1], #1
     9f2:	f800 3b01 	strb.w	r3, [r0], #1
     9f6:	d2f9      	bcs.n	9ec <memcpy+0xd0>
     9f8:	780b      	ldrb	r3, [r1, #0]
     9fa:	7003      	strb	r3, [r0, #0]
     9fc:	784b      	ldrb	r3, [r1, #1]
     9fe:	7043      	strb	r3, [r0, #1]
     a00:	788b      	ldrb	r3, [r1, #2]
     a02:	7083      	strb	r3, [r0, #2]
     a04:	4660      	mov	r0, ip
     a06:	4770      	bx	lr

00000a08 <SystemInit>:
     a08:	b580      	push	{r7, lr}
     a0a:	466f      	mov	r7, sp
     a0c:	f64e 5188 	movw	r1, #60808	; 0xed88
     a10:	f2ce 0100 	movt	r1, #57344	; 0xe000
     a14:	6808      	ldr	r0, [r1, #0]
     a16:	f440 0070 	orr.w	r0, r0, #15728640	; 0xf00000
     a1a:	6008      	str	r0, [r1, #0]
     a1c:	6808      	ldr	r0, [r1, #0]
     a1e:	f040 000f 	orr.w	r0, r0, #15
     a22:	6008      	str	r0, [r1, #0]
     a24:	f64e 518c 	movw	r1, #60812	; 0xed8c
     a28:	f2ce 0100 	movt	r1, #57344	; 0xe000
     a2c:	6808      	ldr	r0, [r1, #0]
     a2e:	f640 4203 	movw	r2, #3075	; 0xc03
     a32:	4310      	orrs	r0, r2
     a34:	6008      	str	r0, [r1, #0]
     a36:	f240 0000 	movw	r0, #0
     a3a:	f2c0 0000 	movt	r0, #0
     a3e:	f64e 5108 	movw	r1, #60680	; 0xed08
     a42:	f2ce 0100 	movt	r1, #57344	; 0xe000
     a46:	6008      	str	r0, [r1, #0]
     a48:	f240 3108 	movw	r1, #776	; 0x308
     a4c:	f2c4 0100 	movt	r1, #16384	; 0x4000
     a50:	2000      	movs	r0, #0
     a52:	6008      	str	r0, [r1, #0]
     a54:	f240 2120 	movw	r1, #544	; 0x220
     a58:	f2c4 0100 	movt	r1, #16384	; 0x4000
     a5c:	2078      	movs	r0, #120	; 0x78
     a5e:	6008      	str	r0, [r1, #0]
     a60:	f000 f801 	bl	a66 <SystemInitHook>
     a64:	bd80      	pop	{r7, pc}

00000a66 <SystemInitHook>:
     a66:	4770      	bx	lr

00000a68 <SDK_DelayAtLeastUs>:
     a68:	b580      	push	{r7, lr}
     a6a:	466f      	mov	r7, sp
     a6c:	b084      	sub	sp, #16
     a6e:	9102      	str	r1, [sp, #8]
     a70:	9003      	str	r0, [sp, #12]
     a72:	b340      	cbz	r0, ac6 <SDK_DelayAtLeastUs+0x5e>
     a74:	e7ff      	b.n	a76 <SDK_DelayAtLeastUs+0xe>
     a76:	9803      	ldr	r0, [sp, #12]
     a78:	9902      	ldr	r1, [sp, #8]
     a7a:	fba0 0101 	umull	r0, r1, r0, r1
     a7e:	f244 2240 	movw	r2, #16960	; 0x4240
     a82:	f2c0 020f 	movt	r2, #15
     a86:	2300      	movs	r3, #0
     a88:	f7ff fd6a 	bl	560 <__aeabi_uldivmod>
     a8c:	460a      	mov	r2, r1
     a8e:	9200      	str	r2, [sp, #0]
     a90:	9001      	str	r0, [sp, #4]
     a92:	b909      	cbnz	r1, a98 <SDK_DelayAtLeastUs+0x30>
     a94:	e7ff      	b.n	a96 <SDK_DelayAtLeastUs+0x2e>
     a96:	e00e      	b.n	ab6 <SDK_DelayAtLeastUs+0x4e>
     a98:	f64e 3044 	movw	r0, #60228	; 0xeb44
     a9c:	f2c0 0000 	movt	r0, #0
     aa0:	f64e 32b5 	movw	r2, #60341	; 0xebb5
     aa4:	f2c0 0200 	movt	r2, #0
     aa8:	f64e 33c8 	movw	r3, #60360	; 0xebc8
     aac:	f2c0 0300 	movt	r3, #0
     ab0:	21d5      	movs	r1, #213	; 0xd5
     ab2:	f00a ff83 	bl	b9bc <__assert_func>
     ab6:	9900      	ldr	r1, [sp, #0]
     ab8:	9801      	ldr	r0, [sp, #4]
     aba:	0880      	lsrs	r0, r0, #2
     abc:	ea40 7081 	orr.w	r0, r0, r1, lsl #30
     ac0:	f000 f803 	bl	aca <DelayLoop>
     ac4:	e7ff      	b.n	ac6 <SDK_DelayAtLeastUs+0x5e>
     ac6:	b004      	add	sp, #16
     ac8:	bd80      	pop	{r7, pc}

00000aca <DelayLoop>:
     aca:	4600      	mov	r0, r0

00000acc <loop>:
     acc:	f1a0 0001 	sub.w	r0, r0, #1
     ad0:	2800      	cmp	r0, #0
     ad2:	d1fb      	bne.n	acc <loop>
     ad4:	4770      	bx	lr

00000ad6 <CLOCK_AttachClk>:
     ad6:	b089      	sub	sp, #36	; 0x24
     ad8:	9008      	str	r0, [sp, #32]
     ada:	f1b0 4f00 	cmp.w	r0, #2147483648	; 0x80000000
     ade:	d045      	beq.n	b6c <CLOCK_AttachClk+0x96>
     ae0:	e7ff      	b.n	ae2 <CLOCK_AttachClk+0xc>
     ae2:	9908      	ldr	r1, [sp, #32]
     ae4:	2000      	movs	r0, #0
     ae6:	9106      	str	r1, [sp, #24]
     ae8:	9007      	str	r0, [sp, #28]
     aea:	e7ff      	b.n	aec <CLOCK_AttachClk+0x16>
     aec:	9906      	ldr	r1, [sp, #24]
     aee:	9807      	ldr	r0, [sp, #28]
     af0:	9004      	str	r0, [sp, #16]
     af2:	9105      	str	r1, [sp, #20]
     af4:	2801      	cmp	r0, #1
     af6:	d838      	bhi.n	b6a <CLOCK_AttachClk+0x94>
     af8:	e7ff      	b.n	afa <CLOCK_AttachClk+0x24>
     afa:	9805      	ldr	r0, [sp, #20]
     afc:	b908      	cbnz	r0, b02 <CLOCK_AttachClk+0x2c>
     afe:	e7ff      	b.n	b00 <CLOCK_AttachClk+0x2a>
     b00:	e033      	b.n	b6a <CLOCK_AttachClk+0x94>
     b02:	9805      	ldr	r0, [sp, #20]
     b04:	f36f 301f 	bfc	r0, #12, #20
     b08:	4601      	mov	r1, r0
     b0a:	9103      	str	r1, [sp, #12]
     b0c:	b318      	cbz	r0, b56 <CLOCK_AttachClk+0x80>
     b0e:	e7ff      	b.n	b10 <CLOCK_AttachClk+0x3a>
     b10:	9903      	ldr	r1, [sp, #12]
     b12:	b2c8      	uxtb	r0, r1
     b14:	4602      	mov	r2, r0
     b16:	9201      	str	r2, [sp, #4]
     b18:	f401 6270 	and.w	r2, r1, #3840	; 0xf00
     b1c:	f04f 31ff 	mov.w	r1, #4294967295	; 0xffffffff
     b20:	eb01 2112 	add.w	r1, r1, r2, lsr #8
     b24:	9102      	str	r1, [sp, #8]
     b26:	283f      	cmp	r0, #63	; 0x3f
     b28:	d109      	bne.n	b3e <CLOCK_AttachClk+0x68>
     b2a:	e7ff      	b.n	b2c <CLOCK_AttachClk+0x56>
     b2c:	9a02      	ldr	r2, [sp, #8]
     b2e:	2198      	movs	r1, #152	; 0x98
     b30:	f2c4 0102 	movt	r1, #16386	; 0x4002
     b34:	6808      	ldr	r0, [r1, #0]
     b36:	f362 0000 	bfi	r0, r2, #0, #1
     b3a:	6008      	str	r0, [r1, #0]
     b3c:	e00a      	b.n	b54 <CLOCK_AttachClk+0x7e>
     b3e:	9901      	ldr	r1, [sp, #4]
     b40:	9802      	ldr	r0, [sp, #8]
     b42:	b2c0      	uxtb	r0, r0
     b44:	b2ca      	uxtb	r2, r1
     b46:	f240 2160 	movw	r1, #608	; 0x260
     b4a:	f2c4 0100 	movt	r1, #16384	; 0x4000
     b4e:	f841 0022 	str.w	r0, [r1, r2, lsl #2]
     b52:	e7ff      	b.n	b54 <CLOCK_AttachClk+0x7e>
     b54:	e7ff      	b.n	b56 <CLOCK_AttachClk+0x80>
     b56:	9805      	ldr	r0, [sp, #20]
     b58:	0b00      	lsrs	r0, r0, #12
     b5a:	9000      	str	r0, [sp, #0]
     b5c:	e7ff      	b.n	b5e <CLOCK_AttachClk+0x88>
     b5e:	9900      	ldr	r1, [sp, #0]
     b60:	9804      	ldr	r0, [sp, #16]
     b62:	3001      	adds	r0, #1
     b64:	9106      	str	r1, [sp, #24]
     b66:	9007      	str	r0, [sp, #28]
     b68:	e7c0      	b.n	aec <CLOCK_AttachClk+0x16>
     b6a:	e7ff      	b.n	b6c <CLOCK_AttachClk+0x96>
     b6c:	b009      	add	sp, #36	; 0x24
     b6e:	4770      	bx	lr

00000b70 <CLOCK_SetClkDiv>:
     b70:	b083      	sub	sp, #12
     b72:	9100      	str	r1, [sp, #0]
     b74:	4601      	mov	r1, r0
     b76:	9101      	str	r1, [sp, #4]
     b78:	9202      	str	r2, [sp, #8]
     b7a:	2808      	cmp	r0, #8
     b7c:	db12      	blt.n	ba4 <CLOCK_SetClkDiv+0x34>
     b7e:	e7ff      	b.n	b80 <CLOCK_SetClkDiv+0x10>
     b80:	9801      	ldr	r0, [sp, #4]
     b82:	b2c0      	uxtb	r0, r0
     b84:	280f      	cmp	r0, #15
     b86:	dc0d      	bgt.n	ba4 <CLOCK_SetClkDiv+0x34>
     b88:	e7ff      	b.n	b8a <CLOCK_SetClkDiv+0x1a>
     b8a:	9901      	ldr	r1, [sp, #4]
     b8c:	9a00      	ldr	r2, [sp, #0]
     b8e:	20ff      	movs	r0, #255	; 0xff
     b90:	f362 200f 	bfi	r0, r2, #8, #8
     b94:	b2ca      	uxtb	r2, r1
     b96:	f240 3100 	movw	r1, #768	; 0x300
     b9a:	f2c4 0100 	movt	r1, #16384	; 0x4000
     b9e:	f841 0022 	str.w	r0, [r1, r2, lsl #2]
     ba2:	e028      	b.n	bf6 <CLOCK_SetClkDiv+0x86>
     ba4:	9802      	ldr	r0, [sp, #8]
     ba6:	07c0      	lsls	r0, r0, #31
     ba8:	b158      	cbz	r0, bc2 <CLOCK_SetClkDiv+0x52>
     baa:	e7ff      	b.n	bac <CLOCK_SetClkDiv+0x3c>
     bac:	9801      	ldr	r0, [sp, #4]
     bae:	b2c2      	uxtb	r2, r0
     bb0:	f240 3100 	movw	r1, #768	; 0x300
     bb4:	f2c4 0100 	movt	r1, #16384	; 0x4000
     bb8:	f04f 5000 	mov.w	r0, #536870912	; 0x20000000
     bbc:	f841 0022 	str.w	r0, [r1, r2, lsl #2]
     bc0:	e7ff      	b.n	bc2 <CLOCK_SetClkDiv+0x52>
     bc2:	9800      	ldr	r0, [sp, #0]
     bc4:	b958      	cbnz	r0, bde <CLOCK_SetClkDiv+0x6e>
     bc6:	e7ff      	b.n	bc8 <CLOCK_SetClkDiv+0x58>
     bc8:	9801      	ldr	r0, [sp, #4]
     bca:	b2c2      	uxtb	r2, r0
     bcc:	f240 3100 	movw	r1, #768	; 0x300
     bd0:	f2c4 0100 	movt	r1, #16384	; 0x4000
     bd4:	f04f 4080 	mov.w	r0, #1073741824	; 0x40000000
     bd8:	f841 0022 	str.w	r0, [r1, r2, lsl #2]
     bdc:	e00a      	b.n	bf4 <CLOCK_SetClkDiv+0x84>
     bde:	9901      	ldr	r1, [sp, #4]
     be0:	9800      	ldr	r0, [sp, #0]
     be2:	3801      	subs	r0, #1
     be4:	b2ca      	uxtb	r2, r1
     be6:	f240 3100 	movw	r1, #768	; 0x300
     bea:	f2c4 0100 	movt	r1, #16384	; 0x4000
     bee:	f841 0022 	str.w	r0, [r1, r2, lsl #2]
     bf2:	e7ff      	b.n	bf4 <CLOCK_SetClkDiv+0x84>
     bf4:	e7ff      	b.n	bf6 <CLOCK_SetClkDiv+0x86>
     bf6:	b003      	add	sp, #12
     bf8:	4770      	bx	lr

00000bfa <CLOCK_SetupFROClocking>:
     bfa:	b580      	push	{r7, lr}
     bfc:	466f      	mov	r7, sp
     bfe:	b082      	sub	sp, #8
     c00:	9001      	str	r0, [sp, #4]
     c02:	f641 3100 	movw	r1, #6912	; 0x1b00
     c06:	f2c0 01b7 	movt	r1, #183	; 0xb7
     c0a:	4288      	cmp	r0, r1
     c0c:	d013      	beq.n	c36 <CLOCK_SetupFROClocking+0x3c>
     c0e:	e7ff      	b.n	c10 <CLOCK_SetupFROClocking+0x16>
     c10:	9801      	ldr	r0, [sp, #4]
     c12:	f646 4100 	movw	r1, #27648	; 0x6c00
     c16:	f2c0 21dc 	movt	r1, #732	; 0x2dc
     c1a:	4288      	cmp	r0, r1
     c1c:	d00b      	beq.n	c36 <CLOCK_SetupFROClocking+0x3c>
     c1e:	e7ff      	b.n	c20 <CLOCK_SetupFROClocking+0x26>
     c20:	9801      	ldr	r0, [sp, #4]
     c22:	f64d 0100 	movw	r1, #55296	; 0xd800
     c26:	f2c0 51b8 	movt	r1, #1464	; 0x5b8
     c2a:	4288      	cmp	r0, r1
     c2c:	d003      	beq.n	c36 <CLOCK_SetupFROClocking+0x3c>
     c2e:	e7ff      	b.n	c30 <CLOCK_SetupFROClocking+0x36>
     c30:	2001      	movs	r0, #1
     c32:	9000      	str	r0, [sp, #0]
     c34:	e02b      	b.n	c8e <CLOCK_SetupFROClocking+0x94>
     c36:	f240 1148 	movw	r1, #328	; 0x148
     c3a:	f2c4 0100 	movt	r1, #16384	; 0x4000
     c3e:	f04f 6000 	mov.w	r0, #134217728	; 0x8000000
     c42:	6008      	str	r0, [r1, #0]
     c44:	f240 2128 	movw	r1, #552	; 0x228
     c48:	f2c4 0100 	movt	r1, #16384	; 0x4000
     c4c:	6008      	str	r0, [r1, #0]
     c4e:	2020      	movs	r0, #32
     c50:	f000 f820 	bl	c94 <POWER_DisablePD>
     c54:	9801      	ldr	r0, [sp, #4]
     c56:	f64d 0100 	movw	r1, #55296	; 0xd800
     c5a:	f2c0 51b8 	movt	r1, #1464	; 0x5b8
     c5e:	4288      	cmp	r0, r1
     c60:	d109      	bne.n	c76 <CLOCK_SetupFROClocking+0x7c>
     c62:	e7ff      	b.n	c64 <CLOCK_SetupFROClocking+0x6a>
     c64:	f243 0110 	movw	r1, #12304	; 0x3010
     c68:	f2c4 0101 	movt	r1, #16385	; 0x4001
     c6c:	6808      	ldr	r0, [r1, #0]
     c6e:	f040 4080 	orr.w	r0, r0, #1073741824	; 0x40000000
     c72:	6008      	str	r0, [r1, #0]
     c74:	e008      	b.n	c88 <CLOCK_SetupFROClocking+0x8e>
     c76:	f243 0110 	movw	r1, #12304	; 0x3010
     c7a:	f2c4 0101 	movt	r1, #16385	; 0x4001
     c7e:	6808      	ldr	r0, [r1, #0]
     c80:	f440 4080 	orr.w	r0, r0, #16384	; 0x4000
     c84:	6008      	str	r0, [r1, #0]
     c86:	e7ff      	b.n	c88 <CLOCK_SetupFROClocking+0x8e>
     c88:	2000      	movs	r0, #0
     c8a:	9000      	str	r0, [sp, #0]
     c8c:	e7ff      	b.n	c8e <CLOCK_SetupFROClocking+0x94>
     c8e:	9800      	ldr	r0, [sp, #0]
     c90:	b002      	add	sp, #8
     c92:	bd80      	pop	{r7, pc}

00000c94 <POWER_DisablePD>:
     c94:	21c8      	movs	r1, #200	; 0xc8
     c96:	f2c4 0102 	movt	r1, #16386	; 0x4002
     c9a:	6008      	str	r0, [r1, #0]
     c9c:	4770      	bx	lr

00000c9e <CLOCK_SetFLASHAccessCyclesForFreq>:
     c9e:	b08f      	sub	sp, #60	; 0x3c
     ca0:	900d      	str	r0, [sp, #52]	; 0x34
     ca2:	f240 4100 	movw	r1, #1024	; 0x400
     ca6:	f2c4 0100 	movt	r1, #16384	; 0x4000
     caa:	6809      	ldr	r1, [r1, #0]
     cac:	f001 0120 	and.w	r1, r1, #32
     cb0:	910e      	str	r1, [sp, #56]	; 0x38
     cb2:	f64d 01c0 	movw	r1, #55488	; 0xd8c0
     cb6:	f2c0 01a7 	movt	r1, #167	; 0xa7
     cba:	4288      	cmp	r0, r1
     cbc:	d803      	bhi.n	cc6 <CLOCK_SetFLASHAccessCyclesForFreq+0x28>
     cbe:	e7ff      	b.n	cc0 <CLOCK_SetFLASHAccessCyclesForFreq+0x22>
     cc0:	2000      	movs	r0, #0
     cc2:	900c      	str	r0, [sp, #48]	; 0x30
     cc4:	e09c      	b.n	e00 <CLOCK_SetFLASHAccessCyclesForFreq+0x162>
     cc6:	980d      	ldr	r0, [sp, #52]	; 0x34
     cc8:	f24b 1180 	movw	r1, #45440	; 0xb180
     ccc:	f2c0 114f 	movt	r1, #335	; 0x14f
     cd0:	4288      	cmp	r0, r1
     cd2:	d803      	bhi.n	cdc <CLOCK_SetFLASHAccessCyclesForFreq+0x3e>
     cd4:	e7ff      	b.n	cd6 <CLOCK_SetFLASHAccessCyclesForFreq+0x38>
     cd6:	2001      	movs	r0, #1
     cd8:	900b      	str	r0, [sp, #44]	; 0x2c
     cda:	e08e      	b.n	dfa <CLOCK_SetFLASHAccessCyclesForFreq+0x15c>
     cdc:	980d      	ldr	r0, [sp, #52]	; 0x34
     cde:	f648 2140 	movw	r1, #35392	; 0x8a40
     ce2:	f2c0 11f7 	movt	r1, #503	; 0x1f7
     ce6:	4288      	cmp	r0, r1
     ce8:	d803      	bhi.n	cf2 <CLOCK_SetFLASHAccessCyclesForFreq+0x54>
     cea:	e7ff      	b.n	cec <CLOCK_SetFLASHAccessCyclesForFreq+0x4e>
     cec:	2002      	movs	r0, #2
     cee:	900a      	str	r0, [sp, #40]	; 0x28
     cf0:	e080      	b.n	df4 <CLOCK_SetFLASHAccessCyclesForFreq+0x156>
     cf2:	980d      	ldr	r0, [sp, #52]	; 0x34
     cf4:	f246 3100 	movw	r1, #25344	; 0x6300
     cf8:	f2c0 219f 	movt	r1, #671	; 0x29f
     cfc:	4288      	cmp	r0, r1
     cfe:	d803      	bhi.n	d08 <CLOCK_SetFLASHAccessCyclesForFreq+0x6a>
     d00:	e7ff      	b.n	d02 <CLOCK_SetFLASHAccessCyclesForFreq+0x64>
     d02:	2003      	movs	r0, #3
     d04:	9009      	str	r0, [sp, #36]	; 0x24
     d06:	e072      	b.n	dee <CLOCK_SetFLASHAccessCyclesForFreq+0x150>
     d08:	980d      	ldr	r0, [sp, #52]	; 0x34
     d0a:	f643 31c0 	movw	r1, #15296	; 0x3bc0
     d0e:	f2c0 3147 	movt	r1, #839	; 0x347
     d12:	4288      	cmp	r0, r1
     d14:	d803      	bhi.n	d1e <CLOCK_SetFLASHAccessCyclesForFreq+0x80>
     d16:	e7ff      	b.n	d18 <CLOCK_SetFLASHAccessCyclesForFreq+0x7a>
     d18:	2004      	movs	r0, #4
     d1a:	9008      	str	r0, [sp, #32]
     d1c:	e064      	b.n	de8 <CLOCK_SetFLASHAccessCyclesForFreq+0x14a>
     d1e:	980d      	ldr	r0, [sp, #52]	; 0x34
     d20:	f241 4180 	movw	r1, #5248	; 0x1480
     d24:	f2c0 31ef 	movt	r1, #1007	; 0x3ef
     d28:	4288      	cmp	r0, r1
     d2a:	d803      	bhi.n	d34 <CLOCK_SetFLASHAccessCyclesForFreq+0x96>
     d2c:	e7ff      	b.n	d2e <CLOCK_SetFLASHAccessCyclesForFreq+0x90>
     d2e:	2005      	movs	r0, #5
     d30:	9007      	str	r0, [sp, #28]
     d32:	e056      	b.n	de2 <CLOCK_SetFLASHAccessCyclesForFreq+0x144>
     d34:	980d      	ldr	r0, [sp, #52]	; 0x34
     d36:	f64e 5140 	movw	r1, #60736	; 0xed40
     d3a:	f2c0 4196 	movt	r1, #1174	; 0x496
     d3e:	4288      	cmp	r0, r1
     d40:	d803      	bhi.n	d4a <CLOCK_SetFLASHAccessCyclesForFreq+0xac>
     d42:	e7ff      	b.n	d44 <CLOCK_SetFLASHAccessCyclesForFreq+0xa6>
     d44:	2006      	movs	r0, #6
     d46:	9006      	str	r0, [sp, #24]
     d48:	e048      	b.n	ddc <CLOCK_SetFLASHAccessCyclesForFreq+0x13e>
     d4a:	980d      	ldr	r0, [sp, #52]	; 0x34
     d4c:	f24c 6100 	movw	r1, #50688	; 0xc600
     d50:	f2c0 513e 	movt	r1, #1342	; 0x53e
     d54:	4288      	cmp	r0, r1
     d56:	d803      	bhi.n	d60 <CLOCK_SetFLASHAccessCyclesForFreq+0xc2>
     d58:	e7ff      	b.n	d5a <CLOCK_SetFLASHAccessCyclesForFreq+0xbc>
     d5a:	2007      	movs	r0, #7
     d5c:	9005      	str	r0, [sp, #20]
     d5e:	e03a      	b.n	dd6 <CLOCK_SetFLASHAccessCyclesForFreq+0x138>
     d60:	980d      	ldr	r0, [sp, #52]	; 0x34
     d62:	f24e 1100 	movw	r1, #57600	; 0xe100
     d66:	f2c0 51f5 	movt	r1, #1525	; 0x5f5
     d6a:	4288      	cmp	r0, r1
     d6c:	d803      	bhi.n	d76 <CLOCK_SetFLASHAccessCyclesForFreq+0xd8>
     d6e:	e7ff      	b.n	d70 <CLOCK_SetFLASHAccessCyclesForFreq+0xd2>
     d70:	2008      	movs	r0, #8
     d72:	9004      	str	r0, [sp, #16]
     d74:	e02c      	b.n	dd0 <CLOCK_SetFLASHAccessCyclesForFreq+0x132>
     d76:	980d      	ldr	r0, [sp, #52]	; 0x34
     d78:	f24c 21c0 	movw	r1, #49856	; 0xc2c0
     d7c:	f2c0 61da 	movt	r1, #1754	; 0x6da
     d80:	4288      	cmp	r0, r1
     d82:	d803      	bhi.n	d8c <CLOCK_SetFLASHAccessCyclesForFreq+0xee>
     d84:	e7ff      	b.n	d86 <CLOCK_SetFLASHAccessCyclesForFreq+0xe8>
     d86:	2009      	movs	r0, #9
     d88:	9003      	str	r0, [sp, #12]
     d8a:	e01e      	b.n	dca <CLOCK_SetFLASHAccessCyclesForFreq+0x12c>
     d8c:	980d      	ldr	r0, [sp, #52]	; 0x34
     d8e:	f24a 4180 	movw	r1, #42112	; 0xa480
     d92:	f2c0 71bf 	movt	r1, #1983	; 0x7bf
     d96:	4288      	cmp	r0, r1
     d98:	d803      	bhi.n	da2 <CLOCK_SetFLASHAccessCyclesForFreq+0x104>
     d9a:	e7ff      	b.n	d9c <CLOCK_SetFLASHAccessCyclesForFreq+0xfe>
     d9c:	200a      	movs	r0, #10
     d9e:	9002      	str	r0, [sp, #8]
     da0:	e010      	b.n	dc4 <CLOCK_SetFLASHAccessCyclesForFreq+0x126>
     da2:	980d      	ldr	r0, [sp, #52]	; 0x34
     da4:	f24d 1180 	movw	r1, #53632	; 0xd180
     da8:	f6c0 01f0 	movt	r1, #2288	; 0x8f0
     dac:	4288      	cmp	r0, r1
     dae:	d803      	bhi.n	db8 <CLOCK_SetFLASHAccessCyclesForFreq+0x11a>
     db0:	e7ff      	b.n	db2 <CLOCK_SetFLASHAccessCyclesForFreq+0x114>
     db2:	200b      	movs	r0, #11
     db4:	9001      	str	r0, [sp, #4]
     db6:	e002      	b.n	dbe <CLOCK_SetFLASHAccessCyclesForFreq+0x120>
     db8:	200c      	movs	r0, #12
     dba:	9001      	str	r0, [sp, #4]
     dbc:	e7ff      	b.n	dbe <CLOCK_SetFLASHAccessCyclesForFreq+0x120>
     dbe:	9801      	ldr	r0, [sp, #4]
     dc0:	9002      	str	r0, [sp, #8]
     dc2:	e7ff      	b.n	dc4 <CLOCK_SetFLASHAccessCyclesForFreq+0x126>
     dc4:	9802      	ldr	r0, [sp, #8]
     dc6:	9003      	str	r0, [sp, #12]
     dc8:	e7ff      	b.n	dca <CLOCK_SetFLASHAccessCyclesForFreq+0x12c>
     dca:	9803      	ldr	r0, [sp, #12]
     dcc:	9004      	str	r0, [sp, #16]
     dce:	e7ff      	b.n	dd0 <CLOCK_SetFLASHAccessCyclesForFreq+0x132>
     dd0:	9804      	ldr	r0, [sp, #16]
     dd2:	9005      	str	r0, [sp, #20]
     dd4:	e7ff      	b.n	dd6 <CLOCK_SetFLASHAccessCyclesForFreq+0x138>
     dd6:	9805      	ldr	r0, [sp, #20]
     dd8:	9006      	str	r0, [sp, #24]
     dda:	e7ff      	b.n	ddc <CLOCK_SetFLASHAccessCyclesForFreq+0x13e>
     ddc:	9806      	ldr	r0, [sp, #24]
     dde:	9007      	str	r0, [sp, #28]
     de0:	e7ff      	b.n	de2 <CLOCK_SetFLASHAccessCyclesForFreq+0x144>
     de2:	9807      	ldr	r0, [sp, #28]
     de4:	9008      	str	r0, [sp, #32]
     de6:	e7ff      	b.n	de8 <CLOCK_SetFLASHAccessCyclesForFreq+0x14a>
     de8:	9808      	ldr	r0, [sp, #32]
     dea:	9009      	str	r0, [sp, #36]	; 0x24
     dec:	e7ff      	b.n	dee <CLOCK_SetFLASHAccessCyclesForFreq+0x150>
     dee:	9809      	ldr	r0, [sp, #36]	; 0x24
     df0:	900a      	str	r0, [sp, #40]	; 0x28
     df2:	e7ff      	b.n	df4 <CLOCK_SetFLASHAccessCyclesForFreq+0x156>
     df4:	980a      	ldr	r0, [sp, #40]	; 0x28
     df6:	900b      	str	r0, [sp, #44]	; 0x2c
     df8:	e7ff      	b.n	dfa <CLOCK_SetFLASHAccessCyclesForFreq+0x15c>
     dfa:	980b      	ldr	r0, [sp, #44]	; 0x2c
     dfc:	900c      	str	r0, [sp, #48]	; 0x30
     dfe:	e7ff      	b.n	e00 <CLOCK_SetFLASHAccessCyclesForFreq+0x162>
     e00:	9a0c      	ldr	r2, [sp, #48]	; 0x30
     e02:	9200      	str	r2, [sp, #0]
     e04:	f240 4100 	movw	r1, #1024	; 0x400
     e08:	f2c4 0100 	movt	r1, #16384	; 0x4000
     e0c:	6808      	ldr	r0, [r1, #0]
     e0e:	f020 0020 	bic.w	r0, r0, #32
     e12:	6008      	str	r0, [r1, #0]
     e14:	f644 71e8 	movw	r1, #20456	; 0x4fe8
     e18:	f2c4 0103 	movt	r1, #16387	; 0x4003
     e1c:	201f      	movs	r0, #31
     e1e:	6008      	str	r0, [r1, #0]
     e20:	f244 0180 	movw	r1, #16512	; 0x4080
     e24:	f2c4 0103 	movt	r1, #16387	; 0x4003
     e28:	6808      	ldr	r0, [r1, #0]
     e2a:	f362 0003 	bfi	r0, r2, #0, #4
     e2e:	6008      	str	r0, [r1, #0]
     e30:	f244 0100 	movw	r1, #16384	; 0x4000
     e34:	f2c4 0103 	movt	r1, #16387	; 0x4003
     e38:	2002      	movs	r0, #2
     e3a:	6008      	str	r0, [r1, #0]
     e3c:	e7ff      	b.n	e3e <CLOCK_SetFLASHAccessCyclesForFreq+0x1a0>
     e3e:	f644 70e0 	movw	r0, #20448	; 0x4fe0
     e42:	f2c4 0003 	movt	r0, #16387	; 0x4003
     e46:	6800      	ldr	r0, [r0, #0]
     e48:	0740      	lsls	r0, r0, #29
     e4a:	2800      	cmp	r0, #0
     e4c:	d401      	bmi.n	e52 <CLOCK_SetFLASHAccessCyclesForFreq+0x1b4>
     e4e:	e7ff      	b.n	e50 <CLOCK_SetFLASHAccessCyclesForFreq+0x1b2>
     e50:	e7f5      	b.n	e3e <CLOCK_SetFLASHAccessCyclesForFreq+0x1a0>
     e52:	9a0e      	ldr	r2, [sp, #56]	; 0x38
     e54:	9b00      	ldr	r3, [sp, #0]
     e56:	f240 4100 	movw	r1, #1024	; 0x400
     e5a:	f2c4 0100 	movt	r1, #16384	; 0x4000
     e5e:	6808      	ldr	r0, [r1, #0]
     e60:	f363 300f 	bfi	r0, r3, #12, #4
     e64:	6008      	str	r0, [r1, #0]
     e66:	6808      	ldr	r0, [r1, #0]
     e68:	4310      	orrs	r0, r2
     e6a:	6008      	str	r0, [r1, #0]
     e6c:	b00f      	add	sp, #60	; 0x3c
     e6e:	4770      	bx	lr

00000e70 <CLOCK_SetupExtClocking>:
     e70:	b580      	push	{r7, lr}
     e72:	466f      	mov	r7, sp
     e74:	b082      	sub	sp, #8
     e76:	9001      	str	r0, [sp, #4]
     e78:	f644 0101 	movw	r1, #18433	; 0x4801
     e7c:	f2c0 11e8 	movt	r1, #488	; 0x1e8
     e80:	4288      	cmp	r0, r1
     e82:	d303      	bcc.n	e8c <CLOCK_SetupExtClocking+0x1c>
     e84:	e7ff      	b.n	e86 <CLOCK_SetupExtClocking+0x16>
     e86:	2001      	movs	r0, #1
     e88:	9000      	str	r0, [sp, #0]
     e8a:	e022      	b.n	ed2 <CLOCK_SetupExtClocking+0x62>
     e8c:	f44f 7080 	mov.w	r0, #256	; 0x100
     e90:	f7ff ff00 	bl	c94 <POWER_DisablePD>
     e94:	f44f 1080 	mov.w	r0, #1048576	; 0x100000
     e98:	f7ff fefc 	bl	c94 <POWER_DisablePD>
     e9c:	f640 2118 	movw	r1, #2584	; 0xa18
     ea0:	f2c4 0100 	movt	r1, #16384	; 0x4000
     ea4:	6808      	ldr	r0, [r1, #0]
     ea6:	f040 0020 	orr.w	r0, r0, #32
     eaa:	6008      	str	r0, [r1, #0]
     eac:	e7ff      	b.n	eae <CLOCK_SetupExtClocking+0x3e>
     eae:	f243 0024 	movw	r0, #12324	; 0x3024
     eb2:	f2c4 0001 	movt	r0, #16385	; 0x4001
     eb6:	6800      	ldr	r0, [r0, #0]
     eb8:	07c0      	lsls	r0, r0, #31
     eba:	b908      	cbnz	r0, ec0 <CLOCK_SetupExtClocking+0x50>
     ebc:	e7ff      	b.n	ebe <CLOCK_SetupExtClocking+0x4e>
     ebe:	e7f6      	b.n	eae <CLOCK_SetupExtClocking+0x3e>
     ec0:	9801      	ldr	r0, [sp, #4]
     ec2:	f240 0104 	movw	r1, #4
     ec6:	f2c2 0100 	movt	r1, #8192	; 0x2000
     eca:	6008      	str	r0, [r1, #0]
     ecc:	2000      	movs	r0, #0
     ece:	9000      	str	r0, [sp, #0]
     ed0:	e7ff      	b.n	ed2 <CLOCK_SetupExtClocking+0x62>
     ed2:	9800      	ldr	r0, [sp, #0]
     ed4:	b002      	add	sp, #8
     ed6:	bd80      	pop	{r7, pc}

00000ed8 <CLOCK_GetCoreSysClkFreq>:
     ed8:	b580      	push	{r7, lr}
     eda:	466f      	mov	r7, sp
     edc:	b086      	sub	sp, #24
     ede:	f240 2084 	movw	r0, #644	; 0x284
     ee2:	f2c4 0000 	movt	r0, #16384	; 0x4000
     ee6:	6800      	ldr	r0, [r0, #0]
     ee8:	9005      	str	r0, [sp, #20]
     eea:	2803      	cmp	r0, #3
     eec:	d84e      	bhi.n	f8c <CLOCK_GetCoreSysClkFreq+0xb4>
     eee:	9905      	ldr	r1, [sp, #20]
     ef0:	e8df f001 	tbb	[pc, r1]
     ef4:	48444002 	.word	0x48444002
     ef8:	f240 2080 	movw	r0, #640	; 0x280
     efc:	f2c4 0000 	movt	r0, #16384	; 0x4000
     f00:	6800      	ldr	r0, [r0, #0]
     f02:	b920      	cbnz	r0, f0e <CLOCK_GetCoreSysClkFreq+0x36>
     f04:	e7ff      	b.n	f06 <CLOCK_GetCoreSysClkFreq+0x2e>
     f06:	f000 f8fb 	bl	1100 <CLOCK_GetFro12MFreq>
     f0a:	9004      	str	r0, [sp, #16]
     f0c:	e02f      	b.n	f6e <CLOCK_GetCoreSysClkFreq+0x96>
     f0e:	f240 2080 	movw	r0, #640	; 0x280
     f12:	f2c4 0000 	movt	r0, #16384	; 0x4000
     f16:	6800      	ldr	r0, [r0, #0]
     f18:	2801      	cmp	r0, #1
     f1a:	d104      	bne.n	f26 <CLOCK_GetCoreSysClkFreq+0x4e>
     f1c:	e7ff      	b.n	f1e <CLOCK_GetCoreSysClkFreq+0x46>
     f1e:	f000 f841 	bl	fa4 <CLOCK_GetExtClkFreq>
     f22:	9003      	str	r0, [sp, #12]
     f24:	e020      	b.n	f68 <CLOCK_GetCoreSysClkFreq+0x90>
     f26:	f240 2080 	movw	r0, #640	; 0x280
     f2a:	f2c4 0000 	movt	r0, #16384	; 0x4000
     f2e:	6800      	ldr	r0, [r0, #0]
     f30:	2802      	cmp	r0, #2
     f32:	d104      	bne.n	f3e <CLOCK_GetCoreSysClkFreq+0x66>
     f34:	e7ff      	b.n	f36 <CLOCK_GetCoreSysClkFreq+0x5e>
     f36:	f000 f85a 	bl	fee <CLOCK_GetFro1MFreq>
     f3a:	9002      	str	r0, [sp, #8]
     f3c:	e011      	b.n	f62 <CLOCK_GetCoreSysClkFreq+0x8a>
     f3e:	f240 2080 	movw	r0, #640	; 0x280
     f42:	f2c4 0000 	movt	r0, #16384	; 0x4000
     f46:	6800      	ldr	r0, [r0, #0]
     f48:	2803      	cmp	r0, #3
     f4a:	d104      	bne.n	f56 <CLOCK_GetCoreSysClkFreq+0x7e>
     f4c:	e7ff      	b.n	f4e <CLOCK_GetCoreSysClkFreq+0x76>
     f4e:	f000 f840 	bl	fd2 <CLOCK_GetFroHfFreq>
     f52:	9001      	str	r0, [sp, #4]
     f54:	e002      	b.n	f5c <CLOCK_GetCoreSysClkFreq+0x84>
     f56:	2000      	movs	r0, #0
     f58:	9001      	str	r0, [sp, #4]
     f5a:	e7ff      	b.n	f5c <CLOCK_GetCoreSysClkFreq+0x84>
     f5c:	9801      	ldr	r0, [sp, #4]
     f5e:	9002      	str	r0, [sp, #8]
     f60:	e7ff      	b.n	f62 <CLOCK_GetCoreSysClkFreq+0x8a>
     f62:	9802      	ldr	r0, [sp, #8]
     f64:	9003      	str	r0, [sp, #12]
     f66:	e7ff      	b.n	f68 <CLOCK_GetCoreSysClkFreq+0x90>
     f68:	9803      	ldr	r0, [sp, #12]
     f6a:	9004      	str	r0, [sp, #16]
     f6c:	e7ff      	b.n	f6e <CLOCK_GetCoreSysClkFreq+0x96>
     f6e:	9804      	ldr	r0, [sp, #16]
     f70:	9000      	str	r0, [sp, #0]
     f72:	e00e      	b.n	f92 <CLOCK_GetCoreSysClkFreq+0xba>
     f74:	f000 f810 	bl	f98 <CLOCK_GetPll0OutFreq>
     f78:	9000      	str	r0, [sp, #0]
     f7a:	e00a      	b.n	f92 <CLOCK_GetCoreSysClkFreq+0xba>
     f7c:	f000 f845 	bl	100a <CLOCK_GetPll1OutFreq>
     f80:	9000      	str	r0, [sp, #0]
     f82:	e006      	b.n	f92 <CLOCK_GetCoreSysClkFreq+0xba>
     f84:	f000 f847 	bl	1016 <CLOCK_GetOsc32KFreq>
     f88:	9000      	str	r0, [sp, #0]
     f8a:	e002      	b.n	f92 <CLOCK_GetCoreSysClkFreq+0xba>
     f8c:	2000      	movs	r0, #0
     f8e:	9000      	str	r0, [sp, #0]
     f90:	e7ff      	b.n	f92 <CLOCK_GetCoreSysClkFreq+0xba>
     f92:	9800      	ldr	r0, [sp, #0]
     f94:	b006      	add	sp, #24
     f96:	bd80      	pop	{r7, pc}

00000f98 <CLOCK_GetPll0OutFreq>:
     f98:	f640 10d4 	movw	r0, #2516	; 0x9d4
     f9c:	f2c2 0000 	movt	r0, #8192	; 0x2000
     fa0:	6800      	ldr	r0, [r0, #0]
     fa2:	4770      	bx	lr

00000fa4 <CLOCK_GetExtClkFreq>:
     fa4:	b081      	sub	sp, #4
     fa6:	f243 0020 	movw	r0, #12320	; 0x3020
     faa:	f2c4 0001 	movt	r0, #16385	; 0x4001
     fae:	6800      	ldr	r0, [r0, #0]
     fb0:	01c0      	lsls	r0, r0, #7
     fb2:	2800      	cmp	r0, #0
     fb4:	d507      	bpl.n	fc6 <CLOCK_GetExtClkFreq+0x22>
     fb6:	e7ff      	b.n	fb8 <CLOCK_GetExtClkFreq+0x14>
     fb8:	f240 0004 	movw	r0, #4
     fbc:	f2c2 0000 	movt	r0, #8192	; 0x2000
     fc0:	6800      	ldr	r0, [r0, #0]
     fc2:	9000      	str	r0, [sp, #0]
     fc4:	e002      	b.n	fcc <CLOCK_GetExtClkFreq+0x28>
     fc6:	2000      	movs	r0, #0
     fc8:	9000      	str	r0, [sp, #0]
     fca:	e7ff      	b.n	fcc <CLOCK_GetExtClkFreq+0x28>
     fcc:	9800      	ldr	r0, [sp, #0]
     fce:	b001      	add	sp, #4
     fd0:	4770      	bx	lr

00000fd2 <CLOCK_GetFroHfFreq>:
     fd2:	f243 0010 	movw	r0, #12304	; 0x3010
     fd6:	f2c4 0001 	movt	r0, #16385	; 0x4001
     fda:	6800      	ldr	r0, [r0, #0]
     fdc:	f000 4080 	and.w	r0, r0, #1073741824	; 0x40000000
     fe0:	2800      	cmp	r0, #0
     fe2:	bf1c      	itt	ne
     fe4:	f64d 0000 	movwne	r0, #55296	; 0xd800
     fe8:	f2c0 50b8 	movtne	r0, #1464	; 0x5b8
     fec:	4770      	bx	lr

00000fee <CLOCK_GetFro1MFreq>:
     fee:	f640 2018 	movw	r0, #2584	; 0xa18
     ff2:	f2c4 0000 	movt	r0, #16384	; 0x4000
     ff6:	6800      	ldr	r0, [r0, #0]
     ff8:	f000 0040 	and.w	r0, r0, #64	; 0x40
     ffc:	2800      	cmp	r0, #0
     ffe:	bf1c      	itt	ne
    1000:	f244 2040 	movwne	r0, #16960	; 0x4240
    1004:	f2c0 000f 	movtne	r0, #15
    1008:	4770      	bx	lr

0000100a <CLOCK_GetPll1OutFreq>:
    100a:	f640 10d8 	movw	r0, #2520	; 0x9d8
    100e:	f2c2 0000 	movt	r0, #8192	; 0x2000
    1012:	6800      	ldr	r0, [r0, #0]
    1014:	4770      	bx	lr

00001016 <CLOCK_GetOsc32KFreq>:
    1016:	b082      	sub	sp, #8
    1018:	20b8      	movs	r0, #184	; 0xb8
    101a:	f2c4 0002 	movt	r0, #16386	; 0x4002
    101e:	6800      	ldr	r0, [r0, #0]
    1020:	0640      	lsls	r0, r0, #25
    1022:	2800      	cmp	r0, #0
    1024:	d40b      	bmi.n	103e <CLOCK_GetOsc32KFreq+0x28>
    1026:	e7ff      	b.n	1028 <CLOCK_GetOsc32KFreq+0x12>
    1028:	2098      	movs	r0, #152	; 0x98
    102a:	f2c4 0002 	movt	r0, #16386	; 0x4002
    102e:	6800      	ldr	r0, [r0, #0]
    1030:	07c0      	lsls	r0, r0, #31
    1032:	b920      	cbnz	r0, 103e <CLOCK_GetOsc32KFreq+0x28>
    1034:	e7ff      	b.n	1036 <CLOCK_GetOsc32KFreq+0x20>
    1036:	f44f 4000 	mov.w	r0, #32768	; 0x8000
    103a:	9001      	str	r0, [sp, #4]
    103c:	e01a      	b.n	1074 <CLOCK_GetOsc32KFreq+0x5e>
    103e:	20b8      	movs	r0, #184	; 0xb8
    1040:	f2c4 0002 	movt	r0, #16386	; 0x4002
    1044:	6801      	ldr	r1, [r0, #0]
    1046:	2000      	movs	r0, #0
    1048:	0609      	lsls	r1, r1, #24
    104a:	2900      	cmp	r1, #0
    104c:	9000      	str	r0, [sp, #0]
    104e:	d408      	bmi.n	1062 <CLOCK_GetOsc32KFreq+0x4c>
    1050:	e7ff      	b.n	1052 <CLOCK_GetOsc32KFreq+0x3c>
    1052:	2098      	movs	r0, #152	; 0x98
    1054:	f2c4 0002 	movt	r0, #16386	; 0x4002
    1058:	6800      	ldr	r0, [r0, #0]
    105a:	f000 0001 	and.w	r0, r0, #1
    105e:	9000      	str	r0, [sp, #0]
    1060:	e7ff      	b.n	1062 <CLOCK_GetOsc32KFreq+0x4c>
    1062:	9800      	ldr	r0, [sp, #0]
    1064:	f000 0001 	and.w	r0, r0, #1
    1068:	2800      	cmp	r0, #0
    106a:	bf18      	it	ne
    106c:	f44f 4000 	movne.w	r0, #32768	; 0x8000
    1070:	9001      	str	r0, [sp, #4]
    1072:	e7ff      	b.n	1074 <CLOCK_GetOsc32KFreq+0x5e>
    1074:	9801      	ldr	r0, [sp, #4]
    1076:	b002      	add	sp, #8
    1078:	4770      	bx	lr
	...

0000107c <CLOCK_GetSdioClkFreq>:
    107c:	b580      	push	{r7, lr}
    107e:	466f      	mov	r7, sp
    1080:	b082      	sub	sp, #8
    1082:	f240 20f8 	movw	r0, #760	; 0x2f8
    1086:	f2c4 0000 	movt	r0, #16384	; 0x4000
    108a:	6800      	ldr	r0, [r0, #0]
    108c:	9001      	str	r0, [sp, #4]
    108e:	2807      	cmp	r0, #7
    1090:	d819      	bhi.n	10c6 <CLOCK_GetSdioClkFreq+0x4a>
    1092:	9901      	ldr	r1, [sp, #4]
    1094:	e8df f001 	tbb	[pc, r1]
    1098:	0c170804 	.word	0x0c170804
    109c:	14171017 	.word	0x14171017
    10a0:	f7ff ff1a 	bl	ed8 <CLOCK_GetCoreSysClkFreq>
    10a4:	9000      	str	r0, [sp, #0]
    10a6:	e01e      	b.n	10e6 <CLOCK_GetSdioClkFreq+0x6a>
    10a8:	f7ff ff76 	bl	f98 <CLOCK_GetPll0OutFreq>
    10ac:	9000      	str	r0, [sp, #0]
    10ae:	e01a      	b.n	10e6 <CLOCK_GetSdioClkFreq+0x6a>
    10b0:	f7ff ff8f 	bl	fd2 <CLOCK_GetFroHfFreq>
    10b4:	9000      	str	r0, [sp, #0]
    10b6:	e016      	b.n	10e6 <CLOCK_GetSdioClkFreq+0x6a>
    10b8:	f7ff ffa7 	bl	100a <CLOCK_GetPll1OutFreq>
    10bc:	9000      	str	r0, [sp, #0]
    10be:	e012      	b.n	10e6 <CLOCK_GetSdioClkFreq+0x6a>
    10c0:	2000      	movs	r0, #0
    10c2:	9000      	str	r0, [sp, #0]
    10c4:	e00f      	b.n	10e6 <CLOCK_GetSdioClkFreq+0x6a>
    10c6:	f64e 30dc 	movw	r0, #60380	; 0xebdc
    10ca:	f2c0 0000 	movt	r0, #0
    10ce:	f64e 4261 	movw	r2, #60513	; 0xec61
    10d2:	f2c0 0200 	movt	r2, #0
    10d6:	f64e 4309 	movw	r3, #60425	; 0xec09
    10da:	f2c0 0300 	movt	r3, #0
    10de:	f240 2196 	movw	r1, #662	; 0x296
    10e2:	f00a fc6b 	bl	b9bc <__assert_func>
    10e6:	9800      	ldr	r0, [sp, #0]
    10e8:	f240 31bc 	movw	r1, #956	; 0x3bc
    10ec:	f2c4 0100 	movt	r1, #16384	; 0x4000
    10f0:	680a      	ldr	r2, [r1, #0]
    10f2:	2101      	movs	r1, #1
    10f4:	fa51 f182 	uxtab	r1, r1, r2
    10f8:	fbb0 f0f1 	udiv	r0, r0, r1
    10fc:	b002      	add	sp, #8
    10fe:	bd80      	pop	{r7, pc}

00001100 <CLOCK_GetFro12MFreq>:
    1100:	f243 0010 	movw	r0, #12304	; 0x3010
    1104:	f2c4 0001 	movt	r0, #16385	; 0x4001
    1108:	6800      	ldr	r0, [r0, #0]
    110a:	f400 4080 	and.w	r0, r0, #16384	; 0x4000
    110e:	2800      	cmp	r0, #0
    1110:	bf1c      	itt	ne
    1112:	f641 3000 	movwne	r0, #6912	; 0x1b00
    1116:	f2c0 00b7 	movtne	r0, #183	; 0xb7
    111a:	4770      	bx	lr

0000111c <CLOCK_GetPLL0InClockRate>:
    111c:	b580      	push	{r7, lr}
    111e:	466f      	mov	r7, sp
    1120:	b082      	sub	sp, #8
    1122:	f240 2090 	movw	r0, #656	; 0x290
    1126:	f2c4 0000 	movt	r0, #16384	; 0x4000
    112a:	6800      	ldr	r0, [r0, #0]
    112c:	f000 0007 	and.w	r0, r0, #7
    1130:	4601      	mov	r1, r0
    1132:	9101      	str	r1, [sp, #4]
    1134:	2803      	cmp	r0, #3
    1136:	d816      	bhi.n	1166 <CLOCK_GetPLL0InClockRate+0x4a>
    1138:	9901      	ldr	r1, [sp, #4]
    113a:	e8df f001 	tbb	[pc, r1]
    113e:	0802      	.short	0x0802
    1140:	100c      	.short	0x100c
    1142:	f641 3000 	movw	r0, #6912	; 0x1b00
    1146:	f2c0 00b7 	movt	r0, #183	; 0xb7
    114a:	9000      	str	r0, [sp, #0]
    114c:	e00e      	b.n	116c <CLOCK_GetPLL0InClockRate+0x50>
    114e:	f7ff ff29 	bl	fa4 <CLOCK_GetExtClkFreq>
    1152:	9000      	str	r0, [sp, #0]
    1154:	e00a      	b.n	116c <CLOCK_GetPLL0InClockRate+0x50>
    1156:	f7ff ff4a 	bl	fee <CLOCK_GetFro1MFreq>
    115a:	9000      	str	r0, [sp, #0]
    115c:	e006      	b.n	116c <CLOCK_GetPLL0InClockRate+0x50>
    115e:	f7ff ff5a 	bl	1016 <CLOCK_GetOsc32KFreq>
    1162:	9000      	str	r0, [sp, #0]
    1164:	e002      	b.n	116c <CLOCK_GetPLL0InClockRate+0x50>
    1166:	2000      	movs	r0, #0
    1168:	9000      	str	r0, [sp, #0]
    116a:	e7ff      	b.n	116c <CLOCK_GetPLL0InClockRate+0x50>
    116c:	9800      	ldr	r0, [sp, #0]
    116e:	b002      	add	sp, #8
    1170:	bd80      	pop	{r7, pc}

00001172 <findPll0PreDiv>:
    1172:	b082      	sub	sp, #8
    1174:	f240 5080 	movw	r0, #1408	; 0x580
    1178:	f2c4 0000 	movt	r0, #16384	; 0x4000
    117c:	6801      	ldr	r1, [r0, #0]
    117e:	2001      	movs	r0, #1
    1180:	0309      	lsls	r1, r1, #12
    1182:	2900      	cmp	r1, #0
    1184:	9001      	str	r0, [sp, #4]
    1186:	d410      	bmi.n	11aa <findPll0PreDiv+0x38>
    1188:	e7ff      	b.n	118a <findPll0PreDiv+0x18>
    118a:	f240 5088 	movw	r0, #1416	; 0x588
    118e:	f2c4 0000 	movt	r0, #16384	; 0x4000
    1192:	6800      	ldr	r0, [r0, #0]
    1194:	b2c1      	uxtb	r1, r0
    1196:	4608      	mov	r0, r1
    1198:	9000      	str	r0, [sp, #0]
    119a:	b919      	cbnz	r1, 11a4 <findPll0PreDiv+0x32>
    119c:	e7ff      	b.n	119e <findPll0PreDiv+0x2c>
    119e:	2001      	movs	r0, #1
    11a0:	9000      	str	r0, [sp, #0]
    11a2:	e7ff      	b.n	11a4 <findPll0PreDiv+0x32>
    11a4:	9800      	ldr	r0, [sp, #0]
    11a6:	9001      	str	r0, [sp, #4]
    11a8:	e7ff      	b.n	11aa <findPll0PreDiv+0x38>
    11aa:	9801      	ldr	r0, [sp, #4]
    11ac:	b002      	add	sp, #8
    11ae:	4770      	bx	lr

000011b0 <POWER_EnablePD>:
    11b0:	21c0      	movs	r1, #192	; 0xc0
    11b2:	f2c4 0102 	movt	r1, #16386	; 0x4002
    11b6:	6008      	str	r0, [r1, #0]
    11b8:	4770      	bx	lr

000011ba <CLOCK_IsPLL0Locked>:
    11ba:	f240 5084 	movw	r0, #1412	; 0x584
    11be:	f2c4 0000 	movt	r0, #16384	; 0x4000
    11c2:	6800      	ldr	r0, [r0, #0]
    11c4:	f000 0001 	and.w	r0, r0, #1
    11c8:	4770      	bx	lr

000011ca <CLOCK_SetPLL0Freq>:
    11ca:	b580      	push	{r7, lr}
    11cc:	466f      	mov	r7, sp
    11ce:	b08a      	sub	sp, #40	; 0x28
    11d0:	9009      	str	r0, [sp, #36]	; 0x24
    11d2:	f44f 7000 	mov.w	r0, #512	; 0x200
    11d6:	9007      	str	r0, [sp, #28]
    11d8:	f7ff ffea 	bl	11b0 <POWER_EnablePD>
    11dc:	f44f 0000 	mov.w	r0, #8388608	; 0x800000
    11e0:	9008      	str	r0, [sp, #32]
    11e2:	f7ff ffe5 	bl	11b0 <POWER_EnablePD>
    11e6:	9807      	ldr	r0, [sp, #28]
    11e8:	9909      	ldr	r1, [sp, #36]	; 0x24
    11ea:	680a      	ldr	r2, [r1, #0]
    11ec:	f240 5380 	movw	r3, #1408	; 0x580
    11f0:	f2c4 0300 	movt	r3, #16384	; 0x4000
    11f4:	601a      	str	r2, [r3, #0]
    11f6:	684a      	ldr	r2, [r1, #4]
    11f8:	f240 5388 	movw	r3, #1416	; 0x588
    11fc:	f2c4 0300 	movt	r3, #16384	; 0x4000
    1200:	601a      	str	r2, [r3, #0]
    1202:	684a      	ldr	r2, [r1, #4]
    1204:	f442 7280 	orr.w	r2, r2, #256	; 0x100
    1208:	601a      	str	r2, [r3, #0]
    120a:	688a      	ldr	r2, [r1, #8]
    120c:	f240 538c 	movw	r3, #1420	; 0x58c
    1210:	f2c4 0300 	movt	r3, #16384	; 0x4000
    1214:	601a      	str	r2, [r3, #0]
    1216:	688a      	ldr	r2, [r1, #8]
    1218:	f042 0220 	orr.w	r2, r2, #32
    121c:	601a      	str	r2, [r3, #0]
    121e:	690a      	ldr	r2, [r1, #16]
    1220:	f240 5390 	movw	r3, #1424	; 0x590
    1224:	f2c4 0300 	movt	r3, #16384	; 0x4000
    1228:	601a      	str	r2, [r3, #0]
    122a:	694b      	ldr	r3, [r1, #20]
    122c:	f240 5294 	movw	r2, #1428	; 0x594
    1230:	f2c4 0200 	movt	r2, #16384	; 0x4000
    1234:	6013      	str	r3, [r2, #0]
    1236:	6949      	ldr	r1, [r1, #20]
    1238:	2302      	movs	r3, #2
    123a:	f2c0 4300 	movt	r3, #1024	; 0x400
    123e:	4319      	orrs	r1, r3
    1240:	6011      	str	r1, [r2, #0]
    1242:	f7ff fd27 	bl	c94 <POWER_DisablePD>
    1246:	9808      	ldr	r0, [sp, #32]
    1248:	f7ff fd24 	bl	c94 <POWER_DisablePD>
    124c:	9809      	ldr	r0, [sp, #36]	; 0x24
    124e:	7f00      	ldrb	r0, [r0, #28]
    1250:	0780      	lsls	r0, r0, #30
    1252:	2800      	cmp	r0, #0
    1254:	d55b      	bpl.n	130e <CLOCK_SetPLL0Freq+0x144>
    1256:	e7ff      	b.n	1258 <CLOCK_SetPLL0Freq+0x8e>
    1258:	f240 5094 	movw	r0, #1428	; 0x594
    125c:	f2c4 0000 	movt	r0, #16384	; 0x4000
    1260:	6800      	ldr	r0, [r0, #0]
    1262:	00c0      	lsls	r0, r0, #3
    1264:	2800      	cmp	r0, #0
    1266:	d548      	bpl.n	12fa <CLOCK_SetPLL0Freq+0x130>
    1268:	e7ff      	b.n	126a <CLOCK_SetPLL0Freq+0xa0>
    126a:	f7ff ff57 	bl	111c <CLOCK_GetPLL0InClockRate>
    126e:	9005      	str	r0, [sp, #20]
    1270:	f7ff ff7f 	bl	1172 <findPll0PreDiv>
    1274:	4601      	mov	r1, r0
    1276:	9805      	ldr	r0, [sp, #20]
    1278:	fbb0 f0f1 	udiv	r0, r0, r1
    127c:	f248 4100 	movw	r1, #33792	; 0x8400
    1280:	f2c1 71d7 	movt	r1, #6103	; 0x17d7
    1284:	fbb1 f1f0 	udiv	r1, r1, r0
    1288:	f501 71fa 	add.w	r1, r1, #500	; 0x1f4
    128c:	9106      	str	r1, [sp, #24]
    128e:	f642 41ff 	movw	r1, #11519	; 0x2cff
    1292:	f2c0 1131 	movt	r1, #305	; 0x131
    1296:	4288      	cmp	r0, r1
    1298:	d826      	bhi.n	12e8 <CLOCK_SetPLL0Freq+0x11e>
    129a:	e7ff      	b.n	129c <CLOCK_SetPLL0Freq+0xd2>
    129c:	2000      	movs	r0, #0
    129e:	9004      	str	r0, [sp, #16]
    12a0:	e7ff      	b.n	12a2 <CLOCK_SetPLL0Freq+0xd8>
    12a2:	9804      	ldr	r0, [sp, #16]
    12a4:	9002      	str	r0, [sp, #8]
    12a6:	f7ff ff88 	bl	11ba <CLOCK_IsPLL0Locked>
    12aa:	4601      	mov	r1, r0
    12ac:	2000      	movs	r0, #0
    12ae:	9003      	str	r0, [sp, #12]
    12b0:	b941      	cbnz	r1, 12c4 <CLOCK_SetPLL0Freq+0xfa>
    12b2:	e7ff      	b.n	12b4 <CLOCK_SetPLL0Freq+0xea>
    12b4:	9902      	ldr	r1, [sp, #8]
    12b6:	9a06      	ldr	r2, [sp, #24]
    12b8:	2000      	movs	r0, #0
    12ba:	4291      	cmp	r1, r2
    12bc:	bf38      	it	cc
    12be:	2001      	movcc	r0, #1
    12c0:	9003      	str	r0, [sp, #12]
    12c2:	e7ff      	b.n	12c4 <CLOCK_SetPLL0Freq+0xfa>
    12c4:	9803      	ldr	r0, [sp, #12]
    12c6:	07c0      	lsls	r0, r0, #31
    12c8:	b168      	cbz	r0, 12e6 <CLOCK_SetPLL0Freq+0x11c>
    12ca:	e7ff      	b.n	12cc <CLOCK_SetPLL0Freq+0x102>
    12cc:	9802      	ldr	r0, [sp, #8]
    12ce:	3064      	adds	r0, #100	; 0x64
    12d0:	9001      	str	r0, [sp, #4]
    12d2:	2064      	movs	r0, #100	; 0x64
    12d4:	f24d 1180 	movw	r1, #53632	; 0xd180
    12d8:	f6c0 01f0 	movt	r1, #2288	; 0x8f0
    12dc:	f7ff fbc4 	bl	a68 <SDK_DelayAtLeastUs>
    12e0:	9801      	ldr	r0, [sp, #4]
    12e2:	9004      	str	r0, [sp, #16]
    12e4:	e7dd      	b.n	12a2 <CLOCK_SetPLL0Freq+0xd8>
    12e6:	e007      	b.n	12f8 <CLOCK_SetPLL0Freq+0x12e>
    12e8:	9806      	ldr	r0, [sp, #24]
    12ea:	f24d 1180 	movw	r1, #53632	; 0xd180
    12ee:	f6c0 01f0 	movt	r1, #2288	; 0x8f0
    12f2:	f7ff fbb9 	bl	a68 <SDK_DelayAtLeastUs>
    12f6:	e7ff      	b.n	12f8 <CLOCK_SetPLL0Freq+0x12e>
    12f8:	e008      	b.n	130c <CLOCK_SetPLL0Freq+0x142>
    12fa:	f241 7070 	movw	r0, #6000	; 0x1770
    12fe:	f24d 1180 	movw	r1, #53632	; 0xd180
    1302:	f6c0 01f0 	movt	r1, #2288	; 0x8f0
    1306:	f7ff fbaf 	bl	a68 <SDK_DelayAtLeastUs>
    130a:	e7ff      	b.n	130c <CLOCK_SetPLL0Freq+0x142>
    130c:	e7ff      	b.n	130e <CLOCK_SetPLL0Freq+0x144>
    130e:	9809      	ldr	r0, [sp, #36]	; 0x24
    1310:	6980      	ldr	r0, [r0, #24]
    1312:	f640 11d4 	movw	r1, #2516	; 0x9d4
    1316:	f2c2 0100 	movt	r1, #8192	; 0x2000
    131a:	6008      	str	r0, [r1, #0]
    131c:	2000      	movs	r0, #0
    131e:	b00a      	add	sp, #40	; 0x28
    1320:	bd80      	pop	{r7, pc}

00001322 <POWER_SetVoltageForFreq>:
    1322:	b580      	push	{r7, lr}
    1324:	466f      	mov	r7, sp
    1326:	b084      	sub	sp, #16
    1328:	9003      	str	r0, [sp, #12]
    132a:	f24e 1100 	movw	r1, #57600	; 0xe100
    132e:	f2c0 51f5 	movt	r1, #1525	; 0x5f5
    1332:	4288      	cmp	r0, r1
    1334:	d808      	bhi.n	1348 <POWER_SetVoltageForFreq+0x26>
    1336:	e7ff      	b.n	1338 <POWER_SetVoltageForFreq+0x16>
    1338:	2000      	movs	r0, #0
    133a:	9002      	str	r0, [sp, #8]
    133c:	f000 f81f 	bl	137e <lowpower_set_dcdc_power_profile>
    1340:	9802      	ldr	r0, [sp, #8]
    1342:	f000 f890 	bl	1466 <lowpower_set_voltage_for_process>
    1346:	e018      	b.n	137a <POWER_SetVoltageForFreq+0x58>
    1348:	9803      	ldr	r0, [sp, #12]
    134a:	f24a 4180 	movw	r1, #42112	; 0xa480
    134e:	f2c0 71bf 	movt	r1, #1983	; 0x7bf
    1352:	4288      	cmp	r0, r1
    1354:	d808      	bhi.n	1368 <POWER_SetVoltageForFreq+0x46>
    1356:	e7ff      	b.n	1358 <POWER_SetVoltageForFreq+0x36>
    1358:	2001      	movs	r0, #1
    135a:	9001      	str	r0, [sp, #4]
    135c:	f000 f80f 	bl	137e <lowpower_set_dcdc_power_profile>
    1360:	9801      	ldr	r0, [sp, #4]
    1362:	f000 f880 	bl	1466 <lowpower_set_voltage_for_process>
    1366:	e007      	b.n	1378 <POWER_SetVoltageForFreq+0x56>
    1368:	2002      	movs	r0, #2
    136a:	9000      	str	r0, [sp, #0]
    136c:	f000 f807 	bl	137e <lowpower_set_dcdc_power_profile>
    1370:	9800      	ldr	r0, [sp, #0]
    1372:	f000 f878 	bl	1466 <lowpower_set_voltage_for_process>
    1376:	e7ff      	b.n	1378 <POWER_SetVoltageForFreq+0x56>
    1378:	e7ff      	b.n	137a <POWER_SetVoltageForFreq+0x58>
    137a:	b004      	add	sp, #16
    137c:	bd80      	pop	{r7, pc}

0000137e <lowpower_set_dcdc_power_profile>:
    137e:	b087      	sub	sp, #28
    1380:	4601      	mov	r1, r0
    1382:	9106      	str	r1, [sp, #24]
    1384:	b140      	cbz	r0, 1398 <lowpower_set_dcdc_power_profile+0x1a>
    1386:	e7ff      	b.n	1388 <lowpower_set_dcdc_power_profile+0xa>
    1388:	9806      	ldr	r0, [sp, #24]
    138a:	2801      	cmp	r0, #1
    138c:	d020      	beq.n	13d0 <lowpower_set_dcdc_power_profile+0x52>
    138e:	e7ff      	b.n	1390 <lowpower_set_dcdc_power_profile+0x12>
    1390:	9806      	ldr	r0, [sp, #24]
    1392:	2802      	cmp	r0, #2
    1394:	d038      	beq.n	1408 <lowpower_set_dcdc_power_profile+0x8a>
    1396:	e053      	b.n	1440 <lowpower_set_dcdc_power_profile+0xc2>
    1398:	f64f 40e0 	movw	r0, #64736	; 0xfce0
    139c:	f2c0 0009 	movt	r0, #9
    13a0:	6800      	ldr	r0, [r0, #0]
    13a2:	9004      	str	r0, [sp, #16]
    13a4:	f64f 41e4 	movw	r1, #64740	; 0xfce4
    13a8:	f2c0 0109 	movt	r1, #9
    13ac:	6809      	ldr	r1, [r1, #0]
    13ae:	9105      	str	r1, [sp, #20]
    13b0:	07c0      	lsls	r0, r0, #31
    13b2:	b160      	cbz	r0, 13ce <lowpower_set_dcdc_power_profile+0x50>
    13b4:	e7ff      	b.n	13b6 <lowpower_set_dcdc_power_profile+0x38>
    13b6:	9805      	ldr	r0, [sp, #20]
    13b8:	9904      	ldr	r1, [sp, #16]
    13ba:	0849      	lsrs	r1, r1, #1
    13bc:	2210      	movs	r2, #16
    13be:	f2c4 0202 	movt	r2, #16386	; 0x4002
    13c2:	6011      	str	r1, [r2, #0]
    13c4:	2114      	movs	r1, #20
    13c6:	f2c4 0102 	movt	r1, #16386	; 0x4002
    13ca:	6008      	str	r0, [r1, #0]
    13cc:	e7ff      	b.n	13ce <lowpower_set_dcdc_power_profile+0x50>
    13ce:	e048      	b.n	1462 <lowpower_set_dcdc_power_profile+0xe4>
    13d0:	f64f 40e8 	movw	r0, #64744	; 0xfce8
    13d4:	f2c0 0009 	movt	r0, #9
    13d8:	6800      	ldr	r0, [r0, #0]
    13da:	9002      	str	r0, [sp, #8]
    13dc:	f64f 41ec 	movw	r1, #64748	; 0xfcec
    13e0:	f2c0 0109 	movt	r1, #9
    13e4:	6809      	ldr	r1, [r1, #0]
    13e6:	9103      	str	r1, [sp, #12]
    13e8:	07c0      	lsls	r0, r0, #31
    13ea:	b160      	cbz	r0, 1406 <lowpower_set_dcdc_power_profile+0x88>
    13ec:	e7ff      	b.n	13ee <lowpower_set_dcdc_power_profile+0x70>
    13ee:	9803      	ldr	r0, [sp, #12]
    13f0:	9902      	ldr	r1, [sp, #8]
    13f2:	0849      	lsrs	r1, r1, #1
    13f4:	2210      	movs	r2, #16
    13f6:	f2c4 0202 	movt	r2, #16386	; 0x4002
    13fa:	6011      	str	r1, [r2, #0]
    13fc:	2114      	movs	r1, #20
    13fe:	f2c4 0102 	movt	r1, #16386	; 0x4002
    1402:	6008      	str	r0, [r1, #0]
    1404:	e7ff      	b.n	1406 <lowpower_set_dcdc_power_profile+0x88>
    1406:	e02c      	b.n	1462 <lowpower_set_dcdc_power_profile+0xe4>
    1408:	f64f 40d8 	movw	r0, #64728	; 0xfcd8
    140c:	f2c0 0009 	movt	r0, #9
    1410:	6800      	ldr	r0, [r0, #0]
    1412:	9000      	str	r0, [sp, #0]
    1414:	f64f 41dc 	movw	r1, #64732	; 0xfcdc
    1418:	f2c0 0109 	movt	r1, #9
    141c:	6809      	ldr	r1, [r1, #0]
    141e:	9101      	str	r1, [sp, #4]
    1420:	07c0      	lsls	r0, r0, #31
    1422:	b160      	cbz	r0, 143e <lowpower_set_dcdc_power_profile+0xc0>
    1424:	e7ff      	b.n	1426 <lowpower_set_dcdc_power_profile+0xa8>
    1426:	9801      	ldr	r0, [sp, #4]
    1428:	9900      	ldr	r1, [sp, #0]
    142a:	0849      	lsrs	r1, r1, #1
    142c:	2210      	movs	r2, #16
    142e:	f2c4 0202 	movt	r2, #16386	; 0x4002
    1432:	6011      	str	r1, [r2, #0]
    1434:	2114      	movs	r1, #20
    1436:	f2c4 0102 	movt	r1, #16386	; 0x4002
    143a:	6008      	str	r0, [r1, #0]
    143c:	e7ff      	b.n	143e <lowpower_set_dcdc_power_profile+0xc0>
    143e:	e010      	b.n	1462 <lowpower_set_dcdc_power_profile+0xe4>
    1440:	2110      	movs	r1, #16
    1442:	f2c4 0102 	movt	r1, #16386	; 0x4002
    1446:	f644 6068 	movw	r0, #20072	; 0x4e68
    144a:	f2c0 100c 	movt	r0, #268	; 0x10c
    144e:	6008      	str	r0, [r1, #0]
    1450:	2114      	movs	r1, #20
    1452:	f2c4 0102 	movt	r1, #16386	; 0x4002
    1456:	f643 2098 	movw	r0, #15000	; 0x3a98
    145a:	f2c0 1080 	movt	r0, #384	; 0x180
    145e:	6008      	str	r0, [r1, #0]
    1460:	e7ff      	b.n	1462 <lowpower_set_dcdc_power_profile+0xe4>
    1462:	b007      	add	sp, #28
    1464:	4770      	bx	lr

00001466 <lowpower_set_voltage_for_process>:
    1466:	b580      	push	{r7, lr}
    1468:	466f      	mov	r7, sp
    146a:	b086      	sub	sp, #24
    146c:	9004      	str	r0, [sp, #16]
    146e:	f000 f85b 	bl	1528 <lowpower_get_part_process_corner>
    1472:	4601      	mov	r1, r0
    1474:	9105      	str	r1, [sp, #20]
    1476:	b120      	cbz	r0, 1482 <lowpower_set_voltage_for_process+0x1c>
    1478:	e7ff      	b.n	147a <lowpower_set_voltage_for_process+0x14>
    147a:	9805      	ldr	r0, [sp, #20]
    147c:	2802      	cmp	r0, #2
    147e:	d01b      	beq.n	14b8 <lowpower_set_voltage_for_process+0x52>
    1480:	e035      	b.n	14ee <lowpower_set_voltage_for_process+0x88>
    1482:	9804      	ldr	r0, [sp, #16]
    1484:	b2c0      	uxtb	r0, r0
    1486:	4601      	mov	r1, r0
    1488:	9103      	str	r1, [sp, #12]
    148a:	2801      	cmp	r0, #1
    148c:	d004      	beq.n	1498 <lowpower_set_voltage_for_process+0x32>
    148e:	e7ff      	b.n	1490 <lowpower_set_voltage_for_process+0x2a>
    1490:	9803      	ldr	r0, [sp, #12]
    1492:	2802      	cmp	r0, #2
    1494:	d005      	beq.n	14a2 <lowpower_set_voltage_for_process+0x3c>
    1496:	e009      	b.n	14ac <lowpower_set_voltage_for_process+0x46>
    1498:	f240 407e 	movw	r0, #1150	; 0x47e
    149c:	f000 f89b 	bl	15d6 <lowpower_set_system_voltage>
    14a0:	e009      	b.n	14b6 <lowpower_set_voltage_for_process+0x50>
    14a2:	f44f 6096 	mov.w	r0, #1200	; 0x4b0
    14a6:	f000 f896 	bl	15d6 <lowpower_set_system_voltage>
    14aa:	e004      	b.n	14b6 <lowpower_set_voltage_for_process+0x50>
    14ac:	f240 4033 	movw	r0, #1075	; 0x433
    14b0:	f000 f891 	bl	15d6 <lowpower_set_system_voltage>
    14b4:	e7ff      	b.n	14b6 <lowpower_set_voltage_for_process+0x50>
    14b6:	e035      	b.n	1524 <lowpower_set_voltage_for_process+0xbe>
    14b8:	9804      	ldr	r0, [sp, #16]
    14ba:	b2c0      	uxtb	r0, r0
    14bc:	4601      	mov	r1, r0
    14be:	9102      	str	r1, [sp, #8]
    14c0:	2801      	cmp	r0, #1
    14c2:	d004      	beq.n	14ce <lowpower_set_voltage_for_process+0x68>
    14c4:	e7ff      	b.n	14c6 <lowpower_set_voltage_for_process+0x60>
    14c6:	9802      	ldr	r0, [sp, #8]
    14c8:	2802      	cmp	r0, #2
    14ca:	d005      	beq.n	14d8 <lowpower_set_voltage_for_process+0x72>
    14cc:	e009      	b.n	14e2 <lowpower_set_voltage_for_process+0x7c>
    14ce:	f240 4001 	movw	r0, #1025	; 0x401
    14d2:	f000 f880 	bl	15d6 <lowpower_set_system_voltage>
    14d6:	e009      	b.n	14ec <lowpower_set_voltage_for_process+0x86>
    14d8:	f240 401a 	movw	r0, #1050	; 0x41a
    14dc:	f000 f87b 	bl	15d6 <lowpower_set_system_voltage>
    14e0:	e004      	b.n	14ec <lowpower_set_voltage_for_process+0x86>
    14e2:	f44f 707a 	mov.w	r0, #1000	; 0x3e8
    14e6:	f000 f876 	bl	15d6 <lowpower_set_system_voltage>
    14ea:	e7ff      	b.n	14ec <lowpower_set_voltage_for_process+0x86>
    14ec:	e01a      	b.n	1524 <lowpower_set_voltage_for_process+0xbe>
    14ee:	9804      	ldr	r0, [sp, #16]
    14f0:	b2c0      	uxtb	r0, r0
    14f2:	4601      	mov	r1, r0
    14f4:	9101      	str	r1, [sp, #4]
    14f6:	2801      	cmp	r0, #1
    14f8:	d004      	beq.n	1504 <lowpower_set_voltage_for_process+0x9e>
    14fa:	e7ff      	b.n	14fc <lowpower_set_voltage_for_process+0x96>
    14fc:	9801      	ldr	r0, [sp, #4]
    14fe:	2802      	cmp	r0, #2
    1500:	d005      	beq.n	150e <lowpower_set_voltage_for_process+0xa8>
    1502:	e009      	b.n	1518 <lowpower_set_voltage_for_process+0xb2>
    1504:	f240 404c 	movw	r0, #1100	; 0x44c
    1508:	f000 f865 	bl	15d6 <lowpower_set_system_voltage>
    150c:	e009      	b.n	1522 <lowpower_set_voltage_for_process+0xbc>
    150e:	f240 407e 	movw	r0, #1150	; 0x47e
    1512:	f000 f860 	bl	15d6 <lowpower_set_system_voltage>
    1516:	e004      	b.n	1522 <lowpower_set_voltage_for_process+0xbc>
    1518:	f44f 707a 	mov.w	r0, #1000	; 0x3e8
    151c:	f000 f85b 	bl	15d6 <lowpower_set_system_voltage>
    1520:	e7ff      	b.n	1522 <lowpower_set_voltage_for_process+0xbc>
    1522:	e7ff      	b.n	1524 <lowpower_set_voltage_for_process+0xbe>
    1524:	b006      	add	sp, #24
    1526:	bd80      	pop	{r7, pc}

00001528 <lowpower_get_part_process_corner>:
    1528:	b08a      	sub	sp, #40	; 0x28
    152a:	f64f 5030 	movw	r0, #64816	; 0xfd30
    152e:	f2c0 0009 	movt	r0, #9
    1532:	6800      	ldr	r0, [r0, #0]
    1534:	9008      	str	r0, [sp, #32]
    1536:	f64f 5140 	movw	r1, #64832	; 0xfd40
    153a:	f2c0 0109 	movt	r1, #9
    153e:	6809      	ldr	r1, [r1, #0]
    1540:	9109      	str	r1, [sp, #36]	; 0x24
    1542:	07c0      	lsls	r0, r0, #31
    1544:	b120      	cbz	r0, 1550 <lowpower_get_part_process_corner+0x28>
    1546:	e7ff      	b.n	1548 <lowpower_get_part_process_corner+0x20>
    1548:	9808      	ldr	r0, [sp, #32]
    154a:	0840      	lsrs	r0, r0, #1
    154c:	9007      	str	r0, [sp, #28]
    154e:	e005      	b.n	155c <lowpower_get_part_process_corner+0x34>
    1550:	f647 60a0 	movw	r0, #32416	; 0x7ea0
    1554:	f2c0 1026 	movt	r0, #294	; 0x126
    1558:	9007      	str	r0, [sp, #28]
    155a:	e7ff      	b.n	155c <lowpower_get_part_process_corner+0x34>
    155c:	9809      	ldr	r0, [sp, #36]	; 0x24
    155e:	9907      	ldr	r1, [sp, #28]
    1560:	9106      	str	r1, [sp, #24]
    1562:	07c0      	lsls	r0, r0, #31
    1564:	b120      	cbz	r0, 1570 <lowpower_get_part_process_corner+0x48>
    1566:	e7ff      	b.n	1568 <lowpower_get_part_process_corner+0x40>
    1568:	9809      	ldr	r0, [sp, #36]	; 0x24
    156a:	0840      	lsrs	r0, r0, #1
    156c:	9005      	str	r0, [sp, #20]
    156e:	e005      	b.n	157c <lowpower_get_part_process_corner+0x54>
    1570:	f647 60a0 	movw	r0, #32416	; 0x7ea0
    1574:	f2c0 1026 	movt	r0, #294	; 0x126
    1578:	9005      	str	r0, [sp, #20]
    157a:	e7ff      	b.n	157c <lowpower_get_part_process_corner+0x54>
    157c:	9906      	ldr	r1, [sp, #24]
    157e:	9805      	ldr	r0, [sp, #20]
    1580:	9004      	str	r0, [sp, #16]
    1582:	4288      	cmp	r0, r1
    1584:	d803      	bhi.n	158e <lowpower_get_part_process_corner+0x66>
    1586:	e7ff      	b.n	1588 <lowpower_get_part_process_corner+0x60>
    1588:	9804      	ldr	r0, [sp, #16]
    158a:	9003      	str	r0, [sp, #12]
    158c:	e002      	b.n	1594 <lowpower_get_part_process_corner+0x6c>
    158e:	9806      	ldr	r0, [sp, #24]
    1590:	9003      	str	r0, [sp, #12]
    1592:	e7ff      	b.n	1594 <lowpower_get_part_process_corner+0x6c>
    1594:	9803      	ldr	r0, [sp, #12]
    1596:	9002      	str	r0, [sp, #8]
    1598:	f64d 71a0 	movw	r1, #57248	; 0xdfa0
    159c:	f2c0 1101 	movt	r1, #257	; 0x101
    15a0:	4288      	cmp	r0, r1
    15a2:	d803      	bhi.n	15ac <lowpower_get_part_process_corner+0x84>
    15a4:	e7ff      	b.n	15a6 <lowpower_get_part_process_corner+0x7e>
    15a6:	2000      	movs	r0, #0
    15a8:	9001      	str	r0, [sp, #4]
    15aa:	e010      	b.n	15ce <lowpower_get_part_process_corner+0xa6>
    15ac:	9802      	ldr	r0, [sp, #8]
    15ae:	f641 51a0 	movw	r1, #7584	; 0x1da0
    15b2:	f2c0 114b 	movt	r1, #331	; 0x14b
    15b6:	4288      	cmp	r0, r1
    15b8:	d803      	bhi.n	15c2 <lowpower_get_part_process_corner+0x9a>
    15ba:	e7ff      	b.n	15bc <lowpower_get_part_process_corner+0x94>
    15bc:	2001      	movs	r0, #1
    15be:	9000      	str	r0, [sp, #0]
    15c0:	e002      	b.n	15c8 <lowpower_get_part_process_corner+0xa0>
    15c2:	2002      	movs	r0, #2
    15c4:	9000      	str	r0, [sp, #0]
    15c6:	e7ff      	b.n	15c8 <lowpower_get_part_process_corner+0xa0>
    15c8:	9800      	ldr	r0, [sp, #0]
    15ca:	9001      	str	r0, [sp, #4]
    15cc:	e7ff      	b.n	15ce <lowpower_get_part_process_corner+0xa6>
    15ce:	9801      	ldr	r0, [sp, #4]
    15d0:	b2c0      	uxtb	r0, r0
    15d2:	b00a      	add	sp, #40	; 0x28
    15d4:	4770      	bx	lr

000015d6 <lowpower_set_system_voltage>:
    15d6:	b580      	push	{r7, lr}
    15d8:	466f      	mov	r7, sp
    15da:	b09b      	sub	sp, #108	; 0x6c
    15dc:	901a      	str	r0, [sp, #104]	; 0x68
    15de:	f240 31b6 	movw	r1, #950	; 0x3b6
    15e2:	4288      	cmp	r0, r1
    15e4:	d807      	bhi.n	15f6 <lowpower_set_system_voltage+0x20>
    15e6:	e7ff      	b.n	15e8 <lowpower_set_system_voltage+0x12>
    15e8:	2000      	movs	r0, #0
    15ea:	210a      	movs	r1, #10
    15ec:	220f      	movs	r2, #15
    15ee:	9217      	str	r2, [sp, #92]	; 0x5c
    15f0:	9118      	str	r1, [sp, #96]	; 0x60
    15f2:	9019      	str	r0, [sp, #100]	; 0x64
    15f4:	e0a7      	b.n	1746 <lowpower_set_system_voltage+0x170>
    15f6:	981a      	ldr	r0, [sp, #104]	; 0x68
    15f8:	0900      	lsrs	r0, r0, #4
    15fa:	283c      	cmp	r0, #60	; 0x3c
    15fc:	d807      	bhi.n	160e <lowpower_set_system_voltage+0x38>
    15fe:	e7ff      	b.n	1600 <lowpower_set_system_voltage+0x2a>
    1600:	2001      	movs	r0, #1
    1602:	210c      	movs	r1, #12
    1604:	2211      	movs	r2, #17
    1606:	9214      	str	r2, [sp, #80]	; 0x50
    1608:	9115      	str	r1, [sp, #84]	; 0x54
    160a:	9016      	str	r0, [sp, #88]	; 0x58
    160c:	e094      	b.n	1738 <lowpower_set_system_voltage+0x162>
    160e:	981a      	ldr	r0, [sp, #104]	; 0x68
    1610:	f5b0 7f7a 	cmp.w	r0, #1000	; 0x3e8
    1614:	d807      	bhi.n	1626 <lowpower_set_system_voltage+0x50>
    1616:	e7ff      	b.n	1618 <lowpower_set_system_voltage+0x42>
    1618:	2002      	movs	r0, #2
    161a:	210e      	movs	r1, #14
    161c:	2213      	movs	r2, #19
    161e:	9211      	str	r2, [sp, #68]	; 0x44
    1620:	9112      	str	r1, [sp, #72]	; 0x48
    1622:	9013      	str	r0, [sp, #76]	; 0x4c
    1624:	e081      	b.n	172a <lowpower_set_system_voltage+0x154>
    1626:	981a      	ldr	r0, [sp, #104]	; 0x68
    1628:	f240 4101 	movw	r1, #1025	; 0x401
    162c:	4288      	cmp	r0, r1
    162e:	d807      	bhi.n	1640 <lowpower_set_system_voltage+0x6a>
    1630:	e7ff      	b.n	1632 <lowpower_set_system_voltage+0x5c>
    1632:	2003      	movs	r0, #3
    1634:	2111      	movs	r1, #17
    1636:	2216      	movs	r2, #22
    1638:	920e      	str	r2, [sp, #56]	; 0x38
    163a:	910f      	str	r1, [sp, #60]	; 0x3c
    163c:	9010      	str	r0, [sp, #64]	; 0x40
    163e:	e06d      	b.n	171c <lowpower_set_system_voltage+0x146>
    1640:	981a      	ldr	r0, [sp, #104]	; 0x68
    1642:	f240 411a 	movw	r1, #1050	; 0x41a
    1646:	4288      	cmp	r0, r1
    1648:	d807      	bhi.n	165a <lowpower_set_system_voltage+0x84>
    164a:	e7ff      	b.n	164c <lowpower_set_system_voltage+0x76>
    164c:	2004      	movs	r0, #4
    164e:	2114      	movs	r1, #20
    1650:	2219      	movs	r2, #25
    1652:	920b      	str	r2, [sp, #44]	; 0x2c
    1654:	910c      	str	r1, [sp, #48]	; 0x30
    1656:	900d      	str	r0, [sp, #52]	; 0x34
    1658:	e059      	b.n	170e <lowpower_set_system_voltage+0x138>
    165a:	981a      	ldr	r0, [sp, #104]	; 0x68
    165c:	f240 4133 	movw	r1, #1075	; 0x433
    1660:	4288      	cmp	r0, r1
    1662:	d807      	bhi.n	1674 <lowpower_set_system_voltage+0x9e>
    1664:	e7ff      	b.n	1666 <lowpower_set_system_voltage+0x90>
    1666:	2005      	movs	r0, #5
    1668:	2116      	movs	r1, #22
    166a:	221b      	movs	r2, #27
    166c:	9208      	str	r2, [sp, #32]
    166e:	9109      	str	r1, [sp, #36]	; 0x24
    1670:	900a      	str	r0, [sp, #40]	; 0x28
    1672:	e045      	b.n	1700 <lowpower_set_system_voltage+0x12a>
    1674:	981a      	ldr	r0, [sp, #104]	; 0x68
    1676:	f240 414c 	movw	r1, #1100	; 0x44c
    167a:	4288      	cmp	r0, r1
    167c:	d807      	bhi.n	168e <lowpower_set_system_voltage+0xb8>
    167e:	e7ff      	b.n	1680 <lowpower_set_system_voltage+0xaa>
    1680:	2006      	movs	r0, #6
    1682:	2118      	movs	r1, #24
    1684:	221d      	movs	r2, #29
    1686:	9205      	str	r2, [sp, #20]
    1688:	9106      	str	r1, [sp, #24]
    168a:	9007      	str	r0, [sp, #28]
    168c:	e031      	b.n	16f2 <lowpower_set_system_voltage+0x11c>
    168e:	981a      	ldr	r0, [sp, #104]	; 0x68
    1690:	f240 4165 	movw	r1, #1125	; 0x465
    1694:	4288      	cmp	r0, r1
    1696:	d807      	bhi.n	16a8 <lowpower_set_system_voltage+0xd2>
    1698:	e7ff      	b.n	169a <lowpower_set_system_voltage+0xc4>
    169a:	2007      	movs	r0, #7
    169c:	211b      	movs	r1, #27
    169e:	221e      	movs	r2, #30
    16a0:	9202      	str	r2, [sp, #8]
    16a2:	9103      	str	r1, [sp, #12]
    16a4:	9004      	str	r0, [sp, #16]
    16a6:	e01d      	b.n	16e4 <lowpower_set_system_voltage+0x10e>
    16a8:	981a      	ldr	r0, [sp, #104]	; 0x68
    16aa:	f240 417e 	movw	r1, #1150	; 0x47e
    16ae:	4288      	cmp	r0, r1
    16b0:	d803      	bhi.n	16ba <lowpower_set_system_voltage+0xe4>
    16b2:	e7ff      	b.n	16b4 <lowpower_set_system_voltage+0xde>
    16b4:	2008      	movs	r0, #8
    16b6:	9001      	str	r0, [sp, #4]
    16b8:	e00d      	b.n	16d6 <lowpower_set_system_voltage+0x100>
    16ba:	981a      	ldr	r0, [sp, #104]	; 0x68
    16bc:	08c0      	lsrs	r0, r0, #3
    16be:	2892      	cmp	r0, #146	; 0x92
    16c0:	d803      	bhi.n	16ca <lowpower_set_system_voltage+0xf4>
    16c2:	e7ff      	b.n	16c4 <lowpower_set_system_voltage+0xee>
    16c4:	2009      	movs	r0, #9
    16c6:	9000      	str	r0, [sp, #0]
    16c8:	e002      	b.n	16d0 <lowpower_set_system_voltage+0xfa>
    16ca:	200a      	movs	r0, #10
    16cc:	9000      	str	r0, [sp, #0]
    16ce:	e7ff      	b.n	16d0 <lowpower_set_system_voltage+0xfa>
    16d0:	9800      	ldr	r0, [sp, #0]
    16d2:	9001      	str	r0, [sp, #4]
    16d4:	e7ff      	b.n	16d6 <lowpower_set_system_voltage+0x100>
    16d6:	9801      	ldr	r0, [sp, #4]
    16d8:	211e      	movs	r1, #30
    16da:	221f      	movs	r2, #31
    16dc:	9202      	str	r2, [sp, #8]
    16de:	9103      	str	r1, [sp, #12]
    16e0:	9004      	str	r0, [sp, #16]
    16e2:	e7ff      	b.n	16e4 <lowpower_set_system_voltage+0x10e>
    16e4:	9a02      	ldr	r2, [sp, #8]
    16e6:	9903      	ldr	r1, [sp, #12]
    16e8:	9804      	ldr	r0, [sp, #16]
    16ea:	9205      	str	r2, [sp, #20]
    16ec:	9106      	str	r1, [sp, #24]
    16ee:	9007      	str	r0, [sp, #28]
    16f0:	e7ff      	b.n	16f2 <lowpower_set_system_voltage+0x11c>
    16f2:	9a05      	ldr	r2, [sp, #20]
    16f4:	9906      	ldr	r1, [sp, #24]
    16f6:	9807      	ldr	r0, [sp, #28]
    16f8:	9208      	str	r2, [sp, #32]
    16fa:	9109      	str	r1, [sp, #36]	; 0x24
    16fc:	900a      	str	r0, [sp, #40]	; 0x28
    16fe:	e7ff      	b.n	1700 <lowpower_set_system_voltage+0x12a>
    1700:	9a08      	ldr	r2, [sp, #32]
    1702:	9909      	ldr	r1, [sp, #36]	; 0x24
    1704:	980a      	ldr	r0, [sp, #40]	; 0x28
    1706:	920b      	str	r2, [sp, #44]	; 0x2c
    1708:	910c      	str	r1, [sp, #48]	; 0x30
    170a:	900d      	str	r0, [sp, #52]	; 0x34
    170c:	e7ff      	b.n	170e <lowpower_set_system_voltage+0x138>
    170e:	9a0b      	ldr	r2, [sp, #44]	; 0x2c
    1710:	990c      	ldr	r1, [sp, #48]	; 0x30
    1712:	980d      	ldr	r0, [sp, #52]	; 0x34
    1714:	920e      	str	r2, [sp, #56]	; 0x38
    1716:	910f      	str	r1, [sp, #60]	; 0x3c
    1718:	9010      	str	r0, [sp, #64]	; 0x40
    171a:	e7ff      	b.n	171c <lowpower_set_system_voltage+0x146>
    171c:	9a0e      	ldr	r2, [sp, #56]	; 0x38
    171e:	990f      	ldr	r1, [sp, #60]	; 0x3c
    1720:	9810      	ldr	r0, [sp, #64]	; 0x40
    1722:	9211      	str	r2, [sp, #68]	; 0x44
    1724:	9112      	str	r1, [sp, #72]	; 0x48
    1726:	9013      	str	r0, [sp, #76]	; 0x4c
    1728:	e7ff      	b.n	172a <lowpower_set_system_voltage+0x154>
    172a:	9a11      	ldr	r2, [sp, #68]	; 0x44
    172c:	9912      	ldr	r1, [sp, #72]	; 0x48
    172e:	9813      	ldr	r0, [sp, #76]	; 0x4c
    1730:	9214      	str	r2, [sp, #80]	; 0x50
    1732:	9115      	str	r1, [sp, #84]	; 0x54
    1734:	9016      	str	r0, [sp, #88]	; 0x58
    1736:	e7ff      	b.n	1738 <lowpower_set_system_voltage+0x162>
    1738:	9a14      	ldr	r2, [sp, #80]	; 0x50
    173a:	9915      	ldr	r1, [sp, #84]	; 0x54
    173c:	9816      	ldr	r0, [sp, #88]	; 0x58
    173e:	9217      	str	r2, [sp, #92]	; 0x5c
    1740:	9118      	str	r1, [sp, #96]	; 0x60
    1742:	9019      	str	r0, [sp, #100]	; 0x64
    1744:	e7ff      	b.n	1746 <lowpower_set_system_voltage+0x170>
    1746:	9b17      	ldr	r3, [sp, #92]	; 0x5c
    1748:	f8dd c060 	ldr.w	ip, [sp, #96]	; 0x60
    174c:	9a19      	ldr	r2, [sp, #100]	; 0x64
    174e:	211c      	movs	r1, #28
    1750:	f2c4 0102 	movt	r1, #16386	; 0x4002
    1754:	6808      	ldr	r0, [r1, #0]
    1756:	f647 4e1f 	movw	lr, #31775	; 0x7c1f
    175a:	ea20 000e 	bic.w	r0, r0, lr
    175e:	f00c 0c1f 	and.w	ip, ip, #31
    1762:	4460      	add	r0, ip
    1764:	f003 031f 	and.w	r3, r3, #31
    1768:	ea40 2083 	orr.w	r0, r0, r3, lsl #10
    176c:	6008      	str	r0, [r1, #0]
    176e:	2110      	movs	r1, #16
    1770:	f2c4 0102 	movt	r1, #16386	; 0x4002
    1774:	6808      	ldr	r0, [r1, #0]
    1776:	f362 4054 	bfi	r0, r2, #17, #4
    177a:	6008      	str	r0, [r1, #0]
    177c:	b01b      	add	sp, #108	; 0x6c
    177e:	bd80      	pop	{r7, pc}

00001780 <RESET_SetPeripheralReset>:
    1780:	b580      	push	{r7, lr}
    1782:	466f      	mov	r7, sp
    1784:	b082      	sub	sp, #8
    1786:	0c01      	lsrs	r1, r0, #16
    1788:	9100      	str	r1, [sp, #0]
    178a:	b280      	uxth	r0, r0
    178c:	2101      	movs	r1, #1
    178e:	4081      	lsls	r1, r0
    1790:	9101      	str	r1, [sp, #4]
    1792:	281f      	cmp	r0, #31
    1794:	d801      	bhi.n	179a <RESET_SetPeripheralReset+0x1a>
    1796:	e7ff      	b.n	1798 <RESET_SetPeripheralReset+0x18>
    1798:	e00e      	b.n	17b8 <RESET_SetPeripheralReset+0x38>
    179a:	f64e 40c0 	movw	r0, #60608	; 0xecc0
    179e:	f2c0 0000 	movt	r0, #0
    17a2:	f64e 42d4 	movw	r2, #60628	; 0xecd4
    17a6:	f2c0 0200 	movt	r2, #0
    17aa:	f64e 43ed 	movw	r3, #60653	; 0xeced
    17ae:	f2c0 0300 	movt	r3, #0
    17b2:	2130      	movs	r1, #48	; 0x30
    17b4:	f00a f902 	bl	b9bc <__assert_func>
    17b8:	9801      	ldr	r0, [sp, #4]
    17ba:	9a00      	ldr	r2, [sp, #0]
    17bc:	f240 1120 	movw	r1, #288	; 0x120
    17c0:	f2c4 0100 	movt	r1, #16384	; 0x4000
    17c4:	f841 0022 	str.w	r0, [r1, r2, lsl #2]
    17c8:	e7ff      	b.n	17ca <RESET_SetPeripheralReset+0x4a>
    17ca:	9901      	ldr	r1, [sp, #4]
    17cc:	9a00      	ldr	r2, [sp, #0]
    17ce:	f240 1000 	movw	r0, #256	; 0x100
    17d2:	f2c4 0000 	movt	r0, #16384	; 0x4000
    17d6:	f850 0022 	ldr.w	r0, [r0, r2, lsl #2]
    17da:	4208      	tst	r0, r1
    17dc:	d101      	bne.n	17e2 <RESET_SetPeripheralReset+0x62>
    17de:	e7ff      	b.n	17e0 <RESET_SetPeripheralReset+0x60>
    17e0:	e7f3      	b.n	17ca <RESET_SetPeripheralReset+0x4a>
    17e2:	b002      	add	sp, #8
    17e4:	bd80      	pop	{r7, pc}

000017e6 <RESET_ClearPeripheralReset>:
    17e6:	b580      	push	{r7, lr}
    17e8:	466f      	mov	r7, sp
    17ea:	b082      	sub	sp, #8
    17ec:	0c01      	lsrs	r1, r0, #16
    17ee:	9100      	str	r1, [sp, #0]
    17f0:	b280      	uxth	r0, r0
    17f2:	2101      	movs	r1, #1
    17f4:	4081      	lsls	r1, r0
    17f6:	9101      	str	r1, [sp, #4]
    17f8:	281f      	cmp	r0, #31
    17fa:	d801      	bhi.n	1800 <RESET_ClearPeripheralReset+0x1a>
    17fc:	e7ff      	b.n	17fe <RESET_ClearPeripheralReset+0x18>
    17fe:	e00e      	b.n	181e <RESET_ClearPeripheralReset+0x38>
    1800:	f64e 40c0 	movw	r0, #60608	; 0xecc0
    1804:	f2c0 0000 	movt	r0, #0
    1808:	f64e 42fa 	movw	r2, #60666	; 0xecfa
    180c:	f2c0 0200 	movt	r2, #0
    1810:	f64e 43ed 	movw	r3, #60653	; 0xeced
    1814:	f2c0 0300 	movt	r3, #0
    1818:	2149      	movs	r1, #73	; 0x49
    181a:	f00a f8cf 	bl	b9bc <__assert_func>
    181e:	9801      	ldr	r0, [sp, #4]
    1820:	9a00      	ldr	r2, [sp, #0]
    1822:	f240 1140 	movw	r1, #320	; 0x140
    1826:	f2c4 0100 	movt	r1, #16384	; 0x4000
    182a:	f841 0022 	str.w	r0, [r1, r2, lsl #2]
    182e:	e7ff      	b.n	1830 <RESET_ClearPeripheralReset+0x4a>
    1830:	9801      	ldr	r0, [sp, #4]
    1832:	9a00      	ldr	r2, [sp, #0]
    1834:	f240 1100 	movw	r1, #256	; 0x100
    1838:	f2c4 0100 	movt	r1, #16384	; 0x4000
    183c:	f851 1022 	ldr.w	r1, [r1, r2, lsl #2]
    1840:	4001      	ands	r1, r0
    1842:	4288      	cmp	r0, r1
    1844:	d101      	bne.n	184a <RESET_ClearPeripheralReset+0x64>
    1846:	e7ff      	b.n	1848 <RESET_ClearPeripheralReset+0x62>
    1848:	e7f2      	b.n	1830 <RESET_ClearPeripheralReset+0x4a>
    184a:	b002      	add	sp, #8
    184c:	bd80      	pop	{r7, pc}

0000184e <RESET_PeripheralReset>:
    184e:	b580      	push	{r7, lr}
    1850:	466f      	mov	r7, sp
    1852:	b082      	sub	sp, #8
    1854:	9001      	str	r0, [sp, #4]
    1856:	f7ff ff93 	bl	1780 <RESET_SetPeripheralReset>
    185a:	9801      	ldr	r0, [sp, #4]
    185c:	f7ff ffc3 	bl	17e6 <RESET_ClearPeripheralReset>
    1860:	b002      	add	sp, #8
    1862:	bd80      	pop	{r7, pc}

00001864 <USART_Init>:
    1864:	b5d0      	push	{r4, r6, r7, lr}
    1866:	af02      	add	r7, sp, #8
    1868:	b086      	sub	sp, #24
    186a:	9203      	str	r2, [sp, #12]
    186c:	9104      	str	r1, [sp, #16]
    186e:	9005      	str	r0, [sp, #20]
    1870:	b138      	cbz	r0, 1882 <USART_Init+0x1e>
    1872:	e7ff      	b.n	1874 <USART_Init+0x10>
    1874:	9804      	ldr	r0, [sp, #16]
    1876:	b120      	cbz	r0, 1882 <USART_Init+0x1e>
    1878:	e7ff      	b.n	187a <USART_Init+0x16>
    187a:	9803      	ldr	r0, [sp, #12]
    187c:	b108      	cbz	r0, 1882 <USART_Init+0x1e>
    187e:	e7ff      	b.n	1880 <USART_Init+0x1c>
    1880:	e00e      	b.n	18a0 <USART_Init+0x3c>
    1882:	f64e 5015 	movw	r0, #60693	; 0xed15
    1886:	f2c0 0000 	movt	r0, #0
    188a:	f64e 52f3 	movw	r2, #60915	; 0xedf3
    188e:	f2c0 0200 	movt	r2, #0
    1892:	f64e 53fe 	movw	r3, #60926	; 0xedfe
    1896:	f2c0 0300 	movt	r3, #0
    189a:	21c6      	movs	r1, #198	; 0xc6
    189c:	f00a f88e 	bl	b9bc <__assert_func>
    18a0:	9805      	ldr	r0, [sp, #20]
    18a2:	b130      	cbz	r0, 18b2 <USART_Init+0x4e>
    18a4:	e7ff      	b.n	18a6 <USART_Init+0x42>
    18a6:	9804      	ldr	r0, [sp, #16]
    18a8:	b118      	cbz	r0, 18b2 <USART_Init+0x4e>
    18aa:	e7ff      	b.n	18ac <USART_Init+0x48>
    18ac:	9803      	ldr	r0, [sp, #12]
    18ae:	b918      	cbnz	r0, 18b8 <USART_Init+0x54>
    18b0:	e7ff      	b.n	18b2 <USART_Init+0x4e>
    18b2:	2004      	movs	r0, #4
    18b4:	9002      	str	r0, [sp, #8]
    18b6:	e0b6      	b.n	1a26 <USART_Init+0x1c2>
    18b8:	9805      	ldr	r0, [sp, #20]
    18ba:	2101      	movs	r1, #1
    18bc:	f000 fb2b 	bl	1f16 <FLEXCOMM_Init>
    18c0:	4601      	mov	r1, r0
    18c2:	9101      	str	r1, [sp, #4]
    18c4:	b118      	cbz	r0, 18ce <USART_Init+0x6a>
    18c6:	e7ff      	b.n	18c8 <USART_Init+0x64>
    18c8:	9801      	ldr	r0, [sp, #4]
    18ca:	9002      	str	r0, [sp, #8]
    18cc:	e0ab      	b.n	1a26 <USART_Init+0x1c2>
    18ce:	9804      	ldr	r0, [sp, #16]
    18d0:	7a40      	ldrb	r0, [r0, #9]
    18d2:	07c0      	lsls	r0, r0, #31
    18d4:	b1f0      	cbz	r0, 1914 <USART_Init+0xb0>
    18d6:	e7ff      	b.n	18d8 <USART_Init+0x74>
    18d8:	9905      	ldr	r1, [sp, #20]
    18da:	9804      	ldr	r0, [sp, #16]
    18dc:	f8d1 2e00 	ldr.w	r2, [r1, #3584]	; 0xe00
    18e0:	f042 1201 	orr.w	r2, r2, #65537	; 0x10001
    18e4:	f8c1 2e00 	str.w	r2, [r1, #3584]	; 0xe00
    18e8:	f8d1 2e08 	ldr.w	r2, [r1, #3592]	; 0xe08
    18ec:	f422 6270 	bic.w	r2, r2, #3840	; 0xf00
    18f0:	f8c1 2e08 	str.w	r2, [r1, #3592]	; 0xe08
    18f4:	7b40      	ldrb	r0, [r0, #13]
    18f6:	f000 020f 	and.w	r2, r0, #15
    18fa:	f8d1 0e08 	ldr.w	r0, [r1, #3592]	; 0xe08
    18fe:	ea40 2002 	orr.w	r0, r0, r2, lsl #8
    1902:	f8c1 0e08 	str.w	r0, [r1, #3592]	; 0xe08
    1906:	f8d1 0e08 	ldr.w	r0, [r1, #3592]	; 0xe08
    190a:	f040 0001 	orr.w	r0, r0, #1
    190e:	f8c1 0e08 	str.w	r0, [r1, #3592]	; 0xe08
    1912:	e7ff      	b.n	1914 <USART_Init+0xb0>
    1914:	9804      	ldr	r0, [sp, #16]
    1916:	7a00      	ldrb	r0, [r0, #8]
    1918:	07c0      	lsls	r0, r0, #31
    191a:	b1f0      	cbz	r0, 195a <USART_Init+0xf6>
    191c:	e7ff      	b.n	191e <USART_Init+0xba>
    191e:	9905      	ldr	r1, [sp, #20]
    1920:	9804      	ldr	r0, [sp, #16]
    1922:	f8d1 2e00 	ldr.w	r2, [r1, #3584]	; 0xe00
    1926:	f042 1202 	orr.w	r2, r2, #131074	; 0x20002
    192a:	f8c1 2e00 	str.w	r2, [r1, #3584]	; 0xe00
    192e:	f8d1 2e08 	ldr.w	r2, [r1, #3592]	; 0xe08
    1932:	f422 2270 	bic.w	r2, r2, #983040	; 0xf0000
    1936:	f8c1 2e08 	str.w	r2, [r1, #3592]	; 0xe08
    193a:	7b80      	ldrb	r0, [r0, #14]
    193c:	f000 020f 	and.w	r2, r0, #15
    1940:	f8d1 0e08 	ldr.w	r0, [r1, #3592]	; 0xe08
    1944:	ea40 4002 	orr.w	r0, r0, r2, lsl #16
    1948:	f8c1 0e08 	str.w	r0, [r1, #3592]	; 0xe08
    194c:	f8d1 0e08 	ldr.w	r0, [r1, #3592]	; 0xe08
    1950:	f040 0002 	orr.w	r0, r0, #2
    1954:	f8c1 0e08 	str.w	r0, [r1, #3592]	; 0xe08
    1958:	e7ff      	b.n	195a <USART_Init+0xf6>
    195a:	9804      	ldr	r0, [sp, #16]
    195c:	9a05      	ldr	r2, [sp, #20]
    195e:	f890 e004 	ldrb.w	lr, [r0, #4]
    1962:	7944      	ldrb	r4, [r0, #5]
    1964:	f890 c006 	ldrb.w	ip, [r0, #6]
    1968:	79c3      	ldrb	r3, [r0, #7]
    196a:	2140      	movs	r1, #64	; 0x40
    196c:	ea01 1184 	and.w	r1, r1, r4, lsl #6
    1970:	f36e 1105 	bfi	r1, lr, #4, #2
    1974:	f00c 0c03 	and.w	ip, ip, #3
    1978:	ea41 018c 	orr.w	r1, r1, ip, lsl #2
    197c:	f003 0301 	and.w	r3, r3, #1
    1980:	ea41 31c3 	orr.w	r1, r1, r3, lsl #15
    1984:	7bc3      	ldrb	r3, [r0, #15]
    1986:	f003 0c02 	and.w	ip, r3, #2
    198a:	ea41 218c 	orr.w	r1, r1, ip, lsl #10
    198e:	f003 0301 	and.w	r3, r3, #1
    1992:	ea41 3183 	orr.w	r1, r1, r3, lsl #14
    1996:	7c03      	ldrb	r3, [r0, #16]
    1998:	f003 0301 	and.w	r3, r3, #1
    199c:	ea41 3103 	orr.w	r1, r1, r3, lsl #12
    19a0:	7ac3      	ldrb	r3, [r0, #11]
    19a2:	f003 0301 	and.w	r3, r3, #1
    19a6:	ea41 11c3 	orr.w	r1, r1, r3, lsl #7
    19aa:	7b03      	ldrb	r3, [r0, #12]
    19ac:	f003 0301 	and.w	r3, r3, #1
    19b0:	ea41 2143 	orr.w	r1, r1, r3, lsl #9
    19b4:	f041 0101 	orr.w	r1, r1, #1
    19b8:	6011      	str	r1, [r2, #0]
    19ba:	7ac0      	ldrb	r0, [r0, #11]
    19bc:	07c0      	lsls	r0, r0, #31
    19be:	b1d0      	cbz	r0, 19f6 <USART_Init+0x192>
    19c0:	e7ff      	b.n	19c2 <USART_Init+0x15e>
    19c2:	9804      	ldr	r0, [sp, #16]
    19c4:	6801      	ldr	r1, [r0, #0]
    19c6:	f44f 5016 	mov.w	r0, #9600	; 0x2580
    19ca:	fbb0 f0f1 	udiv	r0, r0, r1
    19ce:	4348      	muls	r0, r1
    19d0:	f5c0 5016 	rsb	r0, r0, #9600	; 0x2580
    19d4:	b950      	cbnz	r0, 19ec <USART_Init+0x188>
    19d6:	e7ff      	b.n	19d8 <USART_Init+0x174>
    19d8:	9905      	ldr	r1, [sp, #20]
    19da:	9804      	ldr	r0, [sp, #16]
    19dc:	6802      	ldr	r2, [r0, #0]
    19de:	f44f 5016 	mov.w	r0, #9600	; 0x2580
    19e2:	fbb0 f0f2 	udiv	r0, r0, r2
    19e6:	3801      	subs	r0, #1
    19e8:	6208      	str	r0, [r1, #32]
    19ea:	e003      	b.n	19f4 <USART_Init+0x190>
    19ec:	f241 6051 	movw	r0, #5713	; 0x1651
    19f0:	9002      	str	r0, [sp, #8]
    19f2:	e018      	b.n	1a26 <USART_Init+0x1c2>
    19f4:	e00d      	b.n	1a12 <USART_Init+0x1ae>
    19f6:	9a03      	ldr	r2, [sp, #12]
    19f8:	9805      	ldr	r0, [sp, #20]
    19fa:	9904      	ldr	r1, [sp, #16]
    19fc:	6809      	ldr	r1, [r1, #0]
    19fe:	f000 f815 	bl	1a2c <USART_SetBaudRate>
    1a02:	4601      	mov	r1, r0
    1a04:	9100      	str	r1, [sp, #0]
    1a06:	b118      	cbz	r0, 1a10 <USART_Init+0x1ac>
    1a08:	e7ff      	b.n	1a0a <USART_Init+0x1a6>
    1a0a:	9800      	ldr	r0, [sp, #0]
    1a0c:	9002      	str	r0, [sp, #8]
    1a0e:	e00a      	b.n	1a26 <USART_Init+0x1c2>
    1a10:	e7ff      	b.n	1a12 <USART_Init+0x1ae>
    1a12:	9805      	ldr	r0, [sp, #20]
    1a14:	9904      	ldr	r1, [sp, #16]
    1a16:	7a89      	ldrb	r1, [r1, #10]
    1a18:	f001 0101 	and.w	r1, r1, #1
    1a1c:	f000 f900 	bl	1c20 <USART_EnableContinuousSCLK>
    1a20:	2000      	movs	r0, #0
    1a22:	9002      	str	r0, [sp, #8]
    1a24:	e7ff      	b.n	1a26 <USART_Init+0x1c2>
    1a26:	9802      	ldr	r0, [sp, #8]
    1a28:	b006      	add	sp, #24
    1a2a:	bdd0      	pop	{r4, r6, r7, pc}

00001a2c <USART_SetBaudRate>:
    1a2c:	b580      	push	{r7, lr}
    1a2e:	466f      	mov	r7, sp
    1a30:	b09a      	sub	sp, #104	; 0x68
    1a32:	9217      	str	r2, [sp, #92]	; 0x5c
    1a34:	9118      	str	r1, [sp, #96]	; 0x60
    1a36:	9019      	str	r0, [sp, #100]	; 0x64
    1a38:	b138      	cbz	r0, 1a4a <USART_SetBaudRate+0x1e>
    1a3a:	e7ff      	b.n	1a3c <USART_SetBaudRate+0x10>
    1a3c:	9818      	ldr	r0, [sp, #96]	; 0x60
    1a3e:	b120      	cbz	r0, 1a4a <USART_SetBaudRate+0x1e>
    1a40:	e7ff      	b.n	1a42 <USART_SetBaudRate+0x16>
    1a42:	9817      	ldr	r0, [sp, #92]	; 0x5c
    1a44:	b108      	cbz	r0, 1a4a <USART_SetBaudRate+0x1e>
    1a46:	e7ff      	b.n	1a48 <USART_SetBaudRate+0x1c>
    1a48:	e00f      	b.n	1a6a <USART_SetBaudRate+0x3e>
    1a4a:	f64e 5015 	movw	r0, #60693	; 0xed15
    1a4e:	f2c0 0000 	movt	r0, #0
    1a52:	f64e 626e 	movw	r2, #61038	; 0xee6e
    1a56:	f2c0 0200 	movt	r2, #0
    1a5a:	f64e 6380 	movw	r3, #61056	; 0xee80
    1a5e:	f2c0 0300 	movt	r3, #0
    1a62:	f240 11af 	movw	r1, #431	; 0x1af
    1a66:	f009 ffa9 	bl	b9bc <__assert_func>
    1a6a:	9819      	ldr	r0, [sp, #100]	; 0x64
    1a6c:	b130      	cbz	r0, 1a7c <USART_SetBaudRate+0x50>
    1a6e:	e7ff      	b.n	1a70 <USART_SetBaudRate+0x44>
    1a70:	9818      	ldr	r0, [sp, #96]	; 0x60
    1a72:	b118      	cbz	r0, 1a7c <USART_SetBaudRate+0x50>
    1a74:	e7ff      	b.n	1a76 <USART_SetBaudRate+0x4a>
    1a76:	9817      	ldr	r0, [sp, #92]	; 0x5c
    1a78:	b918      	cbnz	r0, 1a82 <USART_SetBaudRate+0x56>
    1a7a:	e7ff      	b.n	1a7c <USART_SetBaudRate+0x50>
    1a7c:	2004      	movs	r0, #4
    1a7e:	9016      	str	r0, [sp, #88]	; 0x58
    1a80:	e0cb      	b.n	1c1a <USART_SetBaudRate+0x1ee>
    1a82:	9819      	ldr	r0, [sp, #100]	; 0x64
    1a84:	6800      	ldr	r0, [r0, #0]
    1a86:	0500      	lsls	r0, r0, #20
    1a88:	2800      	cmp	r0, #0
    1a8a:	d50f      	bpl.n	1aac <USART_SetBaudRate+0x80>
    1a8c:	e7ff      	b.n	1a8e <USART_SetBaudRate+0x62>
    1a8e:	9819      	ldr	r0, [sp, #100]	; 0x64
    1a90:	6800      	ldr	r0, [r0, #0]
    1a92:	0440      	lsls	r0, r0, #17
    1a94:	2800      	cmp	r0, #0
    1a96:	d508      	bpl.n	1aaa <USART_SetBaudRate+0x7e>
    1a98:	e7ff      	b.n	1a9a <USART_SetBaudRate+0x6e>
    1a9a:	9919      	ldr	r1, [sp, #100]	; 0x64
    1a9c:	9817      	ldr	r0, [sp, #92]	; 0x5c
    1a9e:	9a18      	ldr	r2, [sp, #96]	; 0x60
    1aa0:	fbb0 f0f2 	udiv	r0, r0, r2
    1aa4:	3801      	subs	r0, #1
    1aa6:	6208      	str	r0, [r1, #32]
    1aa8:	e7ff      	b.n	1aaa <USART_SetBaudRate+0x7e>
    1aaa:	e0b3      	b.n	1c14 <USART_SetBaudRate+0x1e8>
    1aac:	9818      	ldr	r0, [sp, #96]	; 0x60
    1aae:	f248 511f 	movw	r1, #34079	; 0x851f
    1ab2:	f2c5 11eb 	movt	r1, #20971	; 0x51eb
    1ab6:	fba0 1001 	umull	r1, r0, r0, r1
    1aba:	0940      	lsrs	r0, r0, #5
    1abc:	eb00 0240 	add.w	r2, r0, r0, lsl #1
    1ac0:	f04f 30ff 	mov.w	r0, #4294967295	; 0xffffffff
    1ac4:	210f      	movs	r1, #15
    1ac6:	9211      	str	r2, [sp, #68]	; 0x44
    1ac8:	460a      	mov	r2, r1
    1aca:	9212      	str	r2, [sp, #72]	; 0x48
    1acc:	4602      	mov	r2, r0
    1ace:	9213      	str	r2, [sp, #76]	; 0x4c
    1ad0:	9114      	str	r1, [sp, #80]	; 0x50
    1ad2:	9015      	str	r0, [sp, #84]	; 0x54
    1ad4:	e7ff      	b.n	1ad6 <USART_SetBaudRate+0xaa>
    1ad6:	9812      	ldr	r0, [sp, #72]	; 0x48
    1ad8:	9913      	ldr	r1, [sp, #76]	; 0x4c
    1ada:	9a14      	ldr	r2, [sp, #80]	; 0x50
    1adc:	9b15      	ldr	r3, [sp, #84]	; 0x54
    1ade:	930d      	str	r3, [sp, #52]	; 0x34
    1ae0:	920e      	str	r2, [sp, #56]	; 0x38
    1ae2:	910f      	str	r1, [sp, #60]	; 0x3c
    1ae4:	9010      	str	r0, [sp, #64]	; 0x40
    1ae6:	2804      	cmp	r0, #4
    1ae8:	d364      	bcc.n	1bb4 <USART_SetBaudRate+0x188>
    1aea:	e7ff      	b.n	1aec <USART_SetBaudRate+0xc0>
    1aec:	9810      	ldr	r0, [sp, #64]	; 0x40
    1aee:	2808      	cmp	r0, #8
    1af0:	d806      	bhi.n	1b00 <USART_SetBaudRate+0xd4>
    1af2:	e7ff      	b.n	1af4 <USART_SetBaudRate+0xc8>
    1af4:	980d      	ldr	r0, [sp, #52]	; 0x34
    1af6:	9911      	ldr	r1, [sp, #68]	; 0x44
    1af8:	4288      	cmp	r0, r1
    1afa:	d801      	bhi.n	1b00 <USART_SetBaudRate+0xd4>
    1afc:	e7ff      	b.n	1afe <USART_SetBaudRate+0xd2>
    1afe:	e059      	b.n	1bb4 <USART_SetBaudRate+0x188>
    1b00:	9a18      	ldr	r2, [sp, #96]	; 0x60
    1b02:	9910      	ldr	r1, [sp, #64]	; 0x40
    1b04:	9817      	ldr	r0, [sp, #92]	; 0x5c
    1b06:	eb00 0080 	add.w	r0, r0, r0, lsl #2
    1b0a:	0040      	lsls	r0, r0, #1
    1b0c:	3101      	adds	r1, #1
    1b0e:	4351      	muls	r1, r2
    1b10:	fbb0 f0f1 	udiv	r0, r0, r1
    1b14:	3805      	subs	r0, #5
    1b16:	f64c 41cd 	movw	r1, #52429	; 0xcccd
    1b1a:	f6cc 41cc 	movt	r1, #52428	; 0xcccc
    1b1e:	fba0 1001 	umull	r1, r0, r0, r1
    1b22:	08c0      	lsrs	r0, r0, #3
    1b24:	4601      	mov	r1, r0
    1b26:	910c      	str	r1, [sp, #48]	; 0x30
    1b28:	f5b0 3f80 	cmp.w	r0, #65536	; 0x10000
    1b2c:	d307      	bcc.n	1b3e <USART_SetBaudRate+0x112>
    1b2e:	e7ff      	b.n	1b30 <USART_SetBaudRate+0x104>
    1b30:	980d      	ldr	r0, [sp, #52]	; 0x34
    1b32:	990e      	ldr	r1, [sp, #56]	; 0x38
    1b34:	9a0f      	ldr	r2, [sp, #60]	; 0x3c
    1b36:	9209      	str	r2, [sp, #36]	; 0x24
    1b38:	910a      	str	r1, [sp, #40]	; 0x28
    1b3a:	900b      	str	r0, [sp, #44]	; 0x2c
    1b3c:	e030      	b.n	1ba0 <USART_SetBaudRate+0x174>
    1b3e:	9818      	ldr	r0, [sp, #96]	; 0x60
    1b40:	9917      	ldr	r1, [sp, #92]	; 0x5c
    1b42:	9b0c      	ldr	r3, [sp, #48]	; 0x30
    1b44:	9a10      	ldr	r2, [sp, #64]	; 0x40
    1b46:	3201      	adds	r2, #1
    1b48:	3301      	adds	r3, #1
    1b4a:	435a      	muls	r2, r3
    1b4c:	fbb1 f1f2 	udiv	r1, r1, r2
    1b50:	460a      	mov	r2, r1
    1b52:	9208      	str	r2, [sp, #32]
    1b54:	4288      	cmp	r0, r1
    1b56:	d205      	bcs.n	1b64 <USART_SetBaudRate+0x138>
    1b58:	e7ff      	b.n	1b5a <USART_SetBaudRate+0x12e>
    1b5a:	9808      	ldr	r0, [sp, #32]
    1b5c:	9918      	ldr	r1, [sp, #96]	; 0x60
    1b5e:	1a40      	subs	r0, r0, r1
    1b60:	9007      	str	r0, [sp, #28]
    1b62:	e004      	b.n	1b6e <USART_SetBaudRate+0x142>
    1b64:	9818      	ldr	r0, [sp, #96]	; 0x60
    1b66:	9908      	ldr	r1, [sp, #32]
    1b68:	1a40      	subs	r0, r0, r1
    1b6a:	9007      	str	r0, [sp, #28]
    1b6c:	e7ff      	b.n	1b6e <USART_SetBaudRate+0x142>
    1b6e:	980d      	ldr	r0, [sp, #52]	; 0x34
    1b70:	990e      	ldr	r1, [sp, #56]	; 0x38
    1b72:	9a0f      	ldr	r2, [sp, #60]	; 0x3c
    1b74:	9b07      	ldr	r3, [sp, #28]
    1b76:	9303      	str	r3, [sp, #12]
    1b78:	4283      	cmp	r3, r0
    1b7a:	9204      	str	r2, [sp, #16]
    1b7c:	9105      	str	r1, [sp, #20]
    1b7e:	9006      	str	r0, [sp, #24]
    1b80:	d207      	bcs.n	1b92 <USART_SetBaudRate+0x166>
    1b82:	e7ff      	b.n	1b84 <USART_SetBaudRate+0x158>
    1b84:	9803      	ldr	r0, [sp, #12]
    1b86:	9910      	ldr	r1, [sp, #64]	; 0x40
    1b88:	9a0c      	ldr	r2, [sp, #48]	; 0x30
    1b8a:	9204      	str	r2, [sp, #16]
    1b8c:	9105      	str	r1, [sp, #20]
    1b8e:	9006      	str	r0, [sp, #24]
    1b90:	e7ff      	b.n	1b92 <USART_SetBaudRate+0x166>
    1b92:	9a04      	ldr	r2, [sp, #16]
    1b94:	9905      	ldr	r1, [sp, #20]
    1b96:	9806      	ldr	r0, [sp, #24]
    1b98:	9209      	str	r2, [sp, #36]	; 0x24
    1b9a:	910a      	str	r1, [sp, #40]	; 0x28
    1b9c:	900b      	str	r0, [sp, #44]	; 0x2c
    1b9e:	e7ff      	b.n	1ba0 <USART_SetBaudRate+0x174>
    1ba0:	9b10      	ldr	r3, [sp, #64]	; 0x40
    1ba2:	9a09      	ldr	r2, [sp, #36]	; 0x24
    1ba4:	990a      	ldr	r1, [sp, #40]	; 0x28
    1ba6:	980b      	ldr	r0, [sp, #44]	; 0x2c
    1ba8:	3b01      	subs	r3, #1
    1baa:	9312      	str	r3, [sp, #72]	; 0x48
    1bac:	9213      	str	r2, [sp, #76]	; 0x4c
    1bae:	9114      	str	r1, [sp, #80]	; 0x50
    1bb0:	9015      	str	r0, [sp, #84]	; 0x54
    1bb2:	e790      	b.n	1ad6 <USART_SetBaudRate+0xaa>
    1bb4:	9818      	ldr	r0, [sp, #96]	; 0x60
    1bb6:	9917      	ldr	r1, [sp, #92]	; 0x5c
    1bb8:	9b0f      	ldr	r3, [sp, #60]	; 0x3c
    1bba:	9a0e      	ldr	r2, [sp, #56]	; 0x38
    1bbc:	3201      	adds	r2, #1
    1bbe:	3301      	adds	r3, #1
    1bc0:	435a      	muls	r2, r3
    1bc2:	fbb1 f1f2 	udiv	r1, r1, r2
    1bc6:	460a      	mov	r2, r1
    1bc8:	9202      	str	r2, [sp, #8]
    1bca:	4288      	cmp	r0, r1
    1bcc:	d205      	bcs.n	1bda <USART_SetBaudRate+0x1ae>
    1bce:	e7ff      	b.n	1bd0 <USART_SetBaudRate+0x1a4>
    1bd0:	9802      	ldr	r0, [sp, #8]
    1bd2:	9918      	ldr	r1, [sp, #96]	; 0x60
    1bd4:	1a40      	subs	r0, r0, r1
    1bd6:	9001      	str	r0, [sp, #4]
    1bd8:	e004      	b.n	1be4 <USART_SetBaudRate+0x1b8>
    1bda:	9818      	ldr	r0, [sp, #96]	; 0x60
    1bdc:	9902      	ldr	r1, [sp, #8]
    1bde:	1a40      	subs	r0, r0, r1
    1be0:	9001      	str	r0, [sp, #4]
    1be2:	e7ff      	b.n	1be4 <USART_SetBaudRate+0x1b8>
    1be4:	9911      	ldr	r1, [sp, #68]	; 0x44
    1be6:	9801      	ldr	r0, [sp, #4]
    1be8:	4288      	cmp	r0, r1
    1bea:	d904      	bls.n	1bf6 <USART_SetBaudRate+0x1ca>
    1bec:	e7ff      	b.n	1bee <USART_SetBaudRate+0x1c2>
    1bee:	f241 6051 	movw	r0, #5713	; 0x1651
    1bf2:	9016      	str	r0, [sp, #88]	; 0x58
    1bf4:	e011      	b.n	1c1a <USART_SetBaudRate+0x1ee>
    1bf6:	980f      	ldr	r0, [sp, #60]	; 0x3c
    1bf8:	f5b0 3f80 	cmp.w	r0, #65536	; 0x10000
    1bfc:	d304      	bcc.n	1c08 <USART_SetBaudRate+0x1dc>
    1bfe:	e7ff      	b.n	1c00 <USART_SetBaudRate+0x1d4>
    1c00:	f241 6051 	movw	r0, #5713	; 0x1651
    1c04:	9016      	str	r0, [sp, #88]	; 0x58
    1c06:	e008      	b.n	1c1a <USART_SetBaudRate+0x1ee>
    1c08:	980f      	ldr	r0, [sp, #60]	; 0x3c
    1c0a:	9919      	ldr	r1, [sp, #100]	; 0x64
    1c0c:	9a0e      	ldr	r2, [sp, #56]	; 0x38
    1c0e:	628a      	str	r2, [r1, #40]	; 0x28
    1c10:	6208      	str	r0, [r1, #32]
    1c12:	e7ff      	b.n	1c14 <USART_SetBaudRate+0x1e8>
    1c14:	2000      	movs	r0, #0
    1c16:	9016      	str	r0, [sp, #88]	; 0x58
    1c18:	e7ff      	b.n	1c1a <USART_SetBaudRate+0x1ee>
    1c1a:	9816      	ldr	r0, [sp, #88]	; 0x58
    1c1c:	b01a      	add	sp, #104	; 0x68
    1c1e:	bd80      	pop	{r7, pc}

00001c20 <USART_EnableContinuousSCLK>:
    1c20:	b081      	sub	sp, #4
    1c22:	9000      	str	r0, [sp, #0]
    1c24:	b131      	cbz	r1, 1c34 <USART_EnableContinuousSCLK+0x14>
    1c26:	e7ff      	b.n	1c28 <USART_EnableContinuousSCLK+0x8>
    1c28:	9900      	ldr	r1, [sp, #0]
    1c2a:	6848      	ldr	r0, [r1, #4]
    1c2c:	f440 7080 	orr.w	r0, r0, #256	; 0x100
    1c30:	6048      	str	r0, [r1, #4]
    1c32:	e005      	b.n	1c40 <USART_EnableContinuousSCLK+0x20>
    1c34:	9900      	ldr	r1, [sp, #0]
    1c36:	6848      	ldr	r0, [r1, #4]
    1c38:	f420 7080 	bic.w	r0, r0, #256	; 0x100
    1c3c:	6048      	str	r0, [r1, #4]
    1c3e:	e7ff      	b.n	1c40 <USART_EnableContinuousSCLK+0x20>
    1c40:	b001      	add	sp, #4
    1c42:	4770      	bx	lr

00001c44 <USART_GetDefaultConfig>:
    1c44:	b580      	push	{r7, lr}
    1c46:	466f      	mov	r7, sp
    1c48:	b082      	sub	sp, #8
    1c4a:	9001      	str	r0, [sp, #4]
    1c4c:	b108      	cbz	r0, 1c52 <USART_GetDefaultConfig+0xe>
    1c4e:	e7ff      	b.n	1c50 <USART_GetDefaultConfig+0xc>
    1c50:	e00f      	b.n	1c72 <USART_GetDefaultConfig+0x2e>
    1c52:	f64e 5015 	movw	r0, #60693	; 0xed15
    1c56:	f2c0 0000 	movt	r0, #0
    1c5a:	f64e 6248 	movw	r2, #61000	; 0xee48
    1c5e:	f2c0 0200 	movt	r2, #0
    1c62:	f64e 635f 	movw	r3, #61023	; 0xee5f
    1c66:	f2c0 0300 	movt	r3, #0
    1c6a:	f44f 719b 	mov.w	r1, #310	; 0x136
    1c6e:	f009 fea5 	bl	b9bc <__assert_func>
    1c72:	9801      	ldr	r0, [sp, #4]
    1c74:	2100      	movs	r1, #0
    1c76:	9100      	str	r1, [sp, #0]
    1c78:	2214      	movs	r2, #20
    1c7a:	f00a f9f3 	bl	c064 <memset>
    1c7e:	9901      	ldr	r1, [sp, #4]
    1c80:	9800      	ldr	r0, [sp, #0]
    1c82:	f44f 32e1 	mov.w	r2, #115200	; 0x1c200
    1c86:	600a      	str	r2, [r1, #0]
    1c88:	7108      	strb	r0, [r1, #4]
    1c8a:	7148      	strb	r0, [r1, #5]
    1c8c:	2201      	movs	r2, #1
    1c8e:	718a      	strb	r2, [r1, #6]
    1c90:	71c8      	strb	r0, [r1, #7]
    1c92:	7208      	strb	r0, [r1, #8]
    1c94:	7248      	strb	r0, [r1, #9]
    1c96:	72c8      	strb	r0, [r1, #11]
    1c98:	7348      	strb	r0, [r1, #13]
    1c9a:	7388      	strb	r0, [r1, #14]
    1c9c:	73c8      	strb	r0, [r1, #15]
    1c9e:	7288      	strb	r0, [r1, #10]
    1ca0:	7408      	strb	r0, [r1, #16]
    1ca2:	7308      	strb	r0, [r1, #12]
    1ca4:	b002      	add	sp, #8
    1ca6:	bd80      	pop	{r7, pc}

00001ca8 <USART_WriteBlocking>:
    1ca8:	b580      	push	{r7, lr}
    1caa:	466f      	mov	r7, sp
    1cac:	b08a      	sub	sp, #40	; 0x28
    1cae:	9207      	str	r2, [sp, #28]
    1cb0:	9108      	str	r1, [sp, #32]
    1cb2:	9009      	str	r0, [sp, #36]	; 0x24
    1cb4:	b120      	cbz	r0, 1cc0 <USART_WriteBlocking+0x18>
    1cb6:	e7ff      	b.n	1cb8 <USART_WriteBlocking+0x10>
    1cb8:	9808      	ldr	r0, [sp, #32]
    1cba:	b108      	cbz	r0, 1cc0 <USART_WriteBlocking+0x18>
    1cbc:	e7ff      	b.n	1cbe <USART_WriteBlocking+0x16>
    1cbe:	e00f      	b.n	1ce0 <USART_WriteBlocking+0x38>
    1cc0:	f64e 5015 	movw	r0, #60693	; 0xed15
    1cc4:	f2c0 0000 	movt	r0, #0
    1cc8:	f64e 62f5 	movw	r2, #61173	; 0xeef5
    1ccc:	f2c0 0200 	movt	r2, #0
    1cd0:	f64e 7309 	movw	r3, #61193	; 0xef09
    1cd4:	f2c0 0300 	movt	r3, #0
    1cd8:	f240 215b 	movw	r1, #603	; 0x25b
    1cdc:	f009 fe6e 	bl	b9bc <__assert_func>
    1ce0:	9809      	ldr	r0, [sp, #36]	; 0x24
    1ce2:	b118      	cbz	r0, 1cec <USART_WriteBlocking+0x44>
    1ce4:	e7ff      	b.n	1ce6 <USART_WriteBlocking+0x3e>
    1ce6:	9808      	ldr	r0, [sp, #32]
    1ce8:	b918      	cbnz	r0, 1cf2 <USART_WriteBlocking+0x4a>
    1cea:	e7ff      	b.n	1cec <USART_WriteBlocking+0x44>
    1cec:	2004      	movs	r0, #4
    1cee:	9006      	str	r0, [sp, #24]
    1cf0:	e035      	b.n	1d5e <USART_WriteBlocking+0xb6>
    1cf2:	9809      	ldr	r0, [sp, #36]	; 0x24
    1cf4:	f8d0 0e00 	ldr.w	r0, [r0, #3584]	; 0xe00
    1cf8:	07c0      	lsls	r0, r0, #31
    1cfa:	b918      	cbnz	r0, 1d04 <USART_WriteBlocking+0x5c>
    1cfc:	e7ff      	b.n	1cfe <USART_WriteBlocking+0x56>
    1cfe:	2004      	movs	r0, #4
    1d00:	9006      	str	r0, [sp, #24]
    1d02:	e02c      	b.n	1d5e <USART_WriteBlocking+0xb6>
    1d04:	9807      	ldr	r0, [sp, #28]
    1d06:	9908      	ldr	r1, [sp, #32]
    1d08:	9104      	str	r1, [sp, #16]
    1d0a:	9005      	str	r0, [sp, #20]
    1d0c:	e7ff      	b.n	1d0e <USART_WriteBlocking+0x66>
    1d0e:	9904      	ldr	r1, [sp, #16]
    1d10:	9805      	ldr	r0, [sp, #20]
    1d12:	9002      	str	r0, [sp, #8]
    1d14:	9103      	str	r1, [sp, #12]
    1d16:	b1b8      	cbz	r0, 1d48 <USART_WriteBlocking+0xa0>
    1d18:	e7ff      	b.n	1d1a <USART_WriteBlocking+0x72>
    1d1a:	e7ff      	b.n	1d1c <USART_WriteBlocking+0x74>
    1d1c:	9809      	ldr	r0, [sp, #36]	; 0x24
    1d1e:	f8d0 0e04 	ldr.w	r0, [r0, #3588]	; 0xe04
    1d22:	0680      	lsls	r0, r0, #26
    1d24:	2800      	cmp	r0, #0
    1d26:	d401      	bmi.n	1d2c <USART_WriteBlocking+0x84>
    1d28:	e7ff      	b.n	1d2a <USART_WriteBlocking+0x82>
    1d2a:	e7f7      	b.n	1d1c <USART_WriteBlocking+0x74>
    1d2c:	9909      	ldr	r1, [sp, #36]	; 0x24
    1d2e:	9a03      	ldr	r2, [sp, #12]
    1d30:	f812 0b01 	ldrb.w	r0, [r2], #1
    1d34:	9201      	str	r2, [sp, #4]
    1d36:	f8c1 0e20 	str.w	r0, [r1, #3616]	; 0xe20
    1d3a:	e7ff      	b.n	1d3c <USART_WriteBlocking+0x94>
    1d3c:	9901      	ldr	r1, [sp, #4]
    1d3e:	9802      	ldr	r0, [sp, #8]
    1d40:	3801      	subs	r0, #1
    1d42:	9104      	str	r1, [sp, #16]
    1d44:	9005      	str	r0, [sp, #20]
    1d46:	e7e2      	b.n	1d0e <USART_WriteBlocking+0x66>
    1d48:	e7ff      	b.n	1d4a <USART_WriteBlocking+0xa2>
    1d4a:	9809      	ldr	r0, [sp, #36]	; 0x24
    1d4c:	6880      	ldr	r0, [r0, #8]
    1d4e:	0700      	lsls	r0, r0, #28
    1d50:	2800      	cmp	r0, #0
    1d52:	d401      	bmi.n	1d58 <USART_WriteBlocking+0xb0>
    1d54:	e7ff      	b.n	1d56 <USART_WriteBlocking+0xae>
    1d56:	e7f8      	b.n	1d4a <USART_WriteBlocking+0xa2>
    1d58:	2000      	movs	r0, #0
    1d5a:	9006      	str	r0, [sp, #24]
    1d5c:	e7ff      	b.n	1d5e <USART_WriteBlocking+0xb6>
    1d5e:	9806      	ldr	r0, [sp, #24]
    1d60:	b00a      	add	sp, #40	; 0x28
    1d62:	bd80      	pop	{r7, pc}

00001d64 <USART_ReadBlocking>:
    1d64:	b580      	push	{r7, lr}
    1d66:	466f      	mov	r7, sp
    1d68:	b092      	sub	sp, #72	; 0x48
    1d6a:	920f      	str	r2, [sp, #60]	; 0x3c
    1d6c:	9110      	str	r1, [sp, #64]	; 0x40
    1d6e:	9011      	str	r0, [sp, #68]	; 0x44
    1d70:	b120      	cbz	r0, 1d7c <USART_ReadBlocking+0x18>
    1d72:	e7ff      	b.n	1d74 <USART_ReadBlocking+0x10>
    1d74:	9810      	ldr	r0, [sp, #64]	; 0x40
    1d76:	b108      	cbz	r0, 1d7c <USART_ReadBlocking+0x18>
    1d78:	e7ff      	b.n	1d7a <USART_ReadBlocking+0x16>
    1d7a:	e00f      	b.n	1d9c <USART_ReadBlocking+0x38>
    1d7c:	f64e 5015 	movw	r0, #60693	; 0xed15
    1d80:	f2c0 0000 	movt	r0, #0
    1d84:	f64e 722d 	movw	r2, #61229	; 0xef2d
    1d88:	f2c0 0200 	movt	r2, #0
    1d8c:	f64e 7309 	movw	r3, #61193	; 0xef09
    1d90:	f2c0 0300 	movt	r3, #0
    1d94:	f240 21a7 	movw	r1, #679	; 0x2a7
    1d98:	f009 fe10 	bl	b9bc <__assert_func>
    1d9c:	9811      	ldr	r0, [sp, #68]	; 0x44
    1d9e:	b118      	cbz	r0, 1da8 <USART_ReadBlocking+0x44>
    1da0:	e7ff      	b.n	1da2 <USART_ReadBlocking+0x3e>
    1da2:	9810      	ldr	r0, [sp, #64]	; 0x40
    1da4:	b918      	cbnz	r0, 1dae <USART_ReadBlocking+0x4a>
    1da6:	e7ff      	b.n	1da8 <USART_ReadBlocking+0x44>
    1da8:	2004      	movs	r0, #4
    1daa:	900e      	str	r0, [sp, #56]	; 0x38
    1dac:	e07c      	b.n	1ea8 <USART_ReadBlocking+0x144>
    1dae:	9811      	ldr	r0, [sp, #68]	; 0x44
    1db0:	f8d0 0e00 	ldr.w	r0, [r0, #3584]	; 0xe00
    1db4:	0780      	lsls	r0, r0, #30
    1db6:	2800      	cmp	r0, #0
    1db8:	d403      	bmi.n	1dc2 <USART_ReadBlocking+0x5e>
    1dba:	e7ff      	b.n	1dbc <USART_ReadBlocking+0x58>
    1dbc:	2001      	movs	r0, #1
    1dbe:	900e      	str	r0, [sp, #56]	; 0x38
    1dc0:	e072      	b.n	1ea8 <USART_ReadBlocking+0x144>
    1dc2:	9910      	ldr	r1, [sp, #64]	; 0x40
    1dc4:	9a0f      	ldr	r2, [sp, #60]	; 0x3c
    1dc6:	2000      	movs	r0, #0
    1dc8:	920b      	str	r2, [sp, #44]	; 0x2c
    1dca:	910c      	str	r1, [sp, #48]	; 0x30
    1dcc:	900d      	str	r0, [sp, #52]	; 0x34
    1dce:	e7ff      	b.n	1dd0 <USART_ReadBlocking+0x6c>
    1dd0:	990b      	ldr	r1, [sp, #44]	; 0x2c
    1dd2:	9a0c      	ldr	r2, [sp, #48]	; 0x30
    1dd4:	980d      	ldr	r0, [sp, #52]	; 0x34
    1dd6:	9007      	str	r0, [sp, #28]
    1dd8:	9208      	str	r2, [sp, #32]
    1dda:	9109      	str	r1, [sp, #36]	; 0x24
    1ddc:	2900      	cmp	r1, #0
    1dde:	900a      	str	r0, [sp, #40]	; 0x28
    1de0:	d05f      	beq.n	1ea2 <USART_ReadBlocking+0x13e>
    1de2:	e7ff      	b.n	1de4 <USART_ReadBlocking+0x80>
    1de4:	e7ff      	b.n	1de6 <USART_ReadBlocking+0x82>
    1de6:	9811      	ldr	r0, [sp, #68]	; 0x44
    1de8:	f8d0 0e04 	ldr.w	r0, [r0, #3588]	; 0xe04
    1dec:	0640      	lsls	r0, r0, #25
    1dee:	2800      	cmp	r0, #0
    1df0:	d401      	bmi.n	1df6 <USART_ReadBlocking+0x92>
    1df2:	e7ff      	b.n	1df4 <USART_ReadBlocking+0x90>
    1df4:	e7f7      	b.n	1de6 <USART_ReadBlocking+0x82>
    1df6:	9811      	ldr	r0, [sp, #68]	; 0x44
    1df8:	f8d0 0e04 	ldr.w	r0, [r0, #3588]	; 0xe04
    1dfc:	0780      	lsls	r0, r0, #30
    1dfe:	2800      	cmp	r0, #0
    1e00:	d511      	bpl.n	1e26 <USART_ReadBlocking+0xc2>
    1e02:	e7ff      	b.n	1e04 <USART_ReadBlocking+0xa0>
    1e04:	9911      	ldr	r1, [sp, #68]	; 0x44
    1e06:	f8d1 0e00 	ldr.w	r0, [r1, #3584]	; 0xe00
    1e0a:	f440 3000 	orr.w	r0, r0, #131072	; 0x20000
    1e0e:	f8c1 0e00 	str.w	r0, [r1, #3584]	; 0xe00
    1e12:	f8d1 0e04 	ldr.w	r0, [r1, #3588]	; 0xe04
    1e16:	f040 0002 	orr.w	r0, r0, #2
    1e1a:	f8c1 0e04 	str.w	r0, [r1, #3588]	; 0xe04
    1e1e:	f241 604d 	movw	r0, #5709	; 0x164d
    1e22:	900a      	str	r0, [sp, #40]	; 0x28
    1e24:	e03d      	b.n	1ea2 <USART_ReadBlocking+0x13e>
    1e26:	9807      	ldr	r0, [sp, #28]
    1e28:	9b11      	ldr	r3, [sp, #68]	; 0x44
    1e2a:	6899      	ldr	r1, [r3, #8]
    1e2c:	9105      	str	r1, [sp, #20]
    1e2e:	689a      	ldr	r2, [r3, #8]
    1e30:	430a      	orrs	r2, r1
    1e32:	609a      	str	r2, [r3, #8]
    1e34:	0449      	lsls	r1, r1, #17
    1e36:	2900      	cmp	r1, #0
    1e38:	9006      	str	r0, [sp, #24]
    1e3a:	d504      	bpl.n	1e46 <USART_ReadBlocking+0xe2>
    1e3c:	e7ff      	b.n	1e3e <USART_ReadBlocking+0xda>
    1e3e:	f241 6050 	movw	r0, #5712	; 0x1650
    1e42:	9006      	str	r0, [sp, #24]
    1e44:	e7ff      	b.n	1e46 <USART_ReadBlocking+0xe2>
    1e46:	9905      	ldr	r1, [sp, #20]
    1e48:	9806      	ldr	r0, [sp, #24]
    1e4a:	0489      	lsls	r1, r1, #18
    1e4c:	2900      	cmp	r1, #0
    1e4e:	9004      	str	r0, [sp, #16]
    1e50:	d504      	bpl.n	1e5c <USART_ReadBlocking+0xf8>
    1e52:	e7ff      	b.n	1e54 <USART_ReadBlocking+0xf0>
    1e54:	f241 604f 	movw	r0, #5711	; 0x164f
    1e58:	9004      	str	r0, [sp, #16]
    1e5a:	e7ff      	b.n	1e5c <USART_ReadBlocking+0xf8>
    1e5c:	9905      	ldr	r1, [sp, #20]
    1e5e:	9804      	ldr	r0, [sp, #16]
    1e60:	0409      	lsls	r1, r1, #16
    1e62:	2900      	cmp	r1, #0
    1e64:	9003      	str	r0, [sp, #12]
    1e66:	d504      	bpl.n	1e72 <USART_ReadBlocking+0x10e>
    1e68:	e7ff      	b.n	1e6a <USART_ReadBlocking+0x106>
    1e6a:	f241 604e 	movw	r0, #5710	; 0x164e
    1e6e:	9003      	str	r0, [sp, #12]
    1e70:	e7ff      	b.n	1e72 <USART_ReadBlocking+0x10e>
    1e72:	9803      	ldr	r0, [sp, #12]
    1e74:	9002      	str	r0, [sp, #8]
    1e76:	b940      	cbnz	r0, 1e8a <USART_ReadBlocking+0x126>
    1e78:	e7ff      	b.n	1e7a <USART_ReadBlocking+0x116>
    1e7a:	9808      	ldr	r0, [sp, #32]
    1e7c:	9911      	ldr	r1, [sp, #68]	; 0x44
    1e7e:	f8d1 1e30 	ldr.w	r1, [r1, #3632]	; 0xe30
    1e82:	f800 1b01 	strb.w	r1, [r0], #1
    1e86:	9001      	str	r0, [sp, #4]
    1e88:	e002      	b.n	1e90 <USART_ReadBlocking+0x12c>
    1e8a:	9802      	ldr	r0, [sp, #8]
    1e8c:	900a      	str	r0, [sp, #40]	; 0x28
    1e8e:	e008      	b.n	1ea2 <USART_ReadBlocking+0x13e>
    1e90:	e7ff      	b.n	1e92 <USART_ReadBlocking+0x12e>
    1e92:	9802      	ldr	r0, [sp, #8]
    1e94:	9901      	ldr	r1, [sp, #4]
    1e96:	9a09      	ldr	r2, [sp, #36]	; 0x24
    1e98:	3a01      	subs	r2, #1
    1e9a:	920b      	str	r2, [sp, #44]	; 0x2c
    1e9c:	910c      	str	r1, [sp, #48]	; 0x30
    1e9e:	900d      	str	r0, [sp, #52]	; 0x34
    1ea0:	e796      	b.n	1dd0 <USART_ReadBlocking+0x6c>
    1ea2:	980a      	ldr	r0, [sp, #40]	; 0x28
    1ea4:	900e      	str	r0, [sp, #56]	; 0x38
    1ea6:	e7ff      	b.n	1ea8 <USART_ReadBlocking+0x144>
    1ea8:	980e      	ldr	r0, [sp, #56]	; 0x38
    1eaa:	b012      	add	sp, #72	; 0x48
    1eac:	bd80      	pop	{r7, pc}

00001eae <FLEXCOMM_GetInstance>:
    1eae:	b580      	push	{r7, lr}
    1eb0:	466f      	mov	r7, sp
    1eb2:	b084      	sub	sp, #16
    1eb4:	9002      	str	r0, [sp, #8]
    1eb6:	2000      	movs	r0, #0
    1eb8:	9003      	str	r0, [sp, #12]
    1eba:	e7ff      	b.n	1ebc <FLEXCOMM_GetInstance+0xe>
    1ebc:	9803      	ldr	r0, [sp, #12]
    1ebe:	9001      	str	r0, [sp, #4]
    1ec0:	2808      	cmp	r0, #8
    1ec2:	d811      	bhi.n	1ee8 <FLEXCOMM_GetInstance+0x3a>
    1ec4:	e7ff      	b.n	1ec6 <FLEXCOMM_GetInstance+0x18>
    1ec6:	9802      	ldr	r0, [sp, #8]
    1ec8:	9a01      	ldr	r2, [sp, #4]
    1eca:	f24f 1138 	movw	r1, #61752	; 0xf138
    1ece:	f2c0 0100 	movt	r1, #0
    1ed2:	f851 1022 	ldr.w	r1, [r1, r2, lsl #2]
    1ed6:	4288      	cmp	r0, r1
    1ed8:	d101      	bne.n	1ede <FLEXCOMM_GetInstance+0x30>
    1eda:	e7ff      	b.n	1edc <FLEXCOMM_GetInstance+0x2e>
    1edc:	e004      	b.n	1ee8 <FLEXCOMM_GetInstance+0x3a>
    1ede:	e7ff      	b.n	1ee0 <FLEXCOMM_GetInstance+0x32>
    1ee0:	9801      	ldr	r0, [sp, #4]
    1ee2:	3001      	adds	r0, #1
    1ee4:	9003      	str	r0, [sp, #12]
    1ee6:	e7e9      	b.n	1ebc <FLEXCOMM_GetInstance+0xe>
    1ee8:	9801      	ldr	r0, [sp, #4]
    1eea:	2808      	cmp	r0, #8
    1eec:	d801      	bhi.n	1ef2 <FLEXCOMM_GetInstance+0x44>
    1eee:	e7ff      	b.n	1ef0 <FLEXCOMM_GetInstance+0x42>
    1ef0:	e00e      	b.n	1f10 <FLEXCOMM_GetInstance+0x62>
    1ef2:	f24f 105c 	movw	r0, #61788	; 0xf15c
    1ef6:	f2c0 0000 	movt	r0, #0
    1efa:	f24f 1273 	movw	r2, #61811	; 0xf173
    1efe:	f2c0 0200 	movt	r2, #0
    1f02:	f24f 1388 	movw	r3, #61832	; 0xf188
    1f06:	f2c0 0300 	movt	r3, #0
    1f0a:	215f      	movs	r1, #95	; 0x5f
    1f0c:	f009 fd56 	bl	b9bc <__assert_func>
    1f10:	9801      	ldr	r0, [sp, #4]
    1f12:	b004      	add	sp, #16
    1f14:	bd80      	pop	{r7, pc}

00001f16 <FLEXCOMM_Init>:
    1f16:	b580      	push	{r7, lr}
    1f18:	466f      	mov	r7, sp
    1f1a:	b084      	sub	sp, #16
    1f1c:	9103      	str	r1, [sp, #12]
    1f1e:	9002      	str	r0, [sp, #8]
    1f20:	f7ff ffc5 	bl	1eae <FLEXCOMM_GetInstance>
    1f24:	4601      	mov	r1, r0
    1f26:	9101      	str	r1, [sp, #4]
    1f28:	f24f 20d0 	movw	r0, #62160	; 0xf2d0
    1f2c:	f2c0 0000 	movt	r0, #0
    1f30:	f830 0011 	ldrh.w	r0, [r0, r1, lsl #1]
    1f34:	f000 f810 	bl	1f58 <CLOCK_EnableClock>
    1f38:	9901      	ldr	r1, [sp, #4]
    1f3a:	f24f 20e4 	movw	r0, #62180	; 0xf2e4
    1f3e:	f2c0 0000 	movt	r0, #0
    1f42:	f850 0021 	ldr.w	r0, [r0, r1, lsl #2]
    1f46:	f7ff fc82 	bl	184e <RESET_PeripheralReset>
    1f4a:	9802      	ldr	r0, [sp, #8]
    1f4c:	9903      	ldr	r1, [sp, #12]
    1f4e:	2200      	movs	r2, #0
    1f50:	f000 f80d 	bl	1f6e <FLEXCOMM_SetPeriph>
    1f54:	b004      	add	sp, #16
    1f56:	bd80      	pop	{r7, pc}

00001f58 <CLOCK_EnableClock>:
    1f58:	0a02      	lsrs	r2, r0, #8
    1f5a:	b2c1      	uxtb	r1, r0
    1f5c:	2001      	movs	r0, #1
    1f5e:	4088      	lsls	r0, r1
    1f60:	f240 2120 	movw	r1, #544	; 0x220
    1f64:	f2c4 0100 	movt	r1, #16384	; 0x4000
    1f68:	f841 0022 	str.w	r0, [r1, r2, lsl #2]
    1f6c:	4770      	bx	lr

00001f6e <FLEXCOMM_SetPeriph>:
    1f6e:	b580      	push	{r7, lr}
    1f70:	466f      	mov	r7, sp
    1f72:	b084      	sub	sp, #16
    1f74:	9201      	str	r2, [sp, #4]
    1f76:	9002      	str	r0, [sp, #8]
    1f78:	460a      	mov	r2, r1
    1f7a:	9203      	str	r2, [sp, #12]
    1f7c:	f000 fa3d 	bl	23fa <FLEXCOMM_PeripheralIsPresent>
    1f80:	b918      	cbnz	r0, 1f8a <FLEXCOMM_SetPeriph+0x1c>
    1f82:	e7ff      	b.n	1f84 <FLEXCOMM_SetPeriph+0x16>
    1f84:	2003      	movs	r0, #3
    1f86:	9000      	str	r0, [sp, #0]
    1f88:	e027      	b.n	1fda <FLEXCOMM_SetPeriph+0x6c>
    1f8a:	9802      	ldr	r0, [sp, #8]
    1f8c:	f8d0 0ff8 	ldr.w	r0, [r0, #4088]	; 0xff8
    1f90:	0700      	lsls	r0, r0, #28
    1f92:	2800      	cmp	r0, #0
    1f94:	d50d      	bpl.n	1fb2 <FLEXCOMM_SetPeriph+0x44>
    1f96:	e7ff      	b.n	1f98 <FLEXCOMM_SetPeriph+0x2a>
    1f98:	9903      	ldr	r1, [sp, #12]
    1f9a:	9802      	ldr	r0, [sp, #8]
    1f9c:	f8d0 0ff8 	ldr.w	r0, [r0, #4088]	; 0xff8
    1fa0:	f000 0007 	and.w	r0, r0, #7
    1fa4:	b2c9      	uxtb	r1, r1
    1fa6:	4288      	cmp	r0, r1
    1fa8:	d003      	beq.n	1fb2 <FLEXCOMM_SetPeriph+0x44>
    1faa:	e7ff      	b.n	1fac <FLEXCOMM_SetPeriph+0x3e>
    1fac:	2001      	movs	r0, #1
    1fae:	9000      	str	r0, [sp, #0]
    1fb0:	e013      	b.n	1fda <FLEXCOMM_SetPeriph+0x6c>
    1fb2:	9801      	ldr	r0, [sp, #4]
    1fb4:	b140      	cbz	r0, 1fc8 <FLEXCOMM_SetPeriph+0x5a>
    1fb6:	e7ff      	b.n	1fb8 <FLEXCOMM_SetPeriph+0x4a>
    1fb8:	9902      	ldr	r1, [sp, #8]
    1fba:	9803      	ldr	r0, [sp, #12]
    1fbc:	f040 0008 	orr.w	r0, r0, #8
    1fc0:	b2c0      	uxtb	r0, r0
    1fc2:	f8c1 0ff8 	str.w	r0, [r1, #4088]	; 0xff8
    1fc6:	e005      	b.n	1fd4 <FLEXCOMM_SetPeriph+0x66>
    1fc8:	9902      	ldr	r1, [sp, #8]
    1fca:	9803      	ldr	r0, [sp, #12]
    1fcc:	b2c0      	uxtb	r0, r0
    1fce:	f8c1 0ff8 	str.w	r0, [r1, #4088]	; 0xff8
    1fd2:	e7ff      	b.n	1fd4 <FLEXCOMM_SetPeriph+0x66>
    1fd4:	2000      	movs	r0, #0
    1fd6:	9000      	str	r0, [sp, #0]
    1fd8:	e7ff      	b.n	1fda <FLEXCOMM_SetPeriph+0x6c>
    1fda:	9800      	ldr	r0, [sp, #0]
    1fdc:	b004      	add	sp, #16
    1fde:	bd80      	pop	{r7, pc}

00001fe0 <FLEXCOMM0_DriverIRQHandler>:
    1fe0:	b580      	push	{r7, lr}
    1fe2:	466f      	mov	r7, sp
    1fe4:	b082      	sub	sp, #8
    1fe6:	f246 0000 	movw	r0, #24576	; 0x6000
    1fea:	f2c4 0008 	movt	r0, #16392	; 0x4008
    1fee:	f7ff ff5e 	bl	1eae <FLEXCOMM_GetInstance>
    1ff2:	4601      	mov	r1, r0
    1ff4:	4608      	mov	r0, r1
    1ff6:	9001      	str	r0, [sp, #4]
    1ff8:	f640 10dc 	movw	r0, #2524	; 0x9dc
    1ffc:	f2c2 0000 	movt	r0, #8192	; 0x2000
    2000:	f850 0021 	ldr.w	r0, [r0, r1, lsl #2]
    2004:	b108      	cbz	r0, 200a <FLEXCOMM0_DriverIRQHandler+0x2a>
    2006:	e7ff      	b.n	2008 <FLEXCOMM0_DriverIRQHandler+0x28>
    2008:	e00e      	b.n	2028 <FLEXCOMM0_DriverIRQHandler+0x48>
    200a:	f24f 105c 	movw	r0, #61788	; 0xf15c
    200e:	f2c0 0000 	movt	r0, #0
    2012:	f24f 12b5 	movw	r2, #61877	; 0xf1b5
    2016:	f2c0 0200 	movt	r2, #0
    201a:	f24f 13d0 	movw	r3, #61904	; 0xf1d0
    201e:	f2c0 0300 	movt	r3, #0
    2022:	21ac      	movs	r1, #172	; 0xac
    2024:	f009 fcca 	bl	b9bc <__assert_func>
    2028:	9b01      	ldr	r3, [sp, #4]
    202a:	f640 10dc 	movw	r0, #2524	; 0x9dc
    202e:	f2c2 0000 	movt	r0, #8192	; 0x2000
    2032:	f850 2023 	ldr.w	r2, [r0, r3, lsl #2]
    2036:	f24f 1038 	movw	r0, #61752	; 0xf138
    203a:	f2c0 0000 	movt	r0, #0
    203e:	f850 0023 	ldr.w	r0, [r0, r3, lsl #2]
    2042:	f640 2100 	movw	r1, #2560	; 0xa00
    2046:	f2c2 0100 	movt	r1, #8192	; 0x2000
    204a:	f851 1023 	ldr.w	r1, [r1, r3, lsl #2]
    204e:	4790      	blx	r2
    2050:	b002      	add	sp, #8
    2052:	bd80      	pop	{r7, pc}

00002054 <FLEXCOMM1_DriverIRQHandler>:
    2054:	b580      	push	{r7, lr}
    2056:	466f      	mov	r7, sp
    2058:	b082      	sub	sp, #8
    205a:	f247 0000 	movw	r0, #28672	; 0x7000
    205e:	f2c4 0008 	movt	r0, #16392	; 0x4008
    2062:	f7ff ff24 	bl	1eae <FLEXCOMM_GetInstance>
    2066:	4601      	mov	r1, r0
    2068:	4608      	mov	r0, r1
    206a:	9001      	str	r0, [sp, #4]
    206c:	f640 10dc 	movw	r0, #2524	; 0x9dc
    2070:	f2c2 0000 	movt	r0, #8192	; 0x2000
    2074:	f850 0021 	ldr.w	r0, [r0, r1, lsl #2]
    2078:	b108      	cbz	r0, 207e <FLEXCOMM1_DriverIRQHandler+0x2a>
    207a:	e7ff      	b.n	207c <FLEXCOMM1_DriverIRQHandler+0x28>
    207c:	e00e      	b.n	209c <FLEXCOMM1_DriverIRQHandler+0x48>
    207e:	f24f 105c 	movw	r0, #61788	; 0xf15c
    2082:	f2c0 0000 	movt	r0, #0
    2086:	f24f 12f7 	movw	r2, #61943	; 0xf1f7
    208a:	f2c0 0200 	movt	r2, #0
    208e:	f24f 13d0 	movw	r3, #61904	; 0xf1d0
    2092:	f2c0 0300 	movt	r3, #0
    2096:	21ba      	movs	r1, #186	; 0xba
    2098:	f009 fc90 	bl	b9bc <__assert_func>
    209c:	9b01      	ldr	r3, [sp, #4]
    209e:	f640 10dc 	movw	r0, #2524	; 0x9dc
    20a2:	f2c2 0000 	movt	r0, #8192	; 0x2000
    20a6:	f850 2023 	ldr.w	r2, [r0, r3, lsl #2]
    20aa:	f24f 1038 	movw	r0, #61752	; 0xf138
    20ae:	f2c0 0000 	movt	r0, #0
    20b2:	f850 0023 	ldr.w	r0, [r0, r3, lsl #2]
    20b6:	f640 2100 	movw	r1, #2560	; 0xa00
    20ba:	f2c2 0100 	movt	r1, #8192	; 0x2000
    20be:	f851 1023 	ldr.w	r1, [r1, r3, lsl #2]
    20c2:	4790      	blx	r2
    20c4:	b002      	add	sp, #8
    20c6:	bd80      	pop	{r7, pc}

000020c8 <FLEXCOMM2_DriverIRQHandler>:
    20c8:	b580      	push	{r7, lr}
    20ca:	466f      	mov	r7, sp
    20cc:	b082      	sub	sp, #8
    20ce:	f248 0000 	movw	r0, #32768	; 0x8000
    20d2:	f2c4 0008 	movt	r0, #16392	; 0x4008
    20d6:	f7ff feea 	bl	1eae <FLEXCOMM_GetInstance>
    20da:	4601      	mov	r1, r0
    20dc:	4608      	mov	r0, r1
    20de:	9001      	str	r0, [sp, #4]
    20e0:	f640 10dc 	movw	r0, #2524	; 0x9dc
    20e4:	f2c2 0000 	movt	r0, #8192	; 0x2000
    20e8:	f850 0021 	ldr.w	r0, [r0, r1, lsl #2]
    20ec:	b108      	cbz	r0, 20f2 <FLEXCOMM2_DriverIRQHandler+0x2a>
    20ee:	e7ff      	b.n	20f0 <FLEXCOMM2_DriverIRQHandler+0x28>
    20f0:	e00e      	b.n	2110 <FLEXCOMM2_DriverIRQHandler+0x48>
    20f2:	f24f 105c 	movw	r0, #61788	; 0xf15c
    20f6:	f2c0 0000 	movt	r0, #0
    20fa:	f24f 2212 	movw	r2, #61970	; 0xf212
    20fe:	f2c0 0200 	movt	r2, #0
    2102:	f24f 13d0 	movw	r3, #61904	; 0xf1d0
    2106:	f2c0 0300 	movt	r3, #0
    210a:	21c8      	movs	r1, #200	; 0xc8
    210c:	f009 fc56 	bl	b9bc <__assert_func>
    2110:	9b01      	ldr	r3, [sp, #4]
    2112:	f640 10dc 	movw	r0, #2524	; 0x9dc
    2116:	f2c2 0000 	movt	r0, #8192	; 0x2000
    211a:	f850 2023 	ldr.w	r2, [r0, r3, lsl #2]
    211e:	f24f 1038 	movw	r0, #61752	; 0xf138
    2122:	f2c0 0000 	movt	r0, #0
    2126:	f850 0023 	ldr.w	r0, [r0, r3, lsl #2]
    212a:	f640 2100 	movw	r1, #2560	; 0xa00
    212e:	f2c2 0100 	movt	r1, #8192	; 0x2000
    2132:	f851 1023 	ldr.w	r1, [r1, r3, lsl #2]
    2136:	4790      	blx	r2
    2138:	b002      	add	sp, #8
    213a:	bd80      	pop	{r7, pc}

0000213c <FLEXCOMM3_DriverIRQHandler>:
    213c:	b580      	push	{r7, lr}
    213e:	466f      	mov	r7, sp
    2140:	b082      	sub	sp, #8
    2142:	f249 0000 	movw	r0, #36864	; 0x9000
    2146:	f2c4 0008 	movt	r0, #16392	; 0x4008
    214a:	f7ff feb0 	bl	1eae <FLEXCOMM_GetInstance>
    214e:	4601      	mov	r1, r0
    2150:	4608      	mov	r0, r1
    2152:	9001      	str	r0, [sp, #4]
    2154:	f640 10dc 	movw	r0, #2524	; 0x9dc
    2158:	f2c2 0000 	movt	r0, #8192	; 0x2000
    215c:	f850 0021 	ldr.w	r0, [r0, r1, lsl #2]
    2160:	b108      	cbz	r0, 2166 <FLEXCOMM3_DriverIRQHandler+0x2a>
    2162:	e7ff      	b.n	2164 <FLEXCOMM3_DriverIRQHandler+0x28>
    2164:	e00e      	b.n	2184 <FLEXCOMM3_DriverIRQHandler+0x48>
    2166:	f24f 105c 	movw	r0, #61788	; 0xf15c
    216a:	f2c0 0000 	movt	r0, #0
    216e:	f24f 222d 	movw	r2, #61997	; 0xf22d
    2172:	f2c0 0200 	movt	r2, #0
    2176:	f24f 13d0 	movw	r3, #61904	; 0xf1d0
    217a:	f2c0 0300 	movt	r3, #0
    217e:	21d6      	movs	r1, #214	; 0xd6
    2180:	f009 fc1c 	bl	b9bc <__assert_func>
    2184:	9b01      	ldr	r3, [sp, #4]
    2186:	f640 10dc 	movw	r0, #2524	; 0x9dc
    218a:	f2c2 0000 	movt	r0, #8192	; 0x2000
    218e:	f850 2023 	ldr.w	r2, [r0, r3, lsl #2]
    2192:	f24f 1038 	movw	r0, #61752	; 0xf138
    2196:	f2c0 0000 	movt	r0, #0
    219a:	f850 0023 	ldr.w	r0, [r0, r3, lsl #2]
    219e:	f640 2100 	movw	r1, #2560	; 0xa00
    21a2:	f2c2 0100 	movt	r1, #8192	; 0x2000
    21a6:	f851 1023 	ldr.w	r1, [r1, r3, lsl #2]
    21aa:	4790      	blx	r2
    21ac:	b002      	add	sp, #8
    21ae:	bd80      	pop	{r7, pc}

000021b0 <FLEXCOMM4_DriverIRQHandler>:
    21b0:	b580      	push	{r7, lr}
    21b2:	466f      	mov	r7, sp
    21b4:	b082      	sub	sp, #8
    21b6:	f24a 0000 	movw	r0, #40960	; 0xa000
    21ba:	f2c4 0008 	movt	r0, #16392	; 0x4008
    21be:	f7ff fe76 	bl	1eae <FLEXCOMM_GetInstance>
    21c2:	4601      	mov	r1, r0
    21c4:	4608      	mov	r0, r1
    21c6:	9001      	str	r0, [sp, #4]
    21c8:	f640 10dc 	movw	r0, #2524	; 0x9dc
    21cc:	f2c2 0000 	movt	r0, #8192	; 0x2000
    21d0:	f850 0021 	ldr.w	r0, [r0, r1, lsl #2]
    21d4:	b108      	cbz	r0, 21da <FLEXCOMM4_DriverIRQHandler+0x2a>
    21d6:	e7ff      	b.n	21d8 <FLEXCOMM4_DriverIRQHandler+0x28>
    21d8:	e00e      	b.n	21f8 <FLEXCOMM4_DriverIRQHandler+0x48>
    21da:	f24f 105c 	movw	r0, #61788	; 0xf15c
    21de:	f2c0 0000 	movt	r0, #0
    21e2:	f24f 2248 	movw	r2, #62024	; 0xf248
    21e6:	f2c0 0200 	movt	r2, #0
    21ea:	f24f 13d0 	movw	r3, #61904	; 0xf1d0
    21ee:	f2c0 0300 	movt	r3, #0
    21f2:	21e4      	movs	r1, #228	; 0xe4
    21f4:	f009 fbe2 	bl	b9bc <__assert_func>
    21f8:	9b01      	ldr	r3, [sp, #4]
    21fa:	f640 10dc 	movw	r0, #2524	; 0x9dc
    21fe:	f2c2 0000 	movt	r0, #8192	; 0x2000
    2202:	f850 2023 	ldr.w	r2, [r0, r3, lsl #2]
    2206:	f24f 1038 	movw	r0, #61752	; 0xf138
    220a:	f2c0 0000 	movt	r0, #0
    220e:	f850 0023 	ldr.w	r0, [r0, r3, lsl #2]
    2212:	f640 2100 	movw	r1, #2560	; 0xa00
    2216:	f2c2 0100 	movt	r1, #8192	; 0x2000
    221a:	f851 1023 	ldr.w	r1, [r1, r3, lsl #2]
    221e:	4790      	blx	r2
    2220:	b002      	add	sp, #8
    2222:	bd80      	pop	{r7, pc}

00002224 <FLEXCOMM5_DriverIRQHandler>:
    2224:	b580      	push	{r7, lr}
    2226:	466f      	mov	r7, sp
    2228:	b082      	sub	sp, #8
    222a:	f246 0000 	movw	r0, #24576	; 0x6000
    222e:	f2c4 0009 	movt	r0, #16393	; 0x4009
    2232:	f7ff fe3c 	bl	1eae <FLEXCOMM_GetInstance>
    2236:	4601      	mov	r1, r0
    2238:	4608      	mov	r0, r1
    223a:	9001      	str	r0, [sp, #4]
    223c:	f640 10dc 	movw	r0, #2524	; 0x9dc
    2240:	f2c2 0000 	movt	r0, #8192	; 0x2000
    2244:	f850 0021 	ldr.w	r0, [r0, r1, lsl #2]
    2248:	b108      	cbz	r0, 224e <FLEXCOMM5_DriverIRQHandler+0x2a>
    224a:	e7ff      	b.n	224c <FLEXCOMM5_DriverIRQHandler+0x28>
    224c:	e00e      	b.n	226c <FLEXCOMM5_DriverIRQHandler+0x48>
    224e:	f24f 105c 	movw	r0, #61788	; 0xf15c
    2252:	f2c0 0000 	movt	r0, #0
    2256:	f24f 2263 	movw	r2, #62051	; 0xf263
    225a:	f2c0 0200 	movt	r2, #0
    225e:	f24f 13d0 	movw	r3, #61904	; 0xf1d0
    2262:	f2c0 0300 	movt	r3, #0
    2266:	21f3      	movs	r1, #243	; 0xf3
    2268:	f009 fba8 	bl	b9bc <__assert_func>
    226c:	9b01      	ldr	r3, [sp, #4]
    226e:	f640 10dc 	movw	r0, #2524	; 0x9dc
    2272:	f2c2 0000 	movt	r0, #8192	; 0x2000
    2276:	f850 2023 	ldr.w	r2, [r0, r3, lsl #2]
    227a:	f24f 1038 	movw	r0, #61752	; 0xf138
    227e:	f2c0 0000 	movt	r0, #0
    2282:	f850 0023 	ldr.w	r0, [r0, r3, lsl #2]
    2286:	f640 2100 	movw	r1, #2560	; 0xa00
    228a:	f2c2 0100 	movt	r1, #8192	; 0x2000
    228e:	f851 1023 	ldr.w	r1, [r1, r3, lsl #2]
    2292:	4790      	blx	r2
    2294:	b002      	add	sp, #8
    2296:	bd80      	pop	{r7, pc}

00002298 <FLEXCOMM6_DriverIRQHandler>:
    2298:	b580      	push	{r7, lr}
    229a:	466f      	mov	r7, sp
    229c:	b082      	sub	sp, #8
    229e:	f247 0000 	movw	r0, #28672	; 0x7000
    22a2:	f2c4 0009 	movt	r0, #16393	; 0x4009
    22a6:	f7ff fe02 	bl	1eae <FLEXCOMM_GetInstance>
    22aa:	4601      	mov	r1, r0
    22ac:	4608      	mov	r0, r1
    22ae:	9001      	str	r0, [sp, #4]
    22b0:	f640 10dc 	movw	r0, #2524	; 0x9dc
    22b4:	f2c2 0000 	movt	r0, #8192	; 0x2000
    22b8:	f850 0021 	ldr.w	r0, [r0, r1, lsl #2]
    22bc:	b108      	cbz	r0, 22c2 <FLEXCOMM6_DriverIRQHandler+0x2a>
    22be:	e7ff      	b.n	22c0 <FLEXCOMM6_DriverIRQHandler+0x28>
    22c0:	e00f      	b.n	22e2 <FLEXCOMM6_DriverIRQHandler+0x4a>
    22c2:	f24f 105c 	movw	r0, #61788	; 0xf15c
    22c6:	f2c0 0000 	movt	r0, #0
    22ca:	f24f 227e 	movw	r2, #62078	; 0xf27e
    22ce:	f2c0 0200 	movt	r2, #0
    22d2:	f24f 13d0 	movw	r3, #61904	; 0xf1d0
    22d6:	f2c0 0300 	movt	r3, #0
    22da:	f240 1101 	movw	r1, #257	; 0x101
    22de:	f009 fb6d 	bl	b9bc <__assert_func>
    22e2:	9b01      	ldr	r3, [sp, #4]
    22e4:	f640 10dc 	movw	r0, #2524	; 0x9dc
    22e8:	f2c2 0000 	movt	r0, #8192	; 0x2000
    22ec:	f850 2023 	ldr.w	r2, [r0, r3, lsl #2]
    22f0:	f24f 1038 	movw	r0, #61752	; 0xf138
    22f4:	f2c0 0000 	movt	r0, #0
    22f8:	f850 0023 	ldr.w	r0, [r0, r3, lsl #2]
    22fc:	f640 2100 	movw	r1, #2560	; 0xa00
    2300:	f2c2 0100 	movt	r1, #8192	; 0x2000
    2304:	f851 1023 	ldr.w	r1, [r1, r3, lsl #2]
    2308:	4790      	blx	r2
    230a:	b002      	add	sp, #8
    230c:	bd80      	pop	{r7, pc}

0000230e <FLEXCOMM7_DriverIRQHandler>:
    230e:	b580      	push	{r7, lr}
    2310:	466f      	mov	r7, sp
    2312:	b082      	sub	sp, #8
    2314:	f248 0000 	movw	r0, #32768	; 0x8000
    2318:	f2c4 0009 	movt	r0, #16393	; 0x4009
    231c:	f7ff fdc7 	bl	1eae <FLEXCOMM_GetInstance>
    2320:	4601      	mov	r1, r0
    2322:	4608      	mov	r0, r1
    2324:	9001      	str	r0, [sp, #4]
    2326:	f640 10dc 	movw	r0, #2524	; 0x9dc
    232a:	f2c2 0000 	movt	r0, #8192	; 0x2000
    232e:	f850 0021 	ldr.w	r0, [r0, r1, lsl #2]
    2332:	b108      	cbz	r0, 2338 <FLEXCOMM7_DriverIRQHandler+0x2a>
    2334:	e7ff      	b.n	2336 <FLEXCOMM7_DriverIRQHandler+0x28>
    2336:	e00f      	b.n	2358 <FLEXCOMM7_DriverIRQHandler+0x4a>
    2338:	f24f 105c 	movw	r0, #61788	; 0xf15c
    233c:	f2c0 0000 	movt	r0, #0
    2340:	f24f 2299 	movw	r2, #62105	; 0xf299
    2344:	f2c0 0200 	movt	r2, #0
    2348:	f24f 13d0 	movw	r3, #61904	; 0xf1d0
    234c:	f2c0 0300 	movt	r3, #0
    2350:	f240 110f 	movw	r1, #271	; 0x10f
    2354:	f009 fb32 	bl	b9bc <__assert_func>
    2358:	9b01      	ldr	r3, [sp, #4]
    235a:	f640 10dc 	movw	r0, #2524	; 0x9dc
    235e:	f2c2 0000 	movt	r0, #8192	; 0x2000
    2362:	f850 2023 	ldr.w	r2, [r0, r3, lsl #2]
    2366:	f24f 1038 	movw	r0, #61752	; 0xf138
    236a:	f2c0 0000 	movt	r0, #0
    236e:	f850 0023 	ldr.w	r0, [r0, r3, lsl #2]
    2372:	f640 2100 	movw	r1, #2560	; 0xa00
    2376:	f2c2 0100 	movt	r1, #8192	; 0x2000
    237a:	f851 1023 	ldr.w	r1, [r1, r3, lsl #2]
    237e:	4790      	blx	r2
    2380:	b002      	add	sp, #8
    2382:	bd80      	pop	{r7, pc}

00002384 <FLEXCOMM8_DriverIRQHandler>:
    2384:	b580      	push	{r7, lr}
    2386:	466f      	mov	r7, sp
    2388:	b082      	sub	sp, #8
    238a:	f24f 0000 	movw	r0, #61440	; 0xf000
    238e:	f2c4 0009 	movt	r0, #16393	; 0x4009
    2392:	f7ff fd8c 	bl	1eae <FLEXCOMM_GetInstance>
    2396:	4601      	mov	r1, r0
    2398:	4608      	mov	r0, r1
    239a:	9001      	str	r0, [sp, #4]
    239c:	f640 10dc 	movw	r0, #2524	; 0x9dc
    23a0:	f2c2 0000 	movt	r0, #8192	; 0x2000
    23a4:	f850 0021 	ldr.w	r0, [r0, r1, lsl #2]
    23a8:	b108      	cbz	r0, 23ae <FLEXCOMM8_DriverIRQHandler+0x2a>
    23aa:	e7ff      	b.n	23ac <FLEXCOMM8_DriverIRQHandler+0x28>
    23ac:	e00f      	b.n	23ce <FLEXCOMM8_DriverIRQHandler+0x4a>
    23ae:	f24f 105c 	movw	r0, #61788	; 0xf15c
    23b2:	f2c0 0000 	movt	r0, #0
    23b6:	f24f 22b4 	movw	r2, #62132	; 0xf2b4
    23ba:	f2c0 0200 	movt	r2, #0
    23be:	f24f 13d0 	movw	r3, #61904	; 0xf1d0
    23c2:	f2c0 0300 	movt	r3, #0
    23c6:	f240 111d 	movw	r1, #285	; 0x11d
    23ca:	f009 faf7 	bl	b9bc <__assert_func>
    23ce:	9b01      	ldr	r3, [sp, #4]
    23d0:	f640 10dc 	movw	r0, #2524	; 0x9dc
    23d4:	f2c2 0000 	movt	r0, #8192	; 0x2000
    23d8:	f850 2023 	ldr.w	r2, [r0, r3, lsl #2]
    23dc:	f24f 1038 	movw	r0, #61752	; 0xf138
    23e0:	f2c0 0000 	movt	r0, #0
    23e4:	f850 0023 	ldr.w	r0, [r0, r3, lsl #2]
    23e8:	f640 2100 	movw	r1, #2560	; 0xa00
    23ec:	f2c2 0100 	movt	r1, #8192	; 0x2000
    23f0:	f851 1023 	ldr.w	r1, [r1, r3, lsl #2]
    23f4:	4790      	blx	r2
    23f6:	b002      	add	sp, #8
    23f8:	bd80      	pop	{r7, pc}

000023fa <FLEXCOMM_PeripheralIsPresent>:
    23fa:	b083      	sub	sp, #12
    23fc:	9001      	str	r0, [sp, #4]
    23fe:	4608      	mov	r0, r1
    2400:	9002      	str	r0, [sp, #8]
    2402:	b919      	cbnz	r1, 240c <FLEXCOMM_PeripheralIsPresent+0x12>
    2404:	e7ff      	b.n	2406 <FLEXCOMM_PeripheralIsPresent+0xc>
    2406:	2001      	movs	r0, #1
    2408:	9000      	str	r0, [sp, #0]
    240a:	e01f      	b.n	244c <FLEXCOMM_PeripheralIsPresent+0x52>
    240c:	9802      	ldr	r0, [sp, #8]
    240e:	b2c0      	uxtb	r0, r0
    2410:	2804      	cmp	r0, #4
    2412:	dc0c      	bgt.n	242e <FLEXCOMM_PeripheralIsPresent+0x34>
    2414:	e7ff      	b.n	2416 <FLEXCOMM_PeripheralIsPresent+0x1c>
    2416:	9a02      	ldr	r2, [sp, #8]
    2418:	9801      	ldr	r0, [sp, #4]
    241a:	f8d0 0ff8 	ldr.w	r0, [r0, #4088]	; 0xff8
    241e:	2103      	movs	r1, #3
    2420:	fa51 f182 	uxtab	r1, r1, r2
    2424:	40c8      	lsrs	r0, r1
    2426:	f000 0001 	and.w	r0, r0, #1
    242a:	9000      	str	r0, [sp, #0]
    242c:	e00e      	b.n	244c <FLEXCOMM_PeripheralIsPresent+0x52>
    242e:	9802      	ldr	r0, [sp, #8]
    2430:	b2c0      	uxtb	r0, r0
    2432:	2805      	cmp	r0, #5
    2434:	d107      	bne.n	2446 <FLEXCOMM_PeripheralIsPresent+0x4c>
    2436:	e7ff      	b.n	2438 <FLEXCOMM_PeripheralIsPresent+0x3e>
    2438:	9801      	ldr	r0, [sp, #4]
    243a:	f8d0 0ff8 	ldr.w	r0, [r0, #4088]	; 0xff8
    243e:	b2c0      	uxtb	r0, r0
    2440:	09c0      	lsrs	r0, r0, #7
    2442:	9000      	str	r0, [sp, #0]
    2444:	e002      	b.n	244c <FLEXCOMM_PeripheralIsPresent+0x52>
    2446:	2000      	movs	r0, #0
    2448:	9000      	str	r0, [sp, #0]
    244a:	e7ff      	b.n	244c <FLEXCOMM_PeripheralIsPresent+0x52>
    244c:	9800      	ldr	r0, [sp, #0]
    244e:	f000 0001 	and.w	r0, r0, #1
    2452:	b003      	add	sp, #12
    2454:	4770      	bx	lr

00002456 <SDIF_Reset>:
    2456:	b085      	sub	sp, #20
    2458:	9202      	str	r2, [sp, #8]
    245a:	9103      	str	r1, [sp, #12]
    245c:	4602      	mov	r2, r0
    245e:	9204      	str	r2, [sp, #16]
    2460:	6810      	ldr	r0, [r2, #0]
    2462:	4308      	orrs	r0, r1
    2464:	6010      	str	r0, [r2, #0]
    2466:	0748      	lsls	r0, r1, #29
    2468:	2800      	cmp	r0, #0
    246a:	d50a      	bpl.n	2482 <SDIF_Reset+0x2c>
    246c:	e7ff      	b.n	246e <SDIF_Reset+0x18>
    246e:	9904      	ldr	r1, [sp, #16]
    2470:	f8d1 0080 	ldr.w	r0, [r1, #128]	; 0x80
    2474:	f040 0001 	orr.w	r0, r0, #1
    2478:	f020 0080 	bic.w	r0, r0, #128	; 0x80
    247c:	f8c1 0080 	str.w	r0, [r1, #128]	; 0x80
    2480:	e7ff      	b.n	2482 <SDIF_Reset+0x2c>
    2482:	9802      	ldr	r0, [sp, #8]
    2484:	9001      	str	r0, [sp, #4]
    2486:	e7ff      	b.n	2488 <SDIF_Reset+0x32>
    2488:	9903      	ldr	r1, [sp, #12]
    248a:	9804      	ldr	r0, [sp, #16]
    248c:	9a01      	ldr	r2, [sp, #4]
    248e:	9200      	str	r2, [sp, #0]
    2490:	6800      	ldr	r0, [r0, #0]
    2492:	4208      	tst	r0, r1
    2494:	d008      	beq.n	24a8 <SDIF_Reset+0x52>
    2496:	e7ff      	b.n	2498 <SDIF_Reset+0x42>
    2498:	9800      	ldr	r0, [sp, #0]
    249a:	b908      	cbnz	r0, 24a0 <SDIF_Reset+0x4a>
    249c:	e7ff      	b.n	249e <SDIF_Reset+0x48>
    249e:	e003      	b.n	24a8 <SDIF_Reset+0x52>
    24a0:	9800      	ldr	r0, [sp, #0]
    24a2:	3801      	subs	r0, #1
    24a4:	9001      	str	r0, [sp, #4]
    24a6:	e7ef      	b.n	2488 <SDIF_Reset+0x32>
    24a8:	9800      	ldr	r0, [sp, #0]
    24aa:	2800      	cmp	r0, #0
    24ac:	bf18      	it	ne
    24ae:	2001      	movne	r0, #1
    24b0:	b005      	add	sp, #20
    24b2:	4770      	bx	lr

000024b4 <SDIF_SendCommand>:
    24b4:	b580      	push	{r7, lr}
    24b6:	466f      	mov	r7, sp
    24b8:	b084      	sub	sp, #16
    24ba:	9201      	str	r2, [sp, #4]
    24bc:	9102      	str	r1, [sp, #8]
    24be:	9003      	str	r0, [sp, #12]
    24c0:	b109      	cbz	r1, 24c6 <SDIF_SendCommand+0x12>
    24c2:	e7ff      	b.n	24c4 <SDIF_SendCommand+0x10>
    24c4:	e00f      	b.n	24e6 <SDIF_SendCommand+0x32>
    24c6:	f24f 3008 	movw	r0, #62216	; 0xf308
    24ca:	f2c0 0000 	movt	r0, #0
    24ce:	f24f 3270 	movw	r2, #62320	; 0xf370
    24d2:	f2c0 0200 	movt	r2, #0
    24d6:	f24f 3381 	movw	r3, #62337	; 0xf381
    24da:	f2c0 0300 	movt	r3, #0
    24de:	f44f 7143 	mov.w	r1, #780	; 0x30c
    24e2:	f009 fa6b 	bl	b9bc <__assert_func>
    24e6:	9b01      	ldr	r3, [sp, #4]
    24e8:	9803      	ldr	r0, [sp, #12]
    24ea:	f8dd c008 	ldr.w	ip, [sp, #8]
    24ee:	f8dc 1000 	ldr.w	r1, [ip]
    24f2:	f8dc 2004 	ldr.w	r2, [ip, #4]
    24f6:	f8dc c020 	ldr.w	ip, [ip, #32]
    24fa:	ea4f 1c9c 	mov.w	ip, ip, lsr #6
    24fe:	f36c 119f 	bfi	r1, ip, #6, #26
    2502:	f000 f802 	bl	250a <SDIF_SetCommandRegister>
    2506:	b004      	add	sp, #16
    2508:	bd80      	pop	{r7, pc}

0000250a <SDIF_SetCommandRegister>:
    250a:	b086      	sub	sp, #24
    250c:	9302      	str	r3, [sp, #8]
    250e:	9103      	str	r1, [sp, #12]
    2510:	4601      	mov	r1, r0
    2512:	9803      	ldr	r0, [sp, #12]
    2514:	9104      	str	r1, [sp, #16]
    2516:	628a      	str	r2, [r1, #40]	; 0x28
    2518:	f040 4000 	orr.w	r0, r0, #2147483648	; 0x80000000
    251c:	62c8      	str	r0, [r1, #44]	; 0x2c
    251e:	9305      	str	r3, [sp, #20]
    2520:	e7ff      	b.n	2522 <SDIF_SetCommandRegister+0x18>
    2522:	9804      	ldr	r0, [sp, #16]
    2524:	9905      	ldr	r1, [sp, #20]
    2526:	9101      	str	r1, [sp, #4]
    2528:	6ac0      	ldr	r0, [r0, #44]	; 0x2c
    252a:	0fc0      	lsrs	r0, r0, #31
    252c:	b178      	cbz	r0, 254e <SDIF_SetCommandRegister+0x44>
    252e:	e7ff      	b.n	2530 <SDIF_SetCommandRegister+0x26>
    2530:	9802      	ldr	r0, [sp, #8]
    2532:	b908      	cbnz	r0, 2538 <SDIF_SetCommandRegister+0x2e>
    2534:	e7ff      	b.n	2536 <SDIF_SetCommandRegister+0x2c>
    2536:	e00a      	b.n	254e <SDIF_SetCommandRegister+0x44>
    2538:	9801      	ldr	r0, [sp, #4]
    253a:	b920      	cbnz	r0, 2546 <SDIF_SetCommandRegister+0x3c>
    253c:	e7ff      	b.n	253e <SDIF_SetCommandRegister+0x34>
    253e:	f241 700e 	movw	r0, #5902	; 0x170e
    2542:	9000      	str	r0, [sp, #0]
    2544:	e006      	b.n	2554 <SDIF_SetCommandRegister+0x4a>
    2546:	9801      	ldr	r0, [sp, #4]
    2548:	3801      	subs	r0, #1
    254a:	9005      	str	r0, [sp, #20]
    254c:	e7e9      	b.n	2522 <SDIF_SetCommandRegister+0x18>
    254e:	2000      	movs	r0, #0
    2550:	9000      	str	r0, [sp, #0]
    2552:	e7ff      	b.n	2554 <SDIF_SetCommandRegister+0x4a>
    2554:	9800      	ldr	r0, [sp, #0]
    2556:	b006      	add	sp, #24
    2558:	4770      	bx	lr

0000255a <SDIF_SendCardActive>:
    255a:	b580      	push	{r7, lr}
    255c:	466f      	mov	r7, sp
    255e:	b088      	sub	sp, #32
    2560:	9105      	str	r1, [sp, #20]
    2562:	9006      	str	r0, [sp, #24]
    2564:	6801      	ldr	r1, [r0, #0]
    2566:	2000      	movs	r0, #0
    2568:	06c9      	lsls	r1, r1, #27
    256a:	2900      	cmp	r1, #0
    256c:	9007      	str	r0, [sp, #28]
    256e:	d508      	bpl.n	2582 <SDIF_SendCardActive+0x28>
    2570:	e7ff      	b.n	2572 <SDIF_SendCardActive+0x18>
    2572:	9906      	ldr	r1, [sp, #24]
    2574:	6808      	ldr	r0, [r1, #0]
    2576:	f020 0010 	bic.w	r0, r0, #16
    257a:	6008      	str	r0, [r1, #0]
    257c:	2001      	movs	r0, #1
    257e:	9007      	str	r0, [sp, #28]
    2580:	e7ff      	b.n	2582 <SDIF_SendCardActive+0x28>
    2582:	9806      	ldr	r0, [sp, #24]
    2584:	9907      	ldr	r1, [sp, #28]
    2586:	9103      	str	r1, [sp, #12]
    2588:	2104      	movs	r1, #4
    258a:	9104      	str	r1, [sp, #16]
    258c:	f000 f835 	bl	25fa <SDIF_ClearInterruptStatus>
    2590:	9904      	ldr	r1, [sp, #16]
    2592:	9806      	ldr	r0, [sp, #24]
    2594:	f000 f837 	bl	2606 <SDIF_EnableInterrupt>
    2598:	9806      	ldr	r0, [sp, #24]
    259a:	9b05      	ldr	r3, [sp, #20]
    259c:	f44f 4100 	mov.w	r1, #32768	; 0x8000
    25a0:	2200      	movs	r2, #0
    25a2:	f7ff ffb2 	bl	250a <SDIF_SetCommandRegister>
    25a6:	b118      	cbz	r0, 25b0 <SDIF_SendCardActive+0x56>
    25a8:	e7ff      	b.n	25aa <SDIF_SendCardActive+0x50>
    25aa:	2000      	movs	r0, #0
    25ac:	9002      	str	r0, [sp, #8]
    25ae:	e01f      	b.n	25f0 <SDIF_SendCardActive+0x96>
    25b0:	e7ff      	b.n	25b2 <SDIF_SendCardActive+0x58>
    25b2:	9806      	ldr	r0, [sp, #24]
    25b4:	f000 f82d 	bl	2612 <SDIF_GetInterruptStatus>
    25b8:	f000 0004 	and.w	r0, r0, #4
    25bc:	2804      	cmp	r0, #4
    25be:	d001      	beq.n	25c4 <SDIF_SendCardActive+0x6a>
    25c0:	e7ff      	b.n	25c2 <SDIF_SendCardActive+0x68>
    25c2:	e7f6      	b.n	25b2 <SDIF_SendCardActive+0x58>
    25c4:	9806      	ldr	r0, [sp, #24]
    25c6:	2104      	movs	r1, #4
    25c8:	9101      	str	r1, [sp, #4]
    25ca:	f000 f816 	bl	25fa <SDIF_ClearInterruptStatus>
    25ce:	9806      	ldr	r0, [sp, #24]
    25d0:	9901      	ldr	r1, [sp, #4]
    25d2:	f000 f820 	bl	2616 <SDIF_DisableInterrupt>
    25d6:	9803      	ldr	r0, [sp, #12]
    25d8:	07c0      	lsls	r0, r0, #31
    25da:	b130      	cbz	r0, 25ea <SDIF_SendCardActive+0x90>
    25dc:	e7ff      	b.n	25de <SDIF_SendCardActive+0x84>
    25de:	9906      	ldr	r1, [sp, #24]
    25e0:	6808      	ldr	r0, [r1, #0]
    25e2:	f040 0010 	orr.w	r0, r0, #16
    25e6:	6008      	str	r0, [r1, #0]
    25e8:	e7ff      	b.n	25ea <SDIF_SendCardActive+0x90>
    25ea:	2001      	movs	r0, #1
    25ec:	9002      	str	r0, [sp, #8]
    25ee:	e7ff      	b.n	25f0 <SDIF_SendCardActive+0x96>
    25f0:	9802      	ldr	r0, [sp, #8]
    25f2:	f000 0001 	and.w	r0, r0, #1
    25f6:	b008      	add	sp, #32
    25f8:	bd80      	pop	{r7, pc}

000025fa <SDIF_ClearInterruptStatus>:
    25fa:	460a      	mov	r2, r1
    25fc:	4601      	mov	r1, r0
    25fe:	6c48      	ldr	r0, [r1, #68]	; 0x44
    2600:	4010      	ands	r0, r2
    2602:	6448      	str	r0, [r1, #68]	; 0x44
    2604:	4770      	bx	lr

00002606 <SDIF_EnableInterrupt>:
    2606:	460a      	mov	r2, r1
    2608:	4601      	mov	r1, r0
    260a:	6a48      	ldr	r0, [r1, #36]	; 0x24
    260c:	4310      	orrs	r0, r2
    260e:	6248      	str	r0, [r1, #36]	; 0x24
    2610:	4770      	bx	lr

00002612 <SDIF_GetInterruptStatus>:
    2612:	6c00      	ldr	r0, [r0, #64]	; 0x40
    2614:	4770      	bx	lr

00002616 <SDIF_DisableInterrupt>:
    2616:	460a      	mov	r2, r1
    2618:	4601      	mov	r1, r0
    261a:	6a48      	ldr	r0, [r1, #36]	; 0x24
    261c:	4390      	bics	r0, r2
    261e:	6248      	str	r0, [r1, #36]	; 0x24
    2620:	4770      	bx	lr

00002622 <SDIF_ConfigClockDelay>:
    2622:	b082      	sub	sp, #8
    2624:	f240 4160 	movw	r1, #1120	; 0x460
    2628:	f2c4 0100 	movt	r1, #16384	; 0x4000
    262c:	680a      	ldr	r2, [r1, #0]
    262e:	6809      	ldr	r1, [r1, #0]
    2630:	f64f 72ff 	movw	r2, #65535	; 0xffff
    2634:	f2c6 0260 	movt	r2, #24672	; 0x6060
    2638:	4011      	ands	r1, r2
    263a:	9101      	str	r1, [sp, #4]
    263c:	f24f 0180 	movw	r1, #61568	; 0xf080
    2640:	f2c0 21fa 	movt	r1, #762	; 0x2fa
    2644:	4288      	cmp	r0, r1
    2646:	d307      	bcc.n	2658 <SDIF_ConfigClockDelay+0x36>
    2648:	e7ff      	b.n	264a <SDIF_ConfigClockDelay+0x28>
    264a:	9801      	ldr	r0, [sp, #4]
    264c:	2100      	movs	r1, #0
    264e:	f6c8 419f 	movt	r1, #35999	; 0x8c9f
    2652:	4308      	orrs	r0, r1
    2654:	9000      	str	r0, [sp, #0]
    2656:	e006      	b.n	2666 <SDIF_ConfigClockDelay+0x44>
    2658:	9801      	ldr	r0, [sp, #4]
    265a:	2100      	movs	r1, #0
    265c:	f6c8 419f 	movt	r1, #35999	; 0x8c9f
    2660:	4308      	orrs	r0, r1
    2662:	9000      	str	r0, [sp, #0]
    2664:	e7ff      	b.n	2666 <SDIF_ConfigClockDelay+0x44>
    2666:	9800      	ldr	r0, [sp, #0]
    2668:	f240 4160 	movw	r1, #1120	; 0x460
    266c:	f2c4 0100 	movt	r1, #16384	; 0x4000
    2670:	6008      	str	r0, [r1, #0]
    2672:	b002      	add	sp, #8
    2674:	4770      	bx	lr

00002676 <SDIF_SetCardClock>:
    2676:	b580      	push	{r7, lr}
    2678:	466f      	mov	r7, sp
    267a:	b08c      	sub	sp, #48	; 0x30
    267c:	9208      	str	r2, [sp, #32]
    267e:	9109      	str	r1, [sp, #36]	; 0x24
    2680:	900a      	str	r0, [sp, #40]	; 0x28
    2682:	4291      	cmp	r1, r2
    2684:	920b      	str	r2, [sp, #44]	; 0x2c
    2686:	d203      	bcs.n	2690 <SDIF_SetCardClock+0x1a>
    2688:	e7ff      	b.n	268a <SDIF_SetCardClock+0x14>
    268a:	9809      	ldr	r0, [sp, #36]	; 0x24
    268c:	900b      	str	r0, [sp, #44]	; 0x2c
    268e:	e7ff      	b.n	2690 <SDIF_SetCardClock+0x1a>
    2690:	980a      	ldr	r0, [sp, #40]	; 0x28
    2692:	990b      	ldr	r1, [sp, #44]	; 0x2c
    2694:	9107      	str	r1, [sp, #28]
    2696:	2100      	movs	r1, #0
    2698:	f000 f866 	bl	2768 <SDIF_EnableCardClock>
    269c:	980a      	ldr	r0, [sp, #40]	; 0x28
    269e:	f000 f875 	bl	278c <SDIF_SyncClockCommand>
    26a2:	b118      	cbz	r0, 26ac <SDIF_SetCardClock+0x36>
    26a4:	e7ff      	b.n	26a6 <SDIF_SetCardClock+0x30>
    26a6:	2000      	movs	r0, #0
    26a8:	9006      	str	r0, [sp, #24]
    26aa:	e05a      	b.n	2762 <SDIF_SetCardClock+0xec>
    26ac:	9907      	ldr	r1, [sp, #28]
    26ae:	9a09      	ldr	r2, [sp, #36]	; 0x24
    26b0:	2000      	movs	r0, #0
    26b2:	4291      	cmp	r1, r2
    26b4:	9005      	str	r0, [sp, #20]
    26b6:	d02d      	beq.n	2714 <SDIF_SetCardClock+0x9e>
    26b8:	e7ff      	b.n	26ba <SDIF_SetCardClock+0x44>
    26ba:	9809      	ldr	r0, [sp, #36]	; 0x24
    26bc:	9907      	ldr	r1, [sp, #28]
    26be:	fbb0 f0f1 	udiv	r0, r0, r1
    26c2:	9004      	str	r0, [sp, #16]
    26c4:	e7ff      	b.n	26c6 <SDIF_SetCardClock+0x50>
    26c6:	9907      	ldr	r1, [sp, #28]
    26c8:	9809      	ldr	r0, [sp, #36]	; 0x24
    26ca:	9a04      	ldr	r2, [sp, #16]
    26cc:	9203      	str	r2, [sp, #12]
    26ce:	fbb0 f0f2 	udiv	r0, r0, r2
    26d2:	4288      	cmp	r0, r1
    26d4:	d904      	bls.n	26e0 <SDIF_SetCardClock+0x6a>
    26d6:	e7ff      	b.n	26d8 <SDIF_SetCardClock+0x62>
    26d8:	9803      	ldr	r0, [sp, #12]
    26da:	3001      	adds	r0, #1
    26dc:	9004      	str	r0, [sp, #16]
    26de:	e7f2      	b.n	26c6 <SDIF_SetCardClock+0x50>
    26e0:	9803      	ldr	r0, [sp, #12]
    26e2:	f5b0 7fff 	cmp.w	r0, #510	; 0x1fe
    26e6:	d910      	bls.n	270a <SDIF_SetCardClock+0x94>
    26e8:	e7ff      	b.n	26ea <SDIF_SetCardClock+0x74>
    26ea:	f24f 3008 	movw	r0, #62216	; 0xf308
    26ee:	f2c0 0000 	movt	r0, #0
    26f2:	f24f 328d 	movw	r2, #62349	; 0xf38d
    26f6:	f2c0 0200 	movt	r2, #0
    26fa:	f64e 4309 	movw	r3, #60425	; 0xec09
    26fe:	f2c0 0300 	movt	r3, #0
    2702:	f44f 716b 	mov.w	r1, #940	; 0x3ac
    2706:	f009 f959 	bl	b9bc <__assert_func>
    270a:	9803      	ldr	r0, [sp, #12]
    270c:	3001      	adds	r0, #1
    270e:	0840      	lsrs	r0, r0, #1
    2710:	9005      	str	r0, [sp, #20]
    2712:	e7ff      	b.n	2714 <SDIF_SetCardClock+0x9e>
    2714:	980a      	ldr	r0, [sp, #40]	; 0x28
    2716:	9905      	ldr	r1, [sp, #20]
    2718:	9102      	str	r1, [sp, #8]
    271a:	b2c9      	uxtb	r1, r1
    271c:	6081      	str	r1, [r0, #8]
    271e:	f000 f835 	bl	278c <SDIF_SyncClockCommand>
    2722:	b118      	cbz	r0, 272c <SDIF_SetCardClock+0xb6>
    2724:	e7ff      	b.n	2726 <SDIF_SetCardClock+0xb0>
    2726:	2000      	movs	r0, #0
    2728:	9006      	str	r0, [sp, #24]
    272a:	e01a      	b.n	2762 <SDIF_SetCardClock+0xec>
    272c:	980a      	ldr	r0, [sp, #40]	; 0x28
    272e:	2101      	movs	r1, #1
    2730:	f000 f81a 	bl	2768 <SDIF_EnableCardClock>
    2734:	980a      	ldr	r0, [sp, #40]	; 0x28
    2736:	f000 f829 	bl	278c <SDIF_SyncClockCommand>
    273a:	9902      	ldr	r1, [sp, #8]
    273c:	9808      	ldr	r0, [sp, #32]
    273e:	f7ff ff70 	bl	2622 <SDIF_ConfigClockDelay>
    2742:	9802      	ldr	r0, [sp, #8]
    2744:	b138      	cbz	r0, 2756 <SDIF_SetCardClock+0xe0>
    2746:	e7ff      	b.n	2748 <SDIF_SetCardClock+0xd2>
    2748:	9809      	ldr	r0, [sp, #36]	; 0x24
    274a:	9902      	ldr	r1, [sp, #8]
    274c:	0049      	lsls	r1, r1, #1
    274e:	fbb0 f0f1 	udiv	r0, r0, r1
    2752:	9001      	str	r0, [sp, #4]
    2754:	e002      	b.n	275c <SDIF_SetCardClock+0xe6>
    2756:	9809      	ldr	r0, [sp, #36]	; 0x24
    2758:	9001      	str	r0, [sp, #4]
    275a:	e7ff      	b.n	275c <SDIF_SetCardClock+0xe6>
    275c:	9801      	ldr	r0, [sp, #4]
    275e:	9006      	str	r0, [sp, #24]
    2760:	e7ff      	b.n	2762 <SDIF_SetCardClock+0xec>
    2762:	9806      	ldr	r0, [sp, #24]
    2764:	b00c      	add	sp, #48	; 0x30
    2766:	bd80      	pop	{r7, pc}

00002768 <SDIF_EnableCardClock>:
    2768:	b081      	sub	sp, #4
    276a:	9000      	str	r0, [sp, #0]
    276c:	b131      	cbz	r1, 277c <SDIF_EnableCardClock+0x14>
    276e:	e7ff      	b.n	2770 <SDIF_EnableCardClock+0x8>
    2770:	9900      	ldr	r1, [sp, #0]
    2772:	6908      	ldr	r0, [r1, #16]
    2774:	f040 0001 	orr.w	r0, r0, #1
    2778:	6108      	str	r0, [r1, #16]
    277a:	e005      	b.n	2788 <SDIF_EnableCardClock+0x20>
    277c:	9900      	ldr	r1, [sp, #0]
    277e:	6908      	ldr	r0, [r1, #16]
    2780:	f000 0001 	and.w	r0, r0, #1
    2784:	6108      	str	r0, [r1, #16]
    2786:	e7ff      	b.n	2788 <SDIF_EnableCardClock+0x20>
    2788:	b001      	add	sp, #4
    278a:	4770      	bx	lr

0000278c <SDIF_SyncClockCommand>:
    278c:	b580      	push	{r7, lr}
    278e:	466f      	mov	r7, sp
    2790:	b086      	sub	sp, #24
    2792:	9004      	str	r0, [sp, #16]
    2794:	2003      	movs	r0, #3
    2796:	9005      	str	r0, [sp, #20]
    2798:	e7ff      	b.n	279a <SDIF_SyncClockCommand+0xe>
    279a:	9804      	ldr	r0, [sp, #16]
    279c:	9905      	ldr	r1, [sp, #20]
    279e:	9103      	str	r1, [sp, #12]
    27a0:	f242 0100 	movw	r1, #8192	; 0x2000
    27a4:	f2c0 0120 	movt	r1, #32
    27a8:	2200      	movs	r2, #0
    27aa:	f242 7310 	movw	r3, #10000	; 0x2710
    27ae:	f7ff feac 	bl	250a <SDIF_SetCommandRegister>
    27b2:	b918      	cbnz	r0, 27bc <SDIF_SyncClockCommand+0x30>
    27b4:	e7ff      	b.n	27b6 <SDIF_SyncClockCommand+0x2a>
    27b6:	9803      	ldr	r0, [sp, #12]
    27b8:	9002      	str	r0, [sp, #8]
    27ba:	e010      	b.n	27de <SDIF_SyncClockCommand+0x52>
    27bc:	9804      	ldr	r0, [sp, #16]
    27be:	2101      	movs	r1, #1
    27c0:	f242 7210 	movw	r2, #10000	; 0x2710
    27c4:	f7ff fe47 	bl	2456 <SDIF_Reset>
    27c8:	9803      	ldr	r0, [sp, #12]
    27ca:	3801      	subs	r0, #1
    27cc:	9001      	str	r0, [sp, #4]
    27ce:	e7ff      	b.n	27d0 <SDIF_SyncClockCommand+0x44>
    27d0:	9801      	ldr	r0, [sp, #4]
    27d2:	2800      	cmp	r0, #0
    27d4:	4601      	mov	r1, r0
    27d6:	9105      	str	r1, [sp, #20]
    27d8:	9002      	str	r0, [sp, #8]
    27da:	d1de      	bne.n	279a <SDIF_SyncClockCommand+0xe>
    27dc:	e7ff      	b.n	27de <SDIF_SyncClockCommand+0x52>
    27de:	9802      	ldr	r0, [sp, #8]
    27e0:	b918      	cbnz	r0, 27ea <SDIF_SyncClockCommand+0x5e>
    27e2:	e7ff      	b.n	27e4 <SDIF_SyncClockCommand+0x58>
    27e4:	2001      	movs	r0, #1
    27e6:	9000      	str	r0, [sp, #0]
    27e8:	e002      	b.n	27f0 <SDIF_SyncClockCommand+0x64>
    27ea:	2000      	movs	r0, #0
    27ec:	9000      	str	r0, [sp, #0]
    27ee:	e7ff      	b.n	27f0 <SDIF_SyncClockCommand+0x64>
    27f0:	9800      	ldr	r0, [sp, #0]
    27f2:	b006      	add	sp, #24
    27f4:	bd80      	pop	{r7, pc}

000027f6 <SDIF_InternalDMAConfig>:
    27f6:	b5b0      	push	{r4, r5, r7, lr}
    27f8:	af02      	add	r7, sp, #8
    27fa:	b0b2      	sub	sp, #200	; 0xc8
    27fc:	932e      	str	r3, [sp, #184]	; 0xb8
    27fe:	922f      	str	r2, [sp, #188]	; 0xbc
    2800:	9130      	str	r1, [sp, #192]	; 0xc0
    2802:	9031      	str	r0, [sp, #196]	; 0xc4
    2804:	b109      	cbz	r1, 280a <SDIF_InternalDMAConfig+0x14>
    2806:	e7ff      	b.n	2808 <SDIF_InternalDMAConfig+0x12>
    2808:	e00f      	b.n	282a <SDIF_InternalDMAConfig+0x34>
    280a:	f24f 3008 	movw	r0, #62216	; 0xf308
    280e:	f2c0 0000 	movt	r0, #0
    2812:	f24f 329f 	movw	r2, #62367	; 0xf39f
    2816:	f2c0 0200 	movt	r2, #0
    281a:	f64e 635f 	movw	r3, #61023	; 0xee5f
    281e:	f2c0 0300 	movt	r3, #0
    2822:	f44f 717a 	mov.w	r1, #1000	; 0x3e8
    2826:	f009 f8c9 	bl	b9bc <__assert_func>
    282a:	982f      	ldr	r0, [sp, #188]	; 0xbc
    282c:	b108      	cbz	r0, 2832 <SDIF_InternalDMAConfig+0x3c>
    282e:	e7ff      	b.n	2830 <SDIF_InternalDMAConfig+0x3a>
    2830:	e00f      	b.n	2852 <SDIF_InternalDMAConfig+0x5c>
    2832:	f24f 3008 	movw	r0, #62216	; 0xf308
    2836:	f2c0 0000 	movt	r0, #0
    283a:	f24f 329f 	movw	r2, #62367	; 0xf39f
    283e:	f2c0 0200 	movt	r2, #0
    2842:	f24f 33b6 	movw	r3, #62390	; 0xf3b6
    2846:	f2c0 0300 	movt	r3, #0
    284a:	f240 31e9 	movw	r1, #1001	; 0x3e9
    284e:	f009 f8b5 	bl	b9bc <__assert_func>
    2852:	982f      	ldr	r0, [sp, #188]	; 0xbc
    2854:	9930      	ldr	r1, [sp, #192]	; 0xc0
    2856:	684a      	ldr	r2, [r1, #4]
    2858:	922c      	str	r2, [sp, #176]	; 0xb0
    285a:	7849      	ldrb	r1, [r1, #1]
    285c:	0309      	lsls	r1, r1, #12
    285e:	912d      	str	r1, [sp, #180]	; 0xb4
    2860:	0780      	lsls	r0, r0, #30
    2862:	b920      	cbnz	r0, 286e <SDIF_InternalDMAConfig+0x78>
    2864:	e7ff      	b.n	2866 <SDIF_InternalDMAConfig+0x70>
    2866:	982c      	ldr	r0, [sp, #176]	; 0xb0
    2868:	0780      	lsls	r0, r0, #30
    286a:	b120      	cbz	r0, 2876 <SDIF_InternalDMAConfig+0x80>
    286c:	e7ff      	b.n	286e <SDIF_InternalDMAConfig+0x78>
    286e:	f241 7014 	movw	r0, #5908	; 0x1714
    2872:	902b      	str	r0, [sp, #172]	; 0xac
    2874:	e16a      	b.n	2b4c <SDIF_InternalDMAConfig+0x356>
    2876:	982e      	ldr	r0, [sp, #184]	; 0xb8
    2878:	0781      	lsls	r1, r0, #30
    287a:	902a      	str	r0, [sp, #168]	; 0xa8
    287c:	b131      	cbz	r1, 288c <SDIF_InternalDMAConfig+0x96>
    287e:	e7ff      	b.n	2880 <SDIF_InternalDMAConfig+0x8a>
    2880:	982e      	ldr	r0, [sp, #184]	; 0xb8
    2882:	f020 0003 	bic.w	r0, r0, #3
    2886:	3004      	adds	r0, #4
    2888:	902a      	str	r0, [sp, #168]	; 0xa8
    288a:	e7ff      	b.n	288c <SDIF_InternalDMAConfig+0x96>
    288c:	9830      	ldr	r0, [sp, #192]	; 0xc0
    288e:	992a      	ldr	r1, [sp, #168]	; 0xa8
    2890:	9129      	str	r1, [sp, #164]	; 0xa4
    2892:	7800      	ldrb	r0, [r0, #0]
    2894:	07c0      	lsls	r0, r0, #31
    2896:	b140      	cbz	r0, 28aa <SDIF_InternalDMAConfig+0xb4>
    2898:	e7ff      	b.n	289a <SDIF_InternalDMAConfig+0xa4>
    289a:	9931      	ldr	r1, [sp, #196]	; 0xc4
    289c:	f8d1 0080 	ldr.w	r0, [r1, #128]	; 0x80
    28a0:	f040 0002 	orr.w	r0, r0, #2
    28a4:	f8c1 0080 	str.w	r0, [r1, #128]	; 0x80
    28a8:	e7ff      	b.n	28aa <SDIF_InternalDMAConfig+0xb4>
    28aa:	9829      	ldr	r0, [sp, #164]	; 0xa4
    28ac:	992d      	ldr	r1, [sp, #180]	; 0xb4
    28ae:	4288      	cmp	r0, r1
    28b0:	d90c      	bls.n	28cc <SDIF_InternalDMAConfig+0xd6>
    28b2:	e7ff      	b.n	28b4 <SDIF_InternalDMAConfig+0xbe>
    28b4:	992d      	ldr	r1, [sp, #180]	; 0xb4
    28b6:	9a29      	ldr	r2, [sp, #164]	; 0xa4
    28b8:	fbb2 f0f1 	udiv	r0, r2, r1
    28bc:	fb00 2211 	mls	r2, r0, r1, r2
    28c0:	1c41      	adds	r1, r0, #1
    28c2:	2a00      	cmp	r2, #0
    28c4:	bf18      	it	ne
    28c6:	4608      	movne	r0, r1
    28c8:	9028      	str	r0, [sp, #160]	; 0xa0
    28ca:	e002      	b.n	28d2 <SDIF_InternalDMAConfig+0xdc>
    28cc:	2001      	movs	r0, #1
    28ce:	9028      	str	r0, [sp, #160]	; 0xa0
    28d0:	e7ff      	b.n	28d2 <SDIF_InternalDMAConfig+0xdc>
    28d2:	9830      	ldr	r0, [sp, #192]	; 0xc0
    28d4:	9a28      	ldr	r2, [sp, #160]	; 0xa0
    28d6:	9227      	str	r2, [sp, #156]	; 0x9c
    28d8:	6881      	ldr	r1, [r0, #8]
    28da:	7880      	ldrb	r0, [r0, #2]
    28dc:	eb00 1002 	add.w	r0, r0, r2, lsl #4
    28e0:	ebb0 0f81 	cmp.w	r0, r1, lsl #2
    28e4:	d904      	bls.n	28f0 <SDIF_InternalDMAConfig+0xfa>
    28e6:	e7ff      	b.n	28e8 <SDIF_InternalDMAConfig+0xf2>
    28e8:	f241 700c 	movw	r0, #5900	; 0x170c
    28ec:	902b      	str	r0, [sp, #172]	; 0xac
    28ee:	e12d      	b.n	2b4c <SDIF_InternalDMAConfig+0x356>
    28f0:	9830      	ldr	r0, [sp, #192]	; 0xc0
    28f2:	7840      	ldrb	r0, [r0, #1]
    28f4:	2802      	cmp	r0, #2
    28f6:	f040 80a5 	bne.w	2a44 <SDIF_InternalDMAConfig+0x24e>
    28fa:	e7ff      	b.n	28fc <SDIF_InternalDMAConfig+0x106>
    28fc:	992f      	ldr	r1, [sp, #188]	; 0xbc
    28fe:	9a2c      	ldr	r2, [sp, #176]	; 0xb0
    2900:	9b29      	ldr	r3, [sp, #164]	; 0xa4
    2902:	f8dd c0c4 	ldr.w	ip, [sp, #196]	; 0xc4
    2906:	9830      	ldr	r0, [sp, #192]	; 0xc0
    2908:	7880      	ldrb	r0, [r0, #2]
    290a:	f000 0e1f 	and.w	lr, r0, #31
    290e:	f8dc 0080 	ldr.w	r0, [ip, #128]	; 0x80
    2912:	ea40 008e 	orr.w	r0, r0, lr, lsl #2
    2916:	f8cc 0080 	str.w	r0, [ip, #128]	; 0x80
    291a:	f04f 0c00 	mov.w	ip, #0
    291e:	4660      	mov	r0, ip
    2920:	f8cd c088 	str.w	ip, [sp, #136]	; 0x88
    2924:	9323      	str	r3, [sp, #140]	; 0x8c
    2926:	9224      	str	r2, [sp, #144]	; 0x90
    2928:	9125      	str	r1, [sp, #148]	; 0x94
    292a:	9026      	str	r0, [sp, #152]	; 0x98
    292c:	e7ff      	b.n	292e <SDIF_InternalDMAConfig+0x138>
    292e:	9927      	ldr	r1, [sp, #156]	; 0x9c
    2930:	9822      	ldr	r0, [sp, #136]	; 0x88
    2932:	9a23      	ldr	r2, [sp, #140]	; 0x8c
    2934:	9b24      	ldr	r3, [sp, #144]	; 0x90
    2936:	f8dd c094 	ldr.w	ip, [sp, #148]	; 0x94
    293a:	f8dd e098 	ldr.w	lr, [sp, #152]	; 0x98
    293e:	f8cd e074 	str.w	lr, [sp, #116]	; 0x74
    2942:	f8cd c078 	str.w	ip, [sp, #120]	; 0x78
    2946:	931f      	str	r3, [sp, #124]	; 0x7c
    2948:	9220      	str	r2, [sp, #128]	; 0x80
    294a:	9021      	str	r0, [sp, #132]	; 0x84
    294c:	4288      	cmp	r0, r1
    294e:	d26f      	bcs.n	2a30 <SDIF_InternalDMAConfig+0x23a>
    2950:	e7ff      	b.n	2952 <SDIF_InternalDMAConfig+0x15c>
    2952:	9820      	ldr	r0, [sp, #128]	; 0x80
    2954:	f5b0 5f80 	cmp.w	r0, #4096	; 0x1000
    2958:	d919      	bls.n	298e <SDIF_InternalDMAConfig+0x198>
    295a:	e7ff      	b.n	295c <SDIF_InternalDMAConfig+0x166>
    295c:	9820      	ldr	r0, [sp, #128]	; 0x80
    295e:	f5a0 5080 	sub.w	r0, r0, #4096	; 0x1000
    2962:	4601      	mov	r1, r0
    2964:	911c      	str	r1, [sp, #112]	; 0x70
    2966:	f5b0 5f80 	cmp.w	r0, #4096	; 0x1000
    296a:	d904      	bls.n	2976 <SDIF_InternalDMAConfig+0x180>
    296c:	e7ff      	b.n	296e <SDIF_InternalDMAConfig+0x178>
    296e:	f44f 5080 	mov.w	r0, #4096	; 0x1000
    2972:	901b      	str	r0, [sp, #108]	; 0x6c
    2974:	e002      	b.n	297c <SDIF_InternalDMAConfig+0x186>
    2976:	981c      	ldr	r0, [sp, #112]	; 0x70
    2978:	901b      	str	r0, [sp, #108]	; 0x6c
    297a:	e7ff      	b.n	297c <SDIF_InternalDMAConfig+0x186>
    297c:	981c      	ldr	r0, [sp, #112]	; 0x70
    297e:	9a1b      	ldr	r2, [sp, #108]	; 0x6c
    2980:	1a80      	subs	r0, r0, r2
    2982:	f44f 5180 	mov.w	r1, #4096	; 0x1000
    2986:	9218      	str	r2, [sp, #96]	; 0x60
    2988:	9119      	str	r1, [sp, #100]	; 0x64
    298a:	901a      	str	r0, [sp, #104]	; 0x68
    298c:	e006      	b.n	299c <SDIF_InternalDMAConfig+0x1a6>
    298e:	9820      	ldr	r0, [sp, #128]	; 0x80
    2990:	2100      	movs	r1, #0
    2992:	9118      	str	r1, [sp, #96]	; 0x60
    2994:	4601      	mov	r1, r0
    2996:	9119      	str	r1, [sp, #100]	; 0x64
    2998:	901a      	str	r0, [sp, #104]	; 0x68
    299a:	e7ff      	b.n	299c <SDIF_InternalDMAConfig+0x1a6>
    299c:	9821      	ldr	r0, [sp, #132]	; 0x84
    299e:	991f      	ldr	r1, [sp, #124]	; 0x7c
    29a0:	9a18      	ldr	r2, [sp, #96]	; 0x60
    29a2:	9b19      	ldr	r3, [sp, #100]	; 0x64
    29a4:	f8dd c068 	ldr.w	ip, [sp, #104]	; 0x68
    29a8:	f8cd c050 	str.w	ip, [sp, #80]	; 0x50
    29ac:	9315      	str	r3, [sp, #84]	; 0x54
    29ae:	9216      	str	r2, [sp, #88]	; 0x58
    29b0:	9117      	str	r1, [sp, #92]	; 0x5c
    29b2:	b930      	cbnz	r0, 29c2 <SDIF_InternalDMAConfig+0x1cc>
    29b4:	e7ff      	b.n	29b6 <SDIF_InternalDMAConfig+0x1c0>
    29b6:	9917      	ldr	r1, [sp, #92]	; 0x5c
    29b8:	200a      	movs	r0, #10
    29ba:	f2c8 0000 	movt	r0, #32768	; 0x8000
    29be:	6008      	str	r0, [r1, #0]
    29c0:	e005      	b.n	29ce <SDIF_InternalDMAConfig+0x1d8>
    29c2:	9917      	ldr	r1, [sp, #92]	; 0x5c
    29c4:	2002      	movs	r0, #2
    29c6:	f2c8 0000 	movt	r0, #32768	; 0x8000
    29ca:	6008      	str	r0, [r1, #0]
    29cc:	e7ff      	b.n	29ce <SDIF_InternalDMAConfig+0x1d8>
    29ce:	981f      	ldr	r0, [sp, #124]	; 0x7c
    29d0:	9930      	ldr	r1, [sp, #192]	; 0xc0
    29d2:	9a1e      	ldr	r2, [sp, #120]	; 0x78
    29d4:	9b15      	ldr	r3, [sp, #84]	; 0x54
    29d6:	f8dd c058 	ldr.w	ip, [sp, #88]	; 0x58
    29da:	9c17      	ldr	r4, [sp, #92]	; 0x5c
    29dc:	469e      	mov	lr, r3
    29de:	f36f 3e5f 	bfc	lr, #13, #19
    29e2:	4665      	mov	r5, ip
    29e4:	f36f 355f 	bfc	r5, #13, #19
    29e8:	ea4e 3e45 	orr.w	lr, lr, r5, lsl #13
    29ec:	f8c4 e004 	str.w	lr, [r4, #4]
    29f0:	60a2      	str	r2, [r4, #8]
    29f2:	f023 0e03 	bic.w	lr, r3, #3
    29f6:	4496      	add	lr, r2
    29f8:	f8c4 e00c 	str.w	lr, [r4, #12]
    29fc:	4463      	add	r3, ip
    29fe:	f023 0303 	bic.w	r3, r3, #3
    2a02:	441a      	add	r2, r3
    2a04:	9212      	str	r2, [sp, #72]	; 0x48
    2a06:	7889      	ldrb	r1, [r1, #2]
    2a08:	eb00 0081 	add.w	r0, r0, r1, lsl #2
    2a0c:	3010      	adds	r0, #16
    2a0e:	9013      	str	r0, [sp, #76]	; 0x4c
    2a10:	e7ff      	b.n	2a12 <SDIF_InternalDMAConfig+0x21c>
    2a12:	9817      	ldr	r0, [sp, #92]	; 0x5c
    2a14:	9912      	ldr	r1, [sp, #72]	; 0x48
    2a16:	9a13      	ldr	r2, [sp, #76]	; 0x4c
    2a18:	9b14      	ldr	r3, [sp, #80]	; 0x50
    2a1a:	f8dd c084 	ldr.w	ip, [sp, #132]	; 0x84
    2a1e:	f10c 0c01 	add.w	ip, ip, #1
    2a22:	f8cd c088 	str.w	ip, [sp, #136]	; 0x88
    2a26:	9323      	str	r3, [sp, #140]	; 0x8c
    2a28:	9224      	str	r2, [sp, #144]	; 0x90
    2a2a:	9125      	str	r1, [sp, #148]	; 0x94
    2a2c:	9026      	str	r0, [sp, #152]	; 0x98
    2a2e:	e77e      	b.n	292e <SDIF_InternalDMAConfig+0x138>
    2a30:	991d      	ldr	r1, [sp, #116]	; 0x74
    2a32:	6808      	ldr	r0, [r1, #0]
    2a34:	f020 0002 	bic.w	r0, r0, #2
    2a38:	6008      	str	r0, [r1, #0]
    2a3a:	6808      	ldr	r0, [r1, #0]
    2a3c:	f040 0024 	orr.w	r0, r0, #36	; 0x24
    2a40:	6008      	str	r0, [r1, #0]
    2a42:	e071      	b.n	2b28 <SDIF_InternalDMAConfig+0x332>
    2a44:	992f      	ldr	r1, [sp, #188]	; 0xbc
    2a46:	9a2c      	ldr	r2, [sp, #176]	; 0xb0
    2a48:	9b29      	ldr	r3, [sp, #164]	; 0xa4
    2a4a:	f04f 0c00 	mov.w	ip, #0
    2a4e:	4660      	mov	r0, ip
    2a50:	f8cd c034 	str.w	ip, [sp, #52]	; 0x34
    2a54:	930e      	str	r3, [sp, #56]	; 0x38
    2a56:	920f      	str	r2, [sp, #60]	; 0x3c
    2a58:	9110      	str	r1, [sp, #64]	; 0x40
    2a5a:	9011      	str	r0, [sp, #68]	; 0x44
    2a5c:	e7ff      	b.n	2a5e <SDIF_InternalDMAConfig+0x268>
    2a5e:	9927      	ldr	r1, [sp, #156]	; 0x9c
    2a60:	980d      	ldr	r0, [sp, #52]	; 0x34
    2a62:	9a0e      	ldr	r2, [sp, #56]	; 0x38
    2a64:	9b0f      	ldr	r3, [sp, #60]	; 0x3c
    2a66:	f8dd c040 	ldr.w	ip, [sp, #64]	; 0x40
    2a6a:	f8dd e044 	ldr.w	lr, [sp, #68]	; 0x44
    2a6e:	f8cd e020 	str.w	lr, [sp, #32]
    2a72:	f8cd c024 	str.w	ip, [sp, #36]	; 0x24
    2a76:	930a      	str	r3, [sp, #40]	; 0x28
    2a78:	920b      	str	r2, [sp, #44]	; 0x2c
    2a7a:	900c      	str	r0, [sp, #48]	; 0x30
    2a7c:	4288      	cmp	r0, r1
    2a7e:	d249      	bcs.n	2b14 <SDIF_InternalDMAConfig+0x31e>
    2a80:	e7ff      	b.n	2a82 <SDIF_InternalDMAConfig+0x28c>
    2a82:	980b      	ldr	r0, [sp, #44]	; 0x2c
    2a84:	f5b0 5f80 	cmp.w	r0, #4096	; 0x1000
    2a88:	d908      	bls.n	2a9c <SDIF_InternalDMAConfig+0x2a6>
    2a8a:	e7ff      	b.n	2a8c <SDIF_InternalDMAConfig+0x296>
    2a8c:	980b      	ldr	r0, [sp, #44]	; 0x2c
    2a8e:	f5a0 5080 	sub.w	r0, r0, #4096	; 0x1000
    2a92:	f44f 5180 	mov.w	r1, #4096	; 0x1000
    2a96:	9106      	str	r1, [sp, #24]
    2a98:	9007      	str	r0, [sp, #28]
    2a9a:	e004      	b.n	2aa6 <SDIF_InternalDMAConfig+0x2b0>
    2a9c:	980b      	ldr	r0, [sp, #44]	; 0x2c
    2a9e:	4601      	mov	r1, r0
    2aa0:	9106      	str	r1, [sp, #24]
    2aa2:	9007      	str	r0, [sp, #28]
    2aa4:	e7ff      	b.n	2aa6 <SDIF_InternalDMAConfig+0x2b0>
    2aa6:	980c      	ldr	r0, [sp, #48]	; 0x30
    2aa8:	990a      	ldr	r1, [sp, #40]	; 0x28
    2aaa:	9a06      	ldr	r2, [sp, #24]
    2aac:	9b07      	ldr	r3, [sp, #28]
    2aae:	9303      	str	r3, [sp, #12]
    2ab0:	9204      	str	r2, [sp, #16]
    2ab2:	9105      	str	r1, [sp, #20]
    2ab4:	b930      	cbnz	r0, 2ac4 <SDIF_InternalDMAConfig+0x2ce>
    2ab6:	e7ff      	b.n	2ab8 <SDIF_InternalDMAConfig+0x2c2>
    2ab8:	9905      	ldr	r1, [sp, #20]
    2aba:	201a      	movs	r0, #26
    2abc:	f2c8 0000 	movt	r0, #32768	; 0x8000
    2ac0:	6008      	str	r0, [r1, #0]
    2ac2:	e005      	b.n	2ad0 <SDIF_InternalDMAConfig+0x2da>
    2ac4:	9905      	ldr	r1, [sp, #20]
    2ac6:	2012      	movs	r0, #18
    2ac8:	f2c8 0000 	movt	r0, #32768	; 0x8000
    2acc:	6008      	str	r0, [r1, #0]
    2ace:	e7ff      	b.n	2ad0 <SDIF_InternalDMAConfig+0x2da>
    2ad0:	9905      	ldr	r1, [sp, #20]
    2ad2:	980a      	ldr	r0, [sp, #40]	; 0x28
    2ad4:	9a09      	ldr	r2, [sp, #36]	; 0x24
    2ad6:	9b04      	ldr	r3, [sp, #16]
    2ad8:	469c      	mov	ip, r3
    2ada:	f36f 3c5f 	bfc	ip, #13, #19
    2ade:	f8c1 c004 	str.w	ip, [r1, #4]
    2ae2:	608a      	str	r2, [r1, #8]
    2ae4:	f023 0303 	bic.w	r3, r3, #3
    2ae8:	441a      	add	r2, r3
    2aea:	9201      	str	r2, [sp, #4]
    2aec:	3010      	adds	r0, #16
    2aee:	4602      	mov	r2, r0
    2af0:	9202      	str	r2, [sp, #8]
    2af2:	60c8      	str	r0, [r1, #12]
    2af4:	e7ff      	b.n	2af6 <SDIF_InternalDMAConfig+0x300>
    2af6:	9805      	ldr	r0, [sp, #20]
    2af8:	9901      	ldr	r1, [sp, #4]
    2afa:	9a02      	ldr	r2, [sp, #8]
    2afc:	9b03      	ldr	r3, [sp, #12]
    2afe:	f8dd c030 	ldr.w	ip, [sp, #48]	; 0x30
    2b02:	f10c 0c01 	add.w	ip, ip, #1
    2b06:	f8cd c034 	str.w	ip, [sp, #52]	; 0x34
    2b0a:	930e      	str	r3, [sp, #56]	; 0x38
    2b0c:	920f      	str	r2, [sp, #60]	; 0x3c
    2b0e:	9110      	str	r1, [sp, #64]	; 0x40
    2b10:	9011      	str	r0, [sp, #68]	; 0x44
    2b12:	e7a4      	b.n	2a5e <SDIF_InternalDMAConfig+0x268>
    2b14:	9908      	ldr	r1, [sp, #32]
    2b16:	6808      	ldr	r0, [r1, #0]
    2b18:	f020 0002 	bic.w	r0, r0, #2
    2b1c:	6008      	str	r0, [r1, #0]
    2b1e:	6808      	ldr	r0, [r1, #0]
    2b20:	f040 0004 	orr.w	r0, r0, #4
    2b24:	6008      	str	r0, [r1, #0]
    2b26:	e7ff      	b.n	2b28 <SDIF_InternalDMAConfig+0x332>
    2b28:	9931      	ldr	r1, [sp, #196]	; 0xc4
    2b2a:	9830      	ldr	r0, [sp, #192]	; 0xc0
    2b2c:	680a      	ldr	r2, [r1, #0]
    2b2e:	f042 7200 	orr.w	r2, r2, #33554432	; 0x2000000
    2b32:	600a      	str	r2, [r1, #0]
    2b34:	f8d1 2080 	ldr.w	r2, [r1, #128]	; 0x80
    2b38:	f042 0280 	orr.w	r2, r2, #128	; 0x80
    2b3c:	f8c1 2080 	str.w	r2, [r1, #128]	; 0x80
    2b40:	6840      	ldr	r0, [r0, #4]
    2b42:	f8c1 0088 	str.w	r0, [r1, #136]	; 0x88
    2b46:	2000      	movs	r0, #0
    2b48:	902b      	str	r0, [sp, #172]	; 0xac
    2b4a:	e7ff      	b.n	2b4c <SDIF_InternalDMAConfig+0x356>
    2b4c:	982b      	ldr	r0, [sp, #172]	; 0xac
    2b4e:	b032      	add	sp, #200	; 0xc8
    2b50:	bdb0      	pop	{r4, r5, r7, pc}

00002b52 <SDIF_SetCardBusWidth>:
    2b52:	b082      	sub	sp, #8
    2b54:	9000      	str	r0, [sp, #0]
    2b56:	4608      	mov	r0, r1
    2b58:	9001      	str	r0, [sp, #4]
    2b5a:	b931      	cbnz	r1, 2b6a <SDIF_SetCardBusWidth+0x18>
    2b5c:	e7ff      	b.n	2b5e <SDIF_SetCardBusWidth+0xc>
    2b5e:	9900      	ldr	r1, [sp, #0]
    2b60:	6988      	ldr	r0, [r1, #24]
    2b62:	f020 1001 	bic.w	r0, r0, #65537	; 0x10001
    2b66:	6188      	str	r0, [r1, #24]
    2b68:	e013      	b.n	2b92 <SDIF_SetCardBusWidth+0x40>
    2b6a:	9801      	ldr	r0, [sp, #4]
    2b6c:	b2c0      	uxtb	r0, r0
    2b6e:	2801      	cmp	r0, #1
    2b70:	d108      	bne.n	2b84 <SDIF_SetCardBusWidth+0x32>
    2b72:	e7ff      	b.n	2b74 <SDIF_SetCardBusWidth+0x22>
    2b74:	9900      	ldr	r1, [sp, #0]
    2b76:	6988      	ldr	r0, [r1, #24]
    2b78:	f040 0001 	orr.w	r0, r0, #1
    2b7c:	f420 3080 	bic.w	r0, r0, #65536	; 0x10000
    2b80:	6188      	str	r0, [r1, #24]
    2b82:	e005      	b.n	2b90 <SDIF_SetCardBusWidth+0x3e>
    2b84:	9900      	ldr	r1, [sp, #0]
    2b86:	6988      	ldr	r0, [r1, #24]
    2b88:	f440 3080 	orr.w	r0, r0, #65536	; 0x10000
    2b8c:	6188      	str	r0, [r1, #24]
    2b8e:	e7ff      	b.n	2b90 <SDIF_SetCardBusWidth+0x3e>
    2b90:	e7ff      	b.n	2b92 <SDIF_SetCardBusWidth+0x40>
    2b92:	b002      	add	sp, #8
    2b94:	4770      	bx	lr

00002b96 <SDIF_SetCard1BusWidth>:
    2b96:	b082      	sub	sp, #8
    2b98:	9000      	str	r0, [sp, #0]
    2b9a:	4608      	mov	r0, r1
    2b9c:	9001      	str	r0, [sp, #4]
    2b9e:	b931      	cbnz	r1, 2bae <SDIF_SetCard1BusWidth+0x18>
    2ba0:	e7ff      	b.n	2ba2 <SDIF_SetCard1BusWidth+0xc>
    2ba2:	9900      	ldr	r1, [sp, #0]
    2ba4:	6988      	ldr	r0, [r1, #24]
    2ba6:	f020 1002 	bic.w	r0, r0, #131074	; 0x20002
    2baa:	6188      	str	r0, [r1, #24]
    2bac:	e013      	b.n	2bd6 <SDIF_SetCard1BusWidth+0x40>
    2bae:	9801      	ldr	r0, [sp, #4]
    2bb0:	b2c0      	uxtb	r0, r0
    2bb2:	2801      	cmp	r0, #1
    2bb4:	d108      	bne.n	2bc8 <SDIF_SetCard1BusWidth+0x32>
    2bb6:	e7ff      	b.n	2bb8 <SDIF_SetCard1BusWidth+0x22>
    2bb8:	9900      	ldr	r1, [sp, #0]
    2bba:	6988      	ldr	r0, [r1, #24]
    2bbc:	f040 0002 	orr.w	r0, r0, #2
    2bc0:	f420 3000 	bic.w	r0, r0, #131072	; 0x20000
    2bc4:	6188      	str	r0, [r1, #24]
    2bc6:	e005      	b.n	2bd4 <SDIF_SetCard1BusWidth+0x3e>
    2bc8:	9900      	ldr	r1, [sp, #0]
    2bca:	6988      	ldr	r0, [r1, #24]
    2bcc:	f440 3000 	orr.w	r0, r0, #131072	; 0x20000
    2bd0:	6188      	str	r0, [r1, #24]
    2bd2:	e7ff      	b.n	2bd4 <SDIF_SetCard1BusWidth+0x3e>
    2bd4:	e7ff      	b.n	2bd6 <SDIF_SetCard1BusWidth+0x40>
    2bd6:	b002      	add	sp, #8
    2bd8:	4770      	bx	lr

00002bda <SDIF_Init>:
    2bda:	b580      	push	{r7, lr}
    2bdc:	466f      	mov	r7, sp
    2bde:	b084      	sub	sp, #16
    2be0:	9102      	str	r1, [sp, #8]
    2be2:	9003      	str	r0, [sp, #12]
    2be4:	b109      	cbz	r1, 2bea <SDIF_Init+0x10>
    2be6:	e7ff      	b.n	2be8 <SDIF_Init+0xe>
    2be8:	e00f      	b.n	2c0a <SDIF_Init+0x30>
    2bea:	f24f 3008 	movw	r0, #62216	; 0xf308
    2bee:	f2c0 0000 	movt	r0, #0
    2bf2:	f24f 32c3 	movw	r2, #62403	; 0xf3c3
    2bf6:	f2c0 0200 	movt	r2, #0
    2bfa:	f64e 635f 	movw	r3, #61023	; 0xee5f
    2bfe:	f2c0 0300 	movt	r3, #0
    2c02:	f240 41c2 	movw	r1, #1218	; 0x4c2
    2c06:	f008 fed9 	bl	b9bc <__assert_func>
    2c0a:	f240 2003 	movw	r0, #515	; 0x203
    2c0e:	f000 f827 	bl	2c60 <CLOCK_EnableClock>
    2c12:	2003      	movs	r0, #3
    2c14:	f2c0 0002 	movt	r0, #2
    2c18:	f7fe fe19 	bl	184e <RESET_PeripheralReset>
    2c1c:	9902      	ldr	r1, [sp, #8]
    2c1e:	9803      	ldr	r0, [sp, #12]
    2c20:	6942      	ldr	r2, [r0, #20]
    2c22:	780a      	ldrb	r2, [r1, #0]
    2c24:	688b      	ldr	r3, [r1, #8]
    2c26:	ea42 2203 	orr.w	r2, r2, r3, lsl #8
    2c2a:	6142      	str	r2, [r0, #20]
    2c2c:	6849      	ldr	r1, [r1, #4]
    2c2e:	f021 417f 	bic.w	r1, r1, #4278190080	; 0xff000000
    2c32:	6641      	str	r1, [r0, #100]	; 0x64
    2c34:	2110      	movs	r1, #16
    2c36:	f2c1 010f 	movt	r1, #4111	; 0x100f
    2c3a:	64c1      	str	r1, [r0, #76]	; 0x4c
    2c3c:	f64f 71ff 	movw	r1, #65535	; 0xffff
    2c40:	f2c0 0101 	movt	r1, #1
    2c44:	9101      	str	r1, [sp, #4]
    2c46:	f7ff fce6 	bl	2616 <SDIF_DisableInterrupt>
    2c4a:	9901      	ldr	r1, [sp, #4]
    2c4c:	9803      	ldr	r0, [sp, #12]
    2c4e:	f7ff fcd4 	bl	25fa <SDIF_ClearInterruptStatus>
    2c52:	9803      	ldr	r0, [sp, #12]
    2c54:	f240 3137 	movw	r1, #823	; 0x337
    2c58:	f000 f80d 	bl	2c76 <SDIF_ClearInternalDMAStatus>
    2c5c:	b004      	add	sp, #16
    2c5e:	bd80      	pop	{r7, pc}

00002c60 <CLOCK_EnableClock>:
    2c60:	0a02      	lsrs	r2, r0, #8
    2c62:	b2c1      	uxtb	r1, r0
    2c64:	2001      	movs	r0, #1
    2c66:	4088      	lsls	r0, r1
    2c68:	f240 2120 	movw	r1, #544	; 0x220
    2c6c:	f2c4 0100 	movt	r1, #16384	; 0x4000
    2c70:	f841 0022 	str.w	r0, [r1, r2, lsl #2]
    2c74:	4770      	bx	lr

00002c76 <SDIF_ClearInternalDMAStatus>:
    2c76:	460a      	mov	r2, r1
    2c78:	4601      	mov	r1, r0
    2c7a:	f8d1 008c 	ldr.w	r0, [r1, #140]	; 0x8c
    2c7e:	4010      	ands	r0, r2
    2c80:	f8c1 008c 	str.w	r0, [r1, #140]	; 0x8c
    2c84:	4770      	bx	lr

00002c86 <SDIF_TransferBlocking>:
    2c86:	b580      	push	{r7, lr}
    2c88:	466f      	mov	r7, sp
    2c8a:	b08a      	sub	sp, #40	; 0x28
    2c8c:	9207      	str	r2, [sp, #28]
    2c8e:	9108      	str	r1, [sp, #32]
    2c90:	9009      	str	r0, [sp, #36]	; 0x24
    2c92:	b10a      	cbz	r2, 2c98 <SDIF_TransferBlocking+0x12>
    2c94:	e7ff      	b.n	2c96 <SDIF_TransferBlocking+0x10>
    2c96:	e00f      	b.n	2cb8 <SDIF_TransferBlocking+0x32>
    2c98:	f24f 3008 	movw	r0, #62216	; 0xf308
    2c9c:	f2c0 0000 	movt	r0, #0
    2ca0:	f24f 32cd 	movw	r2, #62413	; 0xf3cd
    2ca4:	f2c0 0200 	movt	r2, #0
    2ca8:	f24f 33e3 	movw	r3, #62435	; 0xf3e3
    2cac:	f2c0 0300 	movt	r3, #0
    2cb0:	f240 41ed 	movw	r1, #1261	; 0x4ed
    2cb4:	f008 fe82 	bl	b9bc <__assert_func>
    2cb8:	9807      	ldr	r0, [sp, #28]
    2cba:	6800      	ldr	r0, [r0, #0]
    2cbc:	9006      	str	r0, [sp, #24]
    2cbe:	b3a8      	cbz	r0, 2d2c <SDIF_TransferBlocking+0xa6>
    2cc0:	e7ff      	b.n	2cc2 <SDIF_TransferBlocking+0x3c>
    2cc2:	9808      	ldr	r0, [sp, #32]
    2cc4:	b390      	cbz	r0, 2d2c <SDIF_TransferBlocking+0xa6>
    2cc6:	e7ff      	b.n	2cc8 <SDIF_TransferBlocking+0x42>
    2cc8:	9806      	ldr	r0, [sp, #24]
    2cca:	68c0      	ldr	r0, [r0, #12]
    2ccc:	b120      	cbz	r0, 2cd8 <SDIF_TransferBlocking+0x52>
    2cce:	e7ff      	b.n	2cd0 <SDIF_TransferBlocking+0x4a>
    2cd0:	9806      	ldr	r0, [sp, #24]
    2cd2:	68c0      	ldr	r0, [r0, #12]
    2cd4:	9005      	str	r0, [sp, #20]
    2cd6:	e003      	b.n	2ce0 <SDIF_TransferBlocking+0x5a>
    2cd8:	9806      	ldr	r0, [sp, #24]
    2cda:	6900      	ldr	r0, [r0, #16]
    2cdc:	9005      	str	r0, [sp, #20]
    2cde:	e7ff      	b.n	2ce0 <SDIF_TransferBlocking+0x5a>
    2ce0:	9908      	ldr	r1, [sp, #32]
    2ce2:	9809      	ldr	r0, [sp, #36]	; 0x24
    2ce4:	f8dd c018 	ldr.w	ip, [sp, #24]
    2ce8:	9a05      	ldr	r2, [sp, #20]
    2cea:	f8dc 3004 	ldr.w	r3, [ip, #4]
    2cee:	f8dc c008 	ldr.w	ip, [ip, #8]
    2cf2:	fb03 f30c 	mul.w	r3, r3, ip
    2cf6:	f7ff fd7e 	bl	27f6 <SDIF_InternalDMAConfig>
    2cfa:	4601      	mov	r1, r0
    2cfc:	9104      	str	r1, [sp, #16]
    2cfe:	f241 710c 	movw	r1, #5900	; 0x170c
    2d02:	4288      	cmp	r0, r1
    2d04:	d104      	bne.n	2d10 <SDIF_TransferBlocking+0x8a>
    2d06:	e7ff      	b.n	2d08 <SDIF_TransferBlocking+0x82>
    2d08:	f241 700c 	movw	r0, #5900	; 0x170c
    2d0c:	9003      	str	r0, [sp, #12]
    2d0e:	e052      	b.n	2db6 <SDIF_TransferBlocking+0x130>
    2d10:	9904      	ldr	r1, [sp, #16]
    2d12:	2001      	movs	r0, #1
    2d14:	f241 7214 	movw	r2, #5908	; 0x1714
    2d18:	4291      	cmp	r1, r2
    2d1a:	9002      	str	r0, [sp, #8]
    2d1c:	d103      	bne.n	2d26 <SDIF_TransferBlocking+0xa0>
    2d1e:	e7ff      	b.n	2d20 <SDIF_TransferBlocking+0x9a>
    2d20:	2000      	movs	r0, #0
    2d22:	9002      	str	r0, [sp, #8]
    2d24:	e7ff      	b.n	2d26 <SDIF_TransferBlocking+0xa0>
    2d26:	9802      	ldr	r0, [sp, #8]
    2d28:	9001      	str	r0, [sp, #4]
    2d2a:	e002      	b.n	2d32 <SDIF_TransferBlocking+0xac>
    2d2c:	2000      	movs	r0, #0
    2d2e:	9001      	str	r0, [sp, #4]
    2d30:	e7ff      	b.n	2d32 <SDIF_TransferBlocking+0xac>
    2d32:	9801      	ldr	r0, [sp, #4]
    2d34:	9000      	str	r0, [sp, #0]
    2d36:	07c0      	lsls	r0, r0, #31
    2d38:	b928      	cbnz	r0, 2d46 <SDIF_TransferBlocking+0xc0>
    2d3a:	e7ff      	b.n	2d3c <SDIF_TransferBlocking+0xb6>
    2d3c:	9809      	ldr	r0, [sp, #36]	; 0x24
    2d3e:	2100      	movs	r1, #0
    2d40:	f000 f83c 	bl	2dbc <SDIF_EnableInternalDMA>
    2d44:	e7ff      	b.n	2d46 <SDIF_TransferBlocking+0xc0>
    2d46:	9907      	ldr	r1, [sp, #28]
    2d48:	9809      	ldr	r0, [sp, #36]	; 0x24
    2d4a:	9a00      	ldr	r2, [sp, #0]
    2d4c:	f002 0201 	and.w	r2, r2, #1
    2d50:	f000 f852 	bl	2df8 <SDIF_TransferConfig>
    2d54:	b120      	cbz	r0, 2d60 <SDIF_TransferBlocking+0xda>
    2d56:	e7ff      	b.n	2d58 <SDIF_TransferBlocking+0xd2>
    2d58:	f241 700d 	movw	r0, #5901	; 0x170d
    2d5c:	9003      	str	r0, [sp, #12]
    2d5e:	e02a      	b.n	2db6 <SDIF_TransferBlocking+0x130>
    2d60:	9809      	ldr	r0, [sp, #36]	; 0x24
    2d62:	9907      	ldr	r1, [sp, #28]
    2d64:	6849      	ldr	r1, [r1, #4]
    2d66:	2200      	movs	r2, #0
    2d68:	f7ff fba4 	bl	24b4 <SDIF_SendCommand>
    2d6c:	b120      	cbz	r0, 2d78 <SDIF_TransferBlocking+0xf2>
    2d6e:	e7ff      	b.n	2d70 <SDIF_TransferBlocking+0xea>
    2d70:	f241 700f 	movw	r0, #5903	; 0x170f
    2d74:	9003      	str	r0, [sp, #12]
    2d76:	e01e      	b.n	2db6 <SDIF_TransferBlocking+0x130>
    2d78:	9809      	ldr	r0, [sp, #36]	; 0x24
    2d7a:	9907      	ldr	r1, [sp, #28]
    2d7c:	6849      	ldr	r1, [r1, #4]
    2d7e:	f000 f910 	bl	2fa2 <SDIF_WaitCommandDone>
    2d82:	b120      	cbz	r0, 2d8e <SDIF_TransferBlocking+0x108>
    2d84:	e7ff      	b.n	2d86 <SDIF_TransferBlocking+0x100>
    2d86:	f241 700f 	movw	r0, #5903	; 0x170f
    2d8a:	9003      	str	r0, [sp, #12]
    2d8c:	e013      	b.n	2db6 <SDIF_TransferBlocking+0x130>
    2d8e:	9806      	ldr	r0, [sp, #24]
    2d90:	b170      	cbz	r0, 2db0 <SDIF_TransferBlocking+0x12a>
    2d92:	e7ff      	b.n	2d94 <SDIF_TransferBlocking+0x10e>
    2d94:	9906      	ldr	r1, [sp, #24]
    2d96:	9809      	ldr	r0, [sp, #36]	; 0x24
    2d98:	9a00      	ldr	r2, [sp, #0]
    2d9a:	f002 0201 	and.w	r2, r2, #1
    2d9e:	f000 f92b 	bl	2ff8 <SDIF_TransferDataBlocking>
    2da2:	b120      	cbz	r0, 2dae <SDIF_TransferBlocking+0x128>
    2da4:	e7ff      	b.n	2da6 <SDIF_TransferBlocking+0x120>
    2da6:	f241 7012 	movw	r0, #5906	; 0x1712
    2daa:	9003      	str	r0, [sp, #12]
    2dac:	e003      	b.n	2db6 <SDIF_TransferBlocking+0x130>
    2dae:	e7ff      	b.n	2db0 <SDIF_TransferBlocking+0x12a>
    2db0:	2000      	movs	r0, #0
    2db2:	9003      	str	r0, [sp, #12]
    2db4:	e7ff      	b.n	2db6 <SDIF_TransferBlocking+0x130>
    2db6:	9803      	ldr	r0, [sp, #12]
    2db8:	b00a      	add	sp, #40	; 0x28
    2dba:	bd80      	pop	{r7, pc}

00002dbc <SDIF_EnableInternalDMA>:
    2dbc:	b081      	sub	sp, #4
    2dbe:	9000      	str	r0, [sp, #0]
    2dc0:	b161      	cbz	r1, 2ddc <SDIF_EnableInternalDMA+0x20>
    2dc2:	e7ff      	b.n	2dc4 <SDIF_EnableInternalDMA+0x8>
    2dc4:	9900      	ldr	r1, [sp, #0]
    2dc6:	6808      	ldr	r0, [r1, #0]
    2dc8:	f040 7000 	orr.w	r0, r0, #33554432	; 0x2000000
    2dcc:	6008      	str	r0, [r1, #0]
    2dce:	f8d1 0080 	ldr.w	r0, [r1, #128]	; 0x80
    2dd2:	f040 0080 	orr.w	r0, r0, #128	; 0x80
    2dd6:	f8c1 0080 	str.w	r0, [r1, #128]	; 0x80
    2dda:	e00b      	b.n	2df4 <SDIF_EnableInternalDMA+0x38>
    2ddc:	9900      	ldr	r1, [sp, #0]
    2dde:	6808      	ldr	r0, [r1, #0]
    2de0:	f020 7000 	bic.w	r0, r0, #33554432	; 0x2000000
    2de4:	6008      	str	r0, [r1, #0]
    2de6:	f8d1 0080 	ldr.w	r0, [r1, #128]	; 0x80
    2dea:	f020 0080 	bic.w	r0, r0, #128	; 0x80
    2dee:	f8c1 0080 	str.w	r0, [r1, #128]	; 0x80
    2df2:	e7ff      	b.n	2df4 <SDIF_EnableInternalDMA+0x38>
    2df4:	b001      	add	sp, #4
    2df6:	4770      	bx	lr

00002df8 <SDIF_TransferConfig>:
    2df8:	b580      	push	{r7, lr}
    2dfa:	466f      	mov	r7, sp
    2dfc:	b088      	sub	sp, #32
    2dfe:	9004      	str	r0, [sp, #16]
    2e00:	9205      	str	r2, [sp, #20]
    2e02:	6808      	ldr	r0, [r1, #0]
    2e04:	9006      	str	r0, [sp, #24]
    2e06:	6848      	ldr	r0, [r1, #4]
    2e08:	9007      	str	r0, [sp, #28]
    2e0a:	b148      	cbz	r0, 2e20 <SDIF_TransferConfig+0x28>
    2e0c:	e7ff      	b.n	2e0e <SDIF_TransferConfig+0x16>
    2e0e:	9806      	ldr	r0, [sp, #24]
    2e10:	b150      	cbz	r0, 2e28 <SDIF_TransferConfig+0x30>
    2e12:	e7ff      	b.n	2e14 <SDIF_TransferConfig+0x1c>
    2e14:	9806      	ldr	r0, [sp, #24]
    2e16:	6840      	ldr	r0, [r0, #4]
    2e18:	f5b0 3f80 	cmp.w	r0, #65536	; 0x10000
    2e1c:	d304      	bcc.n	2e28 <SDIF_TransferConfig+0x30>
    2e1e:	e7ff      	b.n	2e20 <SDIF_TransferConfig+0x28>
    2e20:	f241 700d 	movw	r0, #5901	; 0x170d
    2e24:	9003      	str	r0, [sp, #12]
    2e26:	e0b9      	b.n	2f9c <SDIF_TransferConfig+0x1a4>
    2e28:	9806      	ldr	r0, [sp, #24]
    2e2a:	2800      	cmp	r0, #0
    2e2c:	d04c      	beq.n	2ec8 <SDIF_TransferConfig+0xd0>
    2e2e:	e7ff      	b.n	2e30 <SDIF_TransferConfig+0x38>
    2e30:	9806      	ldr	r0, [sp, #24]
    2e32:	9a07      	ldr	r2, [sp, #28]
    2e34:	9b04      	ldr	r3, [sp, #16]
    2e36:	8881      	ldrh	r1, [r0, #4]
    2e38:	61d9      	str	r1, [r3, #28]
    2e3a:	6841      	ldr	r1, [r0, #4]
    2e3c:	f8d0 c008 	ldr.w	ip, [r0, #8]
    2e40:	fb01 f10c 	mul.w	r1, r1, ip
    2e44:	6219      	str	r1, [r3, #32]
    2e46:	6a11      	ldr	r1, [r2, #32]
    2e48:	f441 7100 	orr.w	r1, r1, #512	; 0x200
    2e4c:	6211      	str	r1, [r2, #32]
    2e4e:	6900      	ldr	r0, [r0, #16]
    2e50:	b130      	cbz	r0, 2e60 <SDIF_TransferConfig+0x68>
    2e52:	e7ff      	b.n	2e54 <SDIF_TransferConfig+0x5c>
    2e54:	9907      	ldr	r1, [sp, #28]
    2e56:	6a08      	ldr	r0, [r1, #32]
    2e58:	f440 6080 	orr.w	r0, r0, #1024	; 0x400
    2e5c:	6208      	str	r0, [r1, #32]
    2e5e:	e017      	b.n	2e90 <SDIF_TransferConfig+0x98>
    2e60:	9806      	ldr	r0, [sp, #24]
    2e62:	6840      	ldr	r0, [r0, #4]
    2e64:	f5b0 7f80 	cmp.w	r0, #256	; 0x100
    2e68:	d809      	bhi.n	2e7e <SDIF_TransferConfig+0x86>
    2e6a:	e7ff      	b.n	2e6c <SDIF_TransferConfig+0x74>
    2e6c:	9904      	ldr	r1, [sp, #16]
    2e6e:	9806      	ldr	r0, [sp, #24]
    2e70:	6842      	ldr	r2, [r0, #4]
    2e72:	2001      	movs	r0, #1
    2e74:	f362 4017 	bfi	r0, r2, #16, #8
    2e78:	f8c1 0100 	str.w	r0, [r1, #256]	; 0x100
    2e7c:	e007      	b.n	2e8e <SDIF_TransferConfig+0x96>
    2e7e:	9904      	ldr	r1, [sp, #16]
    2e80:	f8d1 0100 	ldr.w	r0, [r1, #256]	; 0x100
    2e84:	f020 0001 	bic.w	r0, r0, #1
    2e88:	f8c1 0100 	str.w	r0, [r1, #256]	; 0x100
    2e8c:	e7ff      	b.n	2e8e <SDIF_TransferConfig+0x96>
    2e8e:	e7ff      	b.n	2e90 <SDIF_TransferConfig+0x98>
    2e90:	9806      	ldr	r0, [sp, #24]
    2e92:	7800      	ldrb	r0, [r0, #0]
    2e94:	07c0      	lsls	r0, r0, #31
    2e96:	b130      	cbz	r0, 2ea6 <SDIF_TransferConfig+0xae>
    2e98:	e7ff      	b.n	2e9a <SDIF_TransferConfig+0xa2>
    2e9a:	9907      	ldr	r1, [sp, #28]
    2e9c:	6a08      	ldr	r0, [r1, #32]
    2e9e:	f440 6000 	orr.w	r0, r0, #2048	; 0x800
    2ea2:	6208      	str	r0, [r1, #32]
    2ea4:	e7ff      	b.n	2ea6 <SDIF_TransferConfig+0xae>
    2ea6:	9806      	ldr	r0, [sp, #24]
    2ea8:	7840      	ldrb	r0, [r0, #1]
    2eaa:	07c0      	lsls	r0, r0, #31
    2eac:	b158      	cbz	r0, 2ec6 <SDIF_TransferConfig+0xce>
    2eae:	e7ff      	b.n	2eb0 <SDIF_TransferConfig+0xb8>
    2eb0:	9806      	ldr	r0, [sp, #24]
    2eb2:	6880      	ldr	r0, [r0, #8]
    2eb4:	2802      	cmp	r0, #2
    2eb6:	d306      	bcc.n	2ec6 <SDIF_TransferConfig+0xce>
    2eb8:	e7ff      	b.n	2eba <SDIF_TransferConfig+0xc2>
    2eba:	9907      	ldr	r1, [sp, #28]
    2ebc:	6a08      	ldr	r0, [r1, #32]
    2ebe:	f440 5080 	orr.w	r0, r0, #4096	; 0x1000
    2ec2:	6208      	str	r0, [r1, #32]
    2ec4:	e7ff      	b.n	2ec6 <SDIF_TransferConfig+0xce>
    2ec6:	e7ff      	b.n	2ec8 <SDIF_TransferConfig+0xd0>
    2ec8:	9807      	ldr	r0, [sp, #28]
    2eca:	69c0      	ldr	r0, [r0, #28]
    2ecc:	2803      	cmp	r0, #3
    2ece:	d106      	bne.n	2ede <SDIF_TransferConfig+0xe6>
    2ed0:	e7ff      	b.n	2ed2 <SDIF_TransferConfig+0xda>
    2ed2:	9907      	ldr	r1, [sp, #28]
    2ed4:	6a08      	ldr	r0, [r1, #32]
    2ed6:	f440 70e0 	orr.w	r0, r0, #448	; 0x1c0
    2eda:	6208      	str	r0, [r1, #32]
    2edc:	e01b      	b.n	2f16 <SDIF_TransferConfig+0x11e>
    2ede:	9807      	ldr	r0, [sp, #28]
    2ee0:	69c0      	ldr	r0, [r0, #28]
    2ee2:	2804      	cmp	r0, #4
    2ee4:	d005      	beq.n	2ef2 <SDIF_TransferConfig+0xfa>
    2ee6:	e7ff      	b.n	2ee8 <SDIF_TransferConfig+0xf0>
    2ee8:	9807      	ldr	r0, [sp, #28]
    2eea:	69c0      	ldr	r0, [r0, #28]
    2eec:	2805      	cmp	r0, #5
    2eee:	d106      	bne.n	2efe <SDIF_TransferConfig+0x106>
    2ef0:	e7ff      	b.n	2ef2 <SDIF_TransferConfig+0xfa>
    2ef2:	9907      	ldr	r1, [sp, #28]
    2ef4:	6a08      	ldr	r0, [r1, #32]
    2ef6:	f040 0040 	orr.w	r0, r0, #64	; 0x40
    2efa:	6208      	str	r0, [r1, #32]
    2efc:	e00a      	b.n	2f14 <SDIF_TransferConfig+0x11c>
    2efe:	9807      	ldr	r0, [sp, #28]
    2f00:	69c0      	ldr	r0, [r0, #28]
    2f02:	b130      	cbz	r0, 2f12 <SDIF_TransferConfig+0x11a>
    2f04:	e7ff      	b.n	2f06 <SDIF_TransferConfig+0x10e>
    2f06:	9907      	ldr	r1, [sp, #28]
    2f08:	6a08      	ldr	r0, [r1, #32]
    2f0a:	f440 70a0 	orr.w	r0, r0, #320	; 0x140
    2f0e:	6208      	str	r0, [r1, #32]
    2f10:	e7ff      	b.n	2f12 <SDIF_TransferConfig+0x11a>
    2f12:	e7ff      	b.n	2f14 <SDIF_TransferConfig+0x11c>
    2f14:	e7ff      	b.n	2f16 <SDIF_TransferConfig+0x11e>
    2f16:	9807      	ldr	r0, [sp, #28]
    2f18:	6980      	ldr	r0, [r0, #24]
    2f1a:	2803      	cmp	r0, #3
    2f1c:	d106      	bne.n	2f2c <SDIF_TransferConfig+0x134>
    2f1e:	e7ff      	b.n	2f20 <SDIF_TransferConfig+0x128>
    2f20:	9907      	ldr	r1, [sp, #28]
    2f22:	6a08      	ldr	r0, [r1, #32]
    2f24:	f440 4080 	orr.w	r0, r0, #16384	; 0x4000
    2f28:	6208      	str	r0, [r1, #32]
    2f2a:	e7ff      	b.n	2f2c <SDIF_TransferConfig+0x134>
    2f2c:	9806      	ldr	r0, [sp, #24]
    2f2e:	9a07      	ldr	r2, [sp, #28]
    2f30:	6a11      	ldr	r1, [r2, #32]
    2f32:	f041 2120 	orr.w	r1, r1, #536879104	; 0x20002000
    2f36:	6211      	str	r1, [r2, #32]
    2f38:	b310      	cbz	r0, 2f80 <SDIF_TransferConfig+0x188>
    2f3a:	e7ff      	b.n	2f3c <SDIF_TransferConfig+0x144>
    2f3c:	9804      	ldr	r0, [sp, #16]
    2f3e:	f64f 71ff 	movw	r1, #65535	; 0xffff
    2f42:	f2c0 0101 	movt	r1, #1
    2f46:	f7ff fb58 	bl	25fa <SDIF_ClearInterruptStatus>
    2f4a:	9805      	ldr	r0, [sp, #20]
    2f4c:	07c0      	lsls	r0, r0, #31
    2f4e:	b180      	cbz	r0, 2f72 <SDIF_TransferConfig+0x17a>
    2f50:	e7ff      	b.n	2f52 <SDIF_TransferConfig+0x15a>
    2f52:	9804      	ldr	r0, [sp, #16]
    2f54:	f240 3137 	movw	r1, #823	; 0x337
    2f58:	9102      	str	r1, [sp, #8]
    2f5a:	f7ff fe8c 	bl	2c76 <SDIF_ClearInternalDMAStatus>
    2f5e:	9902      	ldr	r1, [sp, #8]
    2f60:	9804      	ldr	r0, [sp, #16]
    2f62:	f000 f928 	bl	31b6 <SDIF_EnableDmaInterrupt>
    2f66:	9804      	ldr	r0, [sp, #16]
    2f68:	f243 1146 	movw	r1, #12614	; 0x3146
    2f6c:	f7ff fb4b 	bl	2606 <SDIF_EnableInterrupt>
    2f70:	e005      	b.n	2f7e <SDIF_TransferConfig+0x186>
    2f72:	9804      	ldr	r0, [sp, #16]
    2f74:	f64b 71fe 	movw	r1, #49150	; 0xbffe
    2f78:	f7ff fb45 	bl	2606 <SDIF_EnableInterrupt>
    2f7c:	e7ff      	b.n	2f7e <SDIF_TransferConfig+0x186>
    2f7e:	e00a      	b.n	2f96 <SDIF_TransferConfig+0x19e>
    2f80:	9804      	ldr	r0, [sp, #16]
    2f82:	f243 1146 	movw	r1, #12614	; 0x3146
    2f86:	9101      	str	r1, [sp, #4]
    2f88:	f7ff fb37 	bl	25fa <SDIF_ClearInterruptStatus>
    2f8c:	9804      	ldr	r0, [sp, #16]
    2f8e:	9901      	ldr	r1, [sp, #4]
    2f90:	f7ff fb39 	bl	2606 <SDIF_EnableInterrupt>
    2f94:	e7ff      	b.n	2f96 <SDIF_TransferConfig+0x19e>
    2f96:	2000      	movs	r0, #0
    2f98:	9003      	str	r0, [sp, #12]
    2f9a:	e7ff      	b.n	2f9c <SDIF_TransferConfig+0x1a4>
    2f9c:	9803      	ldr	r0, [sp, #12]
    2f9e:	b008      	add	sp, #32
    2fa0:	bd80      	pop	{r7, pc}

00002fa2 <SDIF_WaitCommandDone>:
    2fa2:	b580      	push	{r7, lr}
    2fa4:	466f      	mov	r7, sp
    2fa6:	b084      	sub	sp, #16
    2fa8:	9102      	str	r1, [sp, #8]
    2faa:	9003      	str	r0, [sp, #12]
    2fac:	e7ff      	b.n	2fae <SDIF_WaitCommandDone+0xc>
    2fae:	9803      	ldr	r0, [sp, #12]
    2fb0:	f7ff fb2f 	bl	2612 <SDIF_GetInterruptStatus>
    2fb4:	9001      	str	r0, [sp, #4]
    2fb6:	e7ff      	b.n	2fb8 <SDIF_WaitCommandDone+0x16>
    2fb8:	9801      	ldr	r0, [sp, #4]
    2fba:	f243 1146 	movw	r1, #12614	; 0x3146
    2fbe:	4208      	tst	r0, r1
    2fc0:	d0f5      	beq.n	2fae <SDIF_WaitCommandDone+0xc>
    2fc2:	e7ff      	b.n	2fc4 <SDIF_WaitCommandDone+0x22>
    2fc4:	9901      	ldr	r1, [sp, #4]
    2fc6:	9803      	ldr	r0, [sp, #12]
    2fc8:	f243 1246 	movw	r2, #12614	; 0x3146
    2fcc:	4011      	ands	r1, r2
    2fce:	f7ff fb14 	bl	25fa <SDIF_ClearInterruptStatus>
    2fd2:	9801      	ldr	r0, [sp, #4]
    2fd4:	f243 1142 	movw	r1, #12610	; 0x3142
    2fd8:	4208      	tst	r0, r1
    2fda:	d004      	beq.n	2fe6 <SDIF_WaitCommandDone+0x44>
    2fdc:	e7ff      	b.n	2fde <SDIF_WaitCommandDone+0x3c>
    2fde:	f241 700f 	movw	r0, #5903	; 0x170f
    2fe2:	9000      	str	r0, [sp, #0]
    2fe4:	e005      	b.n	2ff2 <SDIF_WaitCommandDone+0x50>
    2fe6:	9902      	ldr	r1, [sp, #8]
    2fe8:	9803      	ldr	r0, [sp, #12]
    2fea:	f000 f8ec 	bl	31c6 <SDIF_ReadCommandResponse>
    2fee:	9000      	str	r0, [sp, #0]
    2ff0:	e7ff      	b.n	2ff2 <SDIF_WaitCommandDone+0x50>
    2ff2:	9800      	ldr	r0, [sp, #0]
    2ff4:	b004      	add	sp, #16
    2ff6:	bd80      	pop	{r7, pc}

00002ff8 <SDIF_TransferDataBlocking>:
    2ff8:	b580      	push	{r7, lr}
    2ffa:	466f      	mov	r7, sp
    2ffc:	b08c      	sub	sp, #48	; 0x30
    2ffe:	9109      	str	r1, [sp, #36]	; 0x24
    3000:	900a      	str	r0, [sp, #40]	; 0x28
    3002:	920b      	str	r2, [sp, #44]	; 0x2c
    3004:	b109      	cbz	r1, 300a <SDIF_TransferDataBlocking+0x12>
    3006:	e7ff      	b.n	3008 <SDIF_TransferDataBlocking+0x10>
    3008:	e00f      	b.n	302a <SDIF_TransferDataBlocking+0x32>
    300a:	f24f 3008 	movw	r0, #62216	; 0xf308
    300e:	f2c0 0000 	movt	r0, #0
    3012:	f24f 429b 	movw	r2, #62619	; 0xf49b
    3016:	f2c0 0200 	movt	r2, #0
    301a:	f24f 33b6 	movw	r3, #62390	; 0xf3b6
    301e:	f2c0 0300 	movt	r3, #0
    3022:	f44f 712f 	mov.w	r1, #700	; 0x2bc
    3026:	f008 fcc9 	bl	b9bc <__assert_func>
    302a:	980b      	ldr	r0, [sp, #44]	; 0x2c
    302c:	07c0      	lsls	r0, r0, #31
    302e:	2800      	cmp	r0, #0
    3030:	d054      	beq.n	30dc <SDIF_TransferDataBlocking+0xe4>
    3032:	e7ff      	b.n	3034 <SDIF_TransferDataBlocking+0x3c>
    3034:	2000      	movs	r0, #0
    3036:	9008      	str	r0, [sp, #32]
    3038:	e7ff      	b.n	303a <SDIF_TransferDataBlocking+0x42>
    303a:	980a      	ldr	r0, [sp, #40]	; 0x28
    303c:	9908      	ldr	r1, [sp, #32]
    303e:	9105      	str	r1, [sp, #20]
    3040:	f000 f901 	bl	3246 <SDIF_GetInternalDMAStatus>
    3044:	4601      	mov	r1, r0
    3046:	9805      	ldr	r0, [sp, #20]
    3048:	460a      	mov	r2, r1
    304a:	9206      	str	r2, [sp, #24]
    304c:	0749      	lsls	r1, r1, #29
    304e:	2900      	cmp	r1, #0
    3050:	9007      	str	r0, [sp, #28]
    3052:	d509      	bpl.n	3068 <SDIF_TransferDataBlocking+0x70>
    3054:	e7ff      	b.n	3056 <SDIF_TransferDataBlocking+0x5e>
    3056:	980a      	ldr	r0, [sp, #40]	; 0x28
    3058:	f44f 7101 	mov.w	r1, #516	; 0x204
    305c:	f7ff fe0b 	bl	2c76 <SDIF_ClearInternalDMAStatus>
    3060:	f241 7011 	movw	r0, #5905	; 0x1711
    3064:	9007      	str	r0, [sp, #28]
    3066:	e7ff      	b.n	3068 <SDIF_TransferDataBlocking+0x70>
    3068:	9806      	ldr	r0, [sp, #24]
    306a:	9907      	ldr	r1, [sp, #28]
    306c:	9104      	str	r1, [sp, #16]
    306e:	0680      	lsls	r0, r0, #26
    3070:	2800      	cmp	r0, #0
    3072:	d513      	bpl.n	309c <SDIF_TransferDataBlocking+0xa4>
    3074:	e7ff      	b.n	3076 <SDIF_TransferDataBlocking+0x7e>
    3076:	980a      	ldr	r0, [sp, #40]	; 0x28
    3078:	f44f 7108 	mov.w	r1, #544	; 0x220
    307c:	f7ff fdfb 	bl	2c76 <SDIF_ClearInternalDMAStatus>
    3080:	9909      	ldr	r1, [sp, #36]	; 0x24
    3082:	9804      	ldr	r0, [sp, #16]
    3084:	7889      	ldrb	r1, [r1, #2]
    3086:	07c9      	lsls	r1, r1, #31
    3088:	9003      	str	r0, [sp, #12]
    308a:	b921      	cbnz	r1, 3096 <SDIF_TransferDataBlocking+0x9e>
    308c:	e7ff      	b.n	308e <SDIF_TransferDataBlocking+0x96>
    308e:	f241 7012 	movw	r0, #5906	; 0x1712
    3092:	9003      	str	r0, [sp, #12]
    3094:	e7ff      	b.n	3096 <SDIF_TransferDataBlocking+0x9e>
    3096:	9803      	ldr	r0, [sp, #12]
    3098:	9002      	str	r0, [sp, #8]
    309a:	e009      	b.n	30b0 <SDIF_TransferDataBlocking+0xb8>
    309c:	e7ff      	b.n	309e <SDIF_TransferDataBlocking+0xa6>
    309e:	9804      	ldr	r0, [sp, #16]
    30a0:	9906      	ldr	r1, [sp, #24]
    30a2:	0789      	lsls	r1, r1, #30
    30a4:	2900      	cmp	r1, #0
    30a6:	4601      	mov	r1, r0
    30a8:	9108      	str	r1, [sp, #32]
    30aa:	9002      	str	r0, [sp, #8]
    30ac:	d0c5      	beq.n	303a <SDIF_TransferDataBlocking+0x42>
    30ae:	e7ff      	b.n	30b0 <SDIF_TransferDataBlocking+0xb8>
    30b0:	980a      	ldr	r0, [sp, #40]	; 0x28
    30b2:	9902      	ldr	r1, [sp, #8]
    30b4:	9101      	str	r1, [sp, #4]
    30b6:	f240 1103 	movw	r1, #259	; 0x103
    30ba:	f7ff fddc 	bl	2c76 <SDIF_ClearInternalDMAStatus>
    30be:	980a      	ldr	r0, [sp, #40]	; 0x28
    30c0:	f7ff faa7 	bl	2612 <SDIF_GetInterruptStatus>
    30c4:	4601      	mov	r1, r0
    30c6:	980a      	ldr	r0, [sp, #40]	; 0x28
    30c8:	f7ff fa97 	bl	25fa <SDIF_ClearInterruptStatus>
    30cc:	9801      	ldr	r0, [sp, #4]
    30ce:	b120      	cbz	r0, 30da <SDIF_TransferDataBlocking+0xe2>
    30d0:	e7ff      	b.n	30d2 <SDIF_TransferDataBlocking+0xda>
    30d2:	f241 7012 	movw	r0, #5906	; 0x1712
    30d6:	9000      	str	r0, [sp, #0]
    30d8:	e01e      	b.n	3118 <SDIF_TransferDataBlocking+0x120>
    30da:	e01a      	b.n	3112 <SDIF_TransferDataBlocking+0x11a>
    30dc:	9809      	ldr	r0, [sp, #36]	; 0x24
    30de:	68c0      	ldr	r0, [r0, #12]
    30e0:	b158      	cbz	r0, 30fa <SDIF_TransferDataBlocking+0x102>
    30e2:	e7ff      	b.n	30e4 <SDIF_TransferDataBlocking+0xec>
    30e4:	9909      	ldr	r1, [sp, #36]	; 0x24
    30e6:	980a      	ldr	r0, [sp, #40]	; 0x28
    30e8:	f000 f8b0 	bl	324c <SDIF_ReadDataPortBlocking>
    30ec:	b120      	cbz	r0, 30f8 <SDIF_TransferDataBlocking+0x100>
    30ee:	e7ff      	b.n	30f0 <SDIF_TransferDataBlocking+0xf8>
    30f0:	f241 7012 	movw	r0, #5906	; 0x1712
    30f4:	9000      	str	r0, [sp, #0]
    30f6:	e00f      	b.n	3118 <SDIF_TransferDataBlocking+0x120>
    30f8:	e00a      	b.n	3110 <SDIF_TransferDataBlocking+0x118>
    30fa:	9909      	ldr	r1, [sp, #36]	; 0x24
    30fc:	980a      	ldr	r0, [sp, #40]	; 0x28
    30fe:	f000 f92b 	bl	3358 <SDIF_WriteDataPortBlocking>
    3102:	b120      	cbz	r0, 310e <SDIF_TransferDataBlocking+0x116>
    3104:	e7ff      	b.n	3106 <SDIF_TransferDataBlocking+0x10e>
    3106:	f241 7012 	movw	r0, #5906	; 0x1712
    310a:	9000      	str	r0, [sp, #0]
    310c:	e004      	b.n	3118 <SDIF_TransferDataBlocking+0x120>
    310e:	e7ff      	b.n	3110 <SDIF_TransferDataBlocking+0x118>
    3110:	e7ff      	b.n	3112 <SDIF_TransferDataBlocking+0x11a>
    3112:	2000      	movs	r0, #0
    3114:	9000      	str	r0, [sp, #0]
    3116:	e7ff      	b.n	3118 <SDIF_TransferDataBlocking+0x120>
    3118:	9800      	ldr	r0, [sp, #0]
    311a:	b00c      	add	sp, #48	; 0x30
    311c:	bd80      	pop	{r7, pc}

0000311e <SDIF_Deinit>:
    311e:	b580      	push	{r7, lr}
    3120:	466f      	mov	r7, sp
    3122:	f240 2003 	movw	r0, #515	; 0x203
    3126:	f000 f811 	bl	314c <CLOCK_DisableClock>
    312a:	f240 4160 	movw	r1, #1120	; 0x460
    312e:	f2c4 0100 	movt	r1, #16384	; 0x4000
    3132:	6808      	ldr	r0, [r1, #0]
    3134:	f64f 727f 	movw	r2, #65407	; 0xff7f
    3138:	f6c7 727f 	movt	r2, #32639	; 0x7f7f
    313c:	4010      	ands	r0, r2
    313e:	6008      	str	r0, [r1, #0]
    3140:	2003      	movs	r0, #3
    3142:	f2c0 0002 	movt	r0, #2
    3146:	f7fe fb82 	bl	184e <RESET_PeripheralReset>
    314a:	bd80      	pop	{r7, pc}

0000314c <CLOCK_DisableClock>:
    314c:	0a02      	lsrs	r2, r0, #8
    314e:	b2c1      	uxtb	r1, r0
    3150:	2001      	movs	r0, #1
    3152:	4088      	lsls	r0, r1
    3154:	f240 2140 	movw	r1, #576	; 0x240
    3158:	f2c4 0100 	movt	r1, #16384	; 0x4000
    315c:	f841 0022 	str.w	r0, [r1, r2, lsl #2]
    3160:	4770      	bx	lr

00003162 <SDIO_DriverIRQHandler>:
    3162:	b580      	push	{r7, lr}
    3164:	466f      	mov	r7, sp
    3166:	f640 2024 	movw	r0, #2596	; 0xa24
    316a:	f2c2 0000 	movt	r0, #8192	; 0x2000
    316e:	6800      	ldr	r0, [r0, #0]
    3170:	b108      	cbz	r0, 3176 <SDIO_DriverIRQHandler+0x14>
    3172:	e7ff      	b.n	3174 <SDIO_DriverIRQHandler+0x12>
    3174:	e00f      	b.n	3196 <SDIO_DriverIRQHandler+0x34>
    3176:	f24f 3008 	movw	r0, #62216	; 0xf308
    317a:	f2c0 0000 	movt	r0, #0
    317e:	f24f 426d 	movw	r2, #62573	; 0xf46d
    3182:	f2c0 0200 	movt	r2, #0
    3186:	f24f 4383 	movw	r3, #62595	; 0xf483
    318a:	f2c0 0300 	movt	r3, #0
    318e:	f240 6193 	movw	r1, #1683	; 0x693
    3192:	f008 fc13 	bl	b9bc <__assert_func>
    3196:	f640 2028 	movw	r0, #2600	; 0xa28
    319a:	f2c2 0000 	movt	r0, #8192	; 0x2000
    319e:	6802      	ldr	r2, [r0, #0]
    31a0:	f640 2024 	movw	r0, #2596	; 0xa24
    31a4:	f2c2 0000 	movt	r0, #8192	; 0x2000
    31a8:	6801      	ldr	r1, [r0, #0]
    31aa:	f24b 0000 	movw	r0, #45056	; 0xb000
    31ae:	f2c4 0009 	movt	r0, #16393	; 0x4009
    31b2:	4790      	blx	r2
    31b4:	bd80      	pop	{r7, pc}

000031b6 <SDIF_EnableDmaInterrupt>:
    31b6:	460a      	mov	r2, r1
    31b8:	4601      	mov	r1, r0
    31ba:	f8d1 0090 	ldr.w	r0, [r1, #144]	; 0x90
    31be:	4310      	orrs	r0, r2
    31c0:	f8c1 0090 	str.w	r0, [r1, #144]	; 0x90
    31c4:	4770      	bx	lr

000031c6 <SDIF_ReadCommandResponse>:
    31c6:	b083      	sub	sp, #12
    31c8:	9101      	str	r1, [sp, #4]
    31ca:	9002      	str	r0, [sp, #8]
    31cc:	b3a9      	cbz	r1, 323a <SDIF_ReadCommandResponse+0x74>
    31ce:	e7ff      	b.n	31d0 <SDIF_ReadCommandResponse+0xa>
    31d0:	9801      	ldr	r0, [sp, #4]
    31d2:	9902      	ldr	r1, [sp, #8]
    31d4:	6b09      	ldr	r1, [r1, #48]	; 0x30
    31d6:	6081      	str	r1, [r0, #8]
    31d8:	69c0      	ldr	r0, [r0, #28]
    31da:	2803      	cmp	r0, #3
    31dc:	d109      	bne.n	31f2 <SDIF_ReadCommandResponse+0x2c>
    31de:	e7ff      	b.n	31e0 <SDIF_ReadCommandResponse+0x1a>
    31e0:	9901      	ldr	r1, [sp, #4]
    31e2:	9802      	ldr	r0, [sp, #8]
    31e4:	6b42      	ldr	r2, [r0, #52]	; 0x34
    31e6:	60ca      	str	r2, [r1, #12]
    31e8:	6b82      	ldr	r2, [r0, #56]	; 0x38
    31ea:	610a      	str	r2, [r1, #16]
    31ec:	6bc0      	ldr	r0, [r0, #60]	; 0x3c
    31ee:	6148      	str	r0, [r1, #20]
    31f0:	e7ff      	b.n	31f2 <SDIF_ReadCommandResponse+0x2c>
    31f2:	9801      	ldr	r0, [sp, #4]
    31f4:	6a40      	ldr	r0, [r0, #36]	; 0x24
    31f6:	b1f8      	cbz	r0, 3238 <SDIF_ReadCommandResponse+0x72>
    31f8:	e7ff      	b.n	31fa <SDIF_ReadCommandResponse+0x34>
    31fa:	9801      	ldr	r0, [sp, #4]
    31fc:	69c0      	ldr	r0, [r0, #28]
    31fe:	2801      	cmp	r0, #1
    3200:	d00f      	beq.n	3222 <SDIF_ReadCommandResponse+0x5c>
    3202:	e7ff      	b.n	3204 <SDIF_ReadCommandResponse+0x3e>
    3204:	9801      	ldr	r0, [sp, #4]
    3206:	69c0      	ldr	r0, [r0, #28]
    3208:	2802      	cmp	r0, #2
    320a:	d00a      	beq.n	3222 <SDIF_ReadCommandResponse+0x5c>
    320c:	e7ff      	b.n	320e <SDIF_ReadCommandResponse+0x48>
    320e:	9801      	ldr	r0, [sp, #4]
    3210:	69c0      	ldr	r0, [r0, #28]
    3212:	2808      	cmp	r0, #8
    3214:	d005      	beq.n	3222 <SDIF_ReadCommandResponse+0x5c>
    3216:	e7ff      	b.n	3218 <SDIF_ReadCommandResponse+0x52>
    3218:	9801      	ldr	r0, [sp, #4]
    321a:	69c0      	ldr	r0, [r0, #28]
    321c:	2806      	cmp	r0, #6
    321e:	d10b      	bne.n	3238 <SDIF_ReadCommandResponse+0x72>
    3220:	e7ff      	b.n	3222 <SDIF_ReadCommandResponse+0x5c>
    3222:	9801      	ldr	r0, [sp, #4]
    3224:	6881      	ldr	r1, [r0, #8]
    3226:	6a40      	ldr	r0, [r0, #36]	; 0x24
    3228:	4208      	tst	r0, r1
    322a:	d004      	beq.n	3236 <SDIF_ReadCommandResponse+0x70>
    322c:	e7ff      	b.n	322e <SDIF_ReadCommandResponse+0x68>
    322e:	f241 7013 	movw	r0, #5907	; 0x1713
    3232:	9000      	str	r0, [sp, #0]
    3234:	e004      	b.n	3240 <SDIF_ReadCommandResponse+0x7a>
    3236:	e7ff      	b.n	3238 <SDIF_ReadCommandResponse+0x72>
    3238:	e7ff      	b.n	323a <SDIF_ReadCommandResponse+0x74>
    323a:	2000      	movs	r0, #0
    323c:	9000      	str	r0, [sp, #0]
    323e:	e7ff      	b.n	3240 <SDIF_ReadCommandResponse+0x7a>
    3240:	9800      	ldr	r0, [sp, #0]
    3242:	b003      	add	sp, #12
    3244:	4770      	bx	lr

00003246 <SDIF_GetInternalDMAStatus>:
    3246:	f8d0 008c 	ldr.w	r0, [r0, #140]	; 0x8c
    324a:	4770      	bx	lr

0000324c <SDIF_ReadDataPortBlocking>:
    324c:	b580      	push	{r7, lr}
    324e:	466f      	mov	r7, sp
    3250:	b092      	sub	sp, #72	; 0x48
    3252:	9110      	str	r1, [sp, #64]	; 0x40
    3254:	9011      	str	r0, [sp, #68]	; 0x44
    3256:	7908      	ldrb	r0, [r1, #4]
    3258:	0780      	lsls	r0, r0, #30
    325a:	b138      	cbz	r0, 326c <SDIF_ReadDataPortBlocking+0x20>
    325c:	e7ff      	b.n	325e <SDIF_ReadDataPortBlocking+0x12>
    325e:	9910      	ldr	r1, [sp, #64]	; 0x40
    3260:	6848      	ldr	r0, [r1, #4]
    3262:	f020 0003 	bic.w	r0, r0, #3
    3266:	3004      	adds	r0, #4
    3268:	6048      	str	r0, [r1, #4]
    326a:	e7ff      	b.n	326c <SDIF_ReadDataPortBlocking+0x20>
    326c:	9810      	ldr	r0, [sp, #64]	; 0x40
    326e:	6841      	ldr	r1, [r0, #4]
    3270:	6880      	ldr	r0, [r0, #8]
    3272:	4348      	muls	r0, r1
    3274:	0882      	lsrs	r2, r0, #2
    3276:	2100      	movs	r1, #0
    3278:	4608      	mov	r0, r1
    327a:	920c      	str	r2, [sp, #48]	; 0x30
    327c:	460a      	mov	r2, r1
    327e:	920d      	str	r2, [sp, #52]	; 0x34
    3280:	910e      	str	r1, [sp, #56]	; 0x38
    3282:	900f      	str	r0, [sp, #60]	; 0x3c
    3284:	e7ff      	b.n	3286 <SDIF_ReadDataPortBlocking+0x3a>
    3286:	9a0c      	ldr	r2, [sp, #48]	; 0x30
    3288:	990d      	ldr	r1, [sp, #52]	; 0x34
    328a:	980e      	ldr	r0, [sp, #56]	; 0x38
    328c:	9b0f      	ldr	r3, [sp, #60]	; 0x3c
    328e:	9308      	str	r3, [sp, #32]
    3290:	9009      	str	r0, [sp, #36]	; 0x24
    3292:	910a      	str	r1, [sp, #40]	; 0x28
    3294:	2000      	movs	r0, #0
    3296:	4291      	cmp	r1, r2
    3298:	900b      	str	r0, [sp, #44]	; 0x2c
    329a:	d206      	bcs.n	32aa <SDIF_ReadDataPortBlocking+0x5e>
    329c:	e7ff      	b.n	329e <SDIF_ReadDataPortBlocking+0x52>
    329e:	9809      	ldr	r0, [sp, #36]	; 0x24
    32a0:	fab0 f080 	clz	r0, r0
    32a4:	0940      	lsrs	r0, r0, #5
    32a6:	900b      	str	r0, [sp, #44]	; 0x2c
    32a8:	e7ff      	b.n	32aa <SDIF_ReadDataPortBlocking+0x5e>
    32aa:	980b      	ldr	r0, [sp, #44]	; 0x2c
    32ac:	07c0      	lsls	r0, r0, #31
    32ae:	2800      	cmp	r0, #0
    32b0:	d04f      	beq.n	3352 <SDIF_ReadDataPortBlocking+0x106>
    32b2:	e7ff      	b.n	32b4 <SDIF_ReadDataPortBlocking+0x68>
    32b4:	e7ff      	b.n	32b6 <SDIF_ReadDataPortBlocking+0x6a>
    32b6:	9811      	ldr	r0, [sp, #68]	; 0x44
    32b8:	f7ff f9ab 	bl	2612 <SDIF_GetInterruptStatus>
    32bc:	4601      	mov	r1, r0
    32be:	9107      	str	r1, [sp, #28]
    32c0:	f64a 2180 	movw	r1, #43648	; 0xaa80
    32c4:	4208      	tst	r0, r1
    32c6:	d009      	beq.n	32dc <SDIF_ReadDataPortBlocking+0x90>
    32c8:	e7ff      	b.n	32ca <SDIF_ReadDataPortBlocking+0x7e>
    32ca:	9810      	ldr	r0, [sp, #64]	; 0x40
    32cc:	7880      	ldrb	r0, [r0, #2]
    32ce:	07c0      	lsls	r0, r0, #31
    32d0:	b918      	cbnz	r0, 32da <SDIF_ReadDataPortBlocking+0x8e>
    32d2:	e7ff      	b.n	32d4 <SDIF_ReadDataPortBlocking+0x88>
    32d4:	2001      	movs	r0, #1
    32d6:	9006      	str	r0, [sp, #24]
    32d8:	e014      	b.n	3304 <SDIF_ReadDataPortBlocking+0xb8>
    32da:	e7ff      	b.n	32dc <SDIF_ReadDataPortBlocking+0x90>
    32dc:	e7ff      	b.n	32de <SDIF_ReadDataPortBlocking+0x92>
    32de:	9907      	ldr	r1, [sp, #28]
    32e0:	2000      	movs	r0, #0
    32e2:	f011 0f28 	tst.w	r1, #40	; 0x28
    32e6:	9005      	str	r0, [sp, #20]
    32e8:	d105      	bne.n	32f6 <SDIF_ReadDataPortBlocking+0xaa>
    32ea:	e7ff      	b.n	32ec <SDIF_ReadDataPortBlocking+0xa0>
    32ec:	9808      	ldr	r0, [sp, #32]
    32ee:	f080 0001 	eor.w	r0, r0, #1
    32f2:	9005      	str	r0, [sp, #20]
    32f4:	e7ff      	b.n	32f6 <SDIF_ReadDataPortBlocking+0xaa>
    32f6:	9809      	ldr	r0, [sp, #36]	; 0x24
    32f8:	9905      	ldr	r1, [sp, #20]
    32fa:	07c9      	lsls	r1, r1, #31
    32fc:	2900      	cmp	r1, #0
    32fe:	9006      	str	r0, [sp, #24]
    3300:	d1d9      	bne.n	32b6 <SDIF_ReadDataPortBlocking+0x6a>
    3302:	e7ff      	b.n	3304 <SDIF_ReadDataPortBlocking+0xb8>
    3304:	9808      	ldr	r0, [sp, #32]
    3306:	9907      	ldr	r1, [sp, #28]
    3308:	9a06      	ldr	r2, [sp, #24]
    330a:	9203      	str	r2, [sp, #12]
    330c:	0709      	lsls	r1, r1, #28
    330e:	2900      	cmp	r1, #0
    3310:	9004      	str	r0, [sp, #16]
    3312:	d503      	bpl.n	331c <SDIF_ReadDataPortBlocking+0xd0>
    3314:	e7ff      	b.n	3316 <SDIF_ReadDataPortBlocking+0xca>
    3316:	2001      	movs	r0, #1
    3318:	9004      	str	r0, [sp, #16]
    331a:	e7ff      	b.n	331c <SDIF_ReadDataPortBlocking+0xd0>
    331c:	980a      	ldr	r0, [sp, #40]	; 0x28
    331e:	9903      	ldr	r1, [sp, #12]
    3320:	9a04      	ldr	r2, [sp, #16]
    3322:	9201      	str	r2, [sp, #4]
    3324:	9002      	str	r0, [sp, #8]
    3326:	b939      	cbnz	r1, 3338 <SDIF_ReadDataPortBlocking+0xec>
    3328:	e7ff      	b.n	332a <SDIF_ReadDataPortBlocking+0xde>
    332a:	9a0a      	ldr	r2, [sp, #40]	; 0x28
    332c:	9910      	ldr	r1, [sp, #64]	; 0x40
    332e:	9811      	ldr	r0, [sp, #68]	; 0x44
    3330:	f000 f8ae 	bl	3490 <SDIF_ReadDataPort>
    3334:	9002      	str	r0, [sp, #8]
    3336:	e7ff      	b.n	3338 <SDIF_ReadDataPortBlocking+0xec>
    3338:	9907      	ldr	r1, [sp, #28]
    333a:	9811      	ldr	r0, [sp, #68]	; 0x44
    333c:	9a02      	ldr	r2, [sp, #8]
    333e:	9200      	str	r2, [sp, #0]
    3340:	f7ff f95b 	bl	25fa <SDIF_ClearInterruptStatus>
    3344:	9a00      	ldr	r2, [sp, #0]
    3346:	9903      	ldr	r1, [sp, #12]
    3348:	9801      	ldr	r0, [sp, #4]
    334a:	920d      	str	r2, [sp, #52]	; 0x34
    334c:	910e      	str	r1, [sp, #56]	; 0x38
    334e:	900f      	str	r0, [sp, #60]	; 0x3c
    3350:	e799      	b.n	3286 <SDIF_ReadDataPortBlocking+0x3a>
    3352:	9809      	ldr	r0, [sp, #36]	; 0x24
    3354:	b012      	add	sp, #72	; 0x48
    3356:	bd80      	pop	{r7, pc}

00003358 <SDIF_WriteDataPortBlocking>:
    3358:	b580      	push	{r7, lr}
    335a:	466f      	mov	r7, sp
    335c:	b094      	sub	sp, #80	; 0x50
    335e:	9112      	str	r1, [sp, #72]	; 0x48
    3360:	9013      	str	r0, [sp, #76]	; 0x4c
    3362:	7908      	ldrb	r0, [r1, #4]
    3364:	0780      	lsls	r0, r0, #30
    3366:	b138      	cbz	r0, 3378 <SDIF_WriteDataPortBlocking+0x20>
    3368:	e7ff      	b.n	336a <SDIF_WriteDataPortBlocking+0x12>
    336a:	9912      	ldr	r1, [sp, #72]	; 0x48
    336c:	6848      	ldr	r0, [r1, #4]
    336e:	f020 0003 	bic.w	r0, r0, #3
    3372:	3004      	adds	r0, #4
    3374:	6048      	str	r0, [r1, #4]
    3376:	e7ff      	b.n	3378 <SDIF_WriteDataPortBlocking+0x20>
    3378:	9812      	ldr	r0, [sp, #72]	; 0x48
    337a:	6841      	ldr	r1, [r0, #4]
    337c:	6880      	ldr	r0, [r0, #8]
    337e:	4348      	muls	r0, r1
    3380:	0881      	lsrs	r1, r0, #2
    3382:	2000      	movs	r0, #0
    3384:	910f      	str	r1, [sp, #60]	; 0x3c
    3386:	4601      	mov	r1, r0
    3388:	9110      	str	r1, [sp, #64]	; 0x40
    338a:	9011      	str	r0, [sp, #68]	; 0x44
    338c:	e7ff      	b.n	338e <SDIF_WriteDataPortBlocking+0x36>
    338e:	9a0f      	ldr	r2, [sp, #60]	; 0x3c
    3390:	9910      	ldr	r1, [sp, #64]	; 0x40
    3392:	9811      	ldr	r0, [sp, #68]	; 0x44
    3394:	900c      	str	r0, [sp, #48]	; 0x30
    3396:	910d      	str	r1, [sp, #52]	; 0x34
    3398:	2000      	movs	r0, #0
    339a:	4291      	cmp	r1, r2
    339c:	900e      	str	r0, [sp, #56]	; 0x38
    339e:	d206      	bcs.n	33ae <SDIF_WriteDataPortBlocking+0x56>
    33a0:	e7ff      	b.n	33a2 <SDIF_WriteDataPortBlocking+0x4a>
    33a2:	980c      	ldr	r0, [sp, #48]	; 0x30
    33a4:	fab0 f080 	clz	r0, r0
    33a8:	0940      	lsrs	r0, r0, #5
    33aa:	900e      	str	r0, [sp, #56]	; 0x38
    33ac:	e7ff      	b.n	33ae <SDIF_WriteDataPortBlocking+0x56>
    33ae:	980e      	ldr	r0, [sp, #56]	; 0x38
    33b0:	07c0      	lsls	r0, r0, #31
    33b2:	2800      	cmp	r0, #0
    33b4:	d040      	beq.n	3438 <SDIF_WriteDataPortBlocking+0xe0>
    33b6:	e7ff      	b.n	33b8 <SDIF_WriteDataPortBlocking+0x60>
    33b8:	980c      	ldr	r0, [sp, #48]	; 0x30
    33ba:	900b      	str	r0, [sp, #44]	; 0x2c
    33bc:	e7ff      	b.n	33be <SDIF_WriteDataPortBlocking+0x66>
    33be:	9813      	ldr	r0, [sp, #76]	; 0x4c
    33c0:	990b      	ldr	r1, [sp, #44]	; 0x2c
    33c2:	9108      	str	r1, [sp, #32]
    33c4:	f7ff f925 	bl	2612 <SDIF_GetInterruptStatus>
    33c8:	4601      	mov	r1, r0
    33ca:	9808      	ldr	r0, [sp, #32]
    33cc:	460a      	mov	r2, r1
    33ce:	9209      	str	r2, [sp, #36]	; 0x24
    33d0:	f64a 2280 	movw	r2, #43648	; 0xaa80
    33d4:	4211      	tst	r1, r2
    33d6:	900a      	str	r0, [sp, #40]	; 0x28
    33d8:	d00d      	beq.n	33f6 <SDIF_WriteDataPortBlocking+0x9e>
    33da:	e7ff      	b.n	33dc <SDIF_WriteDataPortBlocking+0x84>
    33dc:	9808      	ldr	r0, [sp, #32]
    33de:	9912      	ldr	r1, [sp, #72]	; 0x48
    33e0:	7889      	ldrb	r1, [r1, #2]
    33e2:	07c9      	lsls	r1, r1, #31
    33e4:	9007      	str	r0, [sp, #28]
    33e6:	b919      	cbnz	r1, 33f0 <SDIF_WriteDataPortBlocking+0x98>
    33e8:	e7ff      	b.n	33ea <SDIF_WriteDataPortBlocking+0x92>
    33ea:	2001      	movs	r0, #1
    33ec:	9007      	str	r0, [sp, #28]
    33ee:	e7ff      	b.n	33f0 <SDIF_WriteDataPortBlocking+0x98>
    33f0:	9807      	ldr	r0, [sp, #28]
    33f2:	900a      	str	r0, [sp, #40]	; 0x28
    33f4:	e7ff      	b.n	33f6 <SDIF_WriteDataPortBlocking+0x9e>
    33f6:	980a      	ldr	r0, [sp, #40]	; 0x28
    33f8:	9006      	str	r0, [sp, #24]
    33fa:	e7ff      	b.n	33fc <SDIF_WriteDataPortBlocking+0xa4>
    33fc:	9806      	ldr	r0, [sp, #24]
    33fe:	9909      	ldr	r1, [sp, #36]	; 0x24
    3400:	06c9      	lsls	r1, r1, #27
    3402:	2900      	cmp	r1, #0
    3404:	900b      	str	r0, [sp, #44]	; 0x2c
    3406:	d5da      	bpl.n	33be <SDIF_WriteDataPortBlocking+0x66>
    3408:	e7ff      	b.n	340a <SDIF_WriteDataPortBlocking+0xb2>
    340a:	980d      	ldr	r0, [sp, #52]	; 0x34
    340c:	9906      	ldr	r1, [sp, #24]
    340e:	9005      	str	r0, [sp, #20]
    3410:	b939      	cbnz	r1, 3422 <SDIF_WriteDataPortBlocking+0xca>
    3412:	e7ff      	b.n	3414 <SDIF_WriteDataPortBlocking+0xbc>
    3414:	9a0d      	ldr	r2, [sp, #52]	; 0x34
    3416:	9912      	ldr	r1, [sp, #72]	; 0x48
    3418:	9813      	ldr	r0, [sp, #76]	; 0x4c
    341a:	f000 f89f 	bl	355c <SDIF_WriteDataPort>
    341e:	9005      	str	r0, [sp, #20]
    3420:	e7ff      	b.n	3422 <SDIF_WriteDataPortBlocking+0xca>
    3422:	9909      	ldr	r1, [sp, #36]	; 0x24
    3424:	9813      	ldr	r0, [sp, #76]	; 0x4c
    3426:	9a05      	ldr	r2, [sp, #20]
    3428:	9204      	str	r2, [sp, #16]
    342a:	f7ff f8e6 	bl	25fa <SDIF_ClearInterruptStatus>
    342e:	9904      	ldr	r1, [sp, #16]
    3430:	9806      	ldr	r0, [sp, #24]
    3432:	9110      	str	r1, [sp, #64]	; 0x40
    3434:	9011      	str	r0, [sp, #68]	; 0x44
    3436:	e7aa      	b.n	338e <SDIF_WriteDataPortBlocking+0x36>
    3438:	e7ff      	b.n	343a <SDIF_WriteDataPortBlocking+0xe2>
    343a:	9813      	ldr	r0, [sp, #76]	; 0x4c
    343c:	f7ff f8e9 	bl	2612 <SDIF_GetInterruptStatus>
    3440:	f000 0008 	and.w	r0, r0, #8
    3444:	2808      	cmp	r0, #8
    3446:	d001      	beq.n	344c <SDIF_WriteDataPortBlocking+0xf4>
    3448:	e7ff      	b.n	344a <SDIF_WriteDataPortBlocking+0xf2>
    344a:	e7f6      	b.n	343a <SDIF_WriteDataPortBlocking+0xe2>
    344c:	9813      	ldr	r0, [sp, #76]	; 0x4c
    344e:	f7ff f8e0 	bl	2612 <SDIF_GetInterruptStatus>
    3452:	4601      	mov	r1, r0
    3454:	980c      	ldr	r0, [sp, #48]	; 0x30
    3456:	f64a 2280 	movw	r2, #43648	; 0xaa80
    345a:	4211      	tst	r1, r2
    345c:	9003      	str	r0, [sp, #12]
    345e:	d00d      	beq.n	347c <SDIF_WriteDataPortBlocking+0x124>
    3460:	e7ff      	b.n	3462 <SDIF_WriteDataPortBlocking+0x10a>
    3462:	980c      	ldr	r0, [sp, #48]	; 0x30
    3464:	9912      	ldr	r1, [sp, #72]	; 0x48
    3466:	7889      	ldrb	r1, [r1, #2]
    3468:	07c9      	lsls	r1, r1, #31
    346a:	9002      	str	r0, [sp, #8]
    346c:	b919      	cbnz	r1, 3476 <SDIF_WriteDataPortBlocking+0x11e>
    346e:	e7ff      	b.n	3470 <SDIF_WriteDataPortBlocking+0x118>
    3470:	2001      	movs	r0, #1
    3472:	9002      	str	r0, [sp, #8]
    3474:	e7ff      	b.n	3476 <SDIF_WriteDataPortBlocking+0x11e>
    3476:	9802      	ldr	r0, [sp, #8]
    3478:	9003      	str	r0, [sp, #12]
    347a:	e7ff      	b.n	347c <SDIF_WriteDataPortBlocking+0x124>
    347c:	9813      	ldr	r0, [sp, #76]	; 0x4c
    347e:	9903      	ldr	r1, [sp, #12]
    3480:	9101      	str	r1, [sp, #4]
    3482:	f64a 2188 	movw	r1, #43656	; 0xaa88
    3486:	f7ff f8b8 	bl	25fa <SDIF_ClearInterruptStatus>
    348a:	9801      	ldr	r0, [sp, #4]
    348c:	b014      	add	sp, #80	; 0x50
    348e:	bd80      	pop	{r7, pc}

00003490 <SDIF_ReadDataPort>:
    3490:	b08d      	sub	sp, #52	; 0x34
    3492:	9208      	str	r2, [sp, #32]
    3494:	9109      	str	r1, [sp, #36]	; 0x24
    3496:	900a      	str	r0, [sp, #40]	; 0x28
    3498:	6cc1      	ldr	r1, [r0, #76]	; 0x4c
    349a:	f3c1 410b 	ubfx	r1, r1, #16, #12
    349e:	910b      	str	r1, [sp, #44]	; 0x2c
    34a0:	6800      	ldr	r0, [r0, #0]
    34a2:	0180      	lsls	r0, r0, #6
    34a4:	2800      	cmp	r0, #0
    34a6:	920c      	str	r2, [sp, #48]	; 0x30
    34a8:	d455      	bmi.n	3556 <SDIF_ReadDataPort+0xc6>
    34aa:	e7ff      	b.n	34ac <SDIF_ReadDataPort+0x1c>
    34ac:	9809      	ldr	r0, [sp, #36]	; 0x24
    34ae:	7900      	ldrb	r0, [r0, #4]
    34b0:	0780      	lsls	r0, r0, #30
    34b2:	b138      	cbz	r0, 34c4 <SDIF_ReadDataPort+0x34>
    34b4:	e7ff      	b.n	34b6 <SDIF_ReadDataPort+0x26>
    34b6:	9909      	ldr	r1, [sp, #36]	; 0x24
    34b8:	6848      	ldr	r0, [r1, #4]
    34ba:	f020 0003 	bic.w	r0, r0, #3
    34be:	3004      	adds	r0, #4
    34c0:	6048      	str	r0, [r1, #4]
    34c2:	e7ff      	b.n	34c4 <SDIF_ReadDataPort+0x34>
    34c4:	980b      	ldr	r0, [sp, #44]	; 0x2c
    34c6:	9909      	ldr	r1, [sp, #36]	; 0x24
    34c8:	684a      	ldr	r2, [r1, #4]
    34ca:	6889      	ldr	r1, [r1, #8]
    34cc:	4351      	muls	r1, r2
    34ce:	088a      	lsrs	r2, r1, #2
    34d0:	9207      	str	r2, [sp, #28]
    34d2:	ebb0 0f91 	cmp.w	r0, r1, lsr #2
    34d6:	d303      	bcc.n	34e0 <SDIF_ReadDataPort+0x50>
    34d8:	e7ff      	b.n	34da <SDIF_ReadDataPort+0x4a>
    34da:	9807      	ldr	r0, [sp, #28]
    34dc:	9006      	str	r0, [sp, #24]
    34de:	e016      	b.n	350e <SDIF_ReadDataPort+0x7e>
    34e0:	980b      	ldr	r0, [sp, #44]	; 0x2c
    34e2:	9907      	ldr	r1, [sp, #28]
    34e4:	4288      	cmp	r0, r1
    34e6:	d20a      	bcs.n	34fe <SDIF_ReadDataPort+0x6e>
    34e8:	e7ff      	b.n	34ea <SDIF_ReadDataPort+0x5a>
    34ea:	990b      	ldr	r1, [sp, #44]	; 0x2c
    34ec:	9807      	ldr	r0, [sp, #28]
    34ee:	9a08      	ldr	r2, [sp, #32]
    34f0:	1a80      	subs	r0, r0, r2
    34f2:	4288      	cmp	r0, r1
    34f4:	d303      	bcc.n	34fe <SDIF_ReadDataPort+0x6e>
    34f6:	e7ff      	b.n	34f8 <SDIF_ReadDataPort+0x68>
    34f8:	980b      	ldr	r0, [sp, #44]	; 0x2c
    34fa:	9005      	str	r0, [sp, #20]
    34fc:	e004      	b.n	3508 <SDIF_ReadDataPort+0x78>
    34fe:	9807      	ldr	r0, [sp, #28]
    3500:	9908      	ldr	r1, [sp, #32]
    3502:	1a40      	subs	r0, r0, r1
    3504:	9005      	str	r0, [sp, #20]
    3506:	e7ff      	b.n	3508 <SDIF_ReadDataPort+0x78>
    3508:	9805      	ldr	r0, [sp, #20]
    350a:	9006      	str	r0, [sp, #24]
    350c:	e7ff      	b.n	350e <SDIF_ReadDataPort+0x7e>
    350e:	9908      	ldr	r1, [sp, #32]
    3510:	9806      	ldr	r0, [sp, #24]
    3512:	9002      	str	r0, [sp, #8]
    3514:	2000      	movs	r0, #0
    3516:	9103      	str	r1, [sp, #12]
    3518:	9004      	str	r0, [sp, #16]
    351a:	e7ff      	b.n	351c <SDIF_ReadDataPort+0x8c>
    351c:	9902      	ldr	r1, [sp, #8]
    351e:	9a03      	ldr	r2, [sp, #12]
    3520:	9804      	ldr	r0, [sp, #16]
    3522:	9000      	str	r0, [sp, #0]
    3524:	9201      	str	r2, [sp, #4]
    3526:	4288      	cmp	r0, r1
    3528:	d212      	bcs.n	3550 <SDIF_ReadDataPort+0xc0>
    352a:	e7ff      	b.n	352c <SDIF_ReadDataPort+0x9c>
    352c:	9800      	ldr	r0, [sp, #0]
    352e:	f8dd c004 	ldr.w	ip, [sp, #4]
    3532:	9909      	ldr	r1, [sp, #36]	; 0x24
    3534:	9a0a      	ldr	r2, [sp, #40]	; 0x28
    3536:	eb02 0280 	add.w	r2, r2, r0, lsl #2
    353a:	f8d2 2200 	ldr.w	r2, [r2, #512]	; 0x200
    353e:	68cb      	ldr	r3, [r1, #12]
    3540:	f10c 0101 	add.w	r1, ip, #1
    3544:	f843 202c 	str.w	r2, [r3, ip, lsl #2]
    3548:	3001      	adds	r0, #1
    354a:	9103      	str	r1, [sp, #12]
    354c:	9004      	str	r0, [sp, #16]
    354e:	e7e5      	b.n	351c <SDIF_ReadDataPort+0x8c>
    3550:	9801      	ldr	r0, [sp, #4]
    3552:	900c      	str	r0, [sp, #48]	; 0x30
    3554:	e7ff      	b.n	3556 <SDIF_ReadDataPort+0xc6>
    3556:	980c      	ldr	r0, [sp, #48]	; 0x30
    3558:	b00d      	add	sp, #52	; 0x34
    355a:	4770      	bx	lr

0000355c <SDIF_WriteDataPort>:
    355c:	b08d      	sub	sp, #52	; 0x34
    355e:	9208      	str	r2, [sp, #32]
    3560:	9109      	str	r1, [sp, #36]	; 0x24
    3562:	900a      	str	r0, [sp, #40]	; 0x28
    3564:	6cc1      	ldr	r1, [r0, #76]	; 0x4c
    3566:	f36f 311f 	bfc	r1, #12, #20
    356a:	910b      	str	r1, [sp, #44]	; 0x2c
    356c:	6800      	ldr	r0, [r0, #0]
    356e:	0180      	lsls	r0, r0, #6
    3570:	2800      	cmp	r0, #0
    3572:	920c      	str	r2, [sp, #48]	; 0x30
    3574:	d455      	bmi.n	3622 <SDIF_WriteDataPort+0xc6>
    3576:	e7ff      	b.n	3578 <SDIF_WriteDataPort+0x1c>
    3578:	9809      	ldr	r0, [sp, #36]	; 0x24
    357a:	7900      	ldrb	r0, [r0, #4]
    357c:	0780      	lsls	r0, r0, #30
    357e:	b138      	cbz	r0, 3590 <SDIF_WriteDataPort+0x34>
    3580:	e7ff      	b.n	3582 <SDIF_WriteDataPort+0x26>
    3582:	9909      	ldr	r1, [sp, #36]	; 0x24
    3584:	6848      	ldr	r0, [r1, #4]
    3586:	f020 0003 	bic.w	r0, r0, #3
    358a:	3004      	adds	r0, #4
    358c:	6048      	str	r0, [r1, #4]
    358e:	e7ff      	b.n	3590 <SDIF_WriteDataPort+0x34>
    3590:	980b      	ldr	r0, [sp, #44]	; 0x2c
    3592:	9909      	ldr	r1, [sp, #36]	; 0x24
    3594:	684a      	ldr	r2, [r1, #4]
    3596:	6889      	ldr	r1, [r1, #8]
    3598:	4351      	muls	r1, r2
    359a:	088a      	lsrs	r2, r1, #2
    359c:	9207      	str	r2, [sp, #28]
    359e:	ebb0 0f91 	cmp.w	r0, r1, lsr #2
    35a2:	d303      	bcc.n	35ac <SDIF_WriteDataPort+0x50>
    35a4:	e7ff      	b.n	35a6 <SDIF_WriteDataPort+0x4a>
    35a6:	9807      	ldr	r0, [sp, #28]
    35a8:	9006      	str	r0, [sp, #24]
    35aa:	e016      	b.n	35da <SDIF_WriteDataPort+0x7e>
    35ac:	980b      	ldr	r0, [sp, #44]	; 0x2c
    35ae:	9907      	ldr	r1, [sp, #28]
    35b0:	4288      	cmp	r0, r1
    35b2:	d20a      	bcs.n	35ca <SDIF_WriteDataPort+0x6e>
    35b4:	e7ff      	b.n	35b6 <SDIF_WriteDataPort+0x5a>
    35b6:	990b      	ldr	r1, [sp, #44]	; 0x2c
    35b8:	9807      	ldr	r0, [sp, #28]
    35ba:	9a08      	ldr	r2, [sp, #32]
    35bc:	1a80      	subs	r0, r0, r2
    35be:	4288      	cmp	r0, r1
    35c0:	d303      	bcc.n	35ca <SDIF_WriteDataPort+0x6e>
    35c2:	e7ff      	b.n	35c4 <SDIF_WriteDataPort+0x68>
    35c4:	980b      	ldr	r0, [sp, #44]	; 0x2c
    35c6:	9005      	str	r0, [sp, #20]
    35c8:	e004      	b.n	35d4 <SDIF_WriteDataPort+0x78>
    35ca:	9807      	ldr	r0, [sp, #28]
    35cc:	9908      	ldr	r1, [sp, #32]
    35ce:	1a40      	subs	r0, r0, r1
    35d0:	9005      	str	r0, [sp, #20]
    35d2:	e7ff      	b.n	35d4 <SDIF_WriteDataPort+0x78>
    35d4:	9805      	ldr	r0, [sp, #20]
    35d6:	9006      	str	r0, [sp, #24]
    35d8:	e7ff      	b.n	35da <SDIF_WriteDataPort+0x7e>
    35da:	9908      	ldr	r1, [sp, #32]
    35dc:	9806      	ldr	r0, [sp, #24]
    35de:	9002      	str	r0, [sp, #8]
    35e0:	2000      	movs	r0, #0
    35e2:	9103      	str	r1, [sp, #12]
    35e4:	9004      	str	r0, [sp, #16]
    35e6:	e7ff      	b.n	35e8 <SDIF_WriteDataPort+0x8c>
    35e8:	9902      	ldr	r1, [sp, #8]
    35ea:	9a03      	ldr	r2, [sp, #12]
    35ec:	9804      	ldr	r0, [sp, #16]
    35ee:	9000      	str	r0, [sp, #0]
    35f0:	9201      	str	r2, [sp, #4]
    35f2:	4288      	cmp	r0, r1
    35f4:	d212      	bcs.n	361c <SDIF_WriteDataPort+0xc0>
    35f6:	e7ff      	b.n	35f8 <SDIF_WriteDataPort+0x9c>
    35f8:	9800      	ldr	r0, [sp, #0]
    35fa:	9b0a      	ldr	r3, [sp, #40]	; 0x28
    35fc:	f8dd c004 	ldr.w	ip, [sp, #4]
    3600:	9909      	ldr	r1, [sp, #36]	; 0x24
    3602:	690a      	ldr	r2, [r1, #16]
    3604:	f10c 0101 	add.w	r1, ip, #1
    3608:	f852 202c 	ldr.w	r2, [r2, ip, lsl #2]
    360c:	eb03 0380 	add.w	r3, r3, r0, lsl #2
    3610:	f8c3 2200 	str.w	r2, [r3, #512]	; 0x200
    3614:	3001      	adds	r0, #1
    3616:	9103      	str	r1, [sp, #12]
    3618:	9004      	str	r0, [sp, #16]
    361a:	e7e5      	b.n	35e8 <SDIF_WriteDataPort+0x8c>
    361c:	9801      	ldr	r0, [sp, #4]
    361e:	900c      	str	r0, [sp, #48]	; 0x30
    3620:	e7ff      	b.n	3622 <SDIF_WriteDataPort+0xc6>
    3622:	980c      	ldr	r0, [sp, #48]	; 0x30
    3624:	b00d      	add	sp, #52	; 0x34
    3626:	4770      	bx	lr

00003628 <HAL_UartInit>:
    3628:	b580      	push	{r7, lr}
    362a:	466f      	mov	r7, sp
    362c:	b084      	sub	sp, #16
    362e:	9101      	str	r1, [sp, #4]
    3630:	9002      	str	r0, [sp, #8]
    3632:	f000 f812 	bl	365a <HAL_UartInitCommon>
    3636:	4601      	mov	r1, r0
    3638:	9103      	str	r1, [sp, #12]
    363a:	b118      	cbz	r0, 3644 <HAL_UartInit+0x1c>
    363c:	e7ff      	b.n	363e <HAL_UartInit+0x16>
    363e:	9803      	ldr	r0, [sp, #12]
    3640:	9000      	str	r0, [sp, #0]
    3642:	e006      	b.n	3652 <HAL_UartInit+0x2a>
    3644:	9902      	ldr	r1, [sp, #8]
    3646:	9801      	ldr	r0, [sp, #4]
    3648:	7b80      	ldrb	r0, [r0, #14]
    364a:	7008      	strb	r0, [r1, #0]
    364c:	2000      	movs	r0, #0
    364e:	9000      	str	r0, [sp, #0]
    3650:	e7ff      	b.n	3652 <HAL_UartInit+0x2a>
    3652:	9800      	ldr	r0, [sp, #0]
    3654:	b280      	uxth	r0, r0
    3656:	b004      	add	sp, #16
    3658:	bd80      	pop	{r7, pc}

0000365a <HAL_UartInitCommon>:
    365a:	b580      	push	{r7, lr}
    365c:	466f      	mov	r7, sp
    365e:	b088      	sub	sp, #32
    3660:	9102      	str	r1, [sp, #8]
    3662:	b108      	cbz	r0, 3668 <HAL_UartInitCommon+0xe>
    3664:	e7ff      	b.n	3666 <HAL_UartInitCommon+0xc>
    3666:	e00f      	b.n	3688 <HAL_UartInitCommon+0x2e>
    3668:	f24f 505f 	movw	r0, #62815	; 0xf55f
    366c:	f2c0 0000 	movt	r0, #0
    3670:	f24f 52dc 	movw	r2, #62940	; 0xf5dc
    3674:	f2c0 0200 	movt	r2, #0
    3678:	f64e 5391 	movw	r3, #60817	; 0xed91
    367c:	f2c0 0300 	movt	r3, #0
    3680:	f44f 718c 	mov.w	r1, #280	; 0x118
    3684:	f008 f99a 	bl	b9bc <__assert_func>
    3688:	9802      	ldr	r0, [sp, #8]
    368a:	b108      	cbz	r0, 3690 <HAL_UartInitCommon+0x36>
    368c:	e7ff      	b.n	368e <HAL_UartInitCommon+0x34>
    368e:	e00f      	b.n	36b0 <HAL_UartInitCommon+0x56>
    3690:	f24f 505f 	movw	r0, #62815	; 0xf55f
    3694:	f2c0 0000 	movt	r0, #0
    3698:	f24f 52dc 	movw	r2, #62940	; 0xf5dc
    369c:	f2c0 0200 	movt	r2, #0
    36a0:	f64e 6367 	movw	r3, #61031	; 0xee67
    36a4:	f2c0 0300 	movt	r3, #0
    36a8:	f240 1119 	movw	r1, #281	; 0x119
    36ac:	f008 f986 	bl	b9bc <__assert_func>
    36b0:	9802      	ldr	r0, [sp, #8]
    36b2:	7b80      	ldrb	r0, [r0, #14]
    36b4:	2807      	cmp	r0, #7
    36b6:	d801      	bhi.n	36bc <HAL_UartInitCommon+0x62>
    36b8:	e7ff      	b.n	36ba <HAL_UartInitCommon+0x60>
    36ba:	e00f      	b.n	36dc <HAL_UartInitCommon+0x82>
    36bc:	f24f 505f 	movw	r0, #62815	; 0xf55f
    36c0:	f2c0 0000 	movt	r0, #0
    36c4:	f24f 52dc 	movw	r2, #62940	; 0xf5dc
    36c8:	f2c0 0200 	movt	r2, #0
    36cc:	f24f 53ef 	movw	r3, #62959	; 0xf5ef
    36d0:	f2c0 0300 	movt	r3, #0
    36d4:	f44f 718d 	mov.w	r1, #282	; 0x11a
    36d8:	f008 f970 	bl	b9bc <__assert_func>
    36dc:	9802      	ldr	r0, [sp, #8]
    36de:	7b81      	ldrb	r1, [r0, #14]
    36e0:	f24f 605c 	movw	r0, #63068	; 0xf65c
    36e4:	f2c0 0000 	movt	r0, #0
    36e8:	f850 0021 	ldr.w	r0, [r0, r1, lsl #2]
    36ec:	b108      	cbz	r0, 36f2 <HAL_UartInitCommon+0x98>
    36ee:	e7ff      	b.n	36f0 <HAL_UartInitCommon+0x96>
    36f0:	e00f      	b.n	3712 <HAL_UartInitCommon+0xb8>
    36f2:	f24f 505f 	movw	r0, #62815	; 0xf55f
    36f6:	f2c0 0000 	movt	r0, #0
    36fa:	f24f 52dc 	movw	r2, #62940	; 0xf5dc
    36fe:	f2c0 0200 	movt	r2, #0
    3702:	f24f 6336 	movw	r3, #63030	; 0xf636
    3706:	f2c0 0300 	movt	r3, #0
    370a:	f240 111b 	movw	r1, #283	; 0x11b
    370e:	f008 f955 	bl	b9bc <__assert_func>
    3712:	a803      	add	r0, sp, #12
    3714:	f7fe fa96 	bl	1c44 <USART_GetDefaultConfig>
    3718:	9802      	ldr	r0, [sp, #8]
    371a:	6841      	ldr	r1, [r0, #4]
    371c:	9103      	str	r1, [sp, #12]
    371e:	7b00      	ldrb	r0, [r0, #12]
    3720:	b920      	cbnz	r0, 372c <HAL_UartInitCommon+0xd2>
    3722:	e7ff      	b.n	3724 <HAL_UartInitCommon+0xca>
    3724:	9802      	ldr	r0, [sp, #8]
    3726:	7b40      	ldrb	r0, [r0, #13]
    3728:	b120      	cbz	r0, 3734 <HAL_UartInitCommon+0xda>
    372a:	e7ff      	b.n	372c <HAL_UartInitCommon+0xd2>
    372c:	2001      	movs	r0, #1
    372e:	f88d 0018 	strb.w	r0, [sp, #24]
    3732:	e7ff      	b.n	3734 <HAL_UartInitCommon+0xda>
    3734:	9802      	ldr	r0, [sp, #8]
    3736:	7a00      	ldrb	r0, [r0, #8]
    3738:	2802      	cmp	r0, #2
    373a:	d104      	bne.n	3746 <HAL_UartInitCommon+0xec>
    373c:	e7ff      	b.n	373e <HAL_UartInitCommon+0xe4>
    373e:	2002      	movs	r0, #2
    3740:	f88d 0010 	strb.w	r0, [sp, #16]
    3744:	e00d      	b.n	3762 <HAL_UartInitCommon+0x108>
    3746:	9802      	ldr	r0, [sp, #8]
    3748:	7a00      	ldrb	r0, [r0, #8]
    374a:	2803      	cmp	r0, #3
    374c:	d104      	bne.n	3758 <HAL_UartInitCommon+0xfe>
    374e:	e7ff      	b.n	3750 <HAL_UartInitCommon+0xf6>
    3750:	2003      	movs	r0, #3
    3752:	f88d 0010 	strb.w	r0, [sp, #16]
    3756:	e003      	b.n	3760 <HAL_UartInitCommon+0x106>
    3758:	2000      	movs	r0, #0
    375a:	f88d 0010 	strb.w	r0, [sp, #16]
    375e:	e7ff      	b.n	3760 <HAL_UartInitCommon+0x106>
    3760:	e7ff      	b.n	3762 <HAL_UartInitCommon+0x108>
    3762:	9802      	ldr	r0, [sp, #8]
    3764:	7a40      	ldrb	r0, [r0, #9]
    3766:	2801      	cmp	r0, #1
    3768:	d104      	bne.n	3774 <HAL_UartInitCommon+0x11a>
    376a:	e7ff      	b.n	376c <HAL_UartInitCommon+0x112>
    376c:	2001      	movs	r0, #1
    376e:	f88d 0011 	strb.w	r0, [sp, #17]
    3772:	e003      	b.n	377c <HAL_UartInitCommon+0x122>
    3774:	2000      	movs	r0, #0
    3776:	f88d 0011 	strb.w	r0, [sp, #17]
    377a:	e7ff      	b.n	377c <HAL_UartInitCommon+0x122>
    377c:	9902      	ldr	r1, [sp, #8]
    377e:	7a88      	ldrb	r0, [r1, #10]
    3780:	2800      	cmp	r0, #0
    3782:	bf18      	it	ne
    3784:	2001      	movne	r0, #1
    3786:	f88d 0014 	strb.w	r0, [sp, #20]
    378a:	7ac8      	ldrb	r0, [r1, #11]
    378c:	2800      	cmp	r0, #0
    378e:	bf18      	it	ne
    3790:	2001      	movne	r0, #1
    3792:	f88d 0015 	strb.w	r0, [sp, #21]
    3796:	2000      	movs	r0, #0
    3798:	f88d 0019 	strb.w	r0, [sp, #25]
    379c:	f88d 001a 	strb.w	r0, [sp, #26]
    37a0:	7b8a      	ldrb	r2, [r1, #14]
    37a2:	f24f 605c 	movw	r0, #63068	; 0xf65c
    37a6:	f2c0 0000 	movt	r0, #0
    37aa:	f850 0022 	ldr.w	r0, [r0, r2, lsl #2]
    37ae:	680a      	ldr	r2, [r1, #0]
    37b0:	a903      	add	r1, sp, #12
    37b2:	f7fe f857 	bl	1864 <USART_Init>
    37b6:	4601      	mov	r1, r0
    37b8:	9101      	str	r1, [sp, #4]
    37ba:	b128      	cbz	r0, 37c8 <HAL_UartInitCommon+0x16e>
    37bc:	e7ff      	b.n	37be <HAL_UartInitCommon+0x164>
    37be:	9801      	ldr	r0, [sp, #4]
    37c0:	f000 f85a 	bl	3878 <HAL_UartGetStatus>
    37c4:	9000      	str	r0, [sp, #0]
    37c6:	e002      	b.n	37ce <HAL_UartInitCommon+0x174>
    37c8:	2000      	movs	r0, #0
    37ca:	9000      	str	r0, [sp, #0]
    37cc:	e7ff      	b.n	37ce <HAL_UartInitCommon+0x174>
    37ce:	9800      	ldr	r0, [sp, #0]
    37d0:	b280      	uxth	r0, r0
    37d2:	b008      	add	sp, #32
    37d4:	bd80      	pop	{r7, pc}

000037d6 <HAL_UartReceiveBlocking>:
    37d6:	b580      	push	{r7, lr}
    37d8:	466f      	mov	r7, sp
    37da:	b084      	sub	sp, #16
    37dc:	9201      	str	r2, [sp, #4]
    37de:	9102      	str	r1, [sp, #8]
    37e0:	9003      	str	r0, [sp, #12]
    37e2:	b108      	cbz	r0, 37e8 <HAL_UartReceiveBlocking+0x12>
    37e4:	e7ff      	b.n	37e6 <HAL_UartReceiveBlocking+0x10>
    37e6:	e00f      	b.n	3808 <HAL_UartReceiveBlocking+0x32>
    37e8:	f24f 505f 	movw	r0, #62815	; 0xf55f
    37ec:	f2c0 0000 	movt	r0, #0
    37f0:	f24f 5292 	movw	r2, #62866	; 0xf592
    37f4:	f2c0 0200 	movt	r2, #0
    37f8:	f64e 5391 	movw	r3, #60817	; 0xed91
    37fc:	f2c0 0300 	movt	r3, #0
    3800:	f240 1181 	movw	r1, #385	; 0x181
    3804:	f008 f8da 	bl	b9bc <__assert_func>
    3808:	9802      	ldr	r0, [sp, #8]
    380a:	b108      	cbz	r0, 3810 <HAL_UartReceiveBlocking+0x3a>
    380c:	e7ff      	b.n	380e <HAL_UartReceiveBlocking+0x38>
    380e:	e00f      	b.n	3830 <HAL_UartReceiveBlocking+0x5a>
    3810:	f24f 505f 	movw	r0, #62815	; 0xf55f
    3814:	f2c0 0000 	movt	r0, #0
    3818:	f24f 5292 	movw	r2, #62866	; 0xf592
    381c:	f2c0 0200 	movt	r2, #0
    3820:	f24f 33be 	movw	r3, #62398	; 0xf3be
    3824:	f2c0 0300 	movt	r3, #0
    3828:	f44f 71c1 	mov.w	r1, #386	; 0x182
    382c:	f008 f8c6 	bl	b9bc <__assert_func>
    3830:	9801      	ldr	r0, [sp, #4]
    3832:	b108      	cbz	r0, 3838 <HAL_UartReceiveBlocking+0x62>
    3834:	e7ff      	b.n	3836 <HAL_UartReceiveBlocking+0x60>
    3836:	e00f      	b.n	3858 <HAL_UartReceiveBlocking+0x82>
    3838:	f24f 505f 	movw	r0, #62815	; 0xf55f
    383c:	f2c0 0000 	movt	r0, #0
    3840:	f24f 5292 	movw	r2, #62866	; 0xf592
    3844:	f2c0 0200 	movt	r2, #0
    3848:	f24f 53aa 	movw	r3, #62890	; 0xf5aa
    384c:	f2c0 0300 	movt	r3, #0
    3850:	f240 1183 	movw	r1, #387	; 0x183
    3854:	f008 f8b2 	bl	b9bc <__assert_func>
    3858:	9a01      	ldr	r2, [sp, #4]
    385a:	9902      	ldr	r1, [sp, #8]
    385c:	9803      	ldr	r0, [sp, #12]
    385e:	7803      	ldrb	r3, [r0, #0]
    3860:	f24f 605c 	movw	r0, #63068	; 0xf65c
    3864:	f2c0 0000 	movt	r0, #0
    3868:	f850 0023 	ldr.w	r0, [r0, r3, lsl #2]
    386c:	f7fe fa7a 	bl	1d64 <USART_ReadBlocking>
    3870:	f000 f802 	bl	3878 <HAL_UartGetStatus>
    3874:	b004      	add	sp, #16
    3876:	bd80      	pop	{r7, pc}

00003878 <HAL_UartGetStatus>:
    3878:	b081      	sub	sp, #4
    387a:	b918      	cbnz	r0, 3884 <HAL_UartGetStatus+0xc>
    387c:	e7ff      	b.n	387e <HAL_UartGetStatus+0x6>
    387e:	2000      	movs	r0, #0
    3880:	9000      	str	r0, [sp, #0]
